ARM GAS  C:\Users\JohnP\AppData\Local\Temp\ccWhWnfh.s 			page 1


   1              		.syntax unified
   2              		.cpu cortex-m3
   3              		.fpu softvfp
   4              		.eabi_attribute 20, 1
   5              		.eabi_attribute 21, 1
   6              		.eabi_attribute 23, 3
   7              		.eabi_attribute 24, 1
   8              		.eabi_attribute 25, 1
   9              		.eabi_attribute 26, 1
  10              		.eabi_attribute 30, 1
  11              		.eabi_attribute 34, 1
  12              		.eabi_attribute 18, 4
  13              		.thumb
  14              		.file	"CapSense_1_CompCH0.c"
  15              		.text
  16              	.Ltext0:
  17              		.cfi_sections	.debug_frame
  18              		.section	.text.CapSense_1_CompCH0_trimAdjust,"ax",%progbits
  19              		.align	2
  20              		.thumb
  21              		.thumb_func
  22              		.type	CapSense_1_CompCH0_trimAdjust, %function
  23              	CapSense_1_CompCH0_trimAdjust:
  24              	.LFB6:
  25              		.file 1 ".\\Generated_Source\\PSoC5\\CapSense_1_CompCH0.c"
   1:.\Generated_Source\PSoC5/CapSense_1_CompCH0.c **** /*******************************************************************************
   2:.\Generated_Source\PSoC5/CapSense_1_CompCH0.c **** * File Name: CapSense_1_CompCH0.c
   3:.\Generated_Source\PSoC5/CapSense_1_CompCH0.c **** * Version 2.0
   4:.\Generated_Source\PSoC5/CapSense_1_CompCH0.c **** *
   5:.\Generated_Source\PSoC5/CapSense_1_CompCH0.c **** * Description:
   6:.\Generated_Source\PSoC5/CapSense_1_CompCH0.c **** *  This file provides the source code to the API for the Comparator component
   7:.\Generated_Source\PSoC5/CapSense_1_CompCH0.c **** *
   8:.\Generated_Source\PSoC5/CapSense_1_CompCH0.c **** * Note:
   9:.\Generated_Source\PSoC5/CapSense_1_CompCH0.c **** *  None
  10:.\Generated_Source\PSoC5/CapSense_1_CompCH0.c **** *
  11:.\Generated_Source\PSoC5/CapSense_1_CompCH0.c **** ********************************************************************************
  12:.\Generated_Source\PSoC5/CapSense_1_CompCH0.c **** * Copyright 2008-2012, Cypress Semiconductor Corporation.  All rights reserved.
  13:.\Generated_Source\PSoC5/CapSense_1_CompCH0.c **** * You may use this file only in accordance with the license, terms, conditions, 
  14:.\Generated_Source\PSoC5/CapSense_1_CompCH0.c **** * disclaimers, and limitations in the end user license agreement accompanying 
  15:.\Generated_Source\PSoC5/CapSense_1_CompCH0.c **** * the software package with which this file was provided.
  16:.\Generated_Source\PSoC5/CapSense_1_CompCH0.c **** *******************************************************************************/
  17:.\Generated_Source\PSoC5/CapSense_1_CompCH0.c **** 
  18:.\Generated_Source\PSoC5/CapSense_1_CompCH0.c **** #include "CapSense_1_CompCH0.h"
  19:.\Generated_Source\PSoC5/CapSense_1_CompCH0.c **** 
  20:.\Generated_Source\PSoC5/CapSense_1_CompCH0.c **** uint8 CapSense_1_CompCH0_initVar = 0u;
  21:.\Generated_Source\PSoC5/CapSense_1_CompCH0.c **** 
  22:.\Generated_Source\PSoC5/CapSense_1_CompCH0.c **** /* Internal functions definitoin */
  23:.\Generated_Source\PSoC5/CapSense_1_CompCH0.c **** static void CapSense_1_CompCH0_trimAdjust(uint8 nibble) ;
  24:.\Generated_Source\PSoC5/CapSense_1_CompCH0.c **** 
  25:.\Generated_Source\PSoC5/CapSense_1_CompCH0.c **** /* static CapSense_1_CompCH0_backupStruct  CapSense_1_CompCH0_backup; */
  26:.\Generated_Source\PSoC5/CapSense_1_CompCH0.c **** #if (CY_PSOC5A)
  27:.\Generated_Source\PSoC5/CapSense_1_CompCH0.c ****     static CapSense_1_CompCH0_LOWPOWER_BACKUP_STRUCT  CapSense_1_CompCH0_lowPowerBackup;
  28:.\Generated_Source\PSoC5/CapSense_1_CompCH0.c **** #endif /* CY_PSOC5A */
  29:.\Generated_Source\PSoC5/CapSense_1_CompCH0.c **** 
  30:.\Generated_Source\PSoC5/CapSense_1_CompCH0.c **** /* variable to decide whether or not to restore the control register in 
  31:.\Generated_Source\PSoC5/CapSense_1_CompCH0.c ****    Enable() API for PSoC5A only */
  32:.\Generated_Source\PSoC5/CapSense_1_CompCH0.c **** #if (CY_PSOC5A)
ARM GAS  C:\Users\JohnP\AppData\Local\Temp\ccWhWnfh.s 			page 2


  33:.\Generated_Source\PSoC5/CapSense_1_CompCH0.c ****     static uint8 CapSense_1_CompCH0_restoreReg = 0u;
  34:.\Generated_Source\PSoC5/CapSense_1_CompCH0.c **** #endif /* CY_PSOC5A */
  35:.\Generated_Source\PSoC5/CapSense_1_CompCH0.c **** 
  36:.\Generated_Source\PSoC5/CapSense_1_CompCH0.c **** 
  37:.\Generated_Source\PSoC5/CapSense_1_CompCH0.c **** /*******************************************************************************
  38:.\Generated_Source\PSoC5/CapSense_1_CompCH0.c **** * Function Name: CapSense_1_CompCH0_Init
  39:.\Generated_Source\PSoC5/CapSense_1_CompCH0.c **** ********************************************************************************
  40:.\Generated_Source\PSoC5/CapSense_1_CompCH0.c **** *
  41:.\Generated_Source\PSoC5/CapSense_1_CompCH0.c **** * Summary:
  42:.\Generated_Source\PSoC5/CapSense_1_CompCH0.c **** *  Initialize to the schematic state
  43:.\Generated_Source\PSoC5/CapSense_1_CompCH0.c **** * 
  44:.\Generated_Source\PSoC5/CapSense_1_CompCH0.c **** * Parameters:
  45:.\Generated_Source\PSoC5/CapSense_1_CompCH0.c **** *  void
  46:.\Generated_Source\PSoC5/CapSense_1_CompCH0.c **** *
  47:.\Generated_Source\PSoC5/CapSense_1_CompCH0.c **** * Return:
  48:.\Generated_Source\PSoC5/CapSense_1_CompCH0.c **** *  void
  49:.\Generated_Source\PSoC5/CapSense_1_CompCH0.c **** *
  50:.\Generated_Source\PSoC5/CapSense_1_CompCH0.c **** *******************************************************************************/
  51:.\Generated_Source\PSoC5/CapSense_1_CompCH0.c **** void CapSense_1_CompCH0_Init(void) 
  52:.\Generated_Source\PSoC5/CapSense_1_CompCH0.c **** {
  53:.\Generated_Source\PSoC5/CapSense_1_CompCH0.c ****     /* Set default speed/power */
  54:.\Generated_Source\PSoC5/CapSense_1_CompCH0.c ****     CapSense_1_CompCH0_SetSpeed(CapSense_1_CompCH0_DEFAULT_SPEED);
  55:.\Generated_Source\PSoC5/CapSense_1_CompCH0.c **** 
  56:.\Generated_Source\PSoC5/CapSense_1_CompCH0.c ****     /* Set default Hysteresis */
  57:.\Generated_Source\PSoC5/CapSense_1_CompCH0.c ****     #if ( CapSense_1_CompCH0_DEFAULT_HYSTERESIS == 0u )
  58:.\Generated_Source\PSoC5/CapSense_1_CompCH0.c ****         CapSense_1_CompCH0_CR |= CapSense_1_CompCH0_HYST_OFF;
  59:.\Generated_Source\PSoC5/CapSense_1_CompCH0.c ****     #else
  60:.\Generated_Source\PSoC5/CapSense_1_CompCH0.c ****         CapSense_1_CompCH0_CR &= (uint8)(~CapSense_1_CompCH0_HYST_OFF);
  61:.\Generated_Source\PSoC5/CapSense_1_CompCH0.c ****     #endif /* CapSense_1_CompCH0_DEFAULT_HYSTERESIS == 0u */
  62:.\Generated_Source\PSoC5/CapSense_1_CompCH0.c ****     /* Power down override feature is not supported for PSoC5A. */
  63:.\Generated_Source\PSoC5/CapSense_1_CompCH0.c ****     #if (CY_PSOC3 || CY_PSOC5LP)
  64:.\Generated_Source\PSoC5/CapSense_1_CompCH0.c ****         /* Set default Power Down Override */
  65:.\Generated_Source\PSoC5/CapSense_1_CompCH0.c ****         #if ( CapSense_1_CompCH0_DEFAULT_PWRDWN_OVRD == 0u )
  66:.\Generated_Source\PSoC5/CapSense_1_CompCH0.c ****             CapSense_1_CompCH0_CR &= (uint8)(~CapSense_1_CompCH0_PWRDWN_OVRD);
  67:.\Generated_Source\PSoC5/CapSense_1_CompCH0.c ****         #else 
  68:.\Generated_Source\PSoC5/CapSense_1_CompCH0.c ****             CapSense_1_CompCH0_CR |= CapSense_1_CompCH0_PWRDWN_OVRD;
  69:.\Generated_Source\PSoC5/CapSense_1_CompCH0.c ****         #endif /* CapSense_1_CompCH0_DEFAULT_PWRDWN_OVRD == 0u */
  70:.\Generated_Source\PSoC5/CapSense_1_CompCH0.c ****     #endif /* CY_PSOC3 || CY_PSOC5LP */
  71:.\Generated_Source\PSoC5/CapSense_1_CompCH0.c ****     
  72:.\Generated_Source\PSoC5/CapSense_1_CompCH0.c ****     /* Set mux always on logic */
  73:.\Generated_Source\PSoC5/CapSense_1_CompCH0.c ****     CapSense_1_CompCH0_CR |= CapSense_1_CompCH0_MX_AO;
  74:.\Generated_Source\PSoC5/CapSense_1_CompCH0.c **** 
  75:.\Generated_Source\PSoC5/CapSense_1_CompCH0.c ****     /* Set default sync */
  76:.\Generated_Source\PSoC5/CapSense_1_CompCH0.c ****     CapSense_1_CompCH0_CLK &= (uint8)(~CapSense_1_CompCH0_SYNCCLK_MASK);
  77:.\Generated_Source\PSoC5/CapSense_1_CompCH0.c ****     #if ( CapSense_1_CompCH0_DEFAULT_BYPASS_SYNC == 0u )
  78:.\Generated_Source\PSoC5/CapSense_1_CompCH0.c ****         CapSense_1_CompCH0_CLK |= CapSense_1_CompCH0_SYNC_CLK_EN;
  79:.\Generated_Source\PSoC5/CapSense_1_CompCH0.c ****     #else
  80:.\Generated_Source\PSoC5/CapSense_1_CompCH0.c ****         CapSense_1_CompCH0_CLK |= CapSense_1_CompCH0_BYPASS_SYNC;
  81:.\Generated_Source\PSoC5/CapSense_1_CompCH0.c ****     #endif /* CapSense_1_CompCH0_DEFAULT_BYPASS_SYNC == 0u */
  82:.\Generated_Source\PSoC5/CapSense_1_CompCH0.c **** }
  83:.\Generated_Source\PSoC5/CapSense_1_CompCH0.c **** 
  84:.\Generated_Source\PSoC5/CapSense_1_CompCH0.c **** 
  85:.\Generated_Source\PSoC5/CapSense_1_CompCH0.c **** /*******************************************************************************
  86:.\Generated_Source\PSoC5/CapSense_1_CompCH0.c **** * Function Name: CapSense_1_CompCH0_Enable
  87:.\Generated_Source\PSoC5/CapSense_1_CompCH0.c **** ********************************************************************************
  88:.\Generated_Source\PSoC5/CapSense_1_CompCH0.c **** *
  89:.\Generated_Source\PSoC5/CapSense_1_CompCH0.c **** * Summary:
ARM GAS  C:\Users\JohnP\AppData\Local\Temp\ccWhWnfh.s 			page 3


  90:.\Generated_Source\PSoC5/CapSense_1_CompCH0.c **** *  Enable the Comparator
  91:.\Generated_Source\PSoC5/CapSense_1_CompCH0.c **** * 
  92:.\Generated_Source\PSoC5/CapSense_1_CompCH0.c **** * Parameters:
  93:.\Generated_Source\PSoC5/CapSense_1_CompCH0.c **** *  void
  94:.\Generated_Source\PSoC5/CapSense_1_CompCH0.c **** *
  95:.\Generated_Source\PSoC5/CapSense_1_CompCH0.c **** * Return:
  96:.\Generated_Source\PSoC5/CapSense_1_CompCH0.c **** *  void
  97:.\Generated_Source\PSoC5/CapSense_1_CompCH0.c **** *
  98:.\Generated_Source\PSoC5/CapSense_1_CompCH0.c **** *******************************************************************************/
  99:.\Generated_Source\PSoC5/CapSense_1_CompCH0.c **** void CapSense_1_CompCH0_Enable(void) 
 100:.\Generated_Source\PSoC5/CapSense_1_CompCH0.c **** {
 101:.\Generated_Source\PSoC5/CapSense_1_CompCH0.c ****     CapSense_1_CompCH0_PWRMGR |= CapSense_1_CompCH0_ACT_PWR_EN;
 102:.\Generated_Source\PSoC5/CapSense_1_CompCH0.c ****     CapSense_1_CompCH0_STBY_PWRMGR |= CapSense_1_CompCH0_STBY_PWR_EN;
 103:.\Generated_Source\PSoC5/CapSense_1_CompCH0.c ****      
 104:.\Generated_Source\PSoC5/CapSense_1_CompCH0.c ****      /* This is to restore the value of register CR which is saved 
 105:.\Generated_Source\PSoC5/CapSense_1_CompCH0.c ****     in prior to the modification in stop() API */
 106:.\Generated_Source\PSoC5/CapSense_1_CompCH0.c ****     #if (CY_PSOC5A)
 107:.\Generated_Source\PSoC5/CapSense_1_CompCH0.c ****         if(CapSense_1_CompCH0_restoreReg == 1u)
 108:.\Generated_Source\PSoC5/CapSense_1_CompCH0.c ****         {
 109:.\Generated_Source\PSoC5/CapSense_1_CompCH0.c ****             CapSense_1_CompCH0_CR = CapSense_1_CompCH0_lowPowerBackup.compCRReg;
 110:.\Generated_Source\PSoC5/CapSense_1_CompCH0.c **** 
 111:.\Generated_Source\PSoC5/CapSense_1_CompCH0.c ****             /* Clear the flag */
 112:.\Generated_Source\PSoC5/CapSense_1_CompCH0.c ****             CapSense_1_CompCH0_restoreReg = 0u;
 113:.\Generated_Source\PSoC5/CapSense_1_CompCH0.c ****         }
 114:.\Generated_Source\PSoC5/CapSense_1_CompCH0.c ****     #endif /* CY_PSOC5A */
 115:.\Generated_Source\PSoC5/CapSense_1_CompCH0.c **** }
 116:.\Generated_Source\PSoC5/CapSense_1_CompCH0.c **** 
 117:.\Generated_Source\PSoC5/CapSense_1_CompCH0.c **** 
 118:.\Generated_Source\PSoC5/CapSense_1_CompCH0.c **** /*******************************************************************************
 119:.\Generated_Source\PSoC5/CapSense_1_CompCH0.c **** * Function Name: CapSense_1_CompCH0_Start
 120:.\Generated_Source\PSoC5/CapSense_1_CompCH0.c **** ********************************************************************************
 121:.\Generated_Source\PSoC5/CapSense_1_CompCH0.c **** *
 122:.\Generated_Source\PSoC5/CapSense_1_CompCH0.c **** * Summary:
 123:.\Generated_Source\PSoC5/CapSense_1_CompCH0.c **** *  The start function initializes the Analog Comparator with the default values.
 124:.\Generated_Source\PSoC5/CapSense_1_CompCH0.c **** *
 125:.\Generated_Source\PSoC5/CapSense_1_CompCH0.c **** * Parameters:
 126:.\Generated_Source\PSoC5/CapSense_1_CompCH0.c **** *  void
 127:.\Generated_Source\PSoC5/CapSense_1_CompCH0.c **** *
 128:.\Generated_Source\PSoC5/CapSense_1_CompCH0.c **** * Return:
 129:.\Generated_Source\PSoC5/CapSense_1_CompCH0.c **** *  void 
 130:.\Generated_Source\PSoC5/CapSense_1_CompCH0.c **** *
 131:.\Generated_Source\PSoC5/CapSense_1_CompCH0.c **** * Global variables:
 132:.\Generated_Source\PSoC5/CapSense_1_CompCH0.c **** *  CapSense_1_CompCH0_initVar: Is modified when this function is called for the 
 133:.\Generated_Source\PSoC5/CapSense_1_CompCH0.c **** *   first time. Is used to ensure that initialization happens only once.
 134:.\Generated_Source\PSoC5/CapSense_1_CompCH0.c **** *  
 135:.\Generated_Source\PSoC5/CapSense_1_CompCH0.c **** *******************************************************************************/
 136:.\Generated_Source\PSoC5/CapSense_1_CompCH0.c **** void CapSense_1_CompCH0_Start(void) 
 137:.\Generated_Source\PSoC5/CapSense_1_CompCH0.c **** {
 138:.\Generated_Source\PSoC5/CapSense_1_CompCH0.c **** 
 139:.\Generated_Source\PSoC5/CapSense_1_CompCH0.c ****     if ( CapSense_1_CompCH0_initVar == 0u )
 140:.\Generated_Source\PSoC5/CapSense_1_CompCH0.c ****     {
 141:.\Generated_Source\PSoC5/CapSense_1_CompCH0.c ****         CapSense_1_CompCH0_Init();
 142:.\Generated_Source\PSoC5/CapSense_1_CompCH0.c ****         
 143:.\Generated_Source\PSoC5/CapSense_1_CompCH0.c ****         CapSense_1_CompCH0_initVar = 1u;
 144:.\Generated_Source\PSoC5/CapSense_1_CompCH0.c ****     }   
 145:.\Generated_Source\PSoC5/CapSense_1_CompCH0.c **** 
 146:.\Generated_Source\PSoC5/CapSense_1_CompCH0.c ****     /* Enable power to comparator */
ARM GAS  C:\Users\JohnP\AppData\Local\Temp\ccWhWnfh.s 			page 4


 147:.\Generated_Source\PSoC5/CapSense_1_CompCH0.c ****     CapSense_1_CompCH0_Enable();    
 148:.\Generated_Source\PSoC5/CapSense_1_CompCH0.c **** }
 149:.\Generated_Source\PSoC5/CapSense_1_CompCH0.c **** 
 150:.\Generated_Source\PSoC5/CapSense_1_CompCH0.c **** 
 151:.\Generated_Source\PSoC5/CapSense_1_CompCH0.c **** /*******************************************************************************
 152:.\Generated_Source\PSoC5/CapSense_1_CompCH0.c **** * Function Name: CapSense_1_CompCH0_Stop
 153:.\Generated_Source\PSoC5/CapSense_1_CompCH0.c **** ********************************************************************************
 154:.\Generated_Source\PSoC5/CapSense_1_CompCH0.c **** *
 155:.\Generated_Source\PSoC5/CapSense_1_CompCH0.c **** * Summary:
 156:.\Generated_Source\PSoC5/CapSense_1_CompCH0.c **** *  Powers down amplifier to lowest power state.
 157:.\Generated_Source\PSoC5/CapSense_1_CompCH0.c **** *
 158:.\Generated_Source\PSoC5/CapSense_1_CompCH0.c **** * Parameters:
 159:.\Generated_Source\PSoC5/CapSense_1_CompCH0.c **** *  void
 160:.\Generated_Source\PSoC5/CapSense_1_CompCH0.c **** *
 161:.\Generated_Source\PSoC5/CapSense_1_CompCH0.c **** * Return:
 162:.\Generated_Source\PSoC5/CapSense_1_CompCH0.c **** *  void
 163:.\Generated_Source\PSoC5/CapSense_1_CompCH0.c **** *
 164:.\Generated_Source\PSoC5/CapSense_1_CompCH0.c **** *******************************************************************************/
 165:.\Generated_Source\PSoC5/CapSense_1_CompCH0.c **** void CapSense_1_CompCH0_Stop(void) 
 166:.\Generated_Source\PSoC5/CapSense_1_CompCH0.c **** {
 167:.\Generated_Source\PSoC5/CapSense_1_CompCH0.c ****     /* Disable power to comparator */
 168:.\Generated_Source\PSoC5/CapSense_1_CompCH0.c ****     CapSense_1_CompCH0_PWRMGR &= (uint8)(~CapSense_1_CompCH0_ACT_PWR_EN);
 169:.\Generated_Source\PSoC5/CapSense_1_CompCH0.c ****     CapSense_1_CompCH0_STBY_PWRMGR &= (uint8)(~CapSense_1_CompCH0_STBY_PWR_EN);
 170:.\Generated_Source\PSoC5/CapSense_1_CompCH0.c ****     
 171:.\Generated_Source\PSoC5/CapSense_1_CompCH0.c ****     #if (CY_PSOC5A)
 172:.\Generated_Source\PSoC5/CapSense_1_CompCH0.c ****         /* Enable the variable */
 173:.\Generated_Source\PSoC5/CapSense_1_CompCH0.c ****         CapSense_1_CompCH0_restoreReg = 1u;
 174:.\Generated_Source\PSoC5/CapSense_1_CompCH0.c **** 
 175:.\Generated_Source\PSoC5/CapSense_1_CompCH0.c ****         /* Save the control register before clearing it */
 176:.\Generated_Source\PSoC5/CapSense_1_CompCH0.c ****         CapSense_1_CompCH0_lowPowerBackup.compCRReg = CapSense_1_CompCH0_CR;
 177:.\Generated_Source\PSoC5/CapSense_1_CompCH0.c ****         CapSense_1_CompCH0_CR = CapSense_1_CompCH0_COMP_REG_CLR;
 178:.\Generated_Source\PSoC5/CapSense_1_CompCH0.c ****     #endif /* CY_PSOC5A */
 179:.\Generated_Source\PSoC5/CapSense_1_CompCH0.c **** }
 180:.\Generated_Source\PSoC5/CapSense_1_CompCH0.c **** 
 181:.\Generated_Source\PSoC5/CapSense_1_CompCH0.c **** 
 182:.\Generated_Source\PSoC5/CapSense_1_CompCH0.c **** /*******************************************************************************
 183:.\Generated_Source\PSoC5/CapSense_1_CompCH0.c **** * Function Name: CapSense_1_CompCH0_SetSpeed
 184:.\Generated_Source\PSoC5/CapSense_1_CompCH0.c **** ********************************************************************************
 185:.\Generated_Source\PSoC5/CapSense_1_CompCH0.c **** *
 186:.\Generated_Source\PSoC5/CapSense_1_CompCH0.c **** * Summary:
 187:.\Generated_Source\PSoC5/CapSense_1_CompCH0.c **** *  This function sets the speed of the Analog Comparator. The faster the speed
 188:.\Generated_Source\PSoC5/CapSense_1_CompCH0.c **** *  the more power that is used.
 189:.\Generated_Source\PSoC5/CapSense_1_CompCH0.c **** *
 190:.\Generated_Source\PSoC5/CapSense_1_CompCH0.c **** * Parameters:
 191:.\Generated_Source\PSoC5/CapSense_1_CompCH0.c **** *  speed: (uint8) Sets operation mode of Comparator
 192:.\Generated_Source\PSoC5/CapSense_1_CompCH0.c **** *
 193:.\Generated_Source\PSoC5/CapSense_1_CompCH0.c **** * Return:
 194:.\Generated_Source\PSoC5/CapSense_1_CompCH0.c **** *  void
 195:.\Generated_Source\PSoC5/CapSense_1_CompCH0.c **** *
 196:.\Generated_Source\PSoC5/CapSense_1_CompCH0.c **** *******************************************************************************/
 197:.\Generated_Source\PSoC5/CapSense_1_CompCH0.c **** void CapSense_1_CompCH0_SetSpeed(uint8 speed) 
 198:.\Generated_Source\PSoC5/CapSense_1_CompCH0.c **** {
 199:.\Generated_Source\PSoC5/CapSense_1_CompCH0.c ****     /* Clear and Set power level */    
 200:.\Generated_Source\PSoC5/CapSense_1_CompCH0.c ****     CapSense_1_CompCH0_CR = (CapSense_1_CompCH0_CR & (uint8)(~CapSense_1_CompCH0_PWR_MODE_MASK)) |
 201:.\Generated_Source\PSoC5/CapSense_1_CompCH0.c ****                            (speed & CapSense_1_CompCH0_PWR_MODE_MASK);
 202:.\Generated_Source\PSoC5/CapSense_1_CompCH0.c **** 
 203:.\Generated_Source\PSoC5/CapSense_1_CompCH0.c ****     /* Set trim value for high speed comparator */
ARM GAS  C:\Users\JohnP\AppData\Local\Temp\ccWhWnfh.s 			page 5


 204:.\Generated_Source\PSoC5/CapSense_1_CompCH0.c ****     if(speed == CapSense_1_CompCH0_HIGHSPEED)
 205:.\Generated_Source\PSoC5/CapSense_1_CompCH0.c ****     {
 206:.\Generated_Source\PSoC5/CapSense_1_CompCH0.c ****         /* PSoC5A */
 207:.\Generated_Source\PSoC5/CapSense_1_CompCH0.c ****         #if (CY_PSOC5A)
 208:.\Generated_Source\PSoC5/CapSense_1_CompCH0.c ****             CapSense_1_CompCH0_TR = CapSense_1_CompCH0_HS_TRIM_TR0;
 209:.\Generated_Source\PSoC5/CapSense_1_CompCH0.c ****         #endif /* CY_PSOC5A */
 210:.\Generated_Source\PSoC5/CapSense_1_CompCH0.c ****         
 211:.\Generated_Source\PSoC5/CapSense_1_CompCH0.c ****         /* PSoC3, PSoC5LP or later */
 212:.\Generated_Source\PSoC5/CapSense_1_CompCH0.c ****         #if (CY_PSOC3 || CY_PSOC5LP) 
 213:.\Generated_Source\PSoC5/CapSense_1_CompCH0.c ****             CapSense_1_CompCH0_TR0 = CapSense_1_CompCH0_HS_TRIM_TR0;
 214:.\Generated_Source\PSoC5/CapSense_1_CompCH0.c ****             CapSense_1_CompCH0_TR1 = CapSense_1_CompCH0_HS_TRIM_TR1;
 215:.\Generated_Source\PSoC5/CapSense_1_CompCH0.c ****         #endif /* CY_PSOC3 || CY_PSOC5LP */
 216:.\Generated_Source\PSoC5/CapSense_1_CompCH0.c ****     }
 217:.\Generated_Source\PSoC5/CapSense_1_CompCH0.c ****     else
 218:.\Generated_Source\PSoC5/CapSense_1_CompCH0.c ****     {
 219:.\Generated_Source\PSoC5/CapSense_1_CompCH0.c ****     /* PSoC5A */
 220:.\Generated_Source\PSoC5/CapSense_1_CompCH0.c ****         #if (CY_PSOC5A)
 221:.\Generated_Source\PSoC5/CapSense_1_CompCH0.c ****             CapSense_1_CompCH0_TR = CapSense_1_CompCH0_LS_TRIM_TR0;
 222:.\Generated_Source\PSoC5/CapSense_1_CompCH0.c ****         #endif /* CY_PSOC5A */
 223:.\Generated_Source\PSoC5/CapSense_1_CompCH0.c ****         
 224:.\Generated_Source\PSoC5/CapSense_1_CompCH0.c ****         /* PSoC3, PSoC5LP or later */
 225:.\Generated_Source\PSoC5/CapSense_1_CompCH0.c ****         #if (CY_PSOC3 || CY_PSOC5LP) 
 226:.\Generated_Source\PSoC5/CapSense_1_CompCH0.c ****             CapSense_1_CompCH0_TR0 = CapSense_1_CompCH0_LS_TRIM_TR0;
 227:.\Generated_Source\PSoC5/CapSense_1_CompCH0.c ****             CapSense_1_CompCH0_TR1 = CapSense_1_CompCH0_LS_TRIM_TR1;
 228:.\Generated_Source\PSoC5/CapSense_1_CompCH0.c ****         #endif /* CY_PSOC3 || CY_PSOC5LP */
 229:.\Generated_Source\PSoC5/CapSense_1_CompCH0.c ****     }
 230:.\Generated_Source\PSoC5/CapSense_1_CompCH0.c **** 
 231:.\Generated_Source\PSoC5/CapSense_1_CompCH0.c **** }
 232:.\Generated_Source\PSoC5/CapSense_1_CompCH0.c **** 
 233:.\Generated_Source\PSoC5/CapSense_1_CompCH0.c **** 
 234:.\Generated_Source\PSoC5/CapSense_1_CompCH0.c **** /*******************************************************************************
 235:.\Generated_Source\PSoC5/CapSense_1_CompCH0.c **** * Function Name: CapSense_1_CompCH0_GetCompare
 236:.\Generated_Source\PSoC5/CapSense_1_CompCH0.c **** ********************************************************************************
 237:.\Generated_Source\PSoC5/CapSense_1_CompCH0.c **** *
 238:.\Generated_Source\PSoC5/CapSense_1_CompCH0.c **** * Summary:
 239:.\Generated_Source\PSoC5/CapSense_1_CompCH0.c **** *  This function returns the comparator output value.
 240:.\Generated_Source\PSoC5/CapSense_1_CompCH0.c **** *  This value is not affected by the Polarity parameter.
 241:.\Generated_Source\PSoC5/CapSense_1_CompCH0.c **** *  This valuea lways reflects a noninverted state.
 242:.\Generated_Source\PSoC5/CapSense_1_CompCH0.c **** *
 243:.\Generated_Source\PSoC5/CapSense_1_CompCH0.c **** * Parameters:
 244:.\Generated_Source\PSoC5/CapSense_1_CompCH0.c **** *   None
 245:.\Generated_Source\PSoC5/CapSense_1_CompCH0.c **** *
 246:.\Generated_Source\PSoC5/CapSense_1_CompCH0.c **** * Return:
 247:.\Generated_Source\PSoC5/CapSense_1_CompCH0.c **** *  (uint8)  0     - if Pos_Input less than Neg_input
 248:.\Generated_Source\PSoC5/CapSense_1_CompCH0.c **** *           non 0 - if Pos_Input greater than Neg_input.
 249:.\Generated_Source\PSoC5/CapSense_1_CompCH0.c **** *
 250:.\Generated_Source\PSoC5/CapSense_1_CompCH0.c **** *******************************************************************************/
 251:.\Generated_Source\PSoC5/CapSense_1_CompCH0.c **** uint8 CapSense_1_CompCH0_GetCompare(void) 
 252:.\Generated_Source\PSoC5/CapSense_1_CompCH0.c **** {
 253:.\Generated_Source\PSoC5/CapSense_1_CompCH0.c ****     return( CapSense_1_CompCH0_WRK & CapSense_1_CompCH0_CMP_OUT_MASK);
 254:.\Generated_Source\PSoC5/CapSense_1_CompCH0.c **** }
 255:.\Generated_Source\PSoC5/CapSense_1_CompCH0.c **** 
 256:.\Generated_Source\PSoC5/CapSense_1_CompCH0.c **** 
 257:.\Generated_Source\PSoC5/CapSense_1_CompCH0.c **** /*******************************************************************************
 258:.\Generated_Source\PSoC5/CapSense_1_CompCH0.c **** * Function Name: CapSense_1_CompCH0_trimAdjust
 259:.\Generated_Source\PSoC5/CapSense_1_CompCH0.c **** ********************************************************************************
 260:.\Generated_Source\PSoC5/CapSense_1_CompCH0.c **** *
ARM GAS  C:\Users\JohnP\AppData\Local\Temp\ccWhWnfh.s 			page 6


 261:.\Generated_Source\PSoC5/CapSense_1_CompCH0.c **** * Summary:
 262:.\Generated_Source\PSoC5/CapSense_1_CompCH0.c **** *  This function adjusts the value in the low nibble/high nibble of the Analog 
 263:.\Generated_Source\PSoC5/CapSense_1_CompCH0.c **** *  Comparator trim register
 264:.\Generated_Source\PSoC5/CapSense_1_CompCH0.c **** *
 265:.\Generated_Source\PSoC5/CapSense_1_CompCH0.c **** * Parameters:  
 266:.\Generated_Source\PSoC5/CapSense_1_CompCH0.c **** *  nibble:
 267:.\Generated_Source\PSoC5/CapSense_1_CompCH0.c **** *      0 -- adjusts the value in the low nibble
 268:.\Generated_Source\PSoC5/CapSense_1_CompCH0.c **** *      1 -- adjusts the value in the high nibble
 269:.\Generated_Source\PSoC5/CapSense_1_CompCH0.c **** *
 270:.\Generated_Source\PSoC5/CapSense_1_CompCH0.c **** * Return:
 271:.\Generated_Source\PSoC5/CapSense_1_CompCH0.c **** *  None
 272:.\Generated_Source\PSoC5/CapSense_1_CompCH0.c **** *
 273:.\Generated_Source\PSoC5/CapSense_1_CompCH0.c **** * Theory: 
 274:.\Generated_Source\PSoC5/CapSense_1_CompCH0.c **** *  Function assumes comparator block is setup for trim adjust.
 275:.\Generated_Source\PSoC5/CapSense_1_CompCH0.c **** *  Intended to be called from Comp_ZeroCal()
 276:.\Generated_Source\PSoC5/CapSense_1_CompCH0.c **** * 
 277:.\Generated_Source\PSoC5/CapSense_1_CompCH0.c **** * Side Effects:
 278:.\Generated_Source\PSoC5/CapSense_1_CompCH0.c **** *  Routine uses a course 1ms delay following each trim adjustment to allow 
 279:.\Generated_Source\PSoC5/CapSense_1_CompCH0.c **** *  the comparator output to respond.
 280:.\Generated_Source\PSoC5/CapSense_1_CompCH0.c **** *
 281:.\Generated_Source\PSoC5/CapSense_1_CompCH0.c **** *******************************************************************************/
 282:.\Generated_Source\PSoC5/CapSense_1_CompCH0.c **** static void CapSense_1_CompCH0_trimAdjust(uint8 nibble) 
 283:.\Generated_Source\PSoC5/CapSense_1_CompCH0.c **** {
  26              		.loc 1 283 0
  27              		.cfi_startproc
  28              		@ args = 0, pretend = 0, frame = 0
  29              		@ frame_needed = 0, uses_anonymous_args = 0
  30              	.LVL0:
  31 0000 2DE9F047 		push	{r4, r5, r6, r7, r8, r9, r10, lr}
  32              		.cfi_def_cfa_offset 32
  33              		.cfi_offset 4, -32
  34              		.cfi_offset 5, -28
  35              		.cfi_offset 6, -24
  36              		.cfi_offset 7, -20
  37              		.cfi_offset 8, -16
  38              		.cfi_offset 9, -12
  39              		.cfi_offset 10, -8
  40              		.cfi_offset 14, -4
 284:.\Generated_Source\PSoC5/CapSense_1_CompCH0.c ****     uint8 trimCnt, trimCntMax;
 285:.\Generated_Source\PSoC5/CapSense_1_CompCH0.c ****     uint8 cmpState;   
 286:.\Generated_Source\PSoC5/CapSense_1_CompCH0.c **** 
 287:.\Generated_Source\PSoC5/CapSense_1_CompCH0.c ****     /* get current state of comparator output */
 288:.\Generated_Source\PSoC5/CapSense_1_CompCH0.c ****     cmpState = CapSense_1_CompCH0_WRK & CapSense_1_CompCH0_CMP_OUT_MASK;
  41              		.loc 1 288 0
  42 0004 1F4B     		ldr	r3, .L11
  43 0006 1D78     		ldrb	r5, [r3]	@ zero_extendqisi2
  44 0008 05F00805 		and	r5, r5, #8
  45 000c EDB2     		uxtb	r5, r5
  46              	.LVL1:
 289:.\Generated_Source\PSoC5/CapSense_1_CompCH0.c ****     
 290:.\Generated_Source\PSoC5/CapSense_1_CompCH0.c ****     if (nibble == 0u)
  47              		.loc 1 290 0
  48 000e 0646     		mov	r6, r0
  49 0010 38B9     		cbnz	r0, .L2
 291:.\Generated_Source\PSoC5/CapSense_1_CompCH0.c ****     {    
 292:.\Generated_Source\PSoC5/CapSense_1_CompCH0.c ****         /* if comparator output is high, negative offset adjust is required */
 293:.\Generated_Source\PSoC5/CapSense_1_CompCH0.c ****         if ( cmpState != 0u )
ARM GAS  C:\Users\JohnP\AppData\Local\Temp\ccWhWnfh.s 			page 7


  50              		.loc 1 293 0
  51 0012 65B1     		cbz	r5, .L3
 294:.\Generated_Source\PSoC5/CapSense_1_CompCH0.c ****         {
 295:.\Generated_Source\PSoC5/CapSense_1_CompCH0.c ****             /* PSoC5A */
 296:.\Generated_Source\PSoC5/CapSense_1_CompCH0.c ****             #if (CY_PSOC5A)
 297:.\Generated_Source\PSoC5/CapSense_1_CompCH0.c ****                 CapSense_1_CompCH0_TR |= CapSense_1_CompCH0_CMP_TRIM1_DIR;
 298:.\Generated_Source\PSoC5/CapSense_1_CompCH0.c ****             #endif /* CY_PSOC5A */
 299:.\Generated_Source\PSoC5/CapSense_1_CompCH0.c ****             
 300:.\Generated_Source\PSoC5/CapSense_1_CompCH0.c ****             /* PSoC3, PSoC5LP or later */
 301:.\Generated_Source\PSoC5/CapSense_1_CompCH0.c ****             #if (CY_PSOC3 || CY_PSOC5LP)
 302:.\Generated_Source\PSoC5/CapSense_1_CompCH0.c ****                 CapSense_1_CompCH0_TR0 |= CapSense_1_CompCH0_CMP_TR0_DIR;
  52              		.loc 1 302 0
  53 0014 A3F5AB53 		sub	r3, r3, #5472
  54 0018 1A78     		ldrb	r2, [r3]	@ zero_extendqisi2
  55 001a 42F01002 		orr	r2, r2, #16
  56 001e 1A70     		strb	r2, [r3]
  57 0020 05E0     		b	.L3
  58              	.L2:
 303:.\Generated_Source\PSoC5/CapSense_1_CompCH0.c ****             #endif /* CY_PSOC3 || CY_PSOC5LP */
 304:.\Generated_Source\PSoC5/CapSense_1_CompCH0.c ****         }
 305:.\Generated_Source\PSoC5/CapSense_1_CompCH0.c ****     }
 306:.\Generated_Source\PSoC5/CapSense_1_CompCH0.c ****     else
 307:.\Generated_Source\PSoC5/CapSense_1_CompCH0.c ****     {
 308:.\Generated_Source\PSoC5/CapSense_1_CompCH0.c ****         /* if comparator output is low, positive offset adjust is required */
 309:.\Generated_Source\PSoC5/CapSense_1_CompCH0.c ****         if ( cmpState == 0u )
  59              		.loc 1 309 0
  60 0022 25B9     		cbnz	r5, .L3
 310:.\Generated_Source\PSoC5/CapSense_1_CompCH0.c ****         {
 311:.\Generated_Source\PSoC5/CapSense_1_CompCH0.c ****             /* PSoC5A */
 312:.\Generated_Source\PSoC5/CapSense_1_CompCH0.c ****             #if (CY_PSOC5A)
 313:.\Generated_Source\PSoC5/CapSense_1_CompCH0.c ****                 CapSense_1_CompCH0_TR |= CapSense_1_CompCH0_CMP_TRIM2_DIR; 
 314:.\Generated_Source\PSoC5/CapSense_1_CompCH0.c ****             #endif /* CY_PSOC5A */
 315:.\Generated_Source\PSoC5/CapSense_1_CompCH0.c ****             
 316:.\Generated_Source\PSoC5/CapSense_1_CompCH0.c ****             /* PSoC3, PSoC5LP or later */
 317:.\Generated_Source\PSoC5/CapSense_1_CompCH0.c ****             #if (CY_PSOC3 || CY_PSOC5LP)
 318:.\Generated_Source\PSoC5/CapSense_1_CompCH0.c ****                 CapSense_1_CompCH0_TR1 |= CapSense_1_CompCH0_CMP_TR1_DIR;
  61              		.loc 1 318 0
  62 0024 184B     		ldr	r3, .L11+4
  63 0026 1A78     		ldrb	r2, [r3]	@ zero_extendqisi2
  64 0028 42F01002 		orr	r2, r2, #16
  65 002c 1A70     		strb	r2, [r3]
  66              	.L3:
 319:.\Generated_Source\PSoC5/CapSense_1_CompCH0.c ****             #endif /* CY_PSOC3 || CY_PSOC5LP */
 320:.\Generated_Source\PSoC5/CapSense_1_CompCH0.c ****         }
 321:.\Generated_Source\PSoC5/CapSense_1_CompCH0.c ****     }
 322:.\Generated_Source\PSoC5/CapSense_1_CompCH0.c **** 
 323:.\Generated_Source\PSoC5/CapSense_1_CompCH0.c ****     /* Increment trim value until compare output changes state */
 324:.\Generated_Source\PSoC5/CapSense_1_CompCH0.c **** 	
 325:.\Generated_Source\PSoC5/CapSense_1_CompCH0.c ****     /* PSoC5A */
 326:.\Generated_Source\PSoC5/CapSense_1_CompCH0.c **** 	#if (CY_PSOC5A)
 327:.\Generated_Source\PSoC5/CapSense_1_CompCH0.c **** 	    trimCntMax = 7u;
 328:.\Generated_Source\PSoC5/CapSense_1_CompCH0.c ****     #endif
 329:.\Generated_Source\PSoC5/CapSense_1_CompCH0.c **** 	
 330:.\Generated_Source\PSoC5/CapSense_1_CompCH0.c **** 	/* PSoC3, PSoC5LP or later */
 331:.\Generated_Source\PSoC5/CapSense_1_CompCH0.c **** 	#if (CY_PSOC3 || CY_PSOC5LP)
 332:.\Generated_Source\PSoC5/CapSense_1_CompCH0.c ****     	if(nibble == 0u)
  67              		.loc 1 332 0
ARM GAS  C:\Users\JohnP\AppData\Local\Temp\ccWhWnfh.s 			page 8


  68 002e 0EB9     		cbnz	r6, .L10
 333:.\Generated_Source\PSoC5/CapSense_1_CompCH0.c ****     	{
 334:.\Generated_Source\PSoC5/CapSense_1_CompCH0.c ****     		trimCntMax = 15u;
  69              		.loc 1 334 0
  70 0030 0F27     		movs	r7, #15
  71 0032 00E0     		b	.L4
  72              	.L10:
 335:.\Generated_Source\PSoC5/CapSense_1_CompCH0.c ****     	}
 336:.\Generated_Source\PSoC5/CapSense_1_CompCH0.c ****     	else
 337:.\Generated_Source\PSoC5/CapSense_1_CompCH0.c ****     	{
 338:.\Generated_Source\PSoC5/CapSense_1_CompCH0.c ****     		trimCntMax = 7u;
  73              		.loc 1 338 0
  74 0034 0727     		movs	r7, #7
  75              	.L4:
  76              	.LVL2:
 339:.\Generated_Source\PSoC5/CapSense_1_CompCH0.c ****     	}
 340:.\Generated_Source\PSoC5/CapSense_1_CompCH0.c **** 	#endif
 341:.\Generated_Source\PSoC5/CapSense_1_CompCH0.c **** 	
 342:.\Generated_Source\PSoC5/CapSense_1_CompCH0.c ****     for ( trimCnt = 0u; trimCnt < trimCntMax; trimCnt++ )
  77              		.loc 1 342 0
  78 0036 0024     		movs	r4, #0
 343:.\Generated_Source\PSoC5/CapSense_1_CompCH0.c **** 	{
 344:.\Generated_Source\PSoC5/CapSense_1_CompCH0.c ****         if (nibble == 0u)
 345:.\Generated_Source\PSoC5/CapSense_1_CompCH0.c ****         {
 346:.\Generated_Source\PSoC5/CapSense_1_CompCH0.c ****             /* PSoC5A */
 347:.\Generated_Source\PSoC5/CapSense_1_CompCH0.c ****             #if (CY_PSOC5A)
 348:.\Generated_Source\PSoC5/CapSense_1_CompCH0.c ****                 CapSense_1_CompCH0_TR += 1u;
 349:.\Generated_Source\PSoC5/CapSense_1_CompCH0.c ****             #endif /* CY_PSOC5A */
 350:.\Generated_Source\PSoC5/CapSense_1_CompCH0.c ****             
 351:.\Generated_Source\PSoC5/CapSense_1_CompCH0.c ****             /* PSoC3, PSoC5LP or later */
 352:.\Generated_Source\PSoC5/CapSense_1_CompCH0.c ****             #if (CY_PSOC3 || CY_PSOC5LP)
 353:.\Generated_Source\PSoC5/CapSense_1_CompCH0.c ****                 CapSense_1_CompCH0_TR0 += 1u;
 354:.\Generated_Source\PSoC5/CapSense_1_CompCH0.c ****             #endif /* CY_PSOC3 || CY_PSOC5LP */
 355:.\Generated_Source\PSoC5/CapSense_1_CompCH0.c ****         }
 356:.\Generated_Source\PSoC5/CapSense_1_CompCH0.c ****         else
 357:.\Generated_Source\PSoC5/CapSense_1_CompCH0.c ****         {
 358:.\Generated_Source\PSoC5/CapSense_1_CompCH0.c ****             /* PSoC5A */
 359:.\Generated_Source\PSoC5/CapSense_1_CompCH0.c ****             #if (CY_PSOC5A)
 360:.\Generated_Source\PSoC5/CapSense_1_CompCH0.c ****                 CapSense_1_CompCH0_TR += 0x10u;
 361:.\Generated_Source\PSoC5/CapSense_1_CompCH0.c ****             #endif /* CY_PSOC5A */
 362:.\Generated_Source\PSoC5/CapSense_1_CompCH0.c ****             
 363:.\Generated_Source\PSoC5/CapSense_1_CompCH0.c ****             /* PSoC3, PSoC5LP or later */
 364:.\Generated_Source\PSoC5/CapSense_1_CompCH0.c ****             #if (CY_PSOC3 || CY_PSOC5LP)
 365:.\Generated_Source\PSoC5/CapSense_1_CompCH0.c ****                 CapSense_1_CompCH0_TR1 += 1u;
  79              		.loc 1 365 0
  80 0038 DFF84CA0 		ldr	r10, .L11+4
 353:.\Generated_Source\PSoC5/CapSense_1_CompCH0.c ****                 CapSense_1_CompCH0_TR0 += 1u;
  81              		.loc 1 353 0
  82 003c DFF84C90 		ldr	r9, .L11+8
 366:.\Generated_Source\PSoC5/CapSense_1_CompCH0.c ****             #endif /* CY_PSOC3 || CY_PSOC5LP */
 367:.\Generated_Source\PSoC5/CapSense_1_CompCH0.c ****         }
 368:.\Generated_Source\PSoC5/CapSense_1_CompCH0.c ****         
 369:.\Generated_Source\PSoC5/CapSense_1_CompCH0.c ****         CyDelayUs(10u);
 370:.\Generated_Source\PSoC5/CapSense_1_CompCH0.c ****         
 371:.\Generated_Source\PSoC5/CapSense_1_CompCH0.c ****         /* Check for change in comparator output */
 372:.\Generated_Source\PSoC5/CapSense_1_CompCH0.c ****         if ((CapSense_1_CompCH0_WRK & CapSense_1_CompCH0_CMP_OUT_MASK) != cmpState)
  83              		.loc 1 372 0
ARM GAS  C:\Users\JohnP\AppData\Local\Temp\ccWhWnfh.s 			page 9


  84 0040 DFF84080 		ldr	r8, .L11
 342:.\Generated_Source\PSoC5/CapSense_1_CompCH0.c ****     for ( trimCnt = 0u; trimCnt < trimCntMax; trimCnt++ )
  85              		.loc 1 342 0
  86 0044 19E0     		b	.L5
  87              	.LVL3:
  88              	.L9:
 344:.\Generated_Source\PSoC5/CapSense_1_CompCH0.c ****         if (nibble == 0u)
  89              		.loc 1 344 0
  90 0046 36B9     		cbnz	r6, .L6
 353:.\Generated_Source\PSoC5/CapSense_1_CompCH0.c ****                 CapSense_1_CompCH0_TR0 += 1u;
  91              		.loc 1 353 0
  92 0048 99F80030 		ldrb	r3, [r9]	@ zero_extendqisi2
  93 004c 0133     		adds	r3, r3, #1
  94 004e DBB2     		uxtb	r3, r3
  95 0050 89F80030 		strb	r3, [r9]
  96 0054 05E0     		b	.L7
  97              	.L6:
 365:.\Generated_Source\PSoC5/CapSense_1_CompCH0.c ****                 CapSense_1_CompCH0_TR1 += 1u;
  98              		.loc 1 365 0
  99 0056 9AF80030 		ldrb	r3, [r10]	@ zero_extendqisi2
 100 005a 0133     		adds	r3, r3, #1
 101 005c DBB2     		uxtb	r3, r3
 102 005e 8AF80030 		strb	r3, [r10]
 103              	.L7:
 369:.\Generated_Source\PSoC5/CapSense_1_CompCH0.c ****         CyDelayUs(10u);
 104              		.loc 1 369 0
 105 0062 0A20     		movs	r0, #10
 106 0064 FFF7FEFF 		bl	CyDelayUs
 107              	.LVL4:
 108              		.loc 1 372 0
 109 0068 98F80030 		ldrb	r3, [r8]	@ zero_extendqisi2
 110 006c 03F00803 		and	r3, r3, #8
 111 0070 DBB2     		uxtb	r3, r3
 112 0072 AB42     		cmp	r3, r5
 113 0074 03D1     		bne	.L1
 342:.\Generated_Source\PSoC5/CapSense_1_CompCH0.c ****     for ( trimCnt = 0u; trimCnt < trimCntMax; trimCnt++ )
 114              		.loc 1 342 0
 115 0076 0134     		adds	r4, r4, #1
 116              	.LVL5:
 117 0078 E4B2     		uxtb	r4, r4
 118              	.LVL6:
 119              	.L5:
 342:.\Generated_Source\PSoC5/CapSense_1_CompCH0.c ****     for ( trimCnt = 0u; trimCnt < trimCntMax; trimCnt++ )
 120              		.loc 1 342 0 is_stmt 0 discriminator 1
 121 007a BC42     		cmp	r4, r7
 122 007c E3D3     		bcc	.L9
 123              	.L1:
 124 007e BDE8F087 		pop	{r4, r5, r6, r7, r8, r9, r10, pc}
 125              	.LVL7:
 126              	.L12:
 127 0082 00BF     		.align	2
 128              	.L11:
 129 0084 965B0040 		.word	1073765270
 130 0088 37460040 		.word	1073759799
 131 008c 36460040 		.word	1073759798
 132              		.cfi_endproc
 133              	.LFE6:
ARM GAS  C:\Users\JohnP\AppData\Local\Temp\ccWhWnfh.s 			page 10


 134              		.size	CapSense_1_CompCH0_trimAdjust, .-CapSense_1_CompCH0_trimAdjust
 135              		.section	.text.CapSense_1_CompCH0_Enable,"ax",%progbits
 136              		.align	2
 137              		.global	CapSense_1_CompCH0_Enable
 138              		.thumb
 139              		.thumb_func
 140              		.type	CapSense_1_CompCH0_Enable, %function
 141              	CapSense_1_CompCH0_Enable:
 142              	.LFB1:
 100:.\Generated_Source\PSoC5/CapSense_1_CompCH0.c **** {
 143              		.loc 1 100 0 is_stmt 1
 144              		.cfi_startproc
 145              		@ args = 0, pretend = 0, frame = 0
 146              		@ frame_needed = 0, uses_anonymous_args = 0
 147              		@ link register save eliminated.
 101:.\Generated_Source\PSoC5/CapSense_1_CompCH0.c ****     CapSense_1_CompCH0_PWRMGR |= CapSense_1_CompCH0_ACT_PWR_EN;
 148              		.loc 1 101 0
 149 0000 054B     		ldr	r3, .L14
 150 0002 1A78     		ldrb	r2, [r3]	@ zero_extendqisi2
 151 0004 42F00802 		orr	r2, r2, #8
 152 0008 1A70     		strb	r2, [r3]
 102:.\Generated_Source\PSoC5/CapSense_1_CompCH0.c ****     CapSense_1_CompCH0_STBY_PWRMGR |= CapSense_1_CompCH0_STBY_PWR_EN;
 153              		.loc 1 102 0
 154 000a 1033     		adds	r3, r3, #16
 155 000c 1A78     		ldrb	r2, [r3]	@ zero_extendqisi2
 156 000e 42F00802 		orr	r2, r2, #8
 157 0012 1A70     		strb	r2, [r3]
 158 0014 7047     		bx	lr
 159              	.L15:
 160 0016 00BF     		.align	2
 161              	.L14:
 162 0018 A7430040 		.word	1073759143
 163              		.cfi_endproc
 164              	.LFE1:
 165              		.size	CapSense_1_CompCH0_Enable, .-CapSense_1_CompCH0_Enable
 166              		.section	.text.CapSense_1_CompCH0_Stop,"ax",%progbits
 167              		.align	2
 168              		.global	CapSense_1_CompCH0_Stop
 169              		.thumb
 170              		.thumb_func
 171              		.type	CapSense_1_CompCH0_Stop, %function
 172              	CapSense_1_CompCH0_Stop:
 173              	.LFB3:
 166:.\Generated_Source\PSoC5/CapSense_1_CompCH0.c **** {
 174              		.loc 1 166 0
 175              		.cfi_startproc
 176              		@ args = 0, pretend = 0, frame = 0
 177              		@ frame_needed = 0, uses_anonymous_args = 0
 178              		@ link register save eliminated.
 168:.\Generated_Source\PSoC5/CapSense_1_CompCH0.c ****     CapSense_1_CompCH0_PWRMGR &= (uint8)(~CapSense_1_CompCH0_ACT_PWR_EN);
 179              		.loc 1 168 0
 180 0000 054B     		ldr	r3, .L17
 181 0002 1A78     		ldrb	r2, [r3]	@ zero_extendqisi2
 182 0004 02F0F702 		and	r2, r2, #247
 183 0008 1A70     		strb	r2, [r3]
 169:.\Generated_Source\PSoC5/CapSense_1_CompCH0.c ****     CapSense_1_CompCH0_STBY_PWRMGR &= (uint8)(~CapSense_1_CompCH0_STBY_PWR_EN);
 184              		.loc 1 169 0
ARM GAS  C:\Users\JohnP\AppData\Local\Temp\ccWhWnfh.s 			page 11


 185 000a 1033     		adds	r3, r3, #16
 186 000c 1A78     		ldrb	r2, [r3]	@ zero_extendqisi2
 187 000e 02F0F702 		and	r2, r2, #247
 188 0012 1A70     		strb	r2, [r3]
 189 0014 7047     		bx	lr
 190              	.L18:
 191 0016 00BF     		.align	2
 192              	.L17:
 193 0018 A7430040 		.word	1073759143
 194              		.cfi_endproc
 195              	.LFE3:
 196              		.size	CapSense_1_CompCH0_Stop, .-CapSense_1_CompCH0_Stop
 197              		.section	.text.CapSense_1_CompCH0_SetSpeed,"ax",%progbits
 198              		.align	2
 199              		.global	CapSense_1_CompCH0_SetSpeed
 200              		.thumb
 201              		.thumb_func
 202              		.type	CapSense_1_CompCH0_SetSpeed, %function
 203              	CapSense_1_CompCH0_SetSpeed:
 204              	.LFB4:
 198:.\Generated_Source\PSoC5/CapSense_1_CompCH0.c **** {
 205              		.loc 1 198 0
 206              		.cfi_startproc
 207              		@ args = 0, pretend = 0, frame = 0
 208              		@ frame_needed = 0, uses_anonymous_args = 0
 209              		@ link register save eliminated.
 210              	.LVL8:
 200:.\Generated_Source\PSoC5/CapSense_1_CompCH0.c ****     CapSense_1_CompCH0_CR = (CapSense_1_CompCH0_CR & (uint8)(~CapSense_1_CompCH0_PWR_MODE_MASK)) |
 211              		.loc 1 200 0
 212 0000 0F4B     		ldr	r3, .L22
 213 0002 1A78     		ldrb	r2, [r3]	@ zero_extendqisi2
 214 0004 02F0FC02 		and	r2, r2, #252
 215 0008 00F00301 		and	r1, r0, #3
 216 000c 0A43     		orrs	r2, r2, r1
 217 000e 1A70     		strb	r2, [r3]
 204:.\Generated_Source\PSoC5/CapSense_1_CompCH0.c ****     if(speed == CapSense_1_CompCH0_HIGHSPEED)
 218              		.loc 1 204 0
 219 0010 0128     		cmp	r0, #1
 220 0012 0AD1     		bne	.L20
 213:.\Generated_Source\PSoC5/CapSense_1_CompCH0.c ****             CapSense_1_CompCH0_TR0 = CapSense_1_CompCH0_HS_TRIM_TR0;
 221              		.loc 1 213 0
 222 0014 0B4B     		ldr	r3, .L22+4
 223 0016 1A78     		ldrb	r2, [r3]	@ zero_extendqisi2
 224 0018 D2B2     		uxtb	r2, r2
 225 001a 0B4B     		ldr	r3, .L22+8
 226 001c 1A70     		strb	r2, [r3]
 214:.\Generated_Source\PSoC5/CapSense_1_CompCH0.c ****             CapSense_1_CompCH0_TR1 = CapSense_1_CompCH0_HS_TRIM_TR1;
 227              		.loc 1 214 0
 228 001e 0B4B     		ldr	r3, .L22+12
 229 0020 1A78     		ldrb	r2, [r3]	@ zero_extendqisi2
 230 0022 D2B2     		uxtb	r2, r2
 231 0024 0A4B     		ldr	r3, .L22+16
 232 0026 1A70     		strb	r2, [r3]
 233 0028 7047     		bx	lr
 234              	.L20:
 226:.\Generated_Source\PSoC5/CapSense_1_CompCH0.c ****             CapSense_1_CompCH0_TR0 = CapSense_1_CompCH0_LS_TRIM_TR0;
 235              		.loc 1 226 0
ARM GAS  C:\Users\JohnP\AppData\Local\Temp\ccWhWnfh.s 			page 12


 236 002a 0A4B     		ldr	r3, .L22+20
 237 002c 1A78     		ldrb	r2, [r3]	@ zero_extendqisi2
 238 002e D2B2     		uxtb	r2, r2
 239 0030 054B     		ldr	r3, .L22+8
 240 0032 1A70     		strb	r2, [r3]
 227:.\Generated_Source\PSoC5/CapSense_1_CompCH0.c ****             CapSense_1_CompCH0_TR1 = CapSense_1_CompCH0_LS_TRIM_TR1;
 241              		.loc 1 227 0
 242 0034 084B     		ldr	r3, .L22+24
 243 0036 1A78     		ldrb	r2, [r3]	@ zero_extendqisi2
 244 0038 D2B2     		uxtb	r2, r2
 245 003a 054B     		ldr	r3, .L22+16
 246 003c 1A70     		strb	r2, [r3]
 247 003e 7047     		bx	lr
 248              	.L23:
 249              		.align	2
 250              	.L22:
 251 0040 43580040 		.word	1073764419
 252 0044 13010049 		.word	1224737043
 253 0048 36460040 		.word	1073759798
 254 004c 17010049 		.word	1224737047
 255 0050 37460040 		.word	1073759799
 256 0054 B3010049 		.word	1224737203
 257 0058 BB010049 		.word	1224737211
 258              		.cfi_endproc
 259              	.LFE4:
 260              		.size	CapSense_1_CompCH0_SetSpeed, .-CapSense_1_CompCH0_SetSpeed
 261              		.section	.text.CapSense_1_CompCH0_Init,"ax",%progbits
 262              		.align	2
 263              		.global	CapSense_1_CompCH0_Init
 264              		.thumb
 265              		.thumb_func
 266              		.type	CapSense_1_CompCH0_Init, %function
 267              	CapSense_1_CompCH0_Init:
 268              	.LFB0:
  52:.\Generated_Source\PSoC5/CapSense_1_CompCH0.c **** {
 269              		.loc 1 52 0
 270              		.cfi_startproc
 271              		@ args = 0, pretend = 0, frame = 0
 272              		@ frame_needed = 0, uses_anonymous_args = 0
 273 0000 08B5     		push	{r3, lr}
 274              		.cfi_def_cfa_offset 8
 275              		.cfi_offset 3, -8
 276              		.cfi_offset 14, -4
  54:.\Generated_Source\PSoC5/CapSense_1_CompCH0.c ****     CapSense_1_CompCH0_SetSpeed(CapSense_1_CompCH0_DEFAULT_SPEED);
 277              		.loc 1 54 0
 278 0002 0020     		movs	r0, #0
 279 0004 FFF7FEFF 		bl	CapSense_1_CompCH0_SetSpeed
 280              	.LVL9:
  58:.\Generated_Source\PSoC5/CapSense_1_CompCH0.c ****         CapSense_1_CompCH0_CR |= CapSense_1_CompCH0_HYST_OFF;
 281              		.loc 1 58 0
 282 0008 0B4B     		ldr	r3, .L25
 283 000a 1A78     		ldrb	r2, [r3]	@ zero_extendqisi2
 284 000c 42F02002 		orr	r2, r2, #32
 285 0010 1A70     		strb	r2, [r3]
  66:.\Generated_Source\PSoC5/CapSense_1_CompCH0.c ****             CapSense_1_CompCH0_CR &= (uint8)(~CapSense_1_CompCH0_PWRDWN_OVRD);
 286              		.loc 1 66 0
 287 0012 1A78     		ldrb	r2, [r3]	@ zero_extendqisi2
ARM GAS  C:\Users\JohnP\AppData\Local\Temp\ccWhWnfh.s 			page 13


 288 0014 02F0FB02 		and	r2, r2, #251
 289 0018 1A70     		strb	r2, [r3]
  73:.\Generated_Source\PSoC5/CapSense_1_CompCH0.c ****     CapSense_1_CompCH0_CR |= CapSense_1_CompCH0_MX_AO;
 290              		.loc 1 73 0
 291 001a 1A78     		ldrb	r2, [r3]	@ zero_extendqisi2
 292 001c 42F00802 		orr	r2, r2, #8
 293 0020 1A70     		strb	r2, [r3]
  76:.\Generated_Source\PSoC5/CapSense_1_CompCH0.c ****     CapSense_1_CompCH0_CLK &= (uint8)(~CapSense_1_CompCH0_SYNCCLK_MASK);
 294              		.loc 1 76 0
 295 0022 03F52773 		add	r3, r3, #668
 296 0026 1A78     		ldrb	r2, [r3]	@ zero_extendqisi2
 297 0028 02F0E702 		and	r2, r2, #231
 298 002c 1A70     		strb	r2, [r3]
  80:.\Generated_Source\PSoC5/CapSense_1_CompCH0.c ****         CapSense_1_CompCH0_CLK |= CapSense_1_CompCH0_BYPASS_SYNC;
 299              		.loc 1 80 0
 300 002e 1A78     		ldrb	r2, [r3]	@ zero_extendqisi2
 301 0030 42F01002 		orr	r2, r2, #16
 302 0034 1A70     		strb	r2, [r3]
 303 0036 08BD     		pop	{r3, pc}
 304              	.L26:
 305              		.align	2
 306              	.L25:
 307 0038 43580040 		.word	1073764419
 308              		.cfi_endproc
 309              	.LFE0:
 310              		.size	CapSense_1_CompCH0_Init, .-CapSense_1_CompCH0_Init
 311              		.section	.text.CapSense_1_CompCH0_Start,"ax",%progbits
 312              		.align	2
 313              		.global	CapSense_1_CompCH0_Start
 314              		.thumb
 315              		.thumb_func
 316              		.type	CapSense_1_CompCH0_Start, %function
 317              	CapSense_1_CompCH0_Start:
 318              	.LFB2:
 137:.\Generated_Source\PSoC5/CapSense_1_CompCH0.c **** {
 319              		.loc 1 137 0
 320              		.cfi_startproc
 321              		@ args = 0, pretend = 0, frame = 0
 322              		@ frame_needed = 0, uses_anonymous_args = 0
 323 0000 08B5     		push	{r3, lr}
 324              		.cfi_def_cfa_offset 8
 325              		.cfi_offset 3, -8
 326              		.cfi_offset 14, -4
 139:.\Generated_Source\PSoC5/CapSense_1_CompCH0.c ****     if ( CapSense_1_CompCH0_initVar == 0u )
 327              		.loc 1 139 0
 328 0002 054B     		ldr	r3, .L29
 329 0004 1B78     		ldrb	r3, [r3]	@ zero_extendqisi2
 330 0006 23B9     		cbnz	r3, .L28
 141:.\Generated_Source\PSoC5/CapSense_1_CompCH0.c ****         CapSense_1_CompCH0_Init();
 331              		.loc 1 141 0
 332 0008 FFF7FEFF 		bl	CapSense_1_CompCH0_Init
 333              	.LVL10:
 143:.\Generated_Source\PSoC5/CapSense_1_CompCH0.c ****         CapSense_1_CompCH0_initVar = 1u;
 334              		.loc 1 143 0
 335 000c 0122     		movs	r2, #1
 336 000e 024B     		ldr	r3, .L29
 337 0010 1A70     		strb	r2, [r3]
ARM GAS  C:\Users\JohnP\AppData\Local\Temp\ccWhWnfh.s 			page 14


 338              	.L28:
 147:.\Generated_Source\PSoC5/CapSense_1_CompCH0.c ****     CapSense_1_CompCH0_Enable();    
 339              		.loc 1 147 0
 340 0012 FFF7FEFF 		bl	CapSense_1_CompCH0_Enable
 341              	.LVL11:
 342 0016 08BD     		pop	{r3, pc}
 343              	.L30:
 344              		.align	2
 345              	.L29:
 346 0018 00000000 		.word	.LANCHOR0
 347              		.cfi_endproc
 348              	.LFE2:
 349              		.size	CapSense_1_CompCH0_Start, .-CapSense_1_CompCH0_Start
 350              		.section	.text.CapSense_1_CompCH0_GetCompare,"ax",%progbits
 351              		.align	2
 352              		.global	CapSense_1_CompCH0_GetCompare
 353              		.thumb
 354              		.thumb_func
 355              		.type	CapSense_1_CompCH0_GetCompare, %function
 356              	CapSense_1_CompCH0_GetCompare:
 357              	.LFB5:
 252:.\Generated_Source\PSoC5/CapSense_1_CompCH0.c **** {
 358              		.loc 1 252 0
 359              		.cfi_startproc
 360              		@ args = 0, pretend = 0, frame = 0
 361              		@ frame_needed = 0, uses_anonymous_args = 0
 362              		@ link register save eliminated.
 253:.\Generated_Source\PSoC5/CapSense_1_CompCH0.c ****     return( CapSense_1_CompCH0_WRK & CapSense_1_CompCH0_CMP_OUT_MASK);
 363              		.loc 1 253 0
 364 0000 024B     		ldr	r3, .L32
 365 0002 1878     		ldrb	r0, [r3]	@ zero_extendqisi2
 254:.\Generated_Source\PSoC5/CapSense_1_CompCH0.c **** }
 366              		.loc 1 254 0
 367 0004 00F00800 		and	r0, r0, #8
 368 0008 7047     		bx	lr
 369              	.L33:
 370 000a 00BF     		.align	2
 371              	.L32:
 372 000c 965B0040 		.word	1073765270
 373              		.cfi_endproc
 374              	.LFE5:
 375              		.size	CapSense_1_CompCH0_GetCompare, .-CapSense_1_CompCH0_GetCompare
 376              		.section	.text.CapSense_1_CompCH0_ZeroCal,"ax",%progbits
 377              		.align	2
 378              		.global	CapSense_1_CompCH0_ZeroCal
 379              		.thumb
 380              		.thumb_func
 381              		.type	CapSense_1_CompCH0_ZeroCal, %function
 382              	CapSense_1_CompCH0_ZeroCal:
 383              	.LFB7:
 373:.\Generated_Source\PSoC5/CapSense_1_CompCH0.c ****         {
 374:.\Generated_Source\PSoC5/CapSense_1_CompCH0.c ****             break;      /* output changed state, trim phase is complete */
 375:.\Generated_Source\PSoC5/CapSense_1_CompCH0.c ****         }        
 376:.\Generated_Source\PSoC5/CapSense_1_CompCH0.c ****     }    
 377:.\Generated_Source\PSoC5/CapSense_1_CompCH0.c **** }
 378:.\Generated_Source\PSoC5/CapSense_1_CompCH0.c **** 
 379:.\Generated_Source\PSoC5/CapSense_1_CompCH0.c **** 
ARM GAS  C:\Users\JohnP\AppData\Local\Temp\ccWhWnfh.s 			page 15


 380:.\Generated_Source\PSoC5/CapSense_1_CompCH0.c **** /*******************************************************************************
 381:.\Generated_Source\PSoC5/CapSense_1_CompCH0.c **** * Function Name: CapSense_1_CompCH0_ZeroCal
 382:.\Generated_Source\PSoC5/CapSense_1_CompCH0.c **** ********************************************************************************
 383:.\Generated_Source\PSoC5/CapSense_1_CompCH0.c **** *
 384:.\Generated_Source\PSoC5/CapSense_1_CompCH0.c **** * Summary:
 385:.\Generated_Source\PSoC5/CapSense_1_CompCH0.c **** *  This function calibrates the offset of the Analog Comparator.
 386:.\Generated_Source\PSoC5/CapSense_1_CompCH0.c **** *
 387:.\Generated_Source\PSoC5/CapSense_1_CompCH0.c **** * Parameters:
 388:.\Generated_Source\PSoC5/CapSense_1_CompCH0.c **** *  None
 389:.\Generated_Source\PSoC5/CapSense_1_CompCH0.c **** *
 390:.\Generated_Source\PSoC5/CapSense_1_CompCH0.c **** * Return:
 391:.\Generated_Source\PSoC5/CapSense_1_CompCH0.c **** *  (uint16)  value written in trim register when calibration complete.
 392:.\Generated_Source\PSoC5/CapSense_1_CompCH0.c **** *
 393:.\Generated_Source\PSoC5/CapSense_1_CompCH0.c **** * Theory: 
 394:.\Generated_Source\PSoC5/CapSense_1_CompCH0.c **** *  This function is used to optimize the calibration for user specific voltage
 395:.\Generated_Source\PSoC5/CapSense_1_CompCH0.c **** *  range.  The comparator trim is adjusted to counter transistor offsets
 396:.\Generated_Source\PSoC5/CapSense_1_CompCH0.c **** *   - offset is defined as positive if the output transitions to high before inP
 397:.\Generated_Source\PSoC5/CapSense_1_CompCH0.c **** *     is greater than inN
 398:.\Generated_Source\PSoC5/CapSense_1_CompCH0.c **** *   - offset is defined as negative if the output transitions to high after inP
 399:.\Generated_Source\PSoC5/CapSense_1_CompCH0.c **** *     is greater than inP
 400:.\Generated_Source\PSoC5/CapSense_1_CompCH0.c **** *
 401:.\Generated_Source\PSoC5/CapSense_1_CompCH0.c **** *  PSoC5A
 402:.\Generated_Source\PSoC5/CapSense_1_CompCH0.c **** *  The Analog Comparator provides 1 byte for offset trim.  The byte contains two
 403:.\Generated_Source\PSoC5/CapSense_1_CompCH0.c **** *  4 bit trim fields - one is a course trim and the other allows smaller
 404:.\Generated_Source\PSoC5/CapSense_1_CompCH0.c **** *  offset adjustments only for slow modes.
 405:.\Generated_Source\PSoC5/CapSense_1_CompCH0.c **** *  - low nibble - fine trim
 406:.\Generated_Source\PSoC5/CapSense_1_CompCH0.c **** *  - high nibble - course trim
 407:.\Generated_Source\PSoC5/CapSense_1_CompCH0.c **** *  PSoC3, PSoC5LP or later
 408:.\Generated_Source\PSoC5/CapSense_1_CompCH0.c **** *  The Analog Comparator provides 2 bytes for offset trim.  The bytes contain two
 409:.\Generated_Source\PSoC5/CapSense_1_CompCH0.c **** *  5 bit trim fields - one is a course trim and the other allows smaller
 410:.\Generated_Source\PSoC5/CapSense_1_CompCH0.c **** *  offset adjustments only for slow modes.
 411:.\Generated_Source\PSoC5/CapSense_1_CompCH0.c **** *  - TR0 - fine trim
 412:.\Generated_Source\PSoC5/CapSense_1_CompCH0.c **** *  - TR1 - course trim
 413:.\Generated_Source\PSoC5/CapSense_1_CompCH0.c **** *
 414:.\Generated_Source\PSoC5/CapSense_1_CompCH0.c **** *  Trim algorithm is a two phase process
 415:.\Generated_Source\PSoC5/CapSense_1_CompCH0.c **** *  The first phase performs course offset adjustment
 416:.\Generated_Source\PSoC5/CapSense_1_CompCH0.c **** *  The second phase serves one of two purposes depending on the outcome of the
 417:.\Generated_Source\PSoC5/CapSense_1_CompCH0.c **** *  first phase
 418:.\Generated_Source\PSoC5/CapSense_1_CompCH0.c **** *  - if the first trim value was maxed out without a comparator output 
 419:.\Generated_Source\PSoC5/CapSense_1_CompCH0.c **** *    transition, more offset will be added by adjusting the second trim value.
 420:.\Generated_Source\PSoC5/CapSense_1_CompCH0.c **** *  - if the first trim phase resulted in a comparator output transition, the
 421:.\Generated_Source\PSoC5/CapSense_1_CompCH0.c **** *    second trim value will serve as fine trim (in the opposite direction)to
 422:.\Generated_Source\PSoC5/CapSense_1_CompCH0.c **** *    ensure the offset is < 1 mV.
 423:.\Generated_Source\PSoC5/CapSense_1_CompCH0.c **** *
 424:.\Generated_Source\PSoC5/CapSense_1_CompCH0.c **** * Trim Process:   
 425:.\Generated_Source\PSoC5/CapSense_1_CompCH0.c **** *  1) User applies a voltage to the negative input.  Voltage should be in the
 426:.\Generated_Source\PSoC5/CapSense_1_CompCH0.c **** *     comparator operating range or an average of the operating voltage range.
 427:.\Generated_Source\PSoC5/CapSense_1_CompCH0.c **** *  2) Clear registers associated with analog routing to the positive input.
 428:.\Generated_Source\PSoC5/CapSense_1_CompCH0.c **** *  3) Disable Hysteresis
 429:.\Generated_Source\PSoC5/CapSense_1_CompCH0.c **** *  4) Set the calibration bit to short the negative and positive inputs to
 430:.\Generated_Source\PSoC5/CapSense_1_CompCH0.c **** *     the users calibration voltage.
 431:.\Generated_Source\PSoC5/CapSense_1_CompCH0.c **** *  5) Clear the TR register  ( TR = 0x00 )
 432:.\Generated_Source\PSoC5/CapSense_1_CompCH0.c **** *  ** LOW MODES
 433:.\Generated_Source\PSoC5/CapSense_1_CompCH0.c **** *  6) Check if compare output is high, if so, set the MSb of course trim field 
 434:.\Generated_Source\PSoC5/CapSense_1_CompCH0.c **** *     to a 1.
 435:.\Generated_Source\PSoC5/CapSense_1_CompCH0.c **** *  7) Increment the course trim field until the compare output changes
 436:.\Generated_Source\PSoC5/CapSense_1_CompCH0.c **** *  8) Check if compare output is low, if so, set the MSb of fine trim field
ARM GAS  C:\Users\JohnP\AppData\Local\Temp\ccWhWnfh.s 			page 16


 437:.\Generated_Source\PSoC5/CapSense_1_CompCH0.c **** *     to a 1.
 438:.\Generated_Source\PSoC5/CapSense_1_CompCH0.c **** *  9) Increment the fine trim field until the compare output changes
 439:.\Generated_Source\PSoC5/CapSense_1_CompCH0.c **** *  ** FAST MODE - skip the steps 8,9
 440:.\Generated_Source\PSoC5/CapSense_1_CompCH0.c **** *
 441:.\Generated_Source\PSoC5/CapSense_1_CompCH0.c **** * Side Effects:
 442:.\Generated_Source\PSoC5/CapSense_1_CompCH0.c **** *  Routine clears analog routing associated with the comparator positive input.  
 443:.\Generated_Source\PSoC5/CapSense_1_CompCH0.c **** *  This may affect routing of signals from other components that are connected
 444:.\Generated_Source\PSoC5/CapSense_1_CompCH0.c **** *  to the positive input of the comparator.
 445:.\Generated_Source\PSoC5/CapSense_1_CompCH0.c **** *
 446:.\Generated_Source\PSoC5/CapSense_1_CompCH0.c **** *******************************************************************************/
 447:.\Generated_Source\PSoC5/CapSense_1_CompCH0.c **** uint16 CapSense_1_CompCH0_ZeroCal(void) 
 448:.\Generated_Source\PSoC5/CapSense_1_CompCH0.c **** {
 384              		.loc 1 448 0
 385              		.cfi_startproc
 386              		@ args = 0, pretend = 0, frame = 0
 387              		@ frame_needed = 0, uses_anonymous_args = 0
 388 0000 F8B5     		push	{r3, r4, r5, r6, r7, lr}
 389              		.cfi_def_cfa_offset 24
 390              		.cfi_offset 3, -24
 391              		.cfi_offset 4, -20
 392              		.cfi_offset 5, -16
 393              		.cfi_offset 6, -12
 394              		.cfi_offset 7, -8
 395              		.cfi_offset 14, -4
 449:.\Generated_Source\PSoC5/CapSense_1_CompCH0.c ****     uint8 tmpSW0;
 450:.\Generated_Source\PSoC5/CapSense_1_CompCH0.c ****     uint8 tmpSW2;
 451:.\Generated_Source\PSoC5/CapSense_1_CompCH0.c ****     uint8 tmpSW3;
 452:.\Generated_Source\PSoC5/CapSense_1_CompCH0.c ****     uint8 tmpCR;
 453:.\Generated_Source\PSoC5/CapSense_1_CompCH0.c **** 
 454:.\Generated_Source\PSoC5/CapSense_1_CompCH0.c ****     /* Save a copy of routing registers associated with inP */
 455:.\Generated_Source\PSoC5/CapSense_1_CompCH0.c ****     tmpSW0 = CapSense_1_CompCH0_SW0;
 396              		.loc 1 455 0
 397 0002 1E48     		ldr	r0, .L37
 398 0004 0678     		ldrb	r6, [r0]	@ zero_extendqisi2
 399 0006 F6B2     		uxtb	r6, r6
 400              	.LVL12:
 456:.\Generated_Source\PSoC5/CapSense_1_CompCH0.c ****     tmpSW2 = CapSense_1_CompCH0_SW2;
 401              		.loc 1 456 0
 402 0008 1D49     		ldr	r1, .L37+4
 403 000a 0D78     		ldrb	r5, [r1]	@ zero_extendqisi2
 404 000c EDB2     		uxtb	r5, r5
 405              	.LVL13:
 457:.\Generated_Source\PSoC5/CapSense_1_CompCH0.c ****     tmpSW3 = CapSense_1_CompCH0_SW3;
 406              		.loc 1 457 0
 407 000e 1D4B     		ldr	r3, .L37+8
 408 0010 1C78     		ldrb	r4, [r3]	@ zero_extendqisi2
 409 0012 E4B2     		uxtb	r4, r4
 410              	.LVL14:
 458:.\Generated_Source\PSoC5/CapSense_1_CompCH0.c **** 
 459:.\Generated_Source\PSoC5/CapSense_1_CompCH0.c ****      /* Clear routing for inP, retain routing for inN */
 460:.\Generated_Source\PSoC5/CapSense_1_CompCH0.c ****     CapSense_1_CompCH0_SW0 = 0x00u;
 411              		.loc 1 460 0
 412 0014 0022     		movs	r2, #0
 413 0016 0270     		strb	r2, [r0]
 461:.\Generated_Source\PSoC5/CapSense_1_CompCH0.c ****     CapSense_1_CompCH0_SW2 = 0x00u;
 414              		.loc 1 461 0
 415 0018 0A70     		strb	r2, [r1]
ARM GAS  C:\Users\JohnP\AppData\Local\Temp\ccWhWnfh.s 			page 17


 462:.\Generated_Source\PSoC5/CapSense_1_CompCH0.c ****     CapSense_1_CompCH0_SW3 = tmpSW3 & (uint8)(~CapSense_1_CompCH0_CMP_SW3_INPCTL_MASK);
 416              		.loc 1 462 0
 417 001a 04F0F601 		and	r1, r4, #246
 418 001e 1970     		strb	r1, [r3]
 463:.\Generated_Source\PSoC5/CapSense_1_CompCH0.c **** 
 464:.\Generated_Source\PSoC5/CapSense_1_CompCH0.c ****     /* Preserve original configuration
 465:.\Generated_Source\PSoC5/CapSense_1_CompCH0.c ****      * - turn off Hysteresis
 466:.\Generated_Source\PSoC5/CapSense_1_CompCH0.c ****      * - set calibration bit - shorts inN to inP
 467:.\Generated_Source\PSoC5/CapSense_1_CompCH0.c ****     */
 468:.\Generated_Source\PSoC5/CapSense_1_CompCH0.c ****     tmpCR = CapSense_1_CompCH0_CR;
 419              		.loc 1 468 0
 420 0020 A3F52673 		sub	r3, r3, #664
 421 0024 1F78     		ldrb	r7, [r3]	@ zero_extendqisi2
 422 0026 FFB2     		uxtb	r7, r7
 423              	.LVL15:
 469:.\Generated_Source\PSoC5/CapSense_1_CompCH0.c ****     CapSense_1_CompCH0_CR |= (CapSense_1_CompCH0_CAL_ON | CapSense_1_CompCH0_HYST_OFF);
 424              		.loc 1 469 0
 425 0028 1978     		ldrb	r1, [r3]	@ zero_extendqisi2
 426 002a 41F03001 		orr	r1, r1, #48
 427 002e 1970     		strb	r1, [r3]
 470:.\Generated_Source\PSoC5/CapSense_1_CompCH0.c ****     
 471:.\Generated_Source\PSoC5/CapSense_1_CompCH0.c ****     /* Write default low values to trim register - no offset adjust */
 472:.\Generated_Source\PSoC5/CapSense_1_CompCH0.c ****     /* PSoC5A */
 473:.\Generated_Source\PSoC5/CapSense_1_CompCH0.c ****     #if (CY_PSOC5A)
 474:.\Generated_Source\PSoC5/CapSense_1_CompCH0.c ****         CapSense_1_CompCH0_TR = CapSense_1_CompCH0_DEFAULT_CMP_TRIM;
 475:.\Generated_Source\PSoC5/CapSense_1_CompCH0.c ****     #endif /* CY_PSOC5A */
 476:.\Generated_Source\PSoC5/CapSense_1_CompCH0.c ****     
 477:.\Generated_Source\PSoC5/CapSense_1_CompCH0.c ****     /* PSoC3, PSoC5LP or later */
 478:.\Generated_Source\PSoC5/CapSense_1_CompCH0.c ****     #if (CY_PSOC3 || CY_PSOC5LP)
 479:.\Generated_Source\PSoC5/CapSense_1_CompCH0.c ****         CapSense_1_CompCH0_TR0 = CapSense_1_CompCH0_DEFAULT_CMP_TRIM;
 428              		.loc 1 479 0
 429 0030 1549     		ldr	r1, .L37+12
 430 0032 0A70     		strb	r2, [r1]
 480:.\Generated_Source\PSoC5/CapSense_1_CompCH0.c ****         CapSense_1_CompCH0_TR1 = CapSense_1_CompCH0_DEFAULT_CMP_TRIM;
 431              		.loc 1 480 0
 432 0034 0131     		adds	r1, r1, #1
 433 0036 0A70     		strb	r2, [r1]
 481:.\Generated_Source\PSoC5/CapSense_1_CompCH0.c ****     #endif /* CY_PSOC3 || CY_PSOC5LP */
 482:.\Generated_Source\PSoC5/CapSense_1_CompCH0.c **** 	
 483:.\Generated_Source\PSoC5/CapSense_1_CompCH0.c **** 	/* Two phase trim - slow modes, one phase trim - for fast */ 
 484:.\Generated_Source\PSoC5/CapSense_1_CompCH0.c ****     if ( (CapSense_1_CompCH0_CR & CapSense_1_CompCH0_PWR_MODE_MASK) == CapSense_1_CompCH0_PWR_MODE_
 434              		.loc 1 484 0
 435 0038 1B78     		ldrb	r3, [r3]	@ zero_extendqisi2
 436 003a 03F00303 		and	r3, r3, #3
 437 003e 012B     		cmp	r3, #1
 438 0040 03D1     		bne	.L35
 485:.\Generated_Source\PSoC5/CapSense_1_CompCH0.c ****     {
 486:.\Generated_Source\PSoC5/CapSense_1_CompCH0.c ****         CapSense_1_CompCH0_trimAdjust(0u);
 439              		.loc 1 486 0
 440 0042 1046     		mov	r0, r2
 441 0044 FFF7FEFF 		bl	CapSense_1_CompCH0_trimAdjust
 442              	.LVL16:
 443 0048 05E0     		b	.L36
 444              	.L35:
 487:.\Generated_Source\PSoC5/CapSense_1_CompCH0.c ****     }
 488:.\Generated_Source\PSoC5/CapSense_1_CompCH0.c ****     else /* default to trim for fast modes */
 489:.\Generated_Source\PSoC5/CapSense_1_CompCH0.c ****     {
ARM GAS  C:\Users\JohnP\AppData\Local\Temp\ccWhWnfh.s 			page 18


 490:.\Generated_Source\PSoC5/CapSense_1_CompCH0.c ****         CapSense_1_CompCH0_trimAdjust(1u);
 445              		.loc 1 490 0
 446 004a 0120     		movs	r0, #1
 447 004c FFF7FEFF 		bl	CapSense_1_CompCH0_trimAdjust
 448              	.LVL17:
 491:.\Generated_Source\PSoC5/CapSense_1_CompCH0.c **** 		CapSense_1_CompCH0_trimAdjust(0u);
 449              		.loc 1 491 0
 450 0050 0020     		movs	r0, #0
 451 0052 FFF7FEFF 		bl	CapSense_1_CompCH0_trimAdjust
 452              	.LVL18:
 453              	.L36:
 492:.\Generated_Source\PSoC5/CapSense_1_CompCH0.c ****     }
 493:.\Generated_Source\PSoC5/CapSense_1_CompCH0.c ****    
 494:.\Generated_Source\PSoC5/CapSense_1_CompCH0.c ****     /* Restore Config Register */
 495:.\Generated_Source\PSoC5/CapSense_1_CompCH0.c ****     CapSense_1_CompCH0_CR = tmpCR;
 454              		.loc 1 495 0
 455 0056 0D4B     		ldr	r3, .L37+16
 456 0058 1F70     		strb	r7, [r3]
 496:.\Generated_Source\PSoC5/CapSense_1_CompCH0.c ****     
 497:.\Generated_Source\PSoC5/CapSense_1_CompCH0.c ****     /* Restore routing registers for inP */
 498:.\Generated_Source\PSoC5/CapSense_1_CompCH0.c ****     CapSense_1_CompCH0_SW0 = tmpSW0;
 457              		.loc 1 498 0
 458 005a 03F29523 		addw	r3, r3, #661
 459 005e 1E70     		strb	r6, [r3]
 499:.\Generated_Source\PSoC5/CapSense_1_CompCH0.c ****     CapSense_1_CompCH0_SW2 = tmpSW2;
 460              		.loc 1 499 0
 461 0060 0233     		adds	r3, r3, #2
 462 0062 1D70     		strb	r5, [r3]
 500:.\Generated_Source\PSoC5/CapSense_1_CompCH0.c ****     CapSense_1_CompCH0_SW3 = tmpSW3;
 463              		.loc 1 500 0
 464 0064 0133     		adds	r3, r3, #1
 465 0066 1C70     		strb	r4, [r3]
 501:.\Generated_Source\PSoC5/CapSense_1_CompCH0.c ****     
 502:.\Generated_Source\PSoC5/CapSense_1_CompCH0.c ****     /* PSoC5A */
 503:.\Generated_Source\PSoC5/CapSense_1_CompCH0.c ****     #if (CY_PSOC5A)
 504:.\Generated_Source\PSoC5/CapSense_1_CompCH0.c ****         return (uint16) CapSense_1_CompCH0_TR;
 505:.\Generated_Source\PSoC5/CapSense_1_CompCH0.c ****     #endif /* CY_PSOC5A */
 506:.\Generated_Source\PSoC5/CapSense_1_CompCH0.c ****     
 507:.\Generated_Source\PSoC5/CapSense_1_CompCH0.c ****     /* PSoC3, PSoC5LP or later */
 508:.\Generated_Source\PSoC5/CapSense_1_CompCH0.c ****     #if (CY_PSOC3 || CY_PSOC5LP)
 509:.\Generated_Source\PSoC5/CapSense_1_CompCH0.c ****         return ((uint16)((uint16)CapSense_1_CompCH0_TR1 << 8u) | (CapSense_1_CompCH0_TR0));        
 466              		.loc 1 509 0
 467 0068 A3F5A553 		sub	r3, r3, #5280
 468 006c 043B     		subs	r3, r3, #4
 469 006e 1878     		ldrb	r0, [r3]	@ zero_extendqisi2
 470 0070 013B     		subs	r3, r3, #1
 471 0072 1B78     		ldrb	r3, [r3]	@ zero_extendqisi2
 510:.\Generated_Source\PSoC5/CapSense_1_CompCH0.c ****     #endif /* CY_PSOC3 || CY_PSOC5LP */
 511:.\Generated_Source\PSoC5/CapSense_1_CompCH0.c **** }
 472              		.loc 1 511 0
 473 0074 43EA0020 		orr	r0, r3, r0, lsl #8
 474 0078 F8BD     		pop	{r3, r4, r5, r6, r7, pc}
 475              	.LVL19:
 476              	.L38:
 477 007a 00BF     		.align	2
 478              	.L37:
 479 007c D85A0040 		.word	1073765080
ARM GAS  C:\Users\JohnP\AppData\Local\Temp\ccWhWnfh.s 			page 19


 480 0080 DA5A0040 		.word	1073765082
 481 0084 DB5A0040 		.word	1073765083
 482 0088 36460040 		.word	1073759798
 483 008c 43580040 		.word	1073764419
 484              		.cfi_endproc
 485              	.LFE7:
 486              		.size	CapSense_1_CompCH0_ZeroCal, .-CapSense_1_CompCH0_ZeroCal
 487              		.section	.text.CapSense_1_CompCH0_LoadTrim,"ax",%progbits
 488              		.align	2
 489              		.global	CapSense_1_CompCH0_LoadTrim
 490              		.thumb
 491              		.thumb_func
 492              		.type	CapSense_1_CompCH0_LoadTrim, %function
 493              	CapSense_1_CompCH0_LoadTrim:
 494              	.LFB8:
 512:.\Generated_Source\PSoC5/CapSense_1_CompCH0.c **** 
 513:.\Generated_Source\PSoC5/CapSense_1_CompCH0.c **** 
 514:.\Generated_Source\PSoC5/CapSense_1_CompCH0.c **** /*******************************************************************************
 515:.\Generated_Source\PSoC5/CapSense_1_CompCH0.c **** * Function Name: CapSense_1_CompCH0_LoadTrim
 516:.\Generated_Source\PSoC5/CapSense_1_CompCH0.c **** ********************************************************************************
 517:.\Generated_Source\PSoC5/CapSense_1_CompCH0.c **** *
 518:.\Generated_Source\PSoC5/CapSense_1_CompCH0.c **** * Summary:
 519:.\Generated_Source\PSoC5/CapSense_1_CompCH0.c **** *  This function stores a value in the Analog Comparator trim register.
 520:.\Generated_Source\PSoC5/CapSense_1_CompCH0.c **** *
 521:.\Generated_Source\PSoC5/CapSense_1_CompCH0.c **** * Parameters:  
 522:.\Generated_Source\PSoC5/CapSense_1_CompCH0.c **** *  uint8 trimVal - trim value.  This value is the same format as the value 
 523:.\Generated_Source\PSoC5/CapSense_1_CompCH0.c **** *  returned by the _ZeroCal routine.
 524:.\Generated_Source\PSoC5/CapSense_1_CompCH0.c **** *
 525:.\Generated_Source\PSoC5/CapSense_1_CompCH0.c **** * Return:
 526:.\Generated_Source\PSoC5/CapSense_1_CompCH0.c **** *  None
 527:.\Generated_Source\PSoC5/CapSense_1_CompCH0.c **** *
 528:.\Generated_Source\PSoC5/CapSense_1_CompCH0.c **** *******************************************************************************/
 529:.\Generated_Source\PSoC5/CapSense_1_CompCH0.c **** void CapSense_1_CompCH0_LoadTrim(uint16 trimVal) 
 530:.\Generated_Source\PSoC5/CapSense_1_CompCH0.c **** {
 495              		.loc 1 530 0
 496              		.cfi_startproc
 497              		@ args = 0, pretend = 0, frame = 0
 498              		@ frame_needed = 0, uses_anonymous_args = 0
 499              		@ link register save eliminated.
 500              	.LVL20:
 531:.\Generated_Source\PSoC5/CapSense_1_CompCH0.c ****     /* Stores value in the Analog Comparator trim register */
 532:.\Generated_Source\PSoC5/CapSense_1_CompCH0.c ****     /* PSoC5A */
 533:.\Generated_Source\PSoC5/CapSense_1_CompCH0.c ****     #if (CY_PSOC5A)
 534:.\Generated_Source\PSoC5/CapSense_1_CompCH0.c ****         CapSense_1_CompCH0_TR = (uint8) trimVal;
 535:.\Generated_Source\PSoC5/CapSense_1_CompCH0.c ****     #endif /* CY_PSOC5A */
 536:.\Generated_Source\PSoC5/CapSense_1_CompCH0.c ****     
 537:.\Generated_Source\PSoC5/CapSense_1_CompCH0.c ****     /* PSoC3, PSoC5LP or later */
 538:.\Generated_Source\PSoC5/CapSense_1_CompCH0.c ****     #if (CY_PSOC3 || CY_PSOC5LP)
 539:.\Generated_Source\PSoC5/CapSense_1_CompCH0.c ****         /* Stores value in the Analog Comparator trim register for P-type load */
 540:.\Generated_Source\PSoC5/CapSense_1_CompCH0.c ****         CapSense_1_CompCH0_TR0 = (uint8) trimVal;
 501              		.loc 1 540 0
 502 0000 C2B2     		uxtb	r2, r0
 503 0002 034B     		ldr	r3, .L40
 504 0004 1A70     		strb	r2, [r3]
 541:.\Generated_Source\PSoC5/CapSense_1_CompCH0.c ****         
 542:.\Generated_Source\PSoC5/CapSense_1_CompCH0.c ****         /* Stores value in the Analog Comparator trim register for N-type load */
 543:.\Generated_Source\PSoC5/CapSense_1_CompCH0.c ****         CapSense_1_CompCH0_TR1 = (uint8) (trimVal >> 8); 
ARM GAS  C:\Users\JohnP\AppData\Local\Temp\ccWhWnfh.s 			page 20


 505              		.loc 1 543 0
 506 0006 000A     		lsrs	r0, r0, #8
 507              	.LVL21:
 508 0008 0133     		adds	r3, r3, #1
 509 000a 1870     		strb	r0, [r3]
 510 000c 7047     		bx	lr
 511              	.L41:
 512 000e 00BF     		.align	2
 513              	.L40:
 514 0010 36460040 		.word	1073759798
 515              		.cfi_endproc
 516              	.LFE8:
 517              		.size	CapSense_1_CompCH0_LoadTrim, .-CapSense_1_CompCH0_LoadTrim
 518              		.section	.text.CapSense_1_CompCH0_PwrDwnOverrideEnable,"ax",%progbits
 519              		.align	2
 520              		.global	CapSense_1_CompCH0_PwrDwnOverrideEnable
 521              		.thumb
 522              		.thumb_func
 523              		.type	CapSense_1_CompCH0_PwrDwnOverrideEnable, %function
 524              	CapSense_1_CompCH0_PwrDwnOverrideEnable:
 525              	.LFB9:
 544:.\Generated_Source\PSoC5/CapSense_1_CompCH0.c ****     #endif /* CY_PSOC3 || CY_PSOC5LP */
 545:.\Generated_Source\PSoC5/CapSense_1_CompCH0.c **** }
 546:.\Generated_Source\PSoC5/CapSense_1_CompCH0.c **** 
 547:.\Generated_Source\PSoC5/CapSense_1_CompCH0.c **** 
 548:.\Generated_Source\PSoC5/CapSense_1_CompCH0.c **** #if (CY_PSOC3 || CY_PSOC5LP)
 549:.\Generated_Source\PSoC5/CapSense_1_CompCH0.c **** 
 550:.\Generated_Source\PSoC5/CapSense_1_CompCH0.c ****     /*******************************************************************************
 551:.\Generated_Source\PSoC5/CapSense_1_CompCH0.c ****     * Function Name: CapSense_1_CompCH0_PwrDwnOverrideEnable
 552:.\Generated_Source\PSoC5/CapSense_1_CompCH0.c ****     ********************************************************************************
 553:.\Generated_Source\PSoC5/CapSense_1_CompCH0.c ****     *
 554:.\Generated_Source\PSoC5/CapSense_1_CompCH0.c ****     * Summary:
 555:.\Generated_Source\PSoC5/CapSense_1_CompCH0.c ****     *  This is the power down over-ride feature. This function ignores sleep 
 556:.\Generated_Source\PSoC5/CapSense_1_CompCH0.c ****     *  parameter and allows the component to stay active during sleep mode.
 557:.\Generated_Source\PSoC5/CapSense_1_CompCH0.c ****     *
 558:.\Generated_Source\PSoC5/CapSense_1_CompCH0.c ****     * Parameters:
 559:.\Generated_Source\PSoC5/CapSense_1_CompCH0.c ****     *  None
 560:.\Generated_Source\PSoC5/CapSense_1_CompCH0.c ****     *
 561:.\Generated_Source\PSoC5/CapSense_1_CompCH0.c ****     * Return:
 562:.\Generated_Source\PSoC5/CapSense_1_CompCH0.c ****     *  None
 563:.\Generated_Source\PSoC5/CapSense_1_CompCH0.c ****     *
 564:.\Generated_Source\PSoC5/CapSense_1_CompCH0.c ****     *******************************************************************************/
 565:.\Generated_Source\PSoC5/CapSense_1_CompCH0.c ****     void CapSense_1_CompCH0_PwrDwnOverrideEnable(void) 
 566:.\Generated_Source\PSoC5/CapSense_1_CompCH0.c ****     {
 526              		.loc 1 566 0
 527              		.cfi_startproc
 528              		@ args = 0, pretend = 0, frame = 0
 529              		@ frame_needed = 0, uses_anonymous_args = 0
 530              		@ link register save eliminated.
 567:.\Generated_Source\PSoC5/CapSense_1_CompCH0.c ****         /* Set the pd_override bit in CMP_CR register */
 568:.\Generated_Source\PSoC5/CapSense_1_CompCH0.c ****         CapSense_1_CompCH0_CR |= CapSense_1_CompCH0_PWRDWN_OVRD;
 531              		.loc 1 568 0
 532 0000 024B     		ldr	r3, .L43
 533 0002 1A78     		ldrb	r2, [r3]	@ zero_extendqisi2
 534 0004 42F00402 		orr	r2, r2, #4
 535 0008 1A70     		strb	r2, [r3]
 536 000a 7047     		bx	lr
ARM GAS  C:\Users\JohnP\AppData\Local\Temp\ccWhWnfh.s 			page 21


 537              	.L44:
 538              		.align	2
 539              	.L43:
 540 000c 43580040 		.word	1073764419
 541              		.cfi_endproc
 542              	.LFE9:
 543              		.size	CapSense_1_CompCH0_PwrDwnOverrideEnable, .-CapSense_1_CompCH0_PwrDwnOverrideEnable
 544              		.section	.text.CapSense_1_CompCH0_PwrDwnOverrideDisable,"ax",%progbits
 545              		.align	2
 546              		.global	CapSense_1_CompCH0_PwrDwnOverrideDisable
 547              		.thumb
 548              		.thumb_func
 549              		.type	CapSense_1_CompCH0_PwrDwnOverrideDisable, %function
 550              	CapSense_1_CompCH0_PwrDwnOverrideDisable:
 551              	.LFB10:
 569:.\Generated_Source\PSoC5/CapSense_1_CompCH0.c ****     }
 570:.\Generated_Source\PSoC5/CapSense_1_CompCH0.c **** 
 571:.\Generated_Source\PSoC5/CapSense_1_CompCH0.c **** 
 572:.\Generated_Source\PSoC5/CapSense_1_CompCH0.c ****     /*******************************************************************************
 573:.\Generated_Source\PSoC5/CapSense_1_CompCH0.c ****     * Function Name: CapSense_1_CompCH0_PwrDwnOverrideDisable
 574:.\Generated_Source\PSoC5/CapSense_1_CompCH0.c ****     ********************************************************************************
 575:.\Generated_Source\PSoC5/CapSense_1_CompCH0.c ****     *
 576:.\Generated_Source\PSoC5/CapSense_1_CompCH0.c ****     * Summary:
 577:.\Generated_Source\PSoC5/CapSense_1_CompCH0.c ****     *  This is the power down over-ride feature. This allows the component to stay
 578:.\Generated_Source\PSoC5/CapSense_1_CompCH0.c ****     *  inactive during sleep.
 579:.\Generated_Source\PSoC5/CapSense_1_CompCH0.c ****     *
 580:.\Generated_Source\PSoC5/CapSense_1_CompCH0.c ****     * Parameters:
 581:.\Generated_Source\PSoC5/CapSense_1_CompCH0.c ****     *  None
 582:.\Generated_Source\PSoC5/CapSense_1_CompCH0.c ****     *
 583:.\Generated_Source\PSoC5/CapSense_1_CompCH0.c ****     * Return:
 584:.\Generated_Source\PSoC5/CapSense_1_CompCH0.c ****     *  None
 585:.\Generated_Source\PSoC5/CapSense_1_CompCH0.c ****     *
 586:.\Generated_Source\PSoC5/CapSense_1_CompCH0.c ****     *******************************************************************************/
 587:.\Generated_Source\PSoC5/CapSense_1_CompCH0.c ****     void CapSense_1_CompCH0_PwrDwnOverrideDisable(void) 
 588:.\Generated_Source\PSoC5/CapSense_1_CompCH0.c ****     {
 552              		.loc 1 588 0
 553              		.cfi_startproc
 554              		@ args = 0, pretend = 0, frame = 0
 555              		@ frame_needed = 0, uses_anonymous_args = 0
 556              		@ link register save eliminated.
 589:.\Generated_Source\PSoC5/CapSense_1_CompCH0.c ****         /* Reset the pd_override bit in CMP_CR register */
 590:.\Generated_Source\PSoC5/CapSense_1_CompCH0.c ****         CapSense_1_CompCH0_CR &= (uint8)(~CapSense_1_CompCH0_PWRDWN_OVRD);
 557              		.loc 1 590 0
 558 0000 024B     		ldr	r3, .L46
 559 0002 1A78     		ldrb	r2, [r3]	@ zero_extendqisi2
 560 0004 02F0FB02 		and	r2, r2, #251
 561 0008 1A70     		strb	r2, [r3]
 562 000a 7047     		bx	lr
 563              	.L47:
 564              		.align	2
 565              	.L46:
 566 000c 43580040 		.word	1073764419
 567              		.cfi_endproc
 568              	.LFE10:
 569              		.size	CapSense_1_CompCH0_PwrDwnOverrideDisable, .-CapSense_1_CompCH0_PwrDwnOverrideDisable
 570              		.global	CapSense_1_CompCH0_initVar
 571              		.bss
ARM GAS  C:\Users\JohnP\AppData\Local\Temp\ccWhWnfh.s 			page 22


 572              		.set	.LANCHOR0,. + 0
 573              		.type	CapSense_1_CompCH0_initVar, %object
 574              		.size	CapSense_1_CompCH0_initVar, 1
 575              	CapSense_1_CompCH0_initVar:
 576 0000 00       		.space	1
 577              		.text
 578              	.Letext0:
 579              		.file 2 ".\\Generated_Source\\PSoC5\\cytypes.h"
 580              		.file 3 ".\\Generated_Source\\PSoC5\\CyLib.h"