ARM GAS  C:\Users\JohnP\AppData\Local\Temp\ccMCOjex.s 			page 1


   1              		.syntax unified
   2              		.cpu cortex-m3
   3              		.fpu softvfp
   4              		.eabi_attribute 20, 1
   5              		.eabi_attribute 21, 1
   6              		.eabi_attribute 23, 3
   7              		.eabi_attribute 24, 1
   8              		.eabi_attribute 25, 1
   9              		.eabi_attribute 26, 1
  10              		.eabi_attribute 30, 1
  11              		.eabi_attribute 34, 1
  12              		.eabi_attribute 18, 4
  13              		.thumb
  14              		.file	"CapSense_1_CSHL.c"
  15              		.text
  16              	.Ltext0:
  17              		.cfi_sections	.debug_frame
  18              		.section	.text.CapSense_1_BaseInit,"ax",%progbits
  19              		.align	2
  20              		.global	CapSense_1_BaseInit
  21              		.thumb
  22              		.thumb_func
  23              		.type	CapSense_1_BaseInit, %function
  24              	CapSense_1_BaseInit:
  25              	.LFB0:
  26              		.file 1 ".\\Generated_Source\\PSoC5\\CapSense_1_CSHL.c"
   1:.\Generated_Source\PSoC5/CapSense_1_CSHL.c **** /*******************************************************************************
   2:.\Generated_Source\PSoC5/CapSense_1_CSHL.c **** * File Name: CapSense_1_CSHL.c
   3:.\Generated_Source\PSoC5/CapSense_1_CSHL.c **** * Version 3.50
   4:.\Generated_Source\PSoC5/CapSense_1_CSHL.c **** *
   5:.\Generated_Source\PSoC5/CapSense_1_CSHL.c **** * Description:
   6:.\Generated_Source\PSoC5/CapSense_1_CSHL.c **** *  This file provides the source code to the High Level APIs for the CapSesne
   7:.\Generated_Source\PSoC5/CapSense_1_CSHL.c **** *  CSD component.
   8:.\Generated_Source\PSoC5/CapSense_1_CSHL.c **** *
   9:.\Generated_Source\PSoC5/CapSense_1_CSHL.c **** * Note:
  10:.\Generated_Source\PSoC5/CapSense_1_CSHL.c **** *
  11:.\Generated_Source\PSoC5/CapSense_1_CSHL.c **** ********************************************************************************
  12:.\Generated_Source\PSoC5/CapSense_1_CSHL.c **** * Copyright 2008-2013, Cypress Semiconductor Corporation.  All rights reserved.
  13:.\Generated_Source\PSoC5/CapSense_1_CSHL.c **** * You may use this file only in accordance with the license, terms, conditions,
  14:.\Generated_Source\PSoC5/CapSense_1_CSHL.c **** * disclaimers, and limitations in the end user license agreement accompanying
  15:.\Generated_Source\PSoC5/CapSense_1_CSHL.c **** * the software package with which this file was provided.
  16:.\Generated_Source\PSoC5/CapSense_1_CSHL.c **** *******************************************************************************/
  17:.\Generated_Source\PSoC5/CapSense_1_CSHL.c **** 
  18:.\Generated_Source\PSoC5/CapSense_1_CSHL.c **** #include "CapSense_1_CSHL.h"
  19:.\Generated_Source\PSoC5/CapSense_1_CSHL.c **** 
  20:.\Generated_Source\PSoC5/CapSense_1_CSHL.c **** /* Storage of filters data */
  21:.\Generated_Source\PSoC5/CapSense_1_CSHL.c **** #if ( (CapSense_1_RAW_FILTER_MASK & CapSense_1_MEDIAN_FILTER) | \
  22:.\Generated_Source\PSoC5/CapSense_1_CSHL.c ****       (CapSense_1_RAW_FILTER_MASK & CapSense_1_AVERAGING_FILTER) )
  23:.\Generated_Source\PSoC5/CapSense_1_CSHL.c **** 
  24:.\Generated_Source\PSoC5/CapSense_1_CSHL.c ****     uint16 CapSense_1_rawFilterData1[CapSense_1_TOTAL_SENSOR_COUNT];
  25:.\Generated_Source\PSoC5/CapSense_1_CSHL.c ****     uint16 CapSense_1_rawFilterData2[CapSense_1_TOTAL_SENSOR_COUNT];
  26:.\Generated_Source\PSoC5/CapSense_1_CSHL.c **** 
  27:.\Generated_Source\PSoC5/CapSense_1_CSHL.c **** #elif ( (CapSense_1_RAW_FILTER_MASK & CapSense_1_IIR2_FILTER)   | \
  28:.\Generated_Source\PSoC5/CapSense_1_CSHL.c ****         (CapSense_1_RAW_FILTER_MASK & CapSense_1_IIR4_FILTER)   | \
  29:.\Generated_Source\PSoC5/CapSense_1_CSHL.c ****         (CapSense_1_RAW_FILTER_MASK & CapSense_1_JITTER_FILTER) | \
  30:.\Generated_Source\PSoC5/CapSense_1_CSHL.c ****         (CapSense_1_RAW_FILTER_MASK & CapSense_1_IIR8_FILTER)   | \
  31:.\Generated_Source\PSoC5/CapSense_1_CSHL.c ****         (CapSense_1_RAW_FILTER_MASK & CapSense_1_IIR16_FILTER) )
ARM GAS  C:\Users\JohnP\AppData\Local\Temp\ccMCOjex.s 			page 2


  32:.\Generated_Source\PSoC5/CapSense_1_CSHL.c ****         
  33:.\Generated_Source\PSoC5/CapSense_1_CSHL.c ****     uint16 CapSense_1_rawFilterData1[CapSense_1_TOTAL_SENSOR_COUNT];
  34:.\Generated_Source\PSoC5/CapSense_1_CSHL.c **** 
  35:.\Generated_Source\PSoC5/CapSense_1_CSHL.c **** #else
  36:.\Generated_Source\PSoC5/CapSense_1_CSHL.c ****     /* No Raw filters */
  37:.\Generated_Source\PSoC5/CapSense_1_CSHL.c **** #endif  /* ( (CapSense_1_RAW_FILTER_MASK & CapSense_1_MEDIAN_FILTER) || \
  38:.\Generated_Source\PSoC5/CapSense_1_CSHL.c ****         *    (CapSense_1_RAW_FILTER_MASK & CapSense_1_AVERAGING_FILTER) )
  39:.\Generated_Source\PSoC5/CapSense_1_CSHL.c ****         */
  40:.\Generated_Source\PSoC5/CapSense_1_CSHL.c **** 
  41:.\Generated_Source\PSoC5/CapSense_1_CSHL.c **** uint16 CapSense_1_sensorBaseline[CapSense_1_TOTAL_SENSOR_COUNT];
  42:.\Generated_Source\PSoC5/CapSense_1_CSHL.c **** uint8 CapSense_1_sensorBaselineLow[CapSense_1_TOTAL_SENSOR_COUNT];
  43:.\Generated_Source\PSoC5/CapSense_1_CSHL.c **** uint8 CapSense_1_sensorSignal[CapSense_1_TOTAL_SENSOR_COUNT];
  44:.\Generated_Source\PSoC5/CapSense_1_CSHL.c **** uint8 CapSense_1_sensorOnMask[(((CapSense_1_TOTAL_SENSOR_COUNT - 1u) / 8u) + 1u)];
  45:.\Generated_Source\PSoC5/CapSense_1_CSHL.c **** 
  46:.\Generated_Source\PSoC5/CapSense_1_CSHL.c **** uint8 CapSense_1_lowBaselineResetCnt[CapSense_1_TOTAL_SENSOR_COUNT];
  47:.\Generated_Source\PSoC5/CapSense_1_CSHL.c **** 
  48:.\Generated_Source\PSoC5/CapSense_1_CSHL.c **** uint8 CapSense_1_fingerThreshold[] = {
  49:.\Generated_Source\PSoC5/CapSense_1_CSHL.c ****     100u, 
  50:.\Generated_Source\PSoC5/CapSense_1_CSHL.c **** };
  51:.\Generated_Source\PSoC5/CapSense_1_CSHL.c **** 
  52:.\Generated_Source\PSoC5/CapSense_1_CSHL.c **** uint8 CapSense_1_noiseThreshold[] = {
  53:.\Generated_Source\PSoC5/CapSense_1_CSHL.c ****     20u, 
  54:.\Generated_Source\PSoC5/CapSense_1_CSHL.c **** };
  55:.\Generated_Source\PSoC5/CapSense_1_CSHL.c **** 
  56:.\Generated_Source\PSoC5/CapSense_1_CSHL.c **** uint8 CapSense_1_hysteresis[] = {
  57:.\Generated_Source\PSoC5/CapSense_1_CSHL.c ****     10u, 
  58:.\Generated_Source\PSoC5/CapSense_1_CSHL.c **** };
  59:.\Generated_Source\PSoC5/CapSense_1_CSHL.c **** 
  60:.\Generated_Source\PSoC5/CapSense_1_CSHL.c **** uint8 CapSense_1_debounce[] = {
  61:.\Generated_Source\PSoC5/CapSense_1_CSHL.c ****     1u, 
  62:.\Generated_Source\PSoC5/CapSense_1_CSHL.c **** };
  63:.\Generated_Source\PSoC5/CapSense_1_CSHL.c **** 
  64:.\Generated_Source\PSoC5/CapSense_1_CSHL.c **** uint8 CapSense_1_debounceCounter[] = {
  65:.\Generated_Source\PSoC5/CapSense_1_CSHL.c ****     0u, 0u, 
  66:.\Generated_Source\PSoC5/CapSense_1_CSHL.c **** };
  67:.\Generated_Source\PSoC5/CapSense_1_CSHL.c **** 
  68:.\Generated_Source\PSoC5/CapSense_1_CSHL.c **** const uint8 CYCODE CapSense_1_rawDataIndex[] = {
  69:.\Generated_Source\PSoC5/CapSense_1_CSHL.c ****     0u, /* DummyWidget__BTN */
  70:.\Generated_Source\PSoC5/CapSense_1_CSHL.c **** 
  71:.\Generated_Source\PSoC5/CapSense_1_CSHL.c **** };
  72:.\Generated_Source\PSoC5/CapSense_1_CSHL.c **** 
  73:.\Generated_Source\PSoC5/CapSense_1_CSHL.c **** const uint8 CYCODE CapSense_1_numberOfSensors[] = {
  74:.\Generated_Source\PSoC5/CapSense_1_CSHL.c ****     1u, /* DummyWidget__BTN */
  75:.\Generated_Source\PSoC5/CapSense_1_CSHL.c **** 
  76:.\Generated_Source\PSoC5/CapSense_1_CSHL.c **** };
  77:.\Generated_Source\PSoC5/CapSense_1_CSHL.c **** 
  78:.\Generated_Source\PSoC5/CapSense_1_CSHL.c **** 
  79:.\Generated_Source\PSoC5/CapSense_1_CSHL.c **** 
  80:.\Generated_Source\PSoC5/CapSense_1_CSHL.c **** 
  81:.\Generated_Source\PSoC5/CapSense_1_CSHL.c **** /*******************************************************************************
  82:.\Generated_Source\PSoC5/CapSense_1_CSHL.c **** * Function Name: CapSense_1_BaseInit
  83:.\Generated_Source\PSoC5/CapSense_1_CSHL.c **** ********************************************************************************
  84:.\Generated_Source\PSoC5/CapSense_1_CSHL.c **** *
  85:.\Generated_Source\PSoC5/CapSense_1_CSHL.c **** * Summary:
  86:.\Generated_Source\PSoC5/CapSense_1_CSHL.c **** *  Loads the CapSense_1_sensorBaseline[sensor] array element with an 
  87:.\Generated_Source\PSoC5/CapSense_1_CSHL.c **** *  initial value which is equal to raw count value. 
  88:.\Generated_Source\PSoC5/CapSense_1_CSHL.c **** *  Resets to zero CapSense_1_sensorBaselineLow[sensor] and 
ARM GAS  C:\Users\JohnP\AppData\Local\Temp\ccMCOjex.s 			page 3


  89:.\Generated_Source\PSoC5/CapSense_1_CSHL.c **** *  CapSense_1_sensorSignal[sensor] array element.
  90:.\Generated_Source\PSoC5/CapSense_1_CSHL.c **** *  Loads CapSense_1_debounceCounter[sensor] array element with initial 
  91:.\Generated_Source\PSoC5/CapSense_1_CSHL.c **** *  value equal CapSense_1_debounce[].
  92:.\Generated_Source\PSoC5/CapSense_1_CSHL.c **** *  Loads the CapSense_1_rawFilterData2[sensor] and 
  93:.\Generated_Source\PSoC5/CapSense_1_CSHL.c **** *  CapSense_1_rawFilterData2[sensor] array element with an 
  94:.\Generated_Source\PSoC5/CapSense_1_CSHL.c **** *  initial value which is equal raw count value if raw data filter is enabled.
  95:.\Generated_Source\PSoC5/CapSense_1_CSHL.c **** *
  96:.\Generated_Source\PSoC5/CapSense_1_CSHL.c **** * Parameters:
  97:.\Generated_Source\PSoC5/CapSense_1_CSHL.c **** *  sensor:  Sensor number.
  98:.\Generated_Source\PSoC5/CapSense_1_CSHL.c **** *
  99:.\Generated_Source\PSoC5/CapSense_1_CSHL.c **** * Return:
 100:.\Generated_Source\PSoC5/CapSense_1_CSHL.c **** *  None
 101:.\Generated_Source\PSoC5/CapSense_1_CSHL.c **** *
 102:.\Generated_Source\PSoC5/CapSense_1_CSHL.c **** * Global Variables:
 103:.\Generated_Source\PSoC5/CapSense_1_CSHL.c **** *  CapSense_1_sensorBaseline[]    - used to store baseline value.
 104:.\Generated_Source\PSoC5/CapSense_1_CSHL.c **** *  CapSense_1_sensorBaselineLow[] - used to store fraction byte of 
 105:.\Generated_Source\PSoC5/CapSense_1_CSHL.c **** *  baseline value.
 106:.\Generated_Source\PSoC5/CapSense_1_CSHL.c **** *  CapSense_1_sensorSignal[]      - used to store diffence between 
 107:.\Generated_Source\PSoC5/CapSense_1_CSHL.c **** *  current value of raw data and previous value of baseline.
 108:.\Generated_Source\PSoC5/CapSense_1_CSHL.c **** *  CapSense_1_debounceCounter[]   - used to store current debounce 
 109:.\Generated_Source\PSoC5/CapSense_1_CSHL.c **** *  counter of sensor. Widget which has this parameter are buttons, matrix 
 110:.\Generated_Source\PSoC5/CapSense_1_CSHL.c **** *  buttons, proximity, guard. All other widgets haven't debounce parameter
 111:.\Generated_Source\PSoC5/CapSense_1_CSHL.c **** *  and use the last element of this array with value 0 (it means no debounce).
 112:.\Generated_Source\PSoC5/CapSense_1_CSHL.c **** *  CapSense_1_rawFilterData1[]    - used to store previous sample of 
 113:.\Generated_Source\PSoC5/CapSense_1_CSHL.c **** *  any enabled raw data filter.
 114:.\Generated_Source\PSoC5/CapSense_1_CSHL.c **** *  CapSense_1_rawFilterData2[]    - used to store before previous sample
 115:.\Generated_Source\PSoC5/CapSense_1_CSHL.c **** *  of enabled raw data filter. Only required for median or average filters.
 116:.\Generated_Source\PSoC5/CapSense_1_CSHL.c **** *
 117:.\Generated_Source\PSoC5/CapSense_1_CSHL.c **** * Reentrant:
 118:.\Generated_Source\PSoC5/CapSense_1_CSHL.c **** *  No
 119:.\Generated_Source\PSoC5/CapSense_1_CSHL.c **** *
 120:.\Generated_Source\PSoC5/CapSense_1_CSHL.c **** *******************************************************************************/
 121:.\Generated_Source\PSoC5/CapSense_1_CSHL.c **** void CapSense_1_BaseInit(uint8 sensor) 
 122:.\Generated_Source\PSoC5/CapSense_1_CSHL.c **** {
  27              		.loc 1 122 0
  28              		.cfi_startproc
  29              		@ args = 0, pretend = 0, frame = 0
  30              		@ frame_needed = 0, uses_anonymous_args = 0
  31              		@ link register save eliminated.
  32              	.LVL0:
  33 0000 10B4     		push	{r4}
  34              		.cfi_def_cfa_offset 4
  35              		.cfi_offset 4, -4
 123:.\Generated_Source\PSoC5/CapSense_1_CSHL.c ****     #if ((CapSense_1_TOTAL_BUTTONS_COUNT) || (CapSense_1_TOTAL_MATRIX_BUTTONS_COUNT) || \
 124:.\Generated_Source\PSoC5/CapSense_1_CSHL.c ****          (CapSense_1_TOTAL_GENERICS_COUNT))
 125:.\Generated_Source\PSoC5/CapSense_1_CSHL.c ****         uint8 widget = CapSense_1_widgetNumber[sensor];
  36              		.loc 1 125 0
  37 0002 0B4B     		ldr	r3, .L2
  38 0004 1A5C     		ldrb	r2, [r3, r0]	@ zero_extendqisi2
  39              	.LVL1:
 126:.\Generated_Source\PSoC5/CapSense_1_CSHL.c ****     #endif /* ((CapSense_1_TOTAL_MATRIX_BUTTONS_COUNT) || (CapSense_1_TOTAL_MATRIX_BUTTONS_COUNT)) 
 127:.\Generated_Source\PSoC5/CapSense_1_CSHL.c ****     
 128:.\Generated_Source\PSoC5/CapSense_1_CSHL.c ****     #if (CapSense_1_TOTAL_MATRIX_BUTTONS_COUNT)
 129:.\Generated_Source\PSoC5/CapSense_1_CSHL.c ****         uint8 debounceIndex;
 130:.\Generated_Source\PSoC5/CapSense_1_CSHL.c ****     #endif  /* (CapSense_1_TOTAL_MATRIX_BUTTONS_COUNT) */
 131:.\Generated_Source\PSoC5/CapSense_1_CSHL.c ****     
 132:.\Generated_Source\PSoC5/CapSense_1_CSHL.c ****     #if (CapSense_1_TOTAL_GENERICS_COUNT)
ARM GAS  C:\Users\JohnP\AppData\Local\Temp\ccMCOjex.s 			page 4


 133:.\Generated_Source\PSoC5/CapSense_1_CSHL.c ****         /* Exclude generic widget */
 134:.\Generated_Source\PSoC5/CapSense_1_CSHL.c ****         if(widget < CapSense_1_END_OF_WIDGETS_INDEX)
 135:.\Generated_Source\PSoC5/CapSense_1_CSHL.c ****         {
 136:.\Generated_Source\PSoC5/CapSense_1_CSHL.c ****     #endif  /* CapSense_1_TOTAL_GENERICS_COUNT */
 137:.\Generated_Source\PSoC5/CapSense_1_CSHL.c ****     
 138:.\Generated_Source\PSoC5/CapSense_1_CSHL.c ****     /* Initialize Baseline */
 139:.\Generated_Source\PSoC5/CapSense_1_CSHL.c ****     CapSense_1_sensorBaseline[sensor] = CapSense_1_sensorRaw[sensor];
  40              		.loc 1 139 0
  41 0006 0B4B     		ldr	r3, .L2+4
  42              	.LVL2:
  43 0008 33F81030 		ldrh	r3, [r3, r0, lsl #1]
  44 000c 0A49     		ldr	r1, .L2+8
  45 000e 21F81030 		strh	r3, [r1, r0, lsl #1]	@ movhi
 140:.\Generated_Source\PSoC5/CapSense_1_CSHL.c ****     CapSense_1_sensorBaselineLow[sensor] = 0u;
  46              		.loc 1 140 0
  47 0012 0021     		movs	r1, #0
  48 0014 094C     		ldr	r4, .L2+12
  49 0016 2154     		strb	r1, [r4, r0]
 141:.\Generated_Source\PSoC5/CapSense_1_CSHL.c ****     CapSense_1_sensorSignal[sensor] = 0u;
  50              		.loc 1 141 0
  51 0018 094C     		ldr	r4, .L2+16
  52 001a 2154     		strb	r1, [r4, r0]
 142:.\Generated_Source\PSoC5/CapSense_1_CSHL.c ****         
 143:.\Generated_Source\PSoC5/CapSense_1_CSHL.c ****     CapSense_1_debounceCounter[widget] =  CapSense_1_debounce[widget];
  53              		.loc 1 143 0
  54 001c 0949     		ldr	r1, .L2+20
  55 001e 8C5C     		ldrb	r4, [r1, r2]	@ zero_extendqisi2
  56 0020 0949     		ldr	r1, .L2+24
  57 0022 8C54     		strb	r4, [r1, r2]
 144:.\Generated_Source\PSoC5/CapSense_1_CSHL.c **** 
 145:.\Generated_Source\PSoC5/CapSense_1_CSHL.c ****     
 146:.\Generated_Source\PSoC5/CapSense_1_CSHL.c ****     #if ((CapSense_1_RAW_FILTER_MASK & CapSense_1_MEDIAN_FILTER) |\
 147:.\Generated_Source\PSoC5/CapSense_1_CSHL.c ****          (CapSense_1_RAW_FILTER_MASK & CapSense_1_AVERAGING_FILTER))
 148:.\Generated_Source\PSoC5/CapSense_1_CSHL.c **** 
 149:.\Generated_Source\PSoC5/CapSense_1_CSHL.c ****         CapSense_1_rawFilterData1[sensor] = CapSense_1_sensorRaw[sensor];
 150:.\Generated_Source\PSoC5/CapSense_1_CSHL.c ****         CapSense_1_rawFilterData2[sensor] = CapSense_1_sensorRaw[sensor];
 151:.\Generated_Source\PSoC5/CapSense_1_CSHL.c ****     
 152:.\Generated_Source\PSoC5/CapSense_1_CSHL.c ****     #elif ((CapSense_1_RAW_FILTER_MASK & CapSense_1_IIR2_FILTER) |\
 153:.\Generated_Source\PSoC5/CapSense_1_CSHL.c ****            (CapSense_1_RAW_FILTER_MASK & CapSense_1_IIR4_FILTER) |\
 154:.\Generated_Source\PSoC5/CapSense_1_CSHL.c ****            (CapSense_1_RAW_FILTER_MASK & CapSense_1_JITTER_FILTER) |\
 155:.\Generated_Source\PSoC5/CapSense_1_CSHL.c ****            (CapSense_1_RAW_FILTER_MASK & CapSense_1_IIR8_FILTER) |\
 156:.\Generated_Source\PSoC5/CapSense_1_CSHL.c ****            (CapSense_1_RAW_FILTER_MASK & CapSense_1_IIR16_FILTER))
 157:.\Generated_Source\PSoC5/CapSense_1_CSHL.c ****             
 158:.\Generated_Source\PSoC5/CapSense_1_CSHL.c ****         CapSense_1_rawFilterData1[sensor] = CapSense_1_sensorRaw[sensor];
  58              		.loc 1 158 0
  59 0024 094A     		ldr	r2, .L2+28
  60 0026 22F81030 		strh	r3, [r2, r0, lsl #1]	@ movhi
 159:.\Generated_Source\PSoC5/CapSense_1_CSHL.c ****     
 160:.\Generated_Source\PSoC5/CapSense_1_CSHL.c ****     #else
 161:.\Generated_Source\PSoC5/CapSense_1_CSHL.c ****         /* No Raw filters */
 162:.\Generated_Source\PSoC5/CapSense_1_CSHL.c ****     #endif  /* ((CapSense_1_RAW_FILTER_MASK & CapSense_1_MEDIAN_FILTER) | \
 163:.\Generated_Source\PSoC5/CapSense_1_CSHL.c ****             *   (CapSense_1_RAW_FILTER_MASK & CapSense_1_AVERAGING_FILTER))
 164:.\Generated_Source\PSoC5/CapSense_1_CSHL.c ****             */
 165:.\Generated_Source\PSoC5/CapSense_1_CSHL.c ****     
 166:.\Generated_Source\PSoC5/CapSense_1_CSHL.c ****     #if (CapSense_1_TOTAL_GENERICS_COUNT)
 167:.\Generated_Source\PSoC5/CapSense_1_CSHL.c ****         /* Exclude generic widget */
 168:.\Generated_Source\PSoC5/CapSense_1_CSHL.c ****         }
ARM GAS  C:\Users\JohnP\AppData\Local\Temp\ccMCOjex.s 			page 5


 169:.\Generated_Source\PSoC5/CapSense_1_CSHL.c ****     #endif  /* CapSense_1_TOTAL_GENERICS_COUNT */
 170:.\Generated_Source\PSoC5/CapSense_1_CSHL.c **** }
  61              		.loc 1 170 0
  62 002a 5DF8044B 		ldr	r4, [sp], #4
  63 002e 7047     		bx	lr
  64              	.L3:
  65              		.align	2
  66              	.L2:
  67 0030 00000000 		.word	CapSense_1_widgetNumber
  68 0034 00000000 		.word	CapSense_1_sensorRaw
  69 0038 00000000 		.word	CapSense_1_sensorBaseline
  70 003c 00000000 		.word	CapSense_1_sensorBaselineLow
  71 0040 00000000 		.word	CapSense_1_sensorSignal
  72 0044 00000000 		.word	.LANCHOR0
  73 0048 00000000 		.word	.LANCHOR1
  74 004c 00000000 		.word	CapSense_1_rawFilterData1
  75              		.cfi_endproc
  76              	.LFE0:
  77              		.size	CapSense_1_BaseInit, .-CapSense_1_BaseInit
  78              		.section	.text.CapSense_1_InitializeSensorBaseline,"ax",%progbits
  79              		.align	2
  80              		.global	CapSense_1_InitializeSensorBaseline
  81              		.thumb
  82              		.thumb_func
  83              		.type	CapSense_1_InitializeSensorBaseline, %function
  84              	CapSense_1_InitializeSensorBaseline:
  85              	.LFB1:
 171:.\Generated_Source\PSoC5/CapSense_1_CSHL.c **** 
 172:.\Generated_Source\PSoC5/CapSense_1_CSHL.c **** 
 173:.\Generated_Source\PSoC5/CapSense_1_CSHL.c **** /*******************************************************************************
 174:.\Generated_Source\PSoC5/CapSense_1_CSHL.c **** * Function Name: CapSense_1_InitializeSensorBaseline
 175:.\Generated_Source\PSoC5/CapSense_1_CSHL.c **** ********************************************************************************
 176:.\Generated_Source\PSoC5/CapSense_1_CSHL.c **** *
 177:.\Generated_Source\PSoC5/CapSense_1_CSHL.c **** * Summary:
 178:.\Generated_Source\PSoC5/CapSense_1_CSHL.c **** *  Loads the CapSense_1_sensorBaseline[sensor] array element with an 
 179:.\Generated_Source\PSoC5/CapSense_1_CSHL.c **** *  initial value by scanning the selected sensor (one channel design) or pair 
 180:.\Generated_Source\PSoC5/CapSense_1_CSHL.c **** *  of sensors (two channels designs). The raw count value is copied into the 
 181:.\Generated_Source\PSoC5/CapSense_1_CSHL.c **** *  baseline array for each sensor. The raw data filters are initialized if 
 182:.\Generated_Source\PSoC5/CapSense_1_CSHL.c **** *  enabled.
 183:.\Generated_Source\PSoC5/CapSense_1_CSHL.c **** *
 184:.\Generated_Source\PSoC5/CapSense_1_CSHL.c **** * Parameters:
 185:.\Generated_Source\PSoC5/CapSense_1_CSHL.c **** *  sensor:  Sensor number.
 186:.\Generated_Source\PSoC5/CapSense_1_CSHL.c **** *
 187:.\Generated_Source\PSoC5/CapSense_1_CSHL.c **** * Return:
 188:.\Generated_Source\PSoC5/CapSense_1_CSHL.c **** *  None
 189:.\Generated_Source\PSoC5/CapSense_1_CSHL.c **** *
 190:.\Generated_Source\PSoC5/CapSense_1_CSHL.c **** * Reentrant:
 191:.\Generated_Source\PSoC5/CapSense_1_CSHL.c **** *  No
 192:.\Generated_Source\PSoC5/CapSense_1_CSHL.c **** *
 193:.\Generated_Source\PSoC5/CapSense_1_CSHL.c **** *******************************************************************************/
 194:.\Generated_Source\PSoC5/CapSense_1_CSHL.c **** void CapSense_1_InitializeSensorBaseline(uint8 sensor)
 195:.\Generated_Source\PSoC5/CapSense_1_CSHL.c ****                           
 196:.\Generated_Source\PSoC5/CapSense_1_CSHL.c **** {
  86              		.loc 1 196 0
  87              		.cfi_startproc
  88              		@ args = 0, pretend = 0, frame = 0
  89              		@ frame_needed = 0, uses_anonymous_args = 0
ARM GAS  C:\Users\JohnP\AppData\Local\Temp\ccMCOjex.s 			page 6


  90              	.LVL3:
  91 0000 10B5     		push	{r4, lr}
  92              		.cfi_def_cfa_offset 8
  93              		.cfi_offset 4, -8
  94              		.cfi_offset 14, -4
  95 0002 0446     		mov	r4, r0
 197:.\Generated_Source\PSoC5/CapSense_1_CSHL.c ****     /* Scan sensor */
 198:.\Generated_Source\PSoC5/CapSense_1_CSHL.c ****     CapSense_1_ScanSensor(sensor);
  96              		.loc 1 198 0
  97 0004 FFF7FEFF 		bl	CapSense_1_ScanSensor
  98              	.LVL4:
  99              	.L5:
 199:.\Generated_Source\PSoC5/CapSense_1_CSHL.c ****     while(CapSense_1_IsBusy() != 0u)
 100              		.loc 1 199 0 discriminator 1
 101 0008 FFF7FEFF 		bl	CapSense_1_IsBusy
 102              	.LVL5:
 103 000c 0028     		cmp	r0, #0
 104 000e FBD1     		bne	.L5
 200:.\Generated_Source\PSoC5/CapSense_1_CSHL.c ****     {
 201:.\Generated_Source\PSoC5/CapSense_1_CSHL.c ****         /* Wait while busy */
 202:.\Generated_Source\PSoC5/CapSense_1_CSHL.c ****     }
 203:.\Generated_Source\PSoC5/CapSense_1_CSHL.c ****     
 204:.\Generated_Source\PSoC5/CapSense_1_CSHL.c ****     #if (CapSense_1_DESIGN_TYPE == CapSense_1_ONE_CHANNEL_DESIGN)
 205:.\Generated_Source\PSoC5/CapSense_1_CSHL.c ****         /* Initialize Baseline, Signal and debounce counters */       
 206:.\Generated_Source\PSoC5/CapSense_1_CSHL.c ****         CapSense_1_BaseInit(sensor);
 105              		.loc 1 206 0
 106 0010 2046     		mov	r0, r4
 107 0012 FFF7FEFF 		bl	CapSense_1_BaseInit
 108              	.LVL6:
 109 0016 10BD     		pop	{r4, pc}
 110              		.cfi_endproc
 111              	.LFE1:
 112              		.size	CapSense_1_InitializeSensorBaseline, .-CapSense_1_InitializeSensorBaseline
 113              		.section	.text.CapSense_1_InitializeAllBaselines,"ax",%progbits
 114              		.align	2
 115              		.global	CapSense_1_InitializeAllBaselines
 116              		.thumb
 117              		.thumb_func
 118              		.type	CapSense_1_InitializeAllBaselines, %function
 119              	CapSense_1_InitializeAllBaselines:
 120              	.LFB2:
 207:.\Generated_Source\PSoC5/CapSense_1_CSHL.c ****         
 208:.\Generated_Source\PSoC5/CapSense_1_CSHL.c ****     #else
 209:.\Generated_Source\PSoC5/CapSense_1_CSHL.c ****     
 210:.\Generated_Source\PSoC5/CapSense_1_CSHL.c ****         if(sensor < CapSense_1_TOTAL_SENSOR_COUNT__CH0)
 211:.\Generated_Source\PSoC5/CapSense_1_CSHL.c ****         {
 212:.\Generated_Source\PSoC5/CapSense_1_CSHL.c ****             /* Initialize Baseline, Signal and debounce counters */ 
 213:.\Generated_Source\PSoC5/CapSense_1_CSHL.c ****             CapSense_1_BaseInit(sensor);
 214:.\Generated_Source\PSoC5/CapSense_1_CSHL.c ****         }
 215:.\Generated_Source\PSoC5/CapSense_1_CSHL.c ****         
 216:.\Generated_Source\PSoC5/CapSense_1_CSHL.c ****         if(sensor < CapSense_1_TOTAL_SENSOR_COUNT__CH1)
 217:.\Generated_Source\PSoC5/CapSense_1_CSHL.c ****         {
 218:.\Generated_Source\PSoC5/CapSense_1_CSHL.c ****             /* Initialize Baseline, Signal and debounce counters */
 219:.\Generated_Source\PSoC5/CapSense_1_CSHL.c ****             CapSense_1_BaseInit(sensor + CapSense_1_TOTAL_SENSOR_COUNT__CH0);
 220:.\Generated_Source\PSoC5/CapSense_1_CSHL.c ****         }
 221:.\Generated_Source\PSoC5/CapSense_1_CSHL.c ****     
 222:.\Generated_Source\PSoC5/CapSense_1_CSHL.c ****     #endif  /* (CapSense_1_DESIGN_TYPE == CapSense_1_ONE_CHANNEL_DESIGN) */
ARM GAS  C:\Users\JohnP\AppData\Local\Temp\ccMCOjex.s 			page 7


 223:.\Generated_Source\PSoC5/CapSense_1_CSHL.c **** }
 224:.\Generated_Source\PSoC5/CapSense_1_CSHL.c **** 
 225:.\Generated_Source\PSoC5/CapSense_1_CSHL.c **** 
 226:.\Generated_Source\PSoC5/CapSense_1_CSHL.c **** /*******************************************************************************
 227:.\Generated_Source\PSoC5/CapSense_1_CSHL.c **** * Function Name: CapSense_1_InitializeAllBaselines
 228:.\Generated_Source\PSoC5/CapSense_1_CSHL.c **** ********************************************************************************
 229:.\Generated_Source\PSoC5/CapSense_1_CSHL.c **** *
 230:.\Generated_Source\PSoC5/CapSense_1_CSHL.c **** * Summary:
 231:.\Generated_Source\PSoC5/CapSense_1_CSHL.c **** *  Uses the CapSense_1_InitializeSensorBaseline function to loads the 
 232:.\Generated_Source\PSoC5/CapSense_1_CSHL.c **** *  CapSense_1_sensorBaseline[] array with an initial values by scanning 
 233:.\Generated_Source\PSoC5/CapSense_1_CSHL.c **** *  all sensors. The raw count values are copied into the baseline array for 
 234:.\Generated_Source\PSoC5/CapSense_1_CSHL.c **** *  all sensors. The raw data filters are initialized if enabled.
 235:.\Generated_Source\PSoC5/CapSense_1_CSHL.c **** *
 236:.\Generated_Source\PSoC5/CapSense_1_CSHL.c **** * Parameters:
 237:.\Generated_Source\PSoC5/CapSense_1_CSHL.c **** *  None
 238:.\Generated_Source\PSoC5/CapSense_1_CSHL.c **** *
 239:.\Generated_Source\PSoC5/CapSense_1_CSHL.c **** * Return:
 240:.\Generated_Source\PSoC5/CapSense_1_CSHL.c **** *  None
 241:.\Generated_Source\PSoC5/CapSense_1_CSHL.c **** *
 242:.\Generated_Source\PSoC5/CapSense_1_CSHL.c **** * Reentrant:
 243:.\Generated_Source\PSoC5/CapSense_1_CSHL.c **** *  No
 244:.\Generated_Source\PSoC5/CapSense_1_CSHL.c **** *
 245:.\Generated_Source\PSoC5/CapSense_1_CSHL.c **** *******************************************************************************/
 246:.\Generated_Source\PSoC5/CapSense_1_CSHL.c **** void CapSense_1_InitializeAllBaselines(void)
 247:.\Generated_Source\PSoC5/CapSense_1_CSHL.c ****                           
 248:.\Generated_Source\PSoC5/CapSense_1_CSHL.c **** {
 121              		.loc 1 248 0
 122              		.cfi_startproc
 123              		@ args = 0, pretend = 0, frame = 0
 124              		@ frame_needed = 0, uses_anonymous_args = 0
 125 0000 10B5     		push	{r4, lr}
 126              		.cfi_def_cfa_offset 8
 127              		.cfi_offset 4, -8
 128              		.cfi_offset 14, -4
 129              	.LVL7:
 249:.\Generated_Source\PSoC5/CapSense_1_CSHL.c ****     uint8 i;
 250:.\Generated_Source\PSoC5/CapSense_1_CSHL.c ****     
 251:.\Generated_Source\PSoC5/CapSense_1_CSHL.c ****     /* The baseline initialize by sensor of sensor pair */
 252:.\Generated_Source\PSoC5/CapSense_1_CSHL.c ****     for(i = 0u; i < CapSense_1_TOTAL_SCANSLOT_COUNT; i++)
 130              		.loc 1 252 0
 131 0002 0024     		movs	r4, #0
 132 0004 04E0     		b	.L8
 133              	.LVL8:
 134              	.L9:
 253:.\Generated_Source\PSoC5/CapSense_1_CSHL.c ****     {
 254:.\Generated_Source\PSoC5/CapSense_1_CSHL.c ****         CapSense_1_InitializeSensorBaseline(i);
 135              		.loc 1 254 0 discriminator 2
 136 0006 2046     		mov	r0, r4
 137 0008 FFF7FEFF 		bl	CapSense_1_InitializeSensorBaseline
 138              	.LVL9:
 252:.\Generated_Source\PSoC5/CapSense_1_CSHL.c ****     for(i = 0u; i < CapSense_1_TOTAL_SCANSLOT_COUNT; i++)
 139              		.loc 1 252 0 discriminator 2
 140 000c 0134     		adds	r4, r4, #1
 141              	.LVL10:
 142 000e E4B2     		uxtb	r4, r4
 143              	.LVL11:
 144              	.L8:
ARM GAS  C:\Users\JohnP\AppData\Local\Temp\ccMCOjex.s 			page 8


 252:.\Generated_Source\PSoC5/CapSense_1_CSHL.c ****     for(i = 0u; i < CapSense_1_TOTAL_SCANSLOT_COUNT; i++)
 145              		.loc 1 252 0 is_stmt 0 discriminator 1
 146 0010 002C     		cmp	r4, #0
 147 0012 F8D0     		beq	.L9
 255:.\Generated_Source\PSoC5/CapSense_1_CSHL.c ****     }
 256:.\Generated_Source\PSoC5/CapSense_1_CSHL.c **** }
 148              		.loc 1 256 0 is_stmt 1
 149 0014 10BD     		pop	{r4, pc}
 150              		.cfi_endproc
 151              	.LFE2:
 152              		.size	CapSense_1_InitializeAllBaselines, .-CapSense_1_InitializeAllBaselines
 153 0016 00BF     		.section	.text.CapSense_1_InitializeEnabledBaselines,"ax",%progbits
 154              		.align	2
 155              		.global	CapSense_1_InitializeEnabledBaselines
 156              		.thumb
 157              		.thumb_func
 158              		.type	CapSense_1_InitializeEnabledBaselines, %function
 159              	CapSense_1_InitializeEnabledBaselines:
 160              	.LFB3:
 257:.\Generated_Source\PSoC5/CapSense_1_CSHL.c **** 
 258:.\Generated_Source\PSoC5/CapSense_1_CSHL.c **** 
 259:.\Generated_Source\PSoC5/CapSense_1_CSHL.c **** /*******************************************************************************
 260:.\Generated_Source\PSoC5/CapSense_1_CSHL.c **** * Function Name: CapSense_1_InitializeEnabledBaselines
 261:.\Generated_Source\PSoC5/CapSense_1_CSHL.c **** ********************************************************************************
 262:.\Generated_Source\PSoC5/CapSense_1_CSHL.c **** *
 263:.\Generated_Source\PSoC5/CapSense_1_CSHL.c **** * Summary:
 264:.\Generated_Source\PSoC5/CapSense_1_CSHL.c **** *  Scans all enabled widgets and the raw count values are copied into the 
 265:.\Generated_Source\PSoC5/CapSense_1_CSHL.c **** *  baseline array for all sensors enabled in scanning process. Baselines 
 266:.\Generated_Source\PSoC5/CapSense_1_CSHL.c **** *  initialize with zero values for sensors disabled from scanning process. 
 267:.\Generated_Source\PSoC5/CapSense_1_CSHL.c **** *  The raw data filters are initialized if enabled.
 268:.\Generated_Source\PSoC5/CapSense_1_CSHL.c **** *
 269:.\Generated_Source\PSoC5/CapSense_1_CSHL.c **** * Parameters:
 270:.\Generated_Source\PSoC5/CapSense_1_CSHL.c **** *  None
 271:.\Generated_Source\PSoC5/CapSense_1_CSHL.c **** *
 272:.\Generated_Source\PSoC5/CapSense_1_CSHL.c **** * Return:
 273:.\Generated_Source\PSoC5/CapSense_1_CSHL.c **** *  None
 274:.\Generated_Source\PSoC5/CapSense_1_CSHL.c **** *
 275:.\Generated_Source\PSoC5/CapSense_1_CSHL.c **** * Reentrant:
 276:.\Generated_Source\PSoC5/CapSense_1_CSHL.c **** *  No
 277:.\Generated_Source\PSoC5/CapSense_1_CSHL.c **** *
 278:.\Generated_Source\PSoC5/CapSense_1_CSHL.c **** *******************************************************************************/
 279:.\Generated_Source\PSoC5/CapSense_1_CSHL.c **** void CapSense_1_InitializeEnabledBaselines(void)
 280:.\Generated_Source\PSoC5/CapSense_1_CSHL.c ****                              
 281:.\Generated_Source\PSoC5/CapSense_1_CSHL.c **** {
 161              		.loc 1 281 0
 162              		.cfi_startproc
 163              		@ args = 0, pretend = 0, frame = 0
 164              		@ frame_needed = 0, uses_anonymous_args = 0
 165 0000 F8B5     		push	{r3, r4, r5, r6, r7, lr}
 166              		.cfi_def_cfa_offset 24
 167              		.cfi_offset 3, -24
 168              		.cfi_offset 4, -20
 169              		.cfi_offset 5, -16
 170              		.cfi_offset 6, -12
 171              		.cfi_offset 7, -8
 172              		.cfi_offset 14, -4
 282:.\Generated_Source\PSoC5/CapSense_1_CSHL.c ****     uint8 i;
ARM GAS  C:\Users\JohnP\AppData\Local\Temp\ccMCOjex.s 			page 9


 283:.\Generated_Source\PSoC5/CapSense_1_CSHL.c ****     uint8 pos;
 284:.\Generated_Source\PSoC5/CapSense_1_CSHL.c ****     uint8 enMask;
 285:.\Generated_Source\PSoC5/CapSense_1_CSHL.c ****     
 286:.\Generated_Source\PSoC5/CapSense_1_CSHL.c ****     CapSense_1_ScanEnabledWidgets();
 173              		.loc 1 286 0
 174 0002 FFF7FEFF 		bl	CapSense_1_ScanEnabledWidgets
 175              	.LVL12:
 176              	.L11:
 287:.\Generated_Source\PSoC5/CapSense_1_CSHL.c ****     while(CapSense_1_IsBusy() != 0u)
 177              		.loc 1 287 0 discriminator 1
 178 0006 FFF7FEFF 		bl	CapSense_1_IsBusy
 179              	.LVL13:
 180 000a 0028     		cmp	r0, #0
 181 000c FBD1     		bne	.L11
 182 000e 0024     		movs	r4, #0
 288:.\Generated_Source\PSoC5/CapSense_1_CSHL.c ****     {
 289:.\Generated_Source\PSoC5/CapSense_1_CSHL.c ****         /* Wait while busy */
 290:.\Generated_Source\PSoC5/CapSense_1_CSHL.c ****     }
 291:.\Generated_Source\PSoC5/CapSense_1_CSHL.c ****     
 292:.\Generated_Source\PSoC5/CapSense_1_CSHL.c ****     for(i = 0u; i < CapSense_1_TOTAL_SENSOR_COUNT; i++)
 293:.\Generated_Source\PSoC5/CapSense_1_CSHL.c ****     {
 294:.\Generated_Source\PSoC5/CapSense_1_CSHL.c ****         pos = (i >> 3u);
 295:.\Generated_Source\PSoC5/CapSense_1_CSHL.c ****         enMask = 0x01u << (i & 0x07u);
 183              		.loc 1 295 0
 184 0010 0126     		movs	r6, #1
 296:.\Generated_Source\PSoC5/CapSense_1_CSHL.c ****         
 297:.\Generated_Source\PSoC5/CapSense_1_CSHL.c ****         /* Clear raw data if sensor is disabled from scanning process */
 298:.\Generated_Source\PSoC5/CapSense_1_CSHL.c ****         if((CapSense_1_sensorEnableMask[pos] & enMask) == 0u)
 185              		.loc 1 298 0
 186 0012 0B4D     		ldr	r5, .L16
 299:.\Generated_Source\PSoC5/CapSense_1_CSHL.c ****         {
 300:.\Generated_Source\PSoC5/CapSense_1_CSHL.c ****             CapSense_1_sensorRaw[i] = 0u;
 187              		.loc 1 300 0
 188 0014 0B4F     		ldr	r7, .L16+4
 189 0016 0FE0     		b	.L12
 190              	.LVL14:
 191              	.L14:
 294:.\Generated_Source\PSoC5/CapSense_1_CSHL.c ****         pos = (i >> 3u);
 192              		.loc 1 294 0
 193 0018 E308     		lsrs	r3, r4, #3
 295:.\Generated_Source\PSoC5/CapSense_1_CSHL.c ****         enMask = 0x01u << (i & 0x07u);
 194              		.loc 1 295 0
 195 001a 04F00702 		and	r2, r4, #7
 196 001e 06FA02F2 		lsl	r2, r6, r2
 197              	.LVL15:
 298:.\Generated_Source\PSoC5/CapSense_1_CSHL.c ****         if((CapSense_1_sensorEnableMask[pos] & enMask) == 0u)
 198              		.loc 1 298 0
 199 0022 EB5C     		ldrb	r3, [r5, r3]	@ zero_extendqisi2
 200 0024 1A42     		tst	r2, r3
 201 0026 02D1     		bne	.L13
 202              		.loc 1 300 0
 203 0028 0023     		movs	r3, #0
 204 002a 27F81430 		strh	r3, [r7, r4, lsl #1]	@ movhi
 205              	.L13:
 301:.\Generated_Source\PSoC5/CapSense_1_CSHL.c ****         }
 302:.\Generated_Source\PSoC5/CapSense_1_CSHL.c ****         
 303:.\Generated_Source\PSoC5/CapSense_1_CSHL.c ****         /* Initialize baselines */
ARM GAS  C:\Users\JohnP\AppData\Local\Temp\ccMCOjex.s 			page 10


 304:.\Generated_Source\PSoC5/CapSense_1_CSHL.c ****         CapSense_1_BaseInit(i);
 206              		.loc 1 304 0
 207 002e 2046     		mov	r0, r4
 208 0030 FFF7FEFF 		bl	CapSense_1_BaseInit
 209              	.LVL16:
 292:.\Generated_Source\PSoC5/CapSense_1_CSHL.c ****     for(i = 0u; i < CapSense_1_TOTAL_SENSOR_COUNT; i++)
 210              		.loc 1 292 0
 211 0034 0134     		adds	r4, r4, #1
 212              	.LVL17:
 213 0036 E4B2     		uxtb	r4, r4
 214              	.LVL18:
 215              	.L12:
 292:.\Generated_Source\PSoC5/CapSense_1_CSHL.c ****     for(i = 0u; i < CapSense_1_TOTAL_SENSOR_COUNT; i++)
 216              		.loc 1 292 0 is_stmt 0 discriminator 1
 217 0038 002C     		cmp	r4, #0
 218 003a EDD0     		beq	.L14
 305:.\Generated_Source\PSoC5/CapSense_1_CSHL.c ****     }
 306:.\Generated_Source\PSoC5/CapSense_1_CSHL.c **** }  
 219              		.loc 1 306 0 is_stmt 1
 220 003c F8BD     		pop	{r3, r4, r5, r6, r7, pc}
 221              	.LVL19:
 222              	.L17:
 223 003e 00BF     		.align	2
 224              	.L16:
 225 0040 00000000 		.word	CapSense_1_sensorEnableMask
 226 0044 00000000 		.word	CapSense_1_sensorRaw
 227              		.cfi_endproc
 228              	.LFE3:
 229              		.size	CapSense_1_InitializeEnabledBaselines, .-CapSense_1_InitializeEnabledBaselines
 230              		.section	.text.CapSense_1_CheckIsSensorActive,"ax",%progbits
 231              		.align	2
 232              		.global	CapSense_1_CheckIsSensorActive
 233              		.thumb
 234              		.thumb_func
 235              		.type	CapSense_1_CheckIsSensorActive, %function
 236              	CapSense_1_CheckIsSensorActive:
 237              	.LFB6:
 307:.\Generated_Source\PSoC5/CapSense_1_CSHL.c **** 
 308:.\Generated_Source\PSoC5/CapSense_1_CSHL.c **** 
 309:.\Generated_Source\PSoC5/CapSense_1_CSHL.c **** /*******************************************************************************
 310:.\Generated_Source\PSoC5/CapSense_1_CSHL.c **** * Function Name: CapSense_1_UpdateSensorBaseline
 311:.\Generated_Source\PSoC5/CapSense_1_CSHL.c **** ********************************************************************************
 312:.\Generated_Source\PSoC5/CapSense_1_CSHL.c **** *
 313:.\Generated_Source\PSoC5/CapSense_1_CSHL.c **** * Summary:
 314:.\Generated_Source\PSoC5/CapSense_1_CSHL.c **** *  Updates the CapSense_1_sensorBaseline[sensor] array element using the 
 315:.\Generated_Source\PSoC5/CapSense_1_CSHL.c **** *  LP filter with k = 256. The signal calculates the difference of count by 
 316:.\Generated_Source\PSoC5/CapSense_1_CSHL.c **** *  subtracting the previous baseline from the current raw count value and stores
 317:.\Generated_Source\PSoC5/CapSense_1_CSHL.c **** *  it in CapSense_1_SensorSignal[sensor]. 
 318:.\Generated_Source\PSoC5/CapSense_1_CSHL.c **** *  If auto reset option is enabled the baseline updated regards noise threshold. 
 319:.\Generated_Source\PSoC5/CapSense_1_CSHL.c **** *  If auto reset option is disabled the baseline stops updating if signal is 
 320:.\Generated_Source\PSoC5/CapSense_1_CSHL.c **** *  greater that zero and baseline loads with raw count value if signal is less 
 321:.\Generated_Source\PSoC5/CapSense_1_CSHL.c **** *  that noise threshold.
 322:.\Generated_Source\PSoC5/CapSense_1_CSHL.c **** *  Raw data filters are applied to the values if enabled before baseline 
 323:.\Generated_Source\PSoC5/CapSense_1_CSHL.c **** *  calculation.
 324:.\Generated_Source\PSoC5/CapSense_1_CSHL.c **** *
 325:.\Generated_Source\PSoC5/CapSense_1_CSHL.c **** * Parameters:
 326:.\Generated_Source\PSoC5/CapSense_1_CSHL.c **** *  sensor:  Sensor number.
ARM GAS  C:\Users\JohnP\AppData\Local\Temp\ccMCOjex.s 			page 11


 327:.\Generated_Source\PSoC5/CapSense_1_CSHL.c **** *
 328:.\Generated_Source\PSoC5/CapSense_1_CSHL.c **** * Return:
 329:.\Generated_Source\PSoC5/CapSense_1_CSHL.c **** *  None
 330:.\Generated_Source\PSoC5/CapSense_1_CSHL.c **** *
 331:.\Generated_Source\PSoC5/CapSense_1_CSHL.c **** * Global Variables:
 332:.\Generated_Source\PSoC5/CapSense_1_CSHL.c **** *  CapSense_1_sensorBaseline[]    - used to store baseline value.
 333:.\Generated_Source\PSoC5/CapSense_1_CSHL.c **** *  CapSense_1_sensorBaselineLow[] - used to store fraction byte of 
 334:.\Generated_Source\PSoC5/CapSense_1_CSHL.c **** *  baseline value.
 335:.\Generated_Source\PSoC5/CapSense_1_CSHL.c **** *  CapSense_1_sensorSignal[]      - used to store diffence between 
 336:.\Generated_Source\PSoC5/CapSense_1_CSHL.c **** *  current value of raw data and previous value of baseline.
 337:.\Generated_Source\PSoC5/CapSense_1_CSHL.c **** *  CapSense_1_rawFilterData1[]    - used to store previous sample of 
 338:.\Generated_Source\PSoC5/CapSense_1_CSHL.c **** *  any enabled raw data filter.
 339:.\Generated_Source\PSoC5/CapSense_1_CSHL.c **** *  CapSense_1_rawFilterData2[]    - used to store before previous sample
 340:.\Generated_Source\PSoC5/CapSense_1_CSHL.c **** *  of enabled raw data filter. Only required for median or average filters.
 341:.\Generated_Source\PSoC5/CapSense_1_CSHL.c **** *
 342:.\Generated_Source\PSoC5/CapSense_1_CSHL.c **** * Reentrant:
 343:.\Generated_Source\PSoC5/CapSense_1_CSHL.c **** *  No
 344:.\Generated_Source\PSoC5/CapSense_1_CSHL.c **** *
 345:.\Generated_Source\PSoC5/CapSense_1_CSHL.c **** *******************************************************************************/
 346:.\Generated_Source\PSoC5/CapSense_1_CSHL.c ****  void CapSense_1_UpdateSensorBaseline(uint8 sensor)
 347:.\Generated_Source\PSoC5/CapSense_1_CSHL.c ****                                  
 348:.\Generated_Source\PSoC5/CapSense_1_CSHL.c **** {
 349:.\Generated_Source\PSoC5/CapSense_1_CSHL.c ****     uint32 calc;
 350:.\Generated_Source\PSoC5/CapSense_1_CSHL.c ****     uint16 tempRaw;
 351:.\Generated_Source\PSoC5/CapSense_1_CSHL.c ****     uint16 filteredRawData;
 352:.\Generated_Source\PSoC5/CapSense_1_CSHL.c ****     uint8 widget = CapSense_1_widgetNumber[sensor];
 353:.\Generated_Source\PSoC5/CapSense_1_CSHL.c ****     uint8 noiseThreshold = CapSense_1_noiseThreshold[widget];
 354:.\Generated_Source\PSoC5/CapSense_1_CSHL.c ****     
 355:.\Generated_Source\PSoC5/CapSense_1_CSHL.c ****     #if (CapSense_1_TOTAL_GENERICS_COUNT)
 356:.\Generated_Source\PSoC5/CapSense_1_CSHL.c ****         /* Exclude generic widget */
 357:.\Generated_Source\PSoC5/CapSense_1_CSHL.c ****         if(widget < CapSense_1_END_OF_WIDGETS_INDEX)
 358:.\Generated_Source\PSoC5/CapSense_1_CSHL.c ****         {
 359:.\Generated_Source\PSoC5/CapSense_1_CSHL.c ****     #endif  /* CapSense_1_TOTAL_GENERICS_COUNT */
 360:.\Generated_Source\PSoC5/CapSense_1_CSHL.c ****     
 361:.\Generated_Source\PSoC5/CapSense_1_CSHL.c ****     filteredRawData = CapSense_1_sensorRaw[sensor];
 362:.\Generated_Source\PSoC5/CapSense_1_CSHL.c ****     
 363:.\Generated_Source\PSoC5/CapSense_1_CSHL.c ****     #if (CapSense_1_RAW_FILTER_MASK & CapSense_1_MEDIAN_FILTER)
 364:.\Generated_Source\PSoC5/CapSense_1_CSHL.c ****         tempRaw = filteredRawData;
 365:.\Generated_Source\PSoC5/CapSense_1_CSHL.c ****         filteredRawData = CapSense_1_MedianFilter(filteredRawData, CapSense_1_rawFilterData1[sensor
 366:.\Generated_Source\PSoC5/CapSense_1_CSHL.c ****                                                         CapSense_1_rawFilterData2[sensor]);
 367:.\Generated_Source\PSoC5/CapSense_1_CSHL.c ****         CapSense_1_rawFilterData2[sensor] = CapSense_1_rawFilterData1[sensor];
 368:.\Generated_Source\PSoC5/CapSense_1_CSHL.c ****         CapSense_1_rawFilterData1[sensor] = tempRaw;
 369:.\Generated_Source\PSoC5/CapSense_1_CSHL.c ****         
 370:.\Generated_Source\PSoC5/CapSense_1_CSHL.c ****     #elif (CapSense_1_RAW_FILTER_MASK & CapSense_1_AVERAGING_FILTER)
 371:.\Generated_Source\PSoC5/CapSense_1_CSHL.c ****         tempRaw = filteredRawData;
 372:.\Generated_Source\PSoC5/CapSense_1_CSHL.c ****         filteredRawData = CapSense_1_AveragingFilter(filteredRawData, CapSense_1_rawFilterData1[sen
 373:.\Generated_Source\PSoC5/CapSense_1_CSHL.c ****                                                            CapSense_1_rawFilterData2[sensor]);
 374:.\Generated_Source\PSoC5/CapSense_1_CSHL.c ****         CapSense_1_rawFilterData2[sensor] = CapSense_1_rawFilterData1[sensor];
 375:.\Generated_Source\PSoC5/CapSense_1_CSHL.c ****         CapSense_1_rawFilterData1[sensor] = tempRaw;
 376:.\Generated_Source\PSoC5/CapSense_1_CSHL.c ****         
 377:.\Generated_Source\PSoC5/CapSense_1_CSHL.c ****     #elif (CapSense_1_RAW_FILTER_MASK & CapSense_1_IIR2_FILTER)
 378:.\Generated_Source\PSoC5/CapSense_1_CSHL.c ****         filteredRawData = CapSense_1_IIR2Filter(filteredRawData, CapSense_1_rawFilterData1[sensor])
 379:.\Generated_Source\PSoC5/CapSense_1_CSHL.c ****         CapSense_1_rawFilterData1[sensor] = filteredRawData;
 380:.\Generated_Source\PSoC5/CapSense_1_CSHL.c ****         
 381:.\Generated_Source\PSoC5/CapSense_1_CSHL.c ****     #elif (CapSense_1_RAW_FILTER_MASK & CapSense_1_IIR4_FILTER)
 382:.\Generated_Source\PSoC5/CapSense_1_CSHL.c ****         filteredRawData = CapSense_1_IIR4Filter(filteredRawData, CapSense_1_rawFilterData1[sensor])
 383:.\Generated_Source\PSoC5/CapSense_1_CSHL.c ****         CapSense_1_rawFilterData1[sensor] = filteredRawData;
ARM GAS  C:\Users\JohnP\AppData\Local\Temp\ccMCOjex.s 			page 12


 384:.\Generated_Source\PSoC5/CapSense_1_CSHL.c ****             
 385:.\Generated_Source\PSoC5/CapSense_1_CSHL.c ****     #elif (CapSense_1_RAW_FILTER_MASK & CapSense_1_JITTER_FILTER)
 386:.\Generated_Source\PSoC5/CapSense_1_CSHL.c ****         filteredRawData = CapSense_1_JitterFilter(filteredRawData, CapSense_1_rawFilterData1[sensor
 387:.\Generated_Source\PSoC5/CapSense_1_CSHL.c ****         CapSense_1_rawFilterData1[sensor] = filteredRawData;
 388:.\Generated_Source\PSoC5/CapSense_1_CSHL.c ****         
 389:.\Generated_Source\PSoC5/CapSense_1_CSHL.c ****     #elif (CapSense_1_RAW_FILTER_MASK & CapSense_1_IIR8_FILTER)
 390:.\Generated_Source\PSoC5/CapSense_1_CSHL.c ****         filteredRawData = CapSense_1_IIR8Filter(filteredRawData, CapSense_1_rawFilterData1[sensor])
 391:.\Generated_Source\PSoC5/CapSense_1_CSHL.c ****         CapSense_1_rawFilterData1[sensor] = filteredRawData;
 392:.\Generated_Source\PSoC5/CapSense_1_CSHL.c ****         
 393:.\Generated_Source\PSoC5/CapSense_1_CSHL.c ****     #elif (CapSense_1_RAW_FILTER_MASK & CapSense_1_IIR16_FILTER)
 394:.\Generated_Source\PSoC5/CapSense_1_CSHL.c ****         filteredRawData = CapSense_1_IIR16Filter(filteredRawData, CapSense_1_rawFilterData1[sensor]
 395:.\Generated_Source\PSoC5/CapSense_1_CSHL.c ****         CapSense_1_rawFilterData1[sensor] = filteredRawData;
 396:.\Generated_Source\PSoC5/CapSense_1_CSHL.c ****         
 397:.\Generated_Source\PSoC5/CapSense_1_CSHL.c ****     #else
 398:.\Generated_Source\PSoC5/CapSense_1_CSHL.c ****         /* No Raw filters */
 399:.\Generated_Source\PSoC5/CapSense_1_CSHL.c ****     #endif  /* (CapSense_1_RAW_FILTER_MASK & CapSense_1_MEDIAN_FILTER) */
 400:.\Generated_Source\PSoC5/CapSense_1_CSHL.c ****     
 401:.\Generated_Source\PSoC5/CapSense_1_CSHL.c ****     #if (CapSense_1_TUNING_METHOD == CapSense_1_AUTO_TUNING)
 402:.\Generated_Source\PSoC5/CapSense_1_CSHL.c ****         CapSense_1_CalculateThresholds(sensor);
 403:.\Generated_Source\PSoC5/CapSense_1_CSHL.c ****     #endif /* (CapSense_1_TUNING_METHOD == CapSense_1_AUTO_TUNING) */
 404:.\Generated_Source\PSoC5/CapSense_1_CSHL.c **** 
 405:.\Generated_Source\PSoC5/CapSense_1_CSHL.c **** 
 406:.\Generated_Source\PSoC5/CapSense_1_CSHL.c ****     /* Baseline calculation */
 407:.\Generated_Source\PSoC5/CapSense_1_CSHL.c ****     /* Calculate difference RawData[cur] - Baseline[prev] */
 408:.\Generated_Source\PSoC5/CapSense_1_CSHL.c ****     if(filteredRawData >= CapSense_1_sensorBaseline[sensor])
 409:.\Generated_Source\PSoC5/CapSense_1_CSHL.c ****     {
 410:.\Generated_Source\PSoC5/CapSense_1_CSHL.c ****         tempRaw = filteredRawData - CapSense_1_sensorBaseline[sensor];
 411:.\Generated_Source\PSoC5/CapSense_1_CSHL.c ****         widget = 1u;    /* Positive difference - Calculate the Signal */
 412:.\Generated_Source\PSoC5/CapSense_1_CSHL.c ****     }
 413:.\Generated_Source\PSoC5/CapSense_1_CSHL.c ****     else
 414:.\Generated_Source\PSoC5/CapSense_1_CSHL.c ****     {
 415:.\Generated_Source\PSoC5/CapSense_1_CSHL.c ****         tempRaw = CapSense_1_sensorBaseline[sensor] - filteredRawData;
 416:.\Generated_Source\PSoC5/CapSense_1_CSHL.c ****         widget = 0u;    /* Negative difference - Do NOT calculate the Signal */
 417:.\Generated_Source\PSoC5/CapSense_1_CSHL.c ****     }
 418:.\Generated_Source\PSoC5/CapSense_1_CSHL.c **** 
 419:.\Generated_Source\PSoC5/CapSense_1_CSHL.c ****     if((widget == 0u) && (tempRaw > (uint16) CapSense_1_NEGATIVE_NOISE_THRESHOLD))
 420:.\Generated_Source\PSoC5/CapSense_1_CSHL.c ****     {
 421:.\Generated_Source\PSoC5/CapSense_1_CSHL.c ****         if(CapSense_1_lowBaselineResetCnt[sensor] >= CapSense_1_LOW_BASELINE_RESET)
 422:.\Generated_Source\PSoC5/CapSense_1_CSHL.c ****         {
 423:.\Generated_Source\PSoC5/CapSense_1_CSHL.c ****             CapSense_1_BaseInit(sensor);
 424:.\Generated_Source\PSoC5/CapSense_1_CSHL.c ****             CapSense_1_lowBaselineResetCnt[sensor] = 0u;
 425:.\Generated_Source\PSoC5/CapSense_1_CSHL.c ****         }
 426:.\Generated_Source\PSoC5/CapSense_1_CSHL.c ****         else
 427:.\Generated_Source\PSoC5/CapSense_1_CSHL.c ****         {
 428:.\Generated_Source\PSoC5/CapSense_1_CSHL.c ****             CapSense_1_lowBaselineResetCnt[sensor]++;
 429:.\Generated_Source\PSoC5/CapSense_1_CSHL.c ****         }
 430:.\Generated_Source\PSoC5/CapSense_1_CSHL.c ****     }
 431:.\Generated_Source\PSoC5/CapSense_1_CSHL.c ****     else
 432:.\Generated_Source\PSoC5/CapSense_1_CSHL.c ****     {
 433:.\Generated_Source\PSoC5/CapSense_1_CSHL.c ****         #if (CapSense_1_AUTO_RESET == CapSense_1_AUTO_RESET_DISABLE)
 434:.\Generated_Source\PSoC5/CapSense_1_CSHL.c ****             /* Update Baseline if lower that noiseThreshold */
 435:.\Generated_Source\PSoC5/CapSense_1_CSHL.c ****             if ( (tempRaw <= (uint16) noiseThreshold) || 
 436:.\Generated_Source\PSoC5/CapSense_1_CSHL.c ****                  ((tempRaw < (uint16) CapSense_1_NEGATIVE_NOISE_THRESHOLD)
 437:.\Generated_Source\PSoC5/CapSense_1_CSHL.c ****                    && (widget == 0u)))
 438:.\Generated_Source\PSoC5/CapSense_1_CSHL.c ****             {
 439:.\Generated_Source\PSoC5/CapSense_1_CSHL.c ****         #endif /* (CapSense_1_AUTO_RESET == CapSense_1_AUTO_RESET_DISABLE) */
 440:.\Generated_Source\PSoC5/CapSense_1_CSHL.c ****                 /* Make full Baseline 23 bits */
ARM GAS  C:\Users\JohnP\AppData\Local\Temp\ccMCOjex.s 			page 13


 441:.\Generated_Source\PSoC5/CapSense_1_CSHL.c ****                 calc = (uint32) CapSense_1_sensorBaseline[sensor] << 8u;
 442:.\Generated_Source\PSoC5/CapSense_1_CSHL.c ****                 calc |= (uint32) CapSense_1_sensorBaselineLow[sensor];
 443:.\Generated_Source\PSoC5/CapSense_1_CSHL.c **** 
 444:.\Generated_Source\PSoC5/CapSense_1_CSHL.c ****                 /* Add Raw Data to Baseline */
 445:.\Generated_Source\PSoC5/CapSense_1_CSHL.c ****                 calc += filteredRawData;
 446:.\Generated_Source\PSoC5/CapSense_1_CSHL.c **** 
 447:.\Generated_Source\PSoC5/CapSense_1_CSHL.c ****                 /* Sub the high Baseline */
 448:.\Generated_Source\PSoC5/CapSense_1_CSHL.c ****                 calc -= CapSense_1_sensorBaseline[sensor];
 449:.\Generated_Source\PSoC5/CapSense_1_CSHL.c **** 
 450:.\Generated_Source\PSoC5/CapSense_1_CSHL.c ****                 /* Put Baseline and BaselineLow */
 451:.\Generated_Source\PSoC5/CapSense_1_CSHL.c ****                 CapSense_1_sensorBaseline[sensor] = ((uint16) (calc >> 8u));
 452:.\Generated_Source\PSoC5/CapSense_1_CSHL.c ****                 CapSense_1_sensorBaselineLow[sensor] = ((uint8) calc);
 453:.\Generated_Source\PSoC5/CapSense_1_CSHL.c **** 
 454:.\Generated_Source\PSoC5/CapSense_1_CSHL.c ****                 CapSense_1_lowBaselineResetCnt[sensor] = 0u;
 455:.\Generated_Source\PSoC5/CapSense_1_CSHL.c ****         #if (CapSense_1_AUTO_RESET == CapSense_1_AUTO_RESET_DISABLE)
 456:.\Generated_Source\PSoC5/CapSense_1_CSHL.c ****             }
 457:.\Generated_Source\PSoC5/CapSense_1_CSHL.c ****         #endif /* (CapSense_1_AUTO_RESET == CapSense_1_AUTO_RESET_DISABLE) */
 458:.\Generated_Source\PSoC5/CapSense_1_CSHL.c ****     }
 459:.\Generated_Source\PSoC5/CapSense_1_CSHL.c **** 
 460:.\Generated_Source\PSoC5/CapSense_1_CSHL.c ****     /* Calculate Signal if possitive difference > noiseThreshold */
 461:.\Generated_Source\PSoC5/CapSense_1_CSHL.c ****     if((tempRaw > (uint16) noiseThreshold) && (widget != 0u))
 462:.\Generated_Source\PSoC5/CapSense_1_CSHL.c ****     {
 463:.\Generated_Source\PSoC5/CapSense_1_CSHL.c ****         #if (CapSense_1_SIGNAL_SIZE == CapSense_1_SIGNAL_SIZE_UINT8)
 464:.\Generated_Source\PSoC5/CapSense_1_CSHL.c ****             /* Over flow defence for uint8 */
 465:.\Generated_Source\PSoC5/CapSense_1_CSHL.c ****             if (tempRaw > 0xFFu)
 466:.\Generated_Source\PSoC5/CapSense_1_CSHL.c ****             {
 467:.\Generated_Source\PSoC5/CapSense_1_CSHL.c ****                 CapSense_1_sensorSignal[sensor] = 0xFFu;
 468:.\Generated_Source\PSoC5/CapSense_1_CSHL.c ****             }    
 469:.\Generated_Source\PSoC5/CapSense_1_CSHL.c ****             else 
 470:.\Generated_Source\PSoC5/CapSense_1_CSHL.c ****             {
 471:.\Generated_Source\PSoC5/CapSense_1_CSHL.c ****                 CapSense_1_sensorSignal[sensor] = ((uint8) tempRaw);
 472:.\Generated_Source\PSoC5/CapSense_1_CSHL.c ****             }
 473:.\Generated_Source\PSoC5/CapSense_1_CSHL.c ****         #else
 474:.\Generated_Source\PSoC5/CapSense_1_CSHL.c ****             CapSense_1_sensorSignal[sensor] = ((uint16) tempRaw);
 475:.\Generated_Source\PSoC5/CapSense_1_CSHL.c ****         #endif  /* (CapSense_1_SIGNAL_SIZE == CapSense_1_SIGNAL_SIZE_UINT8) */
 476:.\Generated_Source\PSoC5/CapSense_1_CSHL.c ****     }
 477:.\Generated_Source\PSoC5/CapSense_1_CSHL.c ****     else
 478:.\Generated_Source\PSoC5/CapSense_1_CSHL.c ****     {
 479:.\Generated_Source\PSoC5/CapSense_1_CSHL.c ****         /* Signal is zero */
 480:.\Generated_Source\PSoC5/CapSense_1_CSHL.c ****         CapSense_1_sensorSignal[sensor] = 0u;
 481:.\Generated_Source\PSoC5/CapSense_1_CSHL.c ****     }
 482:.\Generated_Source\PSoC5/CapSense_1_CSHL.c **** 
 483:.\Generated_Source\PSoC5/CapSense_1_CSHL.c ****     #if (CapSense_1_TOTAL_GENERICS_COUNT)
 484:.\Generated_Source\PSoC5/CapSense_1_CSHL.c ****         /* Exclude generic widget */
 485:.\Generated_Source\PSoC5/CapSense_1_CSHL.c ****         }
 486:.\Generated_Source\PSoC5/CapSense_1_CSHL.c ****     #endif  /* CapSense_1_TOTAL_GENERICS_COUNT */
 487:.\Generated_Source\PSoC5/CapSense_1_CSHL.c **** }
 488:.\Generated_Source\PSoC5/CapSense_1_CSHL.c **** 
 489:.\Generated_Source\PSoC5/CapSense_1_CSHL.c **** 
 490:.\Generated_Source\PSoC5/CapSense_1_CSHL.c **** /*******************************************************************************
 491:.\Generated_Source\PSoC5/CapSense_1_CSHL.c **** * Function Name: CapSense_1_UpdateEnabledBaselines
 492:.\Generated_Source\PSoC5/CapSense_1_CSHL.c **** ********************************************************************************
 493:.\Generated_Source\PSoC5/CapSense_1_CSHL.c **** *
 494:.\Generated_Source\PSoC5/CapSense_1_CSHL.c **** * Summary:
 495:.\Generated_Source\PSoC5/CapSense_1_CSHL.c **** *  Checks CapSense_1_sensorEnableMask[] array and calls the 
 496:.\Generated_Source\PSoC5/CapSense_1_CSHL.c **** *  CapSense_1_UpdateSensorBaseline function to update the baselines 
 497:.\Generated_Source\PSoC5/CapSense_1_CSHL.c **** *  for enabled sensors.
ARM GAS  C:\Users\JohnP\AppData\Local\Temp\ccMCOjex.s 			page 14


 498:.\Generated_Source\PSoC5/CapSense_1_CSHL.c **** *
 499:.\Generated_Source\PSoC5/CapSense_1_CSHL.c **** * Parameters:
 500:.\Generated_Source\PSoC5/CapSense_1_CSHL.c **** *  None
 501:.\Generated_Source\PSoC5/CapSense_1_CSHL.c **** *
 502:.\Generated_Source\PSoC5/CapSense_1_CSHL.c **** * Return:
 503:.\Generated_Source\PSoC5/CapSense_1_CSHL.c **** *  None
 504:.\Generated_Source\PSoC5/CapSense_1_CSHL.c **** *
 505:.\Generated_Source\PSoC5/CapSense_1_CSHL.c **** * Global Variables:
 506:.\Generated_Source\PSoC5/CapSense_1_CSHL.c **** *  CapSense_1_sensorEnableMask[] - used to store the sensor scanning 
 507:.\Generated_Source\PSoC5/CapSense_1_CSHL.c **** *  state.
 508:.\Generated_Source\PSoC5/CapSense_1_CSHL.c **** *  CapSense_1_sensorEnableMask[0] contains the masked bits for sensors 
 509:.\Generated_Source\PSoC5/CapSense_1_CSHL.c **** *   0 through 7 (sensor 0 is bit 0, sensor 1 is bit 1).
 510:.\Generated_Source\PSoC5/CapSense_1_CSHL.c **** *  CapSense_1_sensorEnableMask[1] contains the masked bits for 
 511:.\Generated_Source\PSoC5/CapSense_1_CSHL.c **** *  sensors 8 through 15 (if needed), and so on.
 512:.\Generated_Source\PSoC5/CapSense_1_CSHL.c **** *  0 - sensor doesn't scan by CapSense_1_ScanEnabledWidgets().
 513:.\Generated_Source\PSoC5/CapSense_1_CSHL.c **** *  1 - sensor scans by CapSense_1_ScanEnabledWidgets().
 514:.\Generated_Source\PSoC5/CapSense_1_CSHL.c **** *
 515:.\Generated_Source\PSoC5/CapSense_1_CSHL.c **** * Reentrant:
 516:.\Generated_Source\PSoC5/CapSense_1_CSHL.c **** *  No
 517:.\Generated_Source\PSoC5/CapSense_1_CSHL.c **** *
 518:.\Generated_Source\PSoC5/CapSense_1_CSHL.c **** *******************************************************************************/
 519:.\Generated_Source\PSoC5/CapSense_1_CSHL.c ****  void CapSense_1_UpdateEnabledBaselines(void)
 520:.\Generated_Source\PSoC5/CapSense_1_CSHL.c ****                                  
 521:.\Generated_Source\PSoC5/CapSense_1_CSHL.c **** {
 522:.\Generated_Source\PSoC5/CapSense_1_CSHL.c ****     uint8 i;
 523:.\Generated_Source\PSoC5/CapSense_1_CSHL.c ****     uint8 pos;
 524:.\Generated_Source\PSoC5/CapSense_1_CSHL.c ****     uint8 enMask;
 525:.\Generated_Source\PSoC5/CapSense_1_CSHL.c ****     
 526:.\Generated_Source\PSoC5/CapSense_1_CSHL.c ****     for(i = 0u; i < CapSense_1_TOTAL_SENSOR_COUNT; i++)
 527:.\Generated_Source\PSoC5/CapSense_1_CSHL.c ****     {
 528:.\Generated_Source\PSoC5/CapSense_1_CSHL.c ****         pos = (i >> 3u);
 529:.\Generated_Source\PSoC5/CapSense_1_CSHL.c ****         enMask = (uint8)(0x01u << (i & 0x07u));
 530:.\Generated_Source\PSoC5/CapSense_1_CSHL.c ****         if((CapSense_1_sensorEnableMask[pos] & enMask) != 0u)
 531:.\Generated_Source\PSoC5/CapSense_1_CSHL.c ****         {
 532:.\Generated_Source\PSoC5/CapSense_1_CSHL.c ****             CapSense_1_UpdateSensorBaseline(i);
 533:.\Generated_Source\PSoC5/CapSense_1_CSHL.c ****         }
 534:.\Generated_Source\PSoC5/CapSense_1_CSHL.c ****     }
 535:.\Generated_Source\PSoC5/CapSense_1_CSHL.c **** }
 536:.\Generated_Source\PSoC5/CapSense_1_CSHL.c **** 
 537:.\Generated_Source\PSoC5/CapSense_1_CSHL.c **** 
 538:.\Generated_Source\PSoC5/CapSense_1_CSHL.c **** /*******************************************************************************
 539:.\Generated_Source\PSoC5/CapSense_1_CSHL.c **** * Function Name: CapSense_1_CheckIsSensorActive
 540:.\Generated_Source\PSoC5/CapSense_1_CSHL.c **** ********************************************************************************
 541:.\Generated_Source\PSoC5/CapSense_1_CSHL.c **** *
 542:.\Generated_Source\PSoC5/CapSense_1_CSHL.c **** * Summary:
 543:.\Generated_Source\PSoC5/CapSense_1_CSHL.c **** *  Compares the CapSense_1_SensorSignal[sensor] array element to finger
 544:.\Generated_Source\PSoC5/CapSense_1_CSHL.c **** *  threshold of widget it belongs to. The hysteresis and debounce are taken into 
 545:.\Generated_Source\PSoC5/CapSense_1_CSHL.c **** *  account. The hysteresis is added or subtracted from the finger threshold 
 546:.\Generated_Source\PSoC5/CapSense_1_CSHL.c **** *  based on whether the sensor is currently active. 
 547:.\Generated_Source\PSoC5/CapSense_1_CSHL.c **** *  If the sensor is active, the threshold is lowered by the hysteresis amount.
 548:.\Generated_Source\PSoC5/CapSense_1_CSHL.c **** *  If the sensor is inactive, the threshold is raised by the hysteresis amount.
 549:.\Generated_Source\PSoC5/CapSense_1_CSHL.c **** *  The debounce counter added to the sensor active transition.
 550:.\Generated_Source\PSoC5/CapSense_1_CSHL.c **** *  This function updates CapSense_1_SensorOnMask[] array element.
 551:.\Generated_Source\PSoC5/CapSense_1_CSHL.c **** *
 552:.\Generated_Source\PSoC5/CapSense_1_CSHL.c **** * Parameters:
 553:.\Generated_Source\PSoC5/CapSense_1_CSHL.c **** *  sensor:  Sensor number.
 554:.\Generated_Source\PSoC5/CapSense_1_CSHL.c **** *
ARM GAS  C:\Users\JohnP\AppData\Local\Temp\ccMCOjex.s 			page 15


 555:.\Generated_Source\PSoC5/CapSense_1_CSHL.c **** * Return:
 556:.\Generated_Source\PSoC5/CapSense_1_CSHL.c **** *  Returns sensor state 1 if active, 0 if not active.
 557:.\Generated_Source\PSoC5/CapSense_1_CSHL.c **** *
 558:.\Generated_Source\PSoC5/CapSense_1_CSHL.c **** * Global Variables:
 559:.\Generated_Source\PSoC5/CapSense_1_CSHL.c **** *  CapSense_1_sensorSignal[]      - used to store diffence between 
 560:.\Generated_Source\PSoC5/CapSense_1_CSHL.c **** *  current value of raw data and previous value of baseline.
 561:.\Generated_Source\PSoC5/CapSense_1_CSHL.c **** *  CapSense_1_debounceCounter[]   - used to store current debounce 
 562:.\Generated_Source\PSoC5/CapSense_1_CSHL.c **** *  counter of sensor. Widget which has this parameter are buttons, matrix 
 563:.\Generated_Source\PSoC5/CapSense_1_CSHL.c **** *  buttons, proximity, guard. All other widgets haven't debounce parameter
 564:.\Generated_Source\PSoC5/CapSense_1_CSHL.c **** *  and use the last element of this array with value 0 (it means no debounce).
 565:.\Generated_Source\PSoC5/CapSense_1_CSHL.c **** *  CapSense_1_sensorOnMask[] - used to store sensors on/off state.
 566:.\Generated_Source\PSoC5/CapSense_1_CSHL.c **** *  CapSense_1_sensorOnMask[0] contains the masked bits for sensors 
 567:.\Generated_Source\PSoC5/CapSense_1_CSHL.c **** *   0 through 7 (sensor 0 is bit 0, sensor 1 is bit 1).
 568:.\Generated_Source\PSoC5/CapSense_1_CSHL.c **** *  CapSense_1_sensorEnableMask[1] contains the masked bits for 
 569:.\Generated_Source\PSoC5/CapSense_1_CSHL.c **** *  sensors 8 through 15 (if needed), and so on.
 570:.\Generated_Source\PSoC5/CapSense_1_CSHL.c **** *  0 - sensor is inactive.
 571:.\Generated_Source\PSoC5/CapSense_1_CSHL.c **** *  1 - sensor is active.
 572:.\Generated_Source\PSoC5/CapSense_1_CSHL.c **** *
 573:.\Generated_Source\PSoC5/CapSense_1_CSHL.c **** * Reentrant:
 574:.\Generated_Source\PSoC5/CapSense_1_CSHL.c **** *  No
 575:.\Generated_Source\PSoC5/CapSense_1_CSHL.c **** *
 576:.\Generated_Source\PSoC5/CapSense_1_CSHL.c **** *******************************************************************************/
 577:.\Generated_Source\PSoC5/CapSense_1_CSHL.c **** uint8 CapSense_1_CheckIsSensorActive(uint8 sensor)
 578:.\Generated_Source\PSoC5/CapSense_1_CSHL.c ****                                   
 579:.\Generated_Source\PSoC5/CapSense_1_CSHL.c **** {
 238              		.loc 1 579 0
 239              		.cfi_startproc
 240              		@ args = 0, pretend = 0, frame = 0
 241              		@ frame_needed = 0, uses_anonymous_args = 0
 242              		@ link register save eliminated.
 243              	.LVL20:
 244 0000 F0B4     		push	{r4, r5, r6, r7}
 245              		.cfi_def_cfa_offset 16
 246              		.cfi_offset 4, -16
 247              		.cfi_offset 5, -12
 248              		.cfi_offset 6, -8
 249              		.cfi_offset 7, -4
 580:.\Generated_Source\PSoC5/CapSense_1_CSHL.c ****     uint8 debounceIndex;
 581:.\Generated_Source\PSoC5/CapSense_1_CSHL.c ****     /* Get On/Off mask */
 582:.\Generated_Source\PSoC5/CapSense_1_CSHL.c ****     uint8 pos = (sensor >> 3u);
 250              		.loc 1 582 0
 251 0002 C108     		lsrs	r1, r0, #3
 252              	.LVL21:
 583:.\Generated_Source\PSoC5/CapSense_1_CSHL.c ****     uint8 onMask = 0x01u << (sensor & 0x07u);
 253              		.loc 1 583 0
 254 0004 00F00703 		and	r3, r0, #7
 255 0008 0122     		movs	r2, #1
 256 000a 9A40     		lsls	r2, r2, r3
 257 000c D2B2     		uxtb	r2, r2
 258              	.LVL22:
 584:.\Generated_Source\PSoC5/CapSense_1_CSHL.c ****     /* Prepare to find debounce counter index */
 585:.\Generated_Source\PSoC5/CapSense_1_CSHL.c ****     uint8 widget = CapSense_1_widgetNumber[sensor];
 259              		.loc 1 585 0
 260 000e 1B4B     		ldr	r3, .L25
 261 0010 1B5C     		ldrb	r3, [r3, r0]	@ zero_extendqisi2
 586:.\Generated_Source\PSoC5/CapSense_1_CSHL.c ****     uint8 fingerThreshold = CapSense_1_fingerThreshold[widget];
 262              		.loc 1 586 0
ARM GAS  C:\Users\JohnP\AppData\Local\Temp\ccMCOjex.s 			page 16


 263 0012 1B4C     		ldr	r4, .L25+4
 264 0014 E518     		adds	r5, r4, r3
 265 0016 2E79     		ldrb	r6, [r5, #4]	@ zero_extendqisi2
 266              	.LVL23:
 587:.\Generated_Source\PSoC5/CapSense_1_CSHL.c ****     uint8 hysteresis = CapSense_1_hysteresis[widget];
 267              		.loc 1 587 0
 268 0018 2D7A     		ldrb	r5, [r5, #8]	@ zero_extendqisi2
 269              	.LVL24:
 588:.\Generated_Source\PSoC5/CapSense_1_CSHL.c ****     uint8 debounce = CapSense_1_debounce[widget];
 270              		.loc 1 588 0
 271 001a E75C     		ldrb	r7, [r4, r3]	@ zero_extendqisi2
 272              	.LVL25:
 589:.\Generated_Source\PSoC5/CapSense_1_CSHL.c ****     
 590:.\Generated_Source\PSoC5/CapSense_1_CSHL.c ****     debounceIndex = widget;
 591:.\Generated_Source\PSoC5/CapSense_1_CSHL.c **** 
 592:.\Generated_Source\PSoC5/CapSense_1_CSHL.c ****     
 593:.\Generated_Source\PSoC5/CapSense_1_CSHL.c ****     /* Was on */
 594:.\Generated_Source\PSoC5/CapSense_1_CSHL.c ****     if (0u != (CapSense_1_sensorOnMask[pos] & onMask))
 273              		.loc 1 594 0
 274 001c 194C     		ldr	r4, .L25+8
 275              	.LVL26:
 276 001e 645C     		ldrb	r4, [r4, r1]	@ zero_extendqisi2
 277 0020 1442     		tst	r4, r2
 278 0022 0DD0     		beq	.L19
 595:.\Generated_Source\PSoC5/CapSense_1_CSHL.c ****     {
 596:.\Generated_Source\PSoC5/CapSense_1_CSHL.c ****         /* Hysteresis minus */
 597:.\Generated_Source\PSoC5/CapSense_1_CSHL.c ****         if (CapSense_1_sensorSignal[sensor] < (fingerThreshold - hysteresis))
 279              		.loc 1 597 0
 280 0024 DFF864C0 		ldr	ip, .L25+16
 281 0028 1CF80000 		ldrb	r0, [ip, r0]	@ zero_extendqisi2
 282              	.LVL27:
 283 002c 751B     		subs	r5, r6, r5
 284 002e A842     		cmp	r0, r5
 285 0030 1ADA     		bge	.L20
 598:.\Generated_Source\PSoC5/CapSense_1_CSHL.c ****         {
 599:.\Generated_Source\PSoC5/CapSense_1_CSHL.c ****             CapSense_1_sensorOnMask[pos] &= (uint8)~onMask;
 286              		.loc 1 599 0
 287 0032 24EA0204 		bic	r4, r4, r2
 288 0036 1348     		ldr	r0, .L25+8
 289 0038 4454     		strb	r4, [r0, r1]
 600:.\Generated_Source\PSoC5/CapSense_1_CSHL.c ****             CapSense_1_debounceCounter[debounceIndex] = debounce; 
 290              		.loc 1 600 0
 291 003a 1348     		ldr	r0, .L25+12
 292 003c C754     		strb	r7, [r0, r3]
 293 003e 13E0     		b	.L20
 294              	.LVL28:
 295              	.L19:
 601:.\Generated_Source\PSoC5/CapSense_1_CSHL.c ****         }
 602:.\Generated_Source\PSoC5/CapSense_1_CSHL.c ****     }
 603:.\Generated_Source\PSoC5/CapSense_1_CSHL.c ****     else    /* Was off */
 604:.\Generated_Source\PSoC5/CapSense_1_CSHL.c ****     {
 605:.\Generated_Source\PSoC5/CapSense_1_CSHL.c ****         /* Hysteresis plus */
 606:.\Generated_Source\PSoC5/CapSense_1_CSHL.c ****         if (CapSense_1_sensorSignal[sensor] > (fingerThreshold + hysteresis))
 296              		.loc 1 606 0
 297 0040 DFF848C0 		ldr	ip, .L25+16
 298 0044 1CF80000 		ldrb	r0, [ip, r0]	@ zero_extendqisi2
 299              	.LVL29:
ARM GAS  C:\Users\JohnP\AppData\Local\Temp\ccMCOjex.s 			page 17


 300 0048 3544     		add	r5, r5, r6
 301 004a A842     		cmp	r0, r5
 302 004c 0ADD     		ble	.L21
 607:.\Generated_Source\PSoC5/CapSense_1_CSHL.c ****         {
 608:.\Generated_Source\PSoC5/CapSense_1_CSHL.c ****             /* Sensor active, decrement debounce counter */
 609:.\Generated_Source\PSoC5/CapSense_1_CSHL.c ****             if (CapSense_1_debounceCounter[debounceIndex] <= 1u)
 303              		.loc 1 609 0
 304 004e 0E48     		ldr	r0, .L25+12
 305 0050 C05C     		ldrb	r0, [r0, r3]	@ zero_extendqisi2
 306 0052 0128     		cmp	r0, #1
 307 0054 02D8     		bhi	.L22
 610:.\Generated_Source\PSoC5/CapSense_1_CSHL.c ****             {
 611:.\Generated_Source\PSoC5/CapSense_1_CSHL.c ****                 CapSense_1_sensorOnMask[pos] |= onMask; 
 308              		.loc 1 611 0
 309 0056 1443     		orrs	r4, r4, r2
 310 0058 0A4D     		ldr	r5, .L25+8
 311 005a 6C54     		strb	r4, [r5, r1]
 312              	.L22:
 612:.\Generated_Source\PSoC5/CapSense_1_CSHL.c ****             }
 613:.\Generated_Source\PSoC5/CapSense_1_CSHL.c ****             CapSense_1_debounceCounter[debounceIndex]--;
 313              		.loc 1 613 0
 314 005c 0138     		subs	r0, r0, #1
 315 005e 0A4C     		ldr	r4, .L25+12
 316 0060 E054     		strb	r0, [r4, r3]
 317 0062 01E0     		b	.L20
 318              	.L21:
 614:.\Generated_Source\PSoC5/CapSense_1_CSHL.c ****         }
 615:.\Generated_Source\PSoC5/CapSense_1_CSHL.c ****         else
 616:.\Generated_Source\PSoC5/CapSense_1_CSHL.c ****         {
 617:.\Generated_Source\PSoC5/CapSense_1_CSHL.c ****             /* Sensor inactive - reset Debounce counter */
 618:.\Generated_Source\PSoC5/CapSense_1_CSHL.c ****             CapSense_1_debounceCounter[debounceIndex] = debounce;
 319              		.loc 1 618 0
 320 0064 0848     		ldr	r0, .L25+12
 321 0066 C754     		strb	r7, [r0, r3]
 322              	.L20:
 619:.\Generated_Source\PSoC5/CapSense_1_CSHL.c ****         }
 620:.\Generated_Source\PSoC5/CapSense_1_CSHL.c ****     }
 621:.\Generated_Source\PSoC5/CapSense_1_CSHL.c ****     
 622:.\Generated_Source\PSoC5/CapSense_1_CSHL.c ****     return (((CapSense_1_sensorOnMask[pos] & onMask) != 0u) ? 1u : 0u);
 323              		.loc 1 622 0
 324 0068 064B     		ldr	r3, .L25+8
 325              	.LVL30:
 326 006a 5B5C     		ldrb	r3, [r3, r1]	@ zero_extendqisi2
 327 006c 1342     		tst	r3, r2
 328 006e 01D0     		beq	.L24
 329 0070 0120     		movs	r0, #1
 330 0072 00E0     		b	.L23
 331              	.L24:
 332 0074 0020     		movs	r0, #0
 333              	.L23:
 623:.\Generated_Source\PSoC5/CapSense_1_CSHL.c **** }
 334              		.loc 1 623 0 discriminator 3
 335 0076 F0BC     		pop	{r4, r5, r6, r7}
 336              	.LVL31:
 337 0078 7047     		bx	lr
 338              	.L26:
 339 007a 00BF     		.align	2
ARM GAS  C:\Users\JohnP\AppData\Local\Temp\ccMCOjex.s 			page 18


 340              	.L25:
 341 007c 00000000 		.word	CapSense_1_widgetNumber
 342 0080 00000000 		.word	.LANCHOR0
 343 0084 00000000 		.word	CapSense_1_sensorOnMask
 344 0088 00000000 		.word	.LANCHOR1
 345 008c 00000000 		.word	CapSense_1_sensorSignal
 346              		.cfi_endproc
 347              	.LFE6:
 348              		.size	CapSense_1_CheckIsSensorActive, .-CapSense_1_CheckIsSensorActive
 349              		.section	.text.CapSense_1_CheckIsWidgetActive,"ax",%progbits
 350              		.align	2
 351              		.global	CapSense_1_CheckIsWidgetActive
 352              		.thumb
 353              		.thumb_func
 354              		.type	CapSense_1_CheckIsWidgetActive, %function
 355              	CapSense_1_CheckIsWidgetActive:
 356              	.LFB7:
 624:.\Generated_Source\PSoC5/CapSense_1_CSHL.c **** 
 625:.\Generated_Source\PSoC5/CapSense_1_CSHL.c **** 
 626:.\Generated_Source\PSoC5/CapSense_1_CSHL.c **** /*******************************************************************************
 627:.\Generated_Source\PSoC5/CapSense_1_CSHL.c **** * Function Name: CapSense_1_CheckIsWidgetActive
 628:.\Generated_Source\PSoC5/CapSense_1_CSHL.c **** ********************************************************************************
 629:.\Generated_Source\PSoC5/CapSense_1_CSHL.c **** *
 630:.\Generated_Source\PSoC5/CapSense_1_CSHL.c **** * Summary:
 631:.\Generated_Source\PSoC5/CapSense_1_CSHL.c **** *  Use function CapSense_1_CheckIsSensorActive() to update 
 632:.\Generated_Source\PSoC5/CapSense_1_CSHL.c **** *  CapSense_1_sensorOnMask[] for all sensors within the widget.
 633:.\Generated_Source\PSoC5/CapSense_1_CSHL.c **** *  If one of sensors within widget is active the function return that widget is 
 634:.\Generated_Source\PSoC5/CapSense_1_CSHL.c **** *  active.
 635:.\Generated_Source\PSoC5/CapSense_1_CSHL.c **** *  The touch pad and matrix buttons widgets need to have active sensor within 
 636:.\Generated_Source\PSoC5/CapSense_1_CSHL.c **** *  col and row to return widget active status.
 637:.\Generated_Source\PSoC5/CapSense_1_CSHL.c **** *
 638:.\Generated_Source\PSoC5/CapSense_1_CSHL.c **** * Parameters:
 639:.\Generated_Source\PSoC5/CapSense_1_CSHL.c **** *  widget:  widget number.
 640:.\Generated_Source\PSoC5/CapSense_1_CSHL.c **** *
 641:.\Generated_Source\PSoC5/CapSense_1_CSHL.c **** * Return:
 642:.\Generated_Source\PSoC5/CapSense_1_CSHL.c **** *  Returns widget sensor state 1 if one or more sensors within widget is/are 
 643:.\Generated_Source\PSoC5/CapSense_1_CSHL.c **** *  active, 0 if all sensors within widget are inactive.
 644:.\Generated_Source\PSoC5/CapSense_1_CSHL.c **** *
 645:.\Generated_Source\PSoC5/CapSense_1_CSHL.c **** * Reentrant:
 646:.\Generated_Source\PSoC5/CapSense_1_CSHL.c **** *  No
 647:.\Generated_Source\PSoC5/CapSense_1_CSHL.c **** *
 648:.\Generated_Source\PSoC5/CapSense_1_CSHL.c **** *******************************************************************************/
 649:.\Generated_Source\PSoC5/CapSense_1_CSHL.c **** uint8 CapSense_1_CheckIsWidgetActive(uint8 widget)
 650:.\Generated_Source\PSoC5/CapSense_1_CSHL.c ****                                  
 651:.\Generated_Source\PSoC5/CapSense_1_CSHL.c **** {
 357              		.loc 1 651 0
 358              		.cfi_startproc
 359              		@ args = 0, pretend = 0, frame = 0
 360              		@ frame_needed = 0, uses_anonymous_args = 0
 361              	.LVL32:
 362 0000 08B5     		push	{r3, lr}
 363              		.cfi_def_cfa_offset 8
 364              		.cfi_offset 3, -8
 365              		.cfi_offset 14, -4
 366              	.LVL33:
 652:.\Generated_Source\PSoC5/CapSense_1_CSHL.c ****     uint8 rawIndex = CapSense_1_rawDataIndex[widget];
 653:.\Generated_Source\PSoC5/CapSense_1_CSHL.c ****     uint8 numberOfSensors = CapSense_1_numberOfSensors[widget] + rawIndex;
ARM GAS  C:\Users\JohnP\AppData\Local\Temp\ccMCOjex.s 			page 19


 654:.\Generated_Source\PSoC5/CapSense_1_CSHL.c ****     uint8 state = 0u;
 655:.\Generated_Source\PSoC5/CapSense_1_CSHL.c **** 
 656:.\Generated_Source\PSoC5/CapSense_1_CSHL.c ****     /* Check all sensors of the widget */
 657:.\Generated_Source\PSoC5/CapSense_1_CSHL.c ****     do
 658:.\Generated_Source\PSoC5/CapSense_1_CSHL.c ****     {
 659:.\Generated_Source\PSoC5/CapSense_1_CSHL.c ****         if(CapSense_1_CheckIsSensorActive(rawIndex) != 0u)
 367              		.loc 1 659 0
 368 0002 0020     		movs	r0, #0
 369              	.LVL34:
 370 0004 FFF7FEFF 		bl	CapSense_1_CheckIsSensorActive
 371              	.LVL35:
 372 0008 00B1     		cbz	r0, .L28
 660:.\Generated_Source\PSoC5/CapSense_1_CSHL.c ****         {
 661:.\Generated_Source\PSoC5/CapSense_1_CSHL.c ****             state = CapSense_1_SENSOR_1_IS_ACTIVE;
 373              		.loc 1 661 0
 374 000a 0120     		movs	r0, #1
 375              	.L28:
 376              	.LVL36:
 662:.\Generated_Source\PSoC5/CapSense_1_CSHL.c ****         }
 663:.\Generated_Source\PSoC5/CapSense_1_CSHL.c ****         rawIndex++;
 664:.\Generated_Source\PSoC5/CapSense_1_CSHL.c ****     }
 665:.\Generated_Source\PSoC5/CapSense_1_CSHL.c ****     while(rawIndex < numberOfSensors);
 666:.\Generated_Source\PSoC5/CapSense_1_CSHL.c ****     
 667:.\Generated_Source\PSoC5/CapSense_1_CSHL.c **** 
 668:.\Generated_Source\PSoC5/CapSense_1_CSHL.c ****     
 669:.\Generated_Source\PSoC5/CapSense_1_CSHL.c ****     return (state);
 670:.\Generated_Source\PSoC5/CapSense_1_CSHL.c **** }
 377              		.loc 1 670 0
 378 000c 08BD     		pop	{r3, pc}
 379              		.cfi_endproc
 380              	.LFE7:
 381              		.size	CapSense_1_CheckIsWidgetActive, .-CapSense_1_CheckIsWidgetActive
 382 000e 00BF     		.section	.text.CapSense_1_CheckIsAnyWidgetActive,"ax",%progbits
 383              		.align	2
 384              		.global	CapSense_1_CheckIsAnyWidgetActive
 385              		.thumb
 386              		.thumb_func
 387              		.type	CapSense_1_CheckIsAnyWidgetActive, %function
 388              	CapSense_1_CheckIsAnyWidgetActive:
 389              	.LFB8:
 671:.\Generated_Source\PSoC5/CapSense_1_CSHL.c **** 
 672:.\Generated_Source\PSoC5/CapSense_1_CSHL.c **** 
 673:.\Generated_Source\PSoC5/CapSense_1_CSHL.c **** /*******************************************************************************
 674:.\Generated_Source\PSoC5/CapSense_1_CSHL.c **** * Function Name: CapSense_1_CheckIsAnyWidgetActive
 675:.\Generated_Source\PSoC5/CapSense_1_CSHL.c **** ********************************************************************************
 676:.\Generated_Source\PSoC5/CapSense_1_CSHL.c **** *
 677:.\Generated_Source\PSoC5/CapSense_1_CSHL.c **** * Summary:
 678:.\Generated_Source\PSoC5/CapSense_1_CSHL.c **** *  Compares all sensors of the CapSense_1_signal[] array to their finger 
 679:.\Generated_Source\PSoC5/CapSense_1_CSHL.c **** *  threshold. Calls CapSense_1_CheckIsWidgetActive() for each widget so 
 680:.\Generated_Source\PSoC5/CapSense_1_CSHL.c **** *  the CapSense_1_SensorOnMask[] array is up to date after calling this 
 681:.\Generated_Source\PSoC5/CapSense_1_CSHL.c **** *  function.
 682:.\Generated_Source\PSoC5/CapSense_1_CSHL.c **** *
 683:.\Generated_Source\PSoC5/CapSense_1_CSHL.c **** * Parameters:
 684:.\Generated_Source\PSoC5/CapSense_1_CSHL.c **** *  widget:  widget number.
 685:.\Generated_Source\PSoC5/CapSense_1_CSHL.c **** *
 686:.\Generated_Source\PSoC5/CapSense_1_CSHL.c **** * Return:
 687:.\Generated_Source\PSoC5/CapSense_1_CSHL.c **** *  Returns 1 if any widget is active, 0 none of widgets are active.
ARM GAS  C:\Users\JohnP\AppData\Local\Temp\ccMCOjex.s 			page 20


 688:.\Generated_Source\PSoC5/CapSense_1_CSHL.c **** *
 689:.\Generated_Source\PSoC5/CapSense_1_CSHL.c **** * Reentrant:
 690:.\Generated_Source\PSoC5/CapSense_1_CSHL.c **** *  No
 691:.\Generated_Source\PSoC5/CapSense_1_CSHL.c **** *
 692:.\Generated_Source\PSoC5/CapSense_1_CSHL.c **** *******************************************************************************/
 693:.\Generated_Source\PSoC5/CapSense_1_CSHL.c **** uint8 CapSense_1_CheckIsAnyWidgetActive(void)
 694:.\Generated_Source\PSoC5/CapSense_1_CSHL.c ****                                  
 695:.\Generated_Source\PSoC5/CapSense_1_CSHL.c **** {
 390              		.loc 1 695 0
 391              		.cfi_startproc
 392              		@ args = 0, pretend = 0, frame = 0
 393              		@ frame_needed = 0, uses_anonymous_args = 0
 394 0000 70B5     		push	{r4, r5, r6, lr}
 395              		.cfi_def_cfa_offset 16
 396              		.cfi_offset 4, -16
 397              		.cfi_offset 5, -12
 398              		.cfi_offset 6, -8
 399              		.cfi_offset 14, -4
 400              	.LVL37:
 696:.\Generated_Source\PSoC5/CapSense_1_CSHL.c ****     uint8 i;
 697:.\Generated_Source\PSoC5/CapSense_1_CSHL.c ****     uint8 state = 0u;
 401              		.loc 1 697 0
 402 0002 0025     		movs	r5, #0
 698:.\Generated_Source\PSoC5/CapSense_1_CSHL.c ****     
 699:.\Generated_Source\PSoC5/CapSense_1_CSHL.c ****     for(i = 0u; i < CapSense_1_TOTAL_WIDGET_COUNT; i++)
 403              		.loc 1 699 0
 404 0004 2C46     		mov	r4, r5
 700:.\Generated_Source\PSoC5/CapSense_1_CSHL.c ****     {
 701:.\Generated_Source\PSoC5/CapSense_1_CSHL.c ****         if (CapSense_1_CheckIsWidgetActive(i) != 0u)
 702:.\Generated_Source\PSoC5/CapSense_1_CSHL.c ****         {
 703:.\Generated_Source\PSoC5/CapSense_1_CSHL.c ****             state = CapSense_1_WIDGET_IS_ACTIVE;
 405              		.loc 1 703 0
 406 0006 0126     		movs	r6, #1
 699:.\Generated_Source\PSoC5/CapSense_1_CSHL.c ****     for(i = 0u; i < CapSense_1_TOTAL_WIDGET_COUNT; i++)
 407              		.loc 1 699 0
 408 0008 06E0     		b	.L31
 409              	.LVL38:
 410              	.L33:
 701:.\Generated_Source\PSoC5/CapSense_1_CSHL.c ****         if (CapSense_1_CheckIsWidgetActive(i) != 0u)
 411              		.loc 1 701 0
 412 000a 2046     		mov	r0, r4
 413 000c FFF7FEFF 		bl	CapSense_1_CheckIsWidgetActive
 414              	.LVL39:
 415 0010 00B1     		cbz	r0, .L32
 416              		.loc 1 703 0
 417 0012 3546     		mov	r5, r6
 418              	.L32:
 699:.\Generated_Source\PSoC5/CapSense_1_CSHL.c ****     for(i = 0u; i < CapSense_1_TOTAL_WIDGET_COUNT; i++)
 419              		.loc 1 699 0
 420 0014 0134     		adds	r4, r4, #1
 421              	.LVL40:
 422 0016 E4B2     		uxtb	r4, r4
 423              	.LVL41:
 424              	.L31:
 699:.\Generated_Source\PSoC5/CapSense_1_CSHL.c ****     for(i = 0u; i < CapSense_1_TOTAL_WIDGET_COUNT; i++)
 425              		.loc 1 699 0 is_stmt 0 discriminator 1
 426 0018 002C     		cmp	r4, #0
ARM GAS  C:\Users\JohnP\AppData\Local\Temp\ccMCOjex.s 			page 21


 427 001a F6D0     		beq	.L33
 704:.\Generated_Source\PSoC5/CapSense_1_CSHL.c ****         }
 705:.\Generated_Source\PSoC5/CapSense_1_CSHL.c ****     }
 706:.\Generated_Source\PSoC5/CapSense_1_CSHL.c ****     
 707:.\Generated_Source\PSoC5/CapSense_1_CSHL.c **** 
 708:.\Generated_Source\PSoC5/CapSense_1_CSHL.c ****     return (state);
 709:.\Generated_Source\PSoC5/CapSense_1_CSHL.c **** }
 428              		.loc 1 709 0 is_stmt 1
 429 001c 2846     		mov	r0, r5
 430 001e 70BD     		pop	{r4, r5, r6, pc}
 431              		.cfi_endproc
 432              	.LFE8:
 433              		.size	CapSense_1_CheckIsAnyWidgetActive, .-CapSense_1_CheckIsAnyWidgetActive
 434              		.section	.text.CapSense_1_EnableWidget,"ax",%progbits
 435              		.align	2
 436              		.global	CapSense_1_EnableWidget
 437              		.thumb
 438              		.thumb_func
 439              		.type	CapSense_1_EnableWidget, %function
 440              	CapSense_1_EnableWidget:
 441              	.LFB9:
 710:.\Generated_Source\PSoC5/CapSense_1_CSHL.c **** 
 711:.\Generated_Source\PSoC5/CapSense_1_CSHL.c **** 
 712:.\Generated_Source\PSoC5/CapSense_1_CSHL.c **** /*******************************************************************************
 713:.\Generated_Source\PSoC5/CapSense_1_CSHL.c **** * Function Name: CapSense_1_EnableWidget
 714:.\Generated_Source\PSoC5/CapSense_1_CSHL.c **** ********************************************************************************
 715:.\Generated_Source\PSoC5/CapSense_1_CSHL.c **** *
 716:.\Generated_Source\PSoC5/CapSense_1_CSHL.c **** * Summary:
 717:.\Generated_Source\PSoC5/CapSense_1_CSHL.c **** *  Enable all widget elements (sensors) to scanning process.
 718:.\Generated_Source\PSoC5/CapSense_1_CSHL.c **** *
 719:.\Generated_Source\PSoC5/CapSense_1_CSHL.c **** * Parameters:
 720:.\Generated_Source\PSoC5/CapSense_1_CSHL.c **** *  widget:  widget number.
 721:.\Generated_Source\PSoC5/CapSense_1_CSHL.c **** *
 722:.\Generated_Source\PSoC5/CapSense_1_CSHL.c **** * Return:
 723:.\Generated_Source\PSoC5/CapSense_1_CSHL.c **** *  None
 724:.\Generated_Source\PSoC5/CapSense_1_CSHL.c **** *
 725:.\Generated_Source\PSoC5/CapSense_1_CSHL.c **** * Global Variables:
 726:.\Generated_Source\PSoC5/CapSense_1_CSHL.c **** *  CapSense_1_sensorEnableMask[] - used to store the sensor scanning 
 727:.\Generated_Source\PSoC5/CapSense_1_CSHL.c **** *  state.
 728:.\Generated_Source\PSoC5/CapSense_1_CSHL.c **** *  CapSense_1_sensorEnableMask[0] contains the masked bits for sensors 
 729:.\Generated_Source\PSoC5/CapSense_1_CSHL.c **** *  0 through 7 (sensor 0 is bit 0, sensor 1 is bit 1).
 730:.\Generated_Source\PSoC5/CapSense_1_CSHL.c **** *  CapSense_1_sensorEnableMask[1] contains the masked bits for 
 731:.\Generated_Source\PSoC5/CapSense_1_CSHL.c **** *  sensors 8 through 15 (if needed), and so on.
 732:.\Generated_Source\PSoC5/CapSense_1_CSHL.c **** *  0 - sensor doesn't scan by CapSense_1_ScanEnabledWidgets().
 733:.\Generated_Source\PSoC5/CapSense_1_CSHL.c **** *  1 - sensor scans by CapSense_1_ScanEnabledWidgets().
 734:.\Generated_Source\PSoC5/CapSense_1_CSHL.c **** *
 735:.\Generated_Source\PSoC5/CapSense_1_CSHL.c **** * Reentrant:
 736:.\Generated_Source\PSoC5/CapSense_1_CSHL.c **** *  No
 737:.\Generated_Source\PSoC5/CapSense_1_CSHL.c **** *
 738:.\Generated_Source\PSoC5/CapSense_1_CSHL.c **** *******************************************************************************/
 739:.\Generated_Source\PSoC5/CapSense_1_CSHL.c **** void CapSense_1_EnableWidget(uint8 widget)
 740:.\Generated_Source\PSoC5/CapSense_1_CSHL.c ****                                    
 741:.\Generated_Source\PSoC5/CapSense_1_CSHL.c **** {
 442              		.loc 1 741 0
 443              		.cfi_startproc
 444              		@ args = 0, pretend = 0, frame = 0
 445              		@ frame_needed = 0, uses_anonymous_args = 0
ARM GAS  C:\Users\JohnP\AppData\Local\Temp\ccMCOjex.s 			page 22


 446              		@ link register save eliminated.
 447              	.LVL42:
 742:.\Generated_Source\PSoC5/CapSense_1_CSHL.c ****     uint8 pos;
 743:.\Generated_Source\PSoC5/CapSense_1_CSHL.c ****     uint8 enMask;
 744:.\Generated_Source\PSoC5/CapSense_1_CSHL.c ****     uint8 rawIndex = CapSense_1_rawDataIndex[widget];
 745:.\Generated_Source\PSoC5/CapSense_1_CSHL.c ****     uint8 numberOfSensors = CapSense_1_numberOfSensors[widget] + rawIndex;
 746:.\Generated_Source\PSoC5/CapSense_1_CSHL.c ****     
 747:.\Generated_Source\PSoC5/CapSense_1_CSHL.c ****     /* Enable all sensors of the widget */
 748:.\Generated_Source\PSoC5/CapSense_1_CSHL.c ****     do
 749:.\Generated_Source\PSoC5/CapSense_1_CSHL.c ****     {
 750:.\Generated_Source\PSoC5/CapSense_1_CSHL.c ****         pos = (rawIndex >> 3u);
 751:.\Generated_Source\PSoC5/CapSense_1_CSHL.c ****         enMask = 0x01u << (rawIndex & 0x07u);
 752:.\Generated_Source\PSoC5/CapSense_1_CSHL.c ****         
 753:.\Generated_Source\PSoC5/CapSense_1_CSHL.c ****         CapSense_1_sensorEnableMask[pos] |= enMask;
 448              		.loc 1 753 0
 449 0000 024B     		ldr	r3, .L36
 450 0002 1A78     		ldrb	r2, [r3]	@ zero_extendqisi2
 451 0004 42F00102 		orr	r2, r2, #1
 452 0008 1A70     		strb	r2, [r3]
 453              	.LVL43:
 454 000a 7047     		bx	lr
 455              	.L37:
 456              		.align	2
 457              	.L36:
 458 000c 00000000 		.word	CapSense_1_sensorEnableMask
 459              		.cfi_endproc
 460              	.LFE9:
 461              		.size	CapSense_1_EnableWidget, .-CapSense_1_EnableWidget
 462              		.section	.text.CapSense_1_DisableWidget,"ax",%progbits
 463              		.align	2
 464              		.global	CapSense_1_DisableWidget
 465              		.thumb
 466              		.thumb_func
 467              		.type	CapSense_1_DisableWidget, %function
 468              	CapSense_1_DisableWidget:
 469              	.LFB10:
 754:.\Generated_Source\PSoC5/CapSense_1_CSHL.c ****         rawIndex++;
 755:.\Generated_Source\PSoC5/CapSense_1_CSHL.c ****     }
 756:.\Generated_Source\PSoC5/CapSense_1_CSHL.c ****     while(rawIndex < numberOfSensors);
 757:.\Generated_Source\PSoC5/CapSense_1_CSHL.c ****     
 758:.\Generated_Source\PSoC5/CapSense_1_CSHL.c **** 
 759:.\Generated_Source\PSoC5/CapSense_1_CSHL.c **** }
 760:.\Generated_Source\PSoC5/CapSense_1_CSHL.c **** 
 761:.\Generated_Source\PSoC5/CapSense_1_CSHL.c **** 
 762:.\Generated_Source\PSoC5/CapSense_1_CSHL.c **** /*******************************************************************************
 763:.\Generated_Source\PSoC5/CapSense_1_CSHL.c **** * Function Name: CapSense_1_DisableWidget
 764:.\Generated_Source\PSoC5/CapSense_1_CSHL.c **** ********************************************************************************
 765:.\Generated_Source\PSoC5/CapSense_1_CSHL.c **** *
 766:.\Generated_Source\PSoC5/CapSense_1_CSHL.c **** * Summary:
 767:.\Generated_Source\PSoC5/CapSense_1_CSHL.c **** *  Disable all widget elements (sensors) from scanning process.
 768:.\Generated_Source\PSoC5/CapSense_1_CSHL.c **** *
 769:.\Generated_Source\PSoC5/CapSense_1_CSHL.c **** * Parameters:
 770:.\Generated_Source\PSoC5/CapSense_1_CSHL.c **** *  widget:  widget number.
 771:.\Generated_Source\PSoC5/CapSense_1_CSHL.c **** *
 772:.\Generated_Source\PSoC5/CapSense_1_CSHL.c **** * Return:
 773:.\Generated_Source\PSoC5/CapSense_1_CSHL.c **** *  None
 774:.\Generated_Source\PSoC5/CapSense_1_CSHL.c **** *
ARM GAS  C:\Users\JohnP\AppData\Local\Temp\ccMCOjex.s 			page 23


 775:.\Generated_Source\PSoC5/CapSense_1_CSHL.c **** * Global Variables:
 776:.\Generated_Source\PSoC5/CapSense_1_CSHL.c **** *  CapSense_1_sensorEnableMask[] - used to store the sensor scanning 
 777:.\Generated_Source\PSoC5/CapSense_1_CSHL.c **** *  state.
 778:.\Generated_Source\PSoC5/CapSense_1_CSHL.c **** *  CapSense_1_sensorEnableMask[0] contains the masked bits for sensors 
 779:.\Generated_Source\PSoC5/CapSense_1_CSHL.c **** *  0 through 7 (sensor 0 is bit 0, sensor 1 is bit 1).
 780:.\Generated_Source\PSoC5/CapSense_1_CSHL.c **** *  CapSense_1_sensorEnableMask[1] contains the masked bits for 
 781:.\Generated_Source\PSoC5/CapSense_1_CSHL.c **** *  sensors 8 through 15 (if needed), and so on.
 782:.\Generated_Source\PSoC5/CapSense_1_CSHL.c **** *  0 - sensor doesn't scan by CapSense_1_ScanEnabledWidgets().
 783:.\Generated_Source\PSoC5/CapSense_1_CSHL.c **** *  1 - sensor scans by CapSense_1_ScanEnabledWidgets().
 784:.\Generated_Source\PSoC5/CapSense_1_CSHL.c **** *
 785:.\Generated_Source\PSoC5/CapSense_1_CSHL.c **** * Reentrant:
 786:.\Generated_Source\PSoC5/CapSense_1_CSHL.c **** *  No
 787:.\Generated_Source\PSoC5/CapSense_1_CSHL.c **** *
 788:.\Generated_Source\PSoC5/CapSense_1_CSHL.c **** *******************************************************************************/
 789:.\Generated_Source\PSoC5/CapSense_1_CSHL.c **** void CapSense_1_DisableWidget(uint8 widget)
 790:.\Generated_Source\PSoC5/CapSense_1_CSHL.c ****                                     
 791:.\Generated_Source\PSoC5/CapSense_1_CSHL.c **** {
 470              		.loc 1 791 0
 471              		.cfi_startproc
 472              		@ args = 0, pretend = 0, frame = 0
 473              		@ frame_needed = 0, uses_anonymous_args = 0
 474              		@ link register save eliminated.
 475              	.LVL44:
 792:.\Generated_Source\PSoC5/CapSense_1_CSHL.c ****     uint8 pos;
 793:.\Generated_Source\PSoC5/CapSense_1_CSHL.c ****     uint8 enMask;
 794:.\Generated_Source\PSoC5/CapSense_1_CSHL.c ****     uint8 rawIndex = CapSense_1_rawDataIndex[widget];
 795:.\Generated_Source\PSoC5/CapSense_1_CSHL.c ****     uint8 numberOfSensors = CapSense_1_numberOfSensors[widget] + rawIndex;
 796:.\Generated_Source\PSoC5/CapSense_1_CSHL.c ****    
 797:.\Generated_Source\PSoC5/CapSense_1_CSHL.c ****     /* Disable all sensors of the widget */
 798:.\Generated_Source\PSoC5/CapSense_1_CSHL.c ****     do
 799:.\Generated_Source\PSoC5/CapSense_1_CSHL.c ****     {
 800:.\Generated_Source\PSoC5/CapSense_1_CSHL.c ****         pos = (rawIndex >> 3u);
 801:.\Generated_Source\PSoC5/CapSense_1_CSHL.c ****         enMask = 0x01u << (rawIndex & 0x07u);
 802:.\Generated_Source\PSoC5/CapSense_1_CSHL.c ****         
 803:.\Generated_Source\PSoC5/CapSense_1_CSHL.c ****         CapSense_1_sensorEnableMask[pos] &= (uint8)~enMask;
 476              		.loc 1 803 0
 477 0000 024B     		ldr	r3, .L39
 478 0002 1A78     		ldrb	r2, [r3]	@ zero_extendqisi2
 479 0004 22F00102 		bic	r2, r2, #1
 480 0008 1A70     		strb	r2, [r3]
 481              	.LVL45:
 482 000a 7047     		bx	lr
 483              	.L40:
 484              		.align	2
 485              	.L39:
 486 000c 00000000 		.word	CapSense_1_sensorEnableMask
 487              		.cfi_endproc
 488              	.LFE10:
 489              		.size	CapSense_1_DisableWidget, .-CapSense_1_DisableWidget
 490              		.section	.text.CapSense_1_IIR4Filter,"ax",%progbits
 491              		.align	2
 492              		.global	CapSense_1_IIR4Filter
 493              		.thumb
 494              		.thumb_func
 495              		.type	CapSense_1_IIR4Filter, %function
 496              	CapSense_1_IIR4Filter:
 497              	.LFB11:
ARM GAS  C:\Users\JohnP\AppData\Local\Temp\ccMCOjex.s 			page 24


 804:.\Generated_Source\PSoC5/CapSense_1_CSHL.c ****         rawIndex++;
 805:.\Generated_Source\PSoC5/CapSense_1_CSHL.c ****     }
 806:.\Generated_Source\PSoC5/CapSense_1_CSHL.c ****     while(rawIndex < numberOfSensors);
 807:.\Generated_Source\PSoC5/CapSense_1_CSHL.c ****     
 808:.\Generated_Source\PSoC5/CapSense_1_CSHL.c **** 
 809:.\Generated_Source\PSoC5/CapSense_1_CSHL.c **** }
 810:.\Generated_Source\PSoC5/CapSense_1_CSHL.c **** #if(CapSense_1_TOTAL_CENTROIDS_COUNT)
 811:.\Generated_Source\PSoC5/CapSense_1_CSHL.c ****     /*******************************************************************************
 812:.\Generated_Source\PSoC5/CapSense_1_CSHL.c ****     * Function Name: CapSense_1_FindMaximum
 813:.\Generated_Source\PSoC5/CapSense_1_CSHL.c ****     ********************************************************************************
 814:.\Generated_Source\PSoC5/CapSense_1_CSHL.c ****     *
 815:.\Generated_Source\PSoC5/CapSense_1_CSHL.c ****     * Summary:
 816:.\Generated_Source\PSoC5/CapSense_1_CSHL.c ****     *  Finds index of maximum element within defined centroid. Checks 
 817:.\Generated_Source\PSoC5/CapSense_1_CSHL.c ****     *  CapSense_1_SensorSignal[] within defined cenrtoid and 
 818:.\Generated_Source\PSoC5/CapSense_1_CSHL.c ****     *  returns index of maximum element. The values below finger threshold are 
 819:.\Generated_Source\PSoC5/CapSense_1_CSHL.c ****     *  ignored.
 820:.\Generated_Source\PSoC5/CapSense_1_CSHL.c ****     *  The centrod defines by offset of first element and number of elements - count.
 821:.\Generated_Source\PSoC5/CapSense_1_CSHL.c ****     *  The diplexed centroid requires at least consecutive two elements above
 822:.\Generated_Source\PSoC5/CapSense_1_CSHL.c ****     *  FingerThreshold to find index of maximum element.
 823:.\Generated_Source\PSoC5/CapSense_1_CSHL.c ****     * 
 824:.\Generated_Source\PSoC5/CapSense_1_CSHL.c ****     * Parameters:
 825:.\Generated_Source\PSoC5/CapSense_1_CSHL.c ****     *  offset:  Start index of cetroid in CapSense_1_sensorSignal[] array.
 826:.\Generated_Source\PSoC5/CapSense_1_CSHL.c ****     *  count:   number of elements within centroid.
 827:.\Generated_Source\PSoC5/CapSense_1_CSHL.c ****     *  fingerThreshold:  Finger threshould.
 828:.\Generated_Source\PSoC5/CapSense_1_CSHL.c ****     *  diplex:   pointer to diplex table.
 829:.\Generated_Source\PSoC5/CapSense_1_CSHL.c ****     * 
 830:.\Generated_Source\PSoC5/CapSense_1_CSHL.c ****     * Return:
 831:.\Generated_Source\PSoC5/CapSense_1_CSHL.c ****     *  Returns index of maximum element within defined centroid.
 832:.\Generated_Source\PSoC5/CapSense_1_CSHL.c ****     *  If index of maximum element doesn't find the 0xFF returns.
 833:.\Generated_Source\PSoC5/CapSense_1_CSHL.c ****     * 
 834:.\Generated_Source\PSoC5/CapSense_1_CSHL.c ****     *******************************************************************************/
 835:.\Generated_Source\PSoC5/CapSense_1_CSHL.c ****     #if (CapSense_1_IS_DIPLEX_SLIDER)
 836:.\Generated_Source\PSoC5/CapSense_1_CSHL.c ****         uint8 CapSense_1_FindMaximum(uint8 offset, uint8 count, uint8 fingerThreshold, const uint8 
 837:.\Generated_Source\PSoC5/CapSense_1_CSHL.c **** 	                                       
 838:.\Generated_Source\PSoC5/CapSense_1_CSHL.c ****     #else 
 839:.\Generated_Source\PSoC5/CapSense_1_CSHL.c ****         uint8 CapSense_1_FindMaximum(uint8 offset, uint8 count, uint8 fingerThreshold)
 840:.\Generated_Source\PSoC5/CapSense_1_CSHL.c **** 	                                       
 841:.\Generated_Source\PSoC5/CapSense_1_CSHL.c ****     #endif /* (CapSense_1_IS_DIPLEX_SLIDER) */
 842:.\Generated_Source\PSoC5/CapSense_1_CSHL.c ****     {
 843:.\Generated_Source\PSoC5/CapSense_1_CSHL.c ****         uint8 i;
 844:.\Generated_Source\PSoC5/CapSense_1_CSHL.c ****         #if (CapSense_1_IS_DIPLEX_SLIDER)        
 845:.\Generated_Source\PSoC5/CapSense_1_CSHL.c ****             uint8 curPos = 0u;
 846:.\Generated_Source\PSoC5/CapSense_1_CSHL.c ****             /* No centroid at the Start */
 847:.\Generated_Source\PSoC5/CapSense_1_CSHL.c ****             uint8 curCntrdSize = 0u;
 848:.\Generated_Source\PSoC5/CapSense_1_CSHL.c ****             uint8 curCtrdStartPos = 0xFFu;
 849:.\Generated_Source\PSoC5/CapSense_1_CSHL.c ****             /* The biggset centroid is zero */
 850:.\Generated_Source\PSoC5/CapSense_1_CSHL.c ****             uint8 biggestCtrdSize = 0u;
 851:.\Generated_Source\PSoC5/CapSense_1_CSHL.c ****             uint8 biggestCtrdStartPos = 0u;
 852:.\Generated_Source\PSoC5/CapSense_1_CSHL.c ****         #endif /* (CapSense_1_IS_DIPLEX_SLIDER) */
 853:.\Generated_Source\PSoC5/CapSense_1_CSHL.c ****         uint8 maximum = 0xFFu;
 854:.\Generated_Source\PSoC5/CapSense_1_CSHL.c ****         uint8 temp = 0u;
 855:.\Generated_Source\PSoC5/CapSense_1_CSHL.c ****         uint8 *startOfSlider = &CapSense_1_sensorSignal[offset]; 
 856:.\Generated_Source\PSoC5/CapSense_1_CSHL.c **** 
 857:.\Generated_Source\PSoC5/CapSense_1_CSHL.c ****         #if (CapSense_1_IS_DIPLEX_SLIDER)        
 858:.\Generated_Source\PSoC5/CapSense_1_CSHL.c ****             if(diplex != 0u)
 859:.\Generated_Source\PSoC5/CapSense_1_CSHL.c ****             {
 860:.\Generated_Source\PSoC5/CapSense_1_CSHL.c ****                 /* Initialize */
ARM GAS  C:\Users\JohnP\AppData\Local\Temp\ccMCOjex.s 			page 25


 861:.\Generated_Source\PSoC5/CapSense_1_CSHL.c ****                 i = 0u;
 862:.\Generated_Source\PSoC5/CapSense_1_CSHL.c ****                 
 863:.\Generated_Source\PSoC5/CapSense_1_CSHL.c ****                 /* Make slider x2 as Diplexed */
 864:.\Generated_Source\PSoC5/CapSense_1_CSHL.c ****                 count <<= 1u;
 865:.\Generated_Source\PSoC5/CapSense_1_CSHL.c ****                 while(1u)
 866:.\Generated_Source\PSoC5/CapSense_1_CSHL.c ****                 { 
 867:.\Generated_Source\PSoC5/CapSense_1_CSHL.c ****                     if (startOfSlider[curPos] > 0u)    /* Looking for centroids */
 868:.\Generated_Source\PSoC5/CapSense_1_CSHL.c ****                     {
 869:.\Generated_Source\PSoC5/CapSense_1_CSHL.c ****                         if (curCtrdStartPos == 0xFFu)
 870:.\Generated_Source\PSoC5/CapSense_1_CSHL.c ****                         {
 871:.\Generated_Source\PSoC5/CapSense_1_CSHL.c ****                             /* Start of centroid */
 872:.\Generated_Source\PSoC5/CapSense_1_CSHL.c ****                             curCtrdStartPos = i;
 873:.\Generated_Source\PSoC5/CapSense_1_CSHL.c ****                             curCntrdSize++;
 874:.\Generated_Source\PSoC5/CapSense_1_CSHL.c ****                         }
 875:.\Generated_Source\PSoC5/CapSense_1_CSHL.c ****                         else
 876:.\Generated_Source\PSoC5/CapSense_1_CSHL.c ****                         {
 877:.\Generated_Source\PSoC5/CapSense_1_CSHL.c ****                             curCntrdSize++;
 878:.\Generated_Source\PSoC5/CapSense_1_CSHL.c ****                         }
 879:.\Generated_Source\PSoC5/CapSense_1_CSHL.c ****                     }
 880:.\Generated_Source\PSoC5/CapSense_1_CSHL.c ****                     else   /* Select the bigest and indicate zero start */
 881:.\Generated_Source\PSoC5/CapSense_1_CSHL.c ****                     {          
 882:.\Generated_Source\PSoC5/CapSense_1_CSHL.c ****                         if(curCntrdSize > 0u)
 883:.\Generated_Source\PSoC5/CapSense_1_CSHL.c ****                         {
 884:.\Generated_Source\PSoC5/CapSense_1_CSHL.c ****                             /* We are in the end of current */
 885:.\Generated_Source\PSoC5/CapSense_1_CSHL.c ****                             if(curCntrdSize > biggestCtrdSize)
 886:.\Generated_Source\PSoC5/CapSense_1_CSHL.c ****                             {
 887:.\Generated_Source\PSoC5/CapSense_1_CSHL.c ****                                 biggestCtrdSize = curCntrdSize;
 888:.\Generated_Source\PSoC5/CapSense_1_CSHL.c ****                                 biggestCtrdStartPos = curCtrdStartPos;
 889:.\Generated_Source\PSoC5/CapSense_1_CSHL.c ****                             }
 890:.\Generated_Source\PSoC5/CapSense_1_CSHL.c ****                             
 891:.\Generated_Source\PSoC5/CapSense_1_CSHL.c ****                             curCntrdSize = 0u;
 892:.\Generated_Source\PSoC5/CapSense_1_CSHL.c ****                             curCtrdStartPos = 0xFFu;
 893:.\Generated_Source\PSoC5/CapSense_1_CSHL.c ****                         }
 894:.\Generated_Source\PSoC5/CapSense_1_CSHL.c ****                     }
 895:.\Generated_Source\PSoC5/CapSense_1_CSHL.c ****                     
 896:.\Generated_Source\PSoC5/CapSense_1_CSHL.c ****                     i++; 
 897:.\Generated_Source\PSoC5/CapSense_1_CSHL.c ****                     curPos = diplex[i];
 898:.\Generated_Source\PSoC5/CapSense_1_CSHL.c ****                     if(i == count)
 899:.\Generated_Source\PSoC5/CapSense_1_CSHL.c ****                     {
 900:.\Generated_Source\PSoC5/CapSense_1_CSHL.c ****                         break;
 901:.\Generated_Source\PSoC5/CapSense_1_CSHL.c ****                     }            
 902:.\Generated_Source\PSoC5/CapSense_1_CSHL.c ****                 }
 903:.\Generated_Source\PSoC5/CapSense_1_CSHL.c ****                     
 904:.\Generated_Source\PSoC5/CapSense_1_CSHL.c ****                     /* Find the biggest centroid if two are the same size, last one wins
 905:.\Generated_Source\PSoC5/CapSense_1_CSHL.c ****                        We are in the end of current */
 906:.\Generated_Source\PSoC5/CapSense_1_CSHL.c ****                 if (curCntrdSize >= biggestCtrdSize) 
 907:.\Generated_Source\PSoC5/CapSense_1_CSHL.c ****                 {
 908:.\Generated_Source\PSoC5/CapSense_1_CSHL.c ****                     biggestCtrdSize = curCntrdSize;
 909:.\Generated_Source\PSoC5/CapSense_1_CSHL.c ****                     biggestCtrdStartPos = curCtrdStartPos;
 910:.\Generated_Source\PSoC5/CapSense_1_CSHL.c ****                 }
 911:.\Generated_Source\PSoC5/CapSense_1_CSHL.c ****             }
 912:.\Generated_Source\PSoC5/CapSense_1_CSHL.c ****             else
 913:.\Generated_Source\PSoC5/CapSense_1_CSHL.c ****             {
 914:.\Generated_Source\PSoC5/CapSense_1_CSHL.c ****                 /* Without diplexing */ 
 915:.\Generated_Source\PSoC5/CapSense_1_CSHL.c ****                 biggestCtrdSize = count;
 916:.\Generated_Source\PSoC5/CapSense_1_CSHL.c ****             }
 917:.\Generated_Source\PSoC5/CapSense_1_CSHL.c ****                         
ARM GAS  C:\Users\JohnP\AppData\Local\Temp\ccMCOjex.s 			page 26


 918:.\Generated_Source\PSoC5/CapSense_1_CSHL.c **** 
 919:.\Generated_Source\PSoC5/CapSense_1_CSHL.c ****             /* Check centroid size */
 920:.\Generated_Source\PSoC5/CapSense_1_CSHL.c ****             #if (CapSense_1_IS_NON_DIPLEX_SLIDER)
 921:.\Generated_Source\PSoC5/CapSense_1_CSHL.c ****                 if((biggestCtrdSize >= 2u) || ((biggestCtrdSize == 1u) && (diplex == 0u)))
 922:.\Generated_Source\PSoC5/CapSense_1_CSHL.c ****             #else                    
 923:.\Generated_Source\PSoC5/CapSense_1_CSHL.c ****                 if(biggestCtrdSize >= 2u)
 924:.\Generated_Source\PSoC5/CapSense_1_CSHL.c ****             #endif /* (CapSense_1_IS_NON_DIPLEX_SLIDER) */
 925:.\Generated_Source\PSoC5/CapSense_1_CSHL.c ****                 {
 926:.\Generated_Source\PSoC5/CapSense_1_CSHL.c ****                     for (i = biggestCtrdStartPos; i < (biggestCtrdStartPos + biggestCtrdSize); i++)
 927:.\Generated_Source\PSoC5/CapSense_1_CSHL.c ****                     {
 928:.\Generated_Source\PSoC5/CapSense_1_CSHL.c ****                         #if (CapSense_1_IS_DIPLEX_SLIDER && CapSense_1_IS_NON_DIPLEX_SLIDER)
 929:.\Generated_Source\PSoC5/CapSense_1_CSHL.c ****                             if (diplex == 0u)
 930:.\Generated_Source\PSoC5/CapSense_1_CSHL.c ****                             {
 931:.\Generated_Source\PSoC5/CapSense_1_CSHL.c ****                                 curPos = i;
 932:.\Generated_Source\PSoC5/CapSense_1_CSHL.c ****                             }
 933:.\Generated_Source\PSoC5/CapSense_1_CSHL.c ****                             else
 934:.\Generated_Source\PSoC5/CapSense_1_CSHL.c ****                             {
 935:.\Generated_Source\PSoC5/CapSense_1_CSHL.c ****                                 curPos = diplex[i];
 936:.\Generated_Source\PSoC5/CapSense_1_CSHL.c ****                             }                    
 937:.\Generated_Source\PSoC5/CapSense_1_CSHL.c ****                         #elif (CapSense_1_IS_DIPLEX_SLIDER)                    
 938:.\Generated_Source\PSoC5/CapSense_1_CSHL.c ****                             curPos = diplex[i];                    
 939:.\Generated_Source\PSoC5/CapSense_1_CSHL.c ****                         #endif /* (CapSense_1_IS_DIPLEX_SLIDER && CapSense_1_IS_NON_DIPLEX_SLIDER) 
 940:.\Generated_Source\PSoC5/CapSense_1_CSHL.c ****                         /* Looking for the grater element within centroid */
 941:.\Generated_Source\PSoC5/CapSense_1_CSHL.c ****                         if(startOfSlider[curPos] > fingerThreshold)
 942:.\Generated_Source\PSoC5/CapSense_1_CSHL.c ****                         {
 943:.\Generated_Source\PSoC5/CapSense_1_CSHL.c ****                             if(startOfSlider[curPos] > temp)
 944:.\Generated_Source\PSoC5/CapSense_1_CSHL.c ****                             {
 945:.\Generated_Source\PSoC5/CapSense_1_CSHL.c ****                                 maximum = i;
 946:.\Generated_Source\PSoC5/CapSense_1_CSHL.c ****                                 temp = startOfSlider[curPos];
 947:.\Generated_Source\PSoC5/CapSense_1_CSHL.c ****                             }
 948:.\Generated_Source\PSoC5/CapSense_1_CSHL.c ****                         }
 949:.\Generated_Source\PSoC5/CapSense_1_CSHL.c ****                     }
 950:.\Generated_Source\PSoC5/CapSense_1_CSHL.c ****                 } 
 951:.\Generated_Source\PSoC5/CapSense_1_CSHL.c ****         #else
 952:.\Generated_Source\PSoC5/CapSense_1_CSHL.c ****             for (i = 0u; i < count; i++)
 953:.\Generated_Source\PSoC5/CapSense_1_CSHL.c ****             {                      
 954:.\Generated_Source\PSoC5/CapSense_1_CSHL.c ****                 /* Looking for the grater element within centroid */
 955:.\Generated_Source\PSoC5/CapSense_1_CSHL.c ****                 if(startOfSlider[i] > fingerThreshold)
 956:.\Generated_Source\PSoC5/CapSense_1_CSHL.c ****                 {
 957:.\Generated_Source\PSoC5/CapSense_1_CSHL.c ****                     if(startOfSlider[i] > temp)
 958:.\Generated_Source\PSoC5/CapSense_1_CSHL.c ****                     {
 959:.\Generated_Source\PSoC5/CapSense_1_CSHL.c ****                         maximum = i;
 960:.\Generated_Source\PSoC5/CapSense_1_CSHL.c ****                         temp = startOfSlider[i];
 961:.\Generated_Source\PSoC5/CapSense_1_CSHL.c ****                     }
 962:.\Generated_Source\PSoC5/CapSense_1_CSHL.c ****                 }
 963:.\Generated_Source\PSoC5/CapSense_1_CSHL.c ****             }    
 964:.\Generated_Source\PSoC5/CapSense_1_CSHL.c ****         #endif /* (CapSense_1_IS_DIPLEX_SLIDER) */
 965:.\Generated_Source\PSoC5/CapSense_1_CSHL.c ****         return (maximum);
 966:.\Generated_Source\PSoC5/CapSense_1_CSHL.c ****     }
 967:.\Generated_Source\PSoC5/CapSense_1_CSHL.c ****     
 968:.\Generated_Source\PSoC5/CapSense_1_CSHL.c ****     
 969:.\Generated_Source\PSoC5/CapSense_1_CSHL.c ****     /*******************************************************************************
 970:.\Generated_Source\PSoC5/CapSense_1_CSHL.c ****     * Function Name: CapSense_1_CalcCentroid
 971:.\Generated_Source\PSoC5/CapSense_1_CSHL.c ****     ********************************************************************************
 972:.\Generated_Source\PSoC5/CapSense_1_CSHL.c ****     *
 973:.\Generated_Source\PSoC5/CapSense_1_CSHL.c ****     * Summary:
 974:.\Generated_Source\PSoC5/CapSense_1_CSHL.c ****     *  Returns position value calculated accoring index of maximum element and API
ARM GAS  C:\Users\JohnP\AppData\Local\Temp\ccMCOjex.s 			page 27


 975:.\Generated_Source\PSoC5/CapSense_1_CSHL.c ****     *  resolution.
 976:.\Generated_Source\PSoC5/CapSense_1_CSHL.c ****     *
 977:.\Generated_Source\PSoC5/CapSense_1_CSHL.c ****     * Parameters:
 978:.\Generated_Source\PSoC5/CapSense_1_CSHL.c ****     *  type:  widget type.
 979:.\Generated_Source\PSoC5/CapSense_1_CSHL.c ****     *  diplex:  pointer to diplex table.
 980:.\Generated_Source\PSoC5/CapSense_1_CSHL.c ****     *  maximum:  Index of maximum element within centroid.
 981:.\Generated_Source\PSoC5/CapSense_1_CSHL.c ****     *  offset:   Start index of cetroid in CapSense_1_SensorSignal[] array.
 982:.\Generated_Source\PSoC5/CapSense_1_CSHL.c ****     *  count:    Number of elements within centroid.
 983:.\Generated_Source\PSoC5/CapSense_1_CSHL.c ****     *  resolution:  multiplicator calculated according to centroid type and
 984:.\Generated_Source\PSoC5/CapSense_1_CSHL.c ****     *  API resolution.
 985:.\Generated_Source\PSoC5/CapSense_1_CSHL.c ****     *  noiseThreshold:  Noise threshould.
 986:.\Generated_Source\PSoC5/CapSense_1_CSHL.c ****     * 
 987:.\Generated_Source\PSoC5/CapSense_1_CSHL.c ****     * Return:
 988:.\Generated_Source\PSoC5/CapSense_1_CSHL.c ****     *  Returns position value of the slider.
 989:.\Generated_Source\PSoC5/CapSense_1_CSHL.c ****     * 
 990:.\Generated_Source\PSoC5/CapSense_1_CSHL.c ****     *
 991:.\Generated_Source\PSoC5/CapSense_1_CSHL.c ****     * Reentrant:
 992:.\Generated_Source\PSoC5/CapSense_1_CSHL.c ****     *  No.
 993:.\Generated_Source\PSoC5/CapSense_1_CSHL.c ****     *
 994:.\Generated_Source\PSoC5/CapSense_1_CSHL.c ****     *******************************************************************************/
 995:.\Generated_Source\PSoC5/CapSense_1_CSHL.c ****     uint8 CapSense_1_CalcCentroid(uint8 maximum, uint8 offset, 
 996:.\Generated_Source\PSoC5/CapSense_1_CSHL.c ****                                         uint8 count, uint16 resolution, uint8 noiseThreshold)
 997:.\Generated_Source\PSoC5/CapSense_1_CSHL.c **** 	                                    
 998:.\Generated_Source\PSoC5/CapSense_1_CSHL.c ****     {
 999:.\Generated_Source\PSoC5/CapSense_1_CSHL.c ****         #if ((CapSense_1_TOTAL_LINEAR_SLIDERS_COUNT > 0u) || (CapSense_1_TOTAL_TOUCH_PADS_COUNT > 0
1000:.\Generated_Source\PSoC5/CapSense_1_CSHL.c ****             uint8 posPrev = 0u;
1001:.\Generated_Source\PSoC5/CapSense_1_CSHL.c ****             uint8 posNext = 0u;
1002:.\Generated_Source\PSoC5/CapSense_1_CSHL.c ****         #endif /* ((CapSense_1_TOTAL_LINEAR_SLIDERS_COUNT>0u) || (CapSense_1_TOTAL_TOUCH_PADS_COUNT
1003:.\Generated_Source\PSoC5/CapSense_1_CSHL.c ****                
1004:.\Generated_Source\PSoC5/CapSense_1_CSHL.c ****         #if (CapSense_1_IS_DIPLEX_SLIDER)                
1005:.\Generated_Source\PSoC5/CapSense_1_CSHL.c ****             uint8 pos;
1006:.\Generated_Source\PSoC5/CapSense_1_CSHL.c ****         #endif /* (CapSense_1_IS_DIPLEX_SLIDER) */
1007:.\Generated_Source\PSoC5/CapSense_1_CSHL.c ****         
1008:.\Generated_Source\PSoC5/CapSense_1_CSHL.c ****         /* Helps while centroid calulation */
1009:.\Generated_Source\PSoC5/CapSense_1_CSHL.c ****         static uint8 CapSense_1_centroid[3u];
1010:.\Generated_Source\PSoC5/CapSense_1_CSHL.c **** 
1011:.\Generated_Source\PSoC5/CapSense_1_CSHL.c ****         uint8 position;
1012:.\Generated_Source\PSoC5/CapSense_1_CSHL.c ****         uint32 numerator;
1013:.\Generated_Source\PSoC5/CapSense_1_CSHL.c ****         int32 denominator;
1014:.\Generated_Source\PSoC5/CapSense_1_CSHL.c ****         uint8 *startOfSlider = &CapSense_1_sensorSignal[offset];
1015:.\Generated_Source\PSoC5/CapSense_1_CSHL.c ****                     
1016:.\Generated_Source\PSoC5/CapSense_1_CSHL.c ****         #if (CapSense_1_ADD_SLIDER_TYPE)
1017:.\Generated_Source\PSoC5/CapSense_1_CSHL.c ****             if(type == CapSense_1_TYPE_RADIAL_SLIDER)
1018:.\Generated_Source\PSoC5/CapSense_1_CSHL.c ****             {
1019:.\Generated_Source\PSoC5/CapSense_1_CSHL.c ****         #endif /* (CapSense_1_ADD_SLIDER_TYPE) */
1020:.\Generated_Source\PSoC5/CapSense_1_CSHL.c **** 
1021:.\Generated_Source\PSoC5/CapSense_1_CSHL.c ****             #if (CapSense_1_TOTAL_RADIAL_SLIDERS_COUNT > 0u)                
1022:.\Generated_Source\PSoC5/CapSense_1_CSHL.c ****                 /* Copy Signal for found centriod */
1023:.\Generated_Source\PSoC5/CapSense_1_CSHL.c ****                 CapSense_1_centroid[CapSense_1_POS] = startOfSlider[maximum];
1024:.\Generated_Source\PSoC5/CapSense_1_CSHL.c ****                  
1025:.\Generated_Source\PSoC5/CapSense_1_CSHL.c ****                 /* Check borders for ROTARY Slider */
1026:.\Generated_Source\PSoC5/CapSense_1_CSHL.c ****                 if (maximum == 0u)                   /* Start of centroid */
1027:.\Generated_Source\PSoC5/CapSense_1_CSHL.c ****                 { 
1028:.\Generated_Source\PSoC5/CapSense_1_CSHL.c ****                     CapSense_1_centroid[CapSense_1_POS_PREV] = startOfSlider[count - 1u];
1029:.\Generated_Source\PSoC5/CapSense_1_CSHL.c ****                     CapSense_1_centroid[CapSense_1_POS_NEXT] = startOfSlider[1u];
1030:.\Generated_Source\PSoC5/CapSense_1_CSHL.c ****                 }
1031:.\Generated_Source\PSoC5/CapSense_1_CSHL.c ****                 else if (maximum == (count - 1u))    /* End of centroid */
ARM GAS  C:\Users\JohnP\AppData\Local\Temp\ccMCOjex.s 			page 28


1032:.\Generated_Source\PSoC5/CapSense_1_CSHL.c ****                 {
1033:.\Generated_Source\PSoC5/CapSense_1_CSHL.c ****                     CapSense_1_centroid[CapSense_1_POS_PREV] = startOfSlider[maximum - 1u];
1034:.\Generated_Source\PSoC5/CapSense_1_CSHL.c ****                     CapSense_1_centroid[CapSense_1_POS_NEXT] = startOfSlider[0u];
1035:.\Generated_Source\PSoC5/CapSense_1_CSHL.c ****                 }
1036:.\Generated_Source\PSoC5/CapSense_1_CSHL.c ****                 else                                /* Not first Not last */
1037:.\Generated_Source\PSoC5/CapSense_1_CSHL.c ****                 {
1038:.\Generated_Source\PSoC5/CapSense_1_CSHL.c ****                     CapSense_1_centroid[CapSense_1_POS_PREV] = startOfSlider[maximum - 1u];
1039:.\Generated_Source\PSoC5/CapSense_1_CSHL.c ****                     CapSense_1_centroid[CapSense_1_POS_NEXT] = startOfSlider[maximum + 1u];
1040:.\Generated_Source\PSoC5/CapSense_1_CSHL.c ****                 }
1041:.\Generated_Source\PSoC5/CapSense_1_CSHL.c ****             #endif /* (CapSense_1_TOTAL_RADIAL_SLIDERS_COUNT > 0u) */
1042:.\Generated_Source\PSoC5/CapSense_1_CSHL.c **** 
1043:.\Generated_Source\PSoC5/CapSense_1_CSHL.c ****         #if (CapSense_1_ADD_SLIDER_TYPE)
1044:.\Generated_Source\PSoC5/CapSense_1_CSHL.c ****             }
1045:.\Generated_Source\PSoC5/CapSense_1_CSHL.c ****             else
1046:.\Generated_Source\PSoC5/CapSense_1_CSHL.c ****             {
1047:.\Generated_Source\PSoC5/CapSense_1_CSHL.c ****         #endif /* (CapSense_1_ADD_SLIDER_TYPE) */
1048:.\Generated_Source\PSoC5/CapSense_1_CSHL.c **** 
1049:.\Generated_Source\PSoC5/CapSense_1_CSHL.c ****             #if ((CapSense_1_TOTAL_LINEAR_SLIDERS_COUNT > 0u) || (CapSense_1_TOTAL_TOUCH_PADS_COUNT
1050:.\Generated_Source\PSoC5/CapSense_1_CSHL.c ****                 #if (CapSense_1_IS_DIPLEX_SLIDER && CapSense_1_IS_NON_DIPLEX_SLIDER)               
1051:.\Generated_Source\PSoC5/CapSense_1_CSHL.c ****                     /* Calculate next and previous near to maximum */
1052:.\Generated_Source\PSoC5/CapSense_1_CSHL.c ****                     if(diplex == 0u)
1053:.\Generated_Source\PSoC5/CapSense_1_CSHL.c ****                     {
1054:.\Generated_Source\PSoC5/CapSense_1_CSHL.c ****                         pos     = maximum;
1055:.\Generated_Source\PSoC5/CapSense_1_CSHL.c ****                         posPrev = maximum - 1u;
1056:.\Generated_Source\PSoC5/CapSense_1_CSHL.c ****                         posNext = maximum + 1u; 
1057:.\Generated_Source\PSoC5/CapSense_1_CSHL.c ****                     }
1058:.\Generated_Source\PSoC5/CapSense_1_CSHL.c ****                     else
1059:.\Generated_Source\PSoC5/CapSense_1_CSHL.c ****                     {
1060:.\Generated_Source\PSoC5/CapSense_1_CSHL.c ****                         pos     = diplex[maximum];
1061:.\Generated_Source\PSoC5/CapSense_1_CSHL.c ****                         posPrev = diplex[maximum - 1u];
1062:.\Generated_Source\PSoC5/CapSense_1_CSHL.c ****                         posNext = diplex[maximum + 1u];
1063:.\Generated_Source\PSoC5/CapSense_1_CSHL.c ****                         count <<= 1u;
1064:.\Generated_Source\PSoC5/CapSense_1_CSHL.c ****                     }                    
1065:.\Generated_Source\PSoC5/CapSense_1_CSHL.c ****                 #elif (CapSense_1_IS_DIPLEX_SLIDER)
1066:.\Generated_Source\PSoC5/CapSense_1_CSHL.c ****                     /* Calculate next and previous near to maximum */
1067:.\Generated_Source\PSoC5/CapSense_1_CSHL.c ****                     pos     = diplex[maximum];
1068:.\Generated_Source\PSoC5/CapSense_1_CSHL.c ****                     posPrev = diplex[maximum - 1u];
1069:.\Generated_Source\PSoC5/CapSense_1_CSHL.c ****                     posNext = diplex[maximum + 1u];
1070:.\Generated_Source\PSoC5/CapSense_1_CSHL.c ****                     count <<= 1u;                    
1071:.\Generated_Source\PSoC5/CapSense_1_CSHL.c ****                 #else                    
1072:.\Generated_Source\PSoC5/CapSense_1_CSHL.c ****                     /* Calculate next and previous near to maximum */
1073:.\Generated_Source\PSoC5/CapSense_1_CSHL.c ****                     if (maximum >= 1u)
1074:.\Generated_Source\PSoC5/CapSense_1_CSHL.c ****                     {
1075:.\Generated_Source\PSoC5/CapSense_1_CSHL.c ****                         posPrev = maximum - 1u;
1076:.\Generated_Source\PSoC5/CapSense_1_CSHL.c ****                     }
1077:.\Generated_Source\PSoC5/CapSense_1_CSHL.c ****                     posNext = maximum + 1u; 
1078:.\Generated_Source\PSoC5/CapSense_1_CSHL.c ****                 #endif /* (CapSense_1_IS_DIPLEX_SLIDER && CapSense_1_IS_NON_DIPLEX_SLIDER) */
1079:.\Generated_Source\PSoC5/CapSense_1_CSHL.c ****                         
1080:.\Generated_Source\PSoC5/CapSense_1_CSHL.c ****                 /* Copy Signal for found centriod */
1081:.\Generated_Source\PSoC5/CapSense_1_CSHL.c ****                 #if (CapSense_1_IS_DIPLEX_SLIDER)
1082:.\Generated_Source\PSoC5/CapSense_1_CSHL.c ****                     CapSense_1_centroid[CapSense_1_POS] = startOfSlider[pos];
1083:.\Generated_Source\PSoC5/CapSense_1_CSHL.c ****                 #else
1084:.\Generated_Source\PSoC5/CapSense_1_CSHL.c ****                     CapSense_1_centroid[CapSense_1_POS] = startOfSlider[maximum];
1085:.\Generated_Source\PSoC5/CapSense_1_CSHL.c ****                 #endif /* (CapSense_1_IS_DIPLEX_SLIDER) */
1086:.\Generated_Source\PSoC5/CapSense_1_CSHL.c ****                     
1087:.\Generated_Source\PSoC5/CapSense_1_CSHL.c ****                 /* Check borders for LINEAR Slider */
1088:.\Generated_Source\PSoC5/CapSense_1_CSHL.c ****                 if (maximum == 0u)                   /* Start of centroid */
ARM GAS  C:\Users\JohnP\AppData\Local\Temp\ccMCOjex.s 			page 29


1089:.\Generated_Source\PSoC5/CapSense_1_CSHL.c ****                 { 
1090:.\Generated_Source\PSoC5/CapSense_1_CSHL.c ****                     CapSense_1_centroid[CapSense_1_POS_PREV] = 0u;
1091:.\Generated_Source\PSoC5/CapSense_1_CSHL.c ****                     CapSense_1_centroid[CapSense_1_POS_NEXT] = startOfSlider[posNext];
1092:.\Generated_Source\PSoC5/CapSense_1_CSHL.c ****                 }
1093:.\Generated_Source\PSoC5/CapSense_1_CSHL.c ****                 else if (maximum == ((count) - 1u)) /* End of centroid */
1094:.\Generated_Source\PSoC5/CapSense_1_CSHL.c ****                 {
1095:.\Generated_Source\PSoC5/CapSense_1_CSHL.c ****                     CapSense_1_centroid[CapSense_1_POS_PREV] = startOfSlider[posPrev];
1096:.\Generated_Source\PSoC5/CapSense_1_CSHL.c ****                     CapSense_1_centroid[CapSense_1_POS_NEXT] = 0u;
1097:.\Generated_Source\PSoC5/CapSense_1_CSHL.c ****                 }
1098:.\Generated_Source\PSoC5/CapSense_1_CSHL.c ****                 else                                /* Not first Not last */
1099:.\Generated_Source\PSoC5/CapSense_1_CSHL.c ****                 {
1100:.\Generated_Source\PSoC5/CapSense_1_CSHL.c ****                     CapSense_1_centroid[CapSense_1_POS_PREV] = startOfSlider[posPrev];
1101:.\Generated_Source\PSoC5/CapSense_1_CSHL.c ****                     CapSense_1_centroid[CapSense_1_POS_NEXT] = startOfSlider[posNext];
1102:.\Generated_Source\PSoC5/CapSense_1_CSHL.c ****                 }
1103:.\Generated_Source\PSoC5/CapSense_1_CSHL.c ****             #endif /* ((CapSense_1_TOTAL_LINEAR_SLIDERS_COUNT>0u)||(CapSense_1_TOTAL_TOUCH_PADS_COU
1104:.\Generated_Source\PSoC5/CapSense_1_CSHL.c **** 
1105:.\Generated_Source\PSoC5/CapSense_1_CSHL.c ****         #if (CapSense_1_ADD_SLIDER_TYPE)
1106:.\Generated_Source\PSoC5/CapSense_1_CSHL.c ****             }
1107:.\Generated_Source\PSoC5/CapSense_1_CSHL.c ****         #endif /* (CapSense_1_ADD_SLIDER_TYPE) */
1108:.\Generated_Source\PSoC5/CapSense_1_CSHL.c ****     
1109:.\Generated_Source\PSoC5/CapSense_1_CSHL.c ****         /* Subtract noiseThreshold */
1110:.\Generated_Source\PSoC5/CapSense_1_CSHL.c ****         if(CapSense_1_centroid[CapSense_1_POS_PREV] > noiseThreshold)
1111:.\Generated_Source\PSoC5/CapSense_1_CSHL.c ****         {
1112:.\Generated_Source\PSoC5/CapSense_1_CSHL.c ****             CapSense_1_centroid[CapSense_1_POS_PREV] -= noiseThreshold;
1113:.\Generated_Source\PSoC5/CapSense_1_CSHL.c ****         }
1114:.\Generated_Source\PSoC5/CapSense_1_CSHL.c ****         else
1115:.\Generated_Source\PSoC5/CapSense_1_CSHL.c ****         {
1116:.\Generated_Source\PSoC5/CapSense_1_CSHL.c ****             CapSense_1_centroid[CapSense_1_POS_PREV] = 0u;
1117:.\Generated_Source\PSoC5/CapSense_1_CSHL.c ****         }
1118:.\Generated_Source\PSoC5/CapSense_1_CSHL.c ****         
1119:.\Generated_Source\PSoC5/CapSense_1_CSHL.c ****         /* Maximum always grater than fingerThreshold, so grate than noiseThreshold */
1120:.\Generated_Source\PSoC5/CapSense_1_CSHL.c ****         CapSense_1_centroid[CapSense_1_POS] -= noiseThreshold;
1121:.\Generated_Source\PSoC5/CapSense_1_CSHL.c ****         
1122:.\Generated_Source\PSoC5/CapSense_1_CSHL.c ****         /* Subtract noiseThreshold */
1123:.\Generated_Source\PSoC5/CapSense_1_CSHL.c ****         if(CapSense_1_centroid[CapSense_1_POS_NEXT] > noiseThreshold)
1124:.\Generated_Source\PSoC5/CapSense_1_CSHL.c ****         {
1125:.\Generated_Source\PSoC5/CapSense_1_CSHL.c ****             CapSense_1_centroid[CapSense_1_POS_NEXT] -= noiseThreshold;
1126:.\Generated_Source\PSoC5/CapSense_1_CSHL.c ****         }
1127:.\Generated_Source\PSoC5/CapSense_1_CSHL.c ****         else
1128:.\Generated_Source\PSoC5/CapSense_1_CSHL.c ****         {
1129:.\Generated_Source\PSoC5/CapSense_1_CSHL.c ****             CapSense_1_centroid[CapSense_1_POS_NEXT] = 0u;
1130:.\Generated_Source\PSoC5/CapSense_1_CSHL.c ****         }
1131:.\Generated_Source\PSoC5/CapSense_1_CSHL.c ****         
1132:.\Generated_Source\PSoC5/CapSense_1_CSHL.c ****         
1133:.\Generated_Source\PSoC5/CapSense_1_CSHL.c ****         /* Si+1 - Si-1 */
1134:.\Generated_Source\PSoC5/CapSense_1_CSHL.c ****         numerator = (uint32) CapSense_1_centroid[CapSense_1_POS_NEXT] -
1135:.\Generated_Source\PSoC5/CapSense_1_CSHL.c ****                     (uint32) CapSense_1_centroid[CapSense_1_POS_PREV];
1136:.\Generated_Source\PSoC5/CapSense_1_CSHL.c **** 
1137:.\Generated_Source\PSoC5/CapSense_1_CSHL.c ****         /* Si+1 + Si + Si-1 */
1138:.\Generated_Source\PSoC5/CapSense_1_CSHL.c ****         denominator = (int32) CapSense_1_centroid[CapSense_1_POS_PREV] + 
1139:.\Generated_Source\PSoC5/CapSense_1_CSHL.c ****                       (int32) CapSense_1_centroid[CapSense_1_POS] + 
1140:.\Generated_Source\PSoC5/CapSense_1_CSHL.c ****                       (int32) CapSense_1_centroid[CapSense_1_POS_NEXT];
1141:.\Generated_Source\PSoC5/CapSense_1_CSHL.c ****         
1142:.\Generated_Source\PSoC5/CapSense_1_CSHL.c ****         /* (numerator/denominator) + maximum */
1143:.\Generated_Source\PSoC5/CapSense_1_CSHL.c ****         denominator = (((int32)(uint32)((uint32)numerator << 8u)/denominator) + (int32)(uint32)((ui
1144:.\Generated_Source\PSoC5/CapSense_1_CSHL.c **** 
1145:.\Generated_Source\PSoC5/CapSense_1_CSHL.c ****         #if(CapSense_1_TOTAL_RADIAL_SLIDERS_COUNT > 0u)
ARM GAS  C:\Users\JohnP\AppData\Local\Temp\ccMCOjex.s 			page 30


1146:.\Generated_Source\PSoC5/CapSense_1_CSHL.c ****             /* Only required for RADIAL Slider */
1147:.\Generated_Source\PSoC5/CapSense_1_CSHL.c ****             if(denominator < 0)
1148:.\Generated_Source\PSoC5/CapSense_1_CSHL.c ****             {
1149:.\Generated_Source\PSoC5/CapSense_1_CSHL.c ****                 denominator += (int32)((uint16)((uint16) count << 8u));
1150:.\Generated_Source\PSoC5/CapSense_1_CSHL.c ****             }
1151:.\Generated_Source\PSoC5/CapSense_1_CSHL.c ****         #endif /* (CapSense_1_TOTAL_RADIAL_SLIDERS_COUNT > 0u) */
1152:.\Generated_Source\PSoC5/CapSense_1_CSHL.c **** 
1153:.\Generated_Source\PSoC5/CapSense_1_CSHL.c ****         denominator *= (int16)resolution;
1154:.\Generated_Source\PSoC5/CapSense_1_CSHL.c **** 
1155:.\Generated_Source\PSoC5/CapSense_1_CSHL.c ****         /* Round the relust and put it to uint8 */
1156:.\Generated_Source\PSoC5/CapSense_1_CSHL.c ****         position = ((uint8) HI16((uint32)denominator + CapSense_1_CENTROID_ROUND_VALUE));
1157:.\Generated_Source\PSoC5/CapSense_1_CSHL.c **** 
1158:.\Generated_Source\PSoC5/CapSense_1_CSHL.c ****         return (position);
1159:.\Generated_Source\PSoC5/CapSense_1_CSHL.c ****     }    
1160:.\Generated_Source\PSoC5/CapSense_1_CSHL.c **** #endif /* (CapSense_1_TOTAL_CENTROIDS_COUNT) */
1161:.\Generated_Source\PSoC5/CapSense_1_CSHL.c **** 
1162:.\Generated_Source\PSoC5/CapSense_1_CSHL.c **** 
1163:.\Generated_Source\PSoC5/CapSense_1_CSHL.c **** #if(CapSense_1_TOTAL_LINEAR_SLIDERS_COUNT > 0u)
1164:.\Generated_Source\PSoC5/CapSense_1_CSHL.c ****     /*******************************************************************************
1165:.\Generated_Source\PSoC5/CapSense_1_CSHL.c ****     * Function Name: CapSense_1_GetCentroidPos
1166:.\Generated_Source\PSoC5/CapSense_1_CSHL.c ****     ********************************************************************************
1167:.\Generated_Source\PSoC5/CapSense_1_CSHL.c ****     *
1168:.\Generated_Source\PSoC5/CapSense_1_CSHL.c ****     * Summary:
1169:.\Generated_Source\PSoC5/CapSense_1_CSHL.c ****     *  Checks the CapSense_1_Signal[ ] array for a centroid within
1170:.\Generated_Source\PSoC5/CapSense_1_CSHL.c ****     *  slider specified range. The centroid position is calculated to the resolution
1171:.\Generated_Source\PSoC5/CapSense_1_CSHL.c ****     *  specified in the CapSense customizer. The position filters are applied to the
1172:.\Generated_Source\PSoC5/CapSense_1_CSHL.c ****     *  result if enabled.
1173:.\Generated_Source\PSoC5/CapSense_1_CSHL.c ****     *
1174:.\Generated_Source\PSoC5/CapSense_1_CSHL.c ****     * Parameters:
1175:.\Generated_Source\PSoC5/CapSense_1_CSHL.c ****     *  widget:  Widget number.
1176:.\Generated_Source\PSoC5/CapSense_1_CSHL.c ****     *  For every linear slider widget there are defines in this format:
1177:.\Generated_Source\PSoC5/CapSense_1_CSHL.c ****     *  #define CapSense_1_LS__"widget_name"            5
1178:.\Generated_Source\PSoC5/CapSense_1_CSHL.c ****     * 
1179:.\Generated_Source\PSoC5/CapSense_1_CSHL.c ****     * Return:
1180:.\Generated_Source\PSoC5/CapSense_1_CSHL.c ****     *  Returns position value of the linear slider.
1181:.\Generated_Source\PSoC5/CapSense_1_CSHL.c ****     *
1182:.\Generated_Source\PSoC5/CapSense_1_CSHL.c ****     * Side Effects:
1183:.\Generated_Source\PSoC5/CapSense_1_CSHL.c ****     *  If any sensor within the slider widget is active, the function returns values
1184:.\Generated_Source\PSoC5/CapSense_1_CSHL.c ****     *  from zero to the API resolution value set in the CapSense customizer. If no
1185:.\Generated_Source\PSoC5/CapSense_1_CSHL.c ****     *  sensors are active, the function returns 0xFFFF. If an error occurs during
1186:.\Generated_Source\PSoC5/CapSense_1_CSHL.c ****     *  execution of the centroid/diplexing algorithm, the function returns 0xFFFF.
1187:.\Generated_Source\PSoC5/CapSense_1_CSHL.c ****     *  There are no checks of widget type argument provided to this function.
1188:.\Generated_Source\PSoC5/CapSense_1_CSHL.c ****     *  The unproper widget type provided will cause unexpected position calculations.
1189:.\Generated_Source\PSoC5/CapSense_1_CSHL.c ****     *
1190:.\Generated_Source\PSoC5/CapSense_1_CSHL.c ****     * Note:
1191:.\Generated_Source\PSoC5/CapSense_1_CSHL.c ****     *  If noise counts on the slider segments are greater than the noise
1192:.\Generated_Source\PSoC5/CapSense_1_CSHL.c ****     *  threshold, this subroutine may generate a false centroid result. The noise
1193:.\Generated_Source\PSoC5/CapSense_1_CSHL.c ****     *  threshold should be set carefully (high enough above the noise level) so
1194:.\Generated_Source\PSoC5/CapSense_1_CSHL.c ****     *  that noise will not generate a false centroid.
1195:.\Generated_Source\PSoC5/CapSense_1_CSHL.c ****     *
1196:.\Generated_Source\PSoC5/CapSense_1_CSHL.c ****     * Reentrant:
1197:.\Generated_Source\PSoC5/CapSense_1_CSHL.c ****     *  No.
1198:.\Generated_Source\PSoC5/CapSense_1_CSHL.c ****     *
1199:.\Generated_Source\PSoC5/CapSense_1_CSHL.c ****     *******************************************************************************/
1200:.\Generated_Source\PSoC5/CapSense_1_CSHL.c ****     uint16 CapSense_1_GetCentroidPos(uint8 widget) 
1201:.\Generated_Source\PSoC5/CapSense_1_CSHL.c ****     {
1202:.\Generated_Source\PSoC5/CapSense_1_CSHL.c ****         #if (CapSense_1_IS_DIPLEX_SLIDER)
ARM GAS  C:\Users\JohnP\AppData\Local\Temp\ccMCOjex.s 			page 31


1203:.\Generated_Source\PSoC5/CapSense_1_CSHL.c ****             const uint8 CYCODE *diplex;
1204:.\Generated_Source\PSoC5/CapSense_1_CSHL.c ****         #endif /* (CapSense_1_IS_DIPLEX_SLIDER) */
1205:.\Generated_Source\PSoC5/CapSense_1_CSHL.c ****                 
1206:.\Generated_Source\PSoC5/CapSense_1_CSHL.c ****         #if (0u != CapSense_1_LINEAR_SLIDERS_POS_FILTERS_MASK)
1207:.\Generated_Source\PSoC5/CapSense_1_CSHL.c ****             uint8 posIndex;
1208:.\Generated_Source\PSoC5/CapSense_1_CSHL.c ****             uint8 firstTimeIndex = CapSense_1_posFiltersData[widget];
1209:.\Generated_Source\PSoC5/CapSense_1_CSHL.c ****             uint8 posFiltersMask = CapSense_1_posFiltersMask[widget];  
1210:.\Generated_Source\PSoC5/CapSense_1_CSHL.c ****         #endif /* (0u != CapSense_1_LINEAR_SLIDERS_POS_FILTERS_MASK) */
1211:.\Generated_Source\PSoC5/CapSense_1_CSHL.c **** 
1212:.\Generated_Source\PSoC5/CapSense_1_CSHL.c ****         #if ((0u != (CapSense_1_MEDIAN_FILTER & CapSense_1_LINEAR_SLIDERS_POS_FILTERS_MASK)) || \
1213:.\Generated_Source\PSoC5/CapSense_1_CSHL.c ****              (0u != (CapSense_1_AVERAGING_FILTER & CapSense_1_LINEAR_SLIDERS_POS_FILTERS_MASK)))
1214:.\Generated_Source\PSoC5/CapSense_1_CSHL.c ****             uint8 tempPos;
1215:.\Generated_Source\PSoC5/CapSense_1_CSHL.c ****         #endif /* ((0u != (CapSense_1_MEDIAN_FILTER & CapSense_1_LINEAR_SLIDERS_POS_FILTERS_MASK)) 
1216:.\Generated_Source\PSoC5/CapSense_1_CSHL.c ****                *   (0u != (CapSense_1_AVERAGING_FILTER & CapSense_1_LINEAR_SLIDERS_POS_FILTERS_MASK
1217:.\Generated_Source\PSoC5/CapSense_1_CSHL.c ****                */
1218:.\Generated_Source\PSoC5/CapSense_1_CSHL.c **** 
1219:.\Generated_Source\PSoC5/CapSense_1_CSHL.c ****         uint8 maximum;
1220:.\Generated_Source\PSoC5/CapSense_1_CSHL.c ****         uint16 position;
1221:.\Generated_Source\PSoC5/CapSense_1_CSHL.c ****         uint8 offset = CapSense_1_rawDataIndex[widget];
1222:.\Generated_Source\PSoC5/CapSense_1_CSHL.c ****         uint8 count = CapSense_1_numberOfSensors[widget];
1223:.\Generated_Source\PSoC5/CapSense_1_CSHL.c ****                         
1224:.\Generated_Source\PSoC5/CapSense_1_CSHL.c ****         #if (CapSense_1_IS_DIPLEX_SLIDER)
1225:.\Generated_Source\PSoC5/CapSense_1_CSHL.c ****             if(widget < CapSense_1_TOTAL_DIPLEXED_SLIDERS_COUNT)
1226:.\Generated_Source\PSoC5/CapSense_1_CSHL.c ****             {
1227:.\Generated_Source\PSoC5/CapSense_1_CSHL.c ****                 maximum = CapSense_1_diplexTable[widget];
1228:.\Generated_Source\PSoC5/CapSense_1_CSHL.c ****                 diplex = &CapSense_1_diplexTable[maximum];
1229:.\Generated_Source\PSoC5/CapSense_1_CSHL.c ****             }
1230:.\Generated_Source\PSoC5/CapSense_1_CSHL.c ****             else
1231:.\Generated_Source\PSoC5/CapSense_1_CSHL.c ****             {
1232:.\Generated_Source\PSoC5/CapSense_1_CSHL.c ****                 diplex = 0u;
1233:.\Generated_Source\PSoC5/CapSense_1_CSHL.c ****             }
1234:.\Generated_Source\PSoC5/CapSense_1_CSHL.c ****         #endif /* (CapSense_1_IS_DIPLEX_SLIDER) */
1235:.\Generated_Source\PSoC5/CapSense_1_CSHL.c **** 
1236:.\Generated_Source\PSoC5/CapSense_1_CSHL.c ****         /* Find Maximum within centroid */      
1237:.\Generated_Source\PSoC5/CapSense_1_CSHL.c ****         #if (CapSense_1_IS_DIPLEX_SLIDER)        
1238:.\Generated_Source\PSoC5/CapSense_1_CSHL.c ****             maximum = CapSense_1_FindMaximum(offset, count, CapSense_1_fingerThreshold[widget], dip
1239:.\Generated_Source\PSoC5/CapSense_1_CSHL.c ****         #else
1240:.\Generated_Source\PSoC5/CapSense_1_CSHL.c ****             maximum = CapSense_1_FindMaximum(offset, count, CapSense_1_fingerThreshold[widget]);
1241:.\Generated_Source\PSoC5/CapSense_1_CSHL.c ****         #endif /* (CapSense_1_IS_DIPLEX_SLIDER) */
1242:.\Generated_Source\PSoC5/CapSense_1_CSHL.c **** 
1243:.\Generated_Source\PSoC5/CapSense_1_CSHL.c ****         if (maximum != 0xFFu)
1244:.\Generated_Source\PSoC5/CapSense_1_CSHL.c ****         {
1245:.\Generated_Source\PSoC5/CapSense_1_CSHL.c ****             /* Calculate centroid */
1246:.\Generated_Source\PSoC5/CapSense_1_CSHL.c ****             position = (uint16) CapSense_1_CalcCentroid(maximum, 
1247:.\Generated_Source\PSoC5/CapSense_1_CSHL.c ****                          offset, count, CapSense_1_centroidMult[widget], CapSense_1_noiseThreshold[
1248:.\Generated_Source\PSoC5/CapSense_1_CSHL.c **** 
1249:.\Generated_Source\PSoC5/CapSense_1_CSHL.c ****             #if (0u != CapSense_1_LINEAR_SLIDERS_POS_FILTERS_MASK)
1250:.\Generated_Source\PSoC5/CapSense_1_CSHL.c ****                 /* Check if this linear slider has enabled filters */
1251:.\Generated_Source\PSoC5/CapSense_1_CSHL.c ****                 if (0u != (posFiltersMask & CapSense_1_ANY_POS_FILTER))
1252:.\Generated_Source\PSoC5/CapSense_1_CSHL.c ****                 {
1253:.\Generated_Source\PSoC5/CapSense_1_CSHL.c ****                     /* Caluclate position to store filters data */
1254:.\Generated_Source\PSoC5/CapSense_1_CSHL.c ****                     posIndex  = firstTimeIndex + 1u;
1255:.\Generated_Source\PSoC5/CapSense_1_CSHL.c ****                     
1256:.\Generated_Source\PSoC5/CapSense_1_CSHL.c ****                     if (0u == CapSense_1_posFiltersData[firstTimeIndex])
1257:.\Generated_Source\PSoC5/CapSense_1_CSHL.c ****                     {
1258:.\Generated_Source\PSoC5/CapSense_1_CSHL.c ****                         /* Init filters */
1259:.\Generated_Source\PSoC5/CapSense_1_CSHL.c ****                         CapSense_1_posFiltersData[posIndex] = (uint8) position;
ARM GAS  C:\Users\JohnP\AppData\Local\Temp\ccMCOjex.s 			page 32


1260:.\Generated_Source\PSoC5/CapSense_1_CSHL.c ****                         #if ((0u != (CapSense_1_MEDIAN_FILTER & \
1261:.\Generated_Source\PSoC5/CapSense_1_CSHL.c ****                                      CapSense_1_LINEAR_SLIDERS_POS_FILTERS_MASK)) || \
1262:.\Generated_Source\PSoC5/CapSense_1_CSHL.c ****                              (0u != (CapSense_1_AVERAGING_FILTER & \
1263:.\Generated_Source\PSoC5/CapSense_1_CSHL.c ****                                      CapSense_1_LINEAR_SLIDERS_POS_FILTERS_MASK)))
1264:.\Generated_Source\PSoC5/CapSense_1_CSHL.c **** 
1265:.\Generated_Source\PSoC5/CapSense_1_CSHL.c ****                             if ( (0u != (posFiltersMask & CapSense_1_MEDIAN_FILTER)) || 
1266:.\Generated_Source\PSoC5/CapSense_1_CSHL.c ****                                  (0u != (posFiltersMask & CapSense_1_AVERAGING_FILTER)) )
1267:.\Generated_Source\PSoC5/CapSense_1_CSHL.c ****                             {
1268:.\Generated_Source\PSoC5/CapSense_1_CSHL.c ****                                 CapSense_1_posFiltersData[posIndex + 1u] = (uint8) position;
1269:.\Generated_Source\PSoC5/CapSense_1_CSHL.c ****                             }
1270:.\Generated_Source\PSoC5/CapSense_1_CSHL.c ****                         #endif /* ((0u != (CapSense_1_MEDIAN_FILTER & \
1271:.\Generated_Source\PSoC5/CapSense_1_CSHL.c ****                                *           CapSense_1_LINEAR_SLIDERS_POS_FILTERS_MASK)) || \
1272:.\Generated_Source\PSoC5/CapSense_1_CSHL.c ****                                *   (0u != (CapSense_1_AVERAGING_FILTER & \
1273:.\Generated_Source\PSoC5/CapSense_1_CSHL.c ****                                *           CapSense_1_LINEAR_SLIDERS_POS_FILTERS_MASK)))
1274:.\Generated_Source\PSoC5/CapSense_1_CSHL.c ****                                */
1275:.\Generated_Source\PSoC5/CapSense_1_CSHL.c ****                         
1276:.\Generated_Source\PSoC5/CapSense_1_CSHL.c ****                         CapSense_1_posFiltersData[firstTimeIndex] = 1u;
1277:.\Generated_Source\PSoC5/CapSense_1_CSHL.c ****                     }
1278:.\Generated_Source\PSoC5/CapSense_1_CSHL.c ****                     else
1279:.\Generated_Source\PSoC5/CapSense_1_CSHL.c ****                     {
1280:.\Generated_Source\PSoC5/CapSense_1_CSHL.c ****                         /* Do filtering */
1281:.\Generated_Source\PSoC5/CapSense_1_CSHL.c ****                         #if (0u != (CapSense_1_MEDIAN_FILTER & CapSense_1_LINEAR_SLIDERS_POS_FILTER
1282:.\Generated_Source\PSoC5/CapSense_1_CSHL.c ****                             if (0u != (posFiltersMask & CapSense_1_MEDIAN_FILTER))
1283:.\Generated_Source\PSoC5/CapSense_1_CSHL.c ****                             {
1284:.\Generated_Source\PSoC5/CapSense_1_CSHL.c ****                                 tempPos = (uint8) position;
1285:.\Generated_Source\PSoC5/CapSense_1_CSHL.c ****                                 position = CapSense_1_MedianFilter(position,
1286:.\Generated_Source\PSoC5/CapSense_1_CSHL.c ****                                                                 (uint16)CapSense_1_posFiltersData[p
1287:.\Generated_Source\PSoC5/CapSense_1_CSHL.c ****                                                                 (uint16)CapSense_1_posFiltersData[p
1288:.\Generated_Source\PSoC5/CapSense_1_CSHL.c ****                                 CapSense_1_posFiltersData[posIndex + 1u] =
1289:.\Generated_Source\PSoC5/CapSense_1_CSHL.c ****                                                                              CapSense_1_posFiltersD
1290:.\Generated_Source\PSoC5/CapSense_1_CSHL.c ****                                 CapSense_1_posFiltersData[posIndex] = tempPos;
1291:.\Generated_Source\PSoC5/CapSense_1_CSHL.c ****                             }
1292:.\Generated_Source\PSoC5/CapSense_1_CSHL.c ****                         #endif /*(0u != (CapSense_1_MEDIAN_FILTER &
1293:.\Generated_Source\PSoC5/CapSense_1_CSHL.c ****                                *         CapSense_1_LINEAR_SLIDERS_POS_FILTERS_MASK))
1294:.\Generated_Source\PSoC5/CapSense_1_CSHL.c ****                                */
1295:.\Generated_Source\PSoC5/CapSense_1_CSHL.c **** 
1296:.\Generated_Source\PSoC5/CapSense_1_CSHL.c ****                         #if(0u!=(CapSense_1_AVERAGING_FILTER & CapSense_1_LINEAR_SLIDERS_POS_FILTER
1297:.\Generated_Source\PSoC5/CapSense_1_CSHL.c ****                             if (0u != (posFiltersMask & CapSense_1_AVERAGING_FILTER)) 
1298:.\Generated_Source\PSoC5/CapSense_1_CSHL.c ****                             {
1299:.\Generated_Source\PSoC5/CapSense_1_CSHL.c ****                                 tempPos = (uint8) position;
1300:.\Generated_Source\PSoC5/CapSense_1_CSHL.c ****                                 position = CapSense_1_AveragingFilter(position,
1301:.\Generated_Source\PSoC5/CapSense_1_CSHL.c ****                                                                 (uint16)CapSense_1_posFiltersData[p
1302:.\Generated_Source\PSoC5/CapSense_1_CSHL.c ****                                                                 (uint16)CapSense_1_posFiltersData[p
1303:.\Generated_Source\PSoC5/CapSense_1_CSHL.c ****                                 CapSense_1_posFiltersData[posIndex+1u]=CapSense_1_posFiltersData[po
1304:.\Generated_Source\PSoC5/CapSense_1_CSHL.c ****                                 CapSense_1_posFiltersData[posIndex] = tempPos;
1305:.\Generated_Source\PSoC5/CapSense_1_CSHL.c ****                             }
1306:.\Generated_Source\PSoC5/CapSense_1_CSHL.c ****                         #endif /* (0u != (CapSense_1_AVERAGING_FILTER & \
1307:.\Generated_Source\PSoC5/CapSense_1_CSHL.c ****                                *           CapSense_1_LINEAR_SLIDERS_POS_FILTERS_MASK))
1308:.\Generated_Source\PSoC5/CapSense_1_CSHL.c ****                                */
1309:.\Generated_Source\PSoC5/CapSense_1_CSHL.c **** 
1310:.\Generated_Source\PSoC5/CapSense_1_CSHL.c ****                         #if (0u != (CapSense_1_IIR2_FILTER & CapSense_1_LINEAR_SLIDERS_POS_FILTERS_
1311:.\Generated_Source\PSoC5/CapSense_1_CSHL.c ****                             if (0u != (posFiltersMask & CapSense_1_IIR2_FILTER)) 
1312:.\Generated_Source\PSoC5/CapSense_1_CSHL.c ****                             {
1313:.\Generated_Source\PSoC5/CapSense_1_CSHL.c ****                                 position = CapSense_1_IIR2Filter(position,
1314:.\Generated_Source\PSoC5/CapSense_1_CSHL.c ****                                                                     (uint16)CapSense_1_posFiltersDa
1315:.\Generated_Source\PSoC5/CapSense_1_CSHL.c ****                                 CapSense_1_posFiltersData[posIndex] = (uint8) position;
1316:.\Generated_Source\PSoC5/CapSense_1_CSHL.c ****                             }
ARM GAS  C:\Users\JohnP\AppData\Local\Temp\ccMCOjex.s 			page 33


1317:.\Generated_Source\PSoC5/CapSense_1_CSHL.c ****                         #endif /* (0u != (CapSense_1_IIR2_FILTER & \
1318:.\Generated_Source\PSoC5/CapSense_1_CSHL.c ****                                *          CapSense_1_LINEAR_SLIDERS_POS_FILTERS_MASK))
1319:.\Generated_Source\PSoC5/CapSense_1_CSHL.c ****                                */
1320:.\Generated_Source\PSoC5/CapSense_1_CSHL.c **** 
1321:.\Generated_Source\PSoC5/CapSense_1_CSHL.c ****                         #if (0u != (CapSense_1_IIR4_FILTER & CapSense_1_LINEAR_SLIDERS_POS_FILTERS_
1322:.\Generated_Source\PSoC5/CapSense_1_CSHL.c ****                             if (0u != (posFiltersMask & CapSense_1_IIR4_FILTER))
1323:.\Generated_Source\PSoC5/CapSense_1_CSHL.c ****                             {
1324:.\Generated_Source\PSoC5/CapSense_1_CSHL.c ****                                 position = CapSense_1_IIR4Filter(position,
1325:.\Generated_Source\PSoC5/CapSense_1_CSHL.c ****                                                                     (uint16)CapSense_1_posFiltersDa
1326:.\Generated_Source\PSoC5/CapSense_1_CSHL.c ****                                 CapSense_1_posFiltersData[posIndex] = (uint8) position;
1327:.\Generated_Source\PSoC5/CapSense_1_CSHL.c ****                             }                                
1328:.\Generated_Source\PSoC5/CapSense_1_CSHL.c ****                         #endif /* (0u != (CapSense_1_IIR4_FILTER & \
1329:.\Generated_Source\PSoC5/CapSense_1_CSHL.c ****                                *          CapSense_1_LINEAR_SLIDERS_POS_FILTERS_MASK))
1330:.\Generated_Source\PSoC5/CapSense_1_CSHL.c ****                                */
1331:.\Generated_Source\PSoC5/CapSense_1_CSHL.c **** 
1332:.\Generated_Source\PSoC5/CapSense_1_CSHL.c ****                         #if (0u != (CapSense_1_JITTER_FILTER & CapSense_1_LINEAR_SLIDERS_POS_FILTER
1333:.\Generated_Source\PSoC5/CapSense_1_CSHL.c ****                             if (0u != (posFiltersMask & CapSense_1_JITTER_FILTER))
1334:.\Generated_Source\PSoC5/CapSense_1_CSHL.c ****                             {
1335:.\Generated_Source\PSoC5/CapSense_1_CSHL.c ****                                 position = CapSense_1_JitterFilter(position,
1336:.\Generated_Source\PSoC5/CapSense_1_CSHL.c ****                                                                     (uint16)CapSense_1_posFiltersDa
1337:.\Generated_Source\PSoC5/CapSense_1_CSHL.c ****                                 CapSense_1_posFiltersData[posIndex] = (uint8) position;
1338:.\Generated_Source\PSoC5/CapSense_1_CSHL.c ****                             }
1339:.\Generated_Source\PSoC5/CapSense_1_CSHL.c ****                         #endif /* (0u != (CapSense_1_JITTER_FILTER & \
1340:.\Generated_Source\PSoC5/CapSense_1_CSHL.c ****                                *           CapSense_1_LINEAR_SLIDERS_POS_FILTERS_MASK))
1341:.\Generated_Source\PSoC5/CapSense_1_CSHL.c ****                                */
1342:.\Generated_Source\PSoC5/CapSense_1_CSHL.c ****                     }
1343:.\Generated_Source\PSoC5/CapSense_1_CSHL.c ****                 }
1344:.\Generated_Source\PSoC5/CapSense_1_CSHL.c ****             #endif /* (0u != CapSense_1_LINEAR_SLIDERS_POS_FILTERS_MASK) */
1345:.\Generated_Source\PSoC5/CapSense_1_CSHL.c **** 
1346:.\Generated_Source\PSoC5/CapSense_1_CSHL.c ****         }
1347:.\Generated_Source\PSoC5/CapSense_1_CSHL.c ****         else
1348:.\Generated_Source\PSoC5/CapSense_1_CSHL.c ****         {
1349:.\Generated_Source\PSoC5/CapSense_1_CSHL.c ****             /* The maximum wasn't found */
1350:.\Generated_Source\PSoC5/CapSense_1_CSHL.c ****             position = 0xFFFFu;
1351:.\Generated_Source\PSoC5/CapSense_1_CSHL.c **** 
1352:.\Generated_Source\PSoC5/CapSense_1_CSHL.c ****             #if(0u != CapSense_1_LINEAR_SLIDERS_POS_FILTERS_MASK)
1353:.\Generated_Source\PSoC5/CapSense_1_CSHL.c ****                 /* Reset the filters */
1354:.\Generated_Source\PSoC5/CapSense_1_CSHL.c ****                 if(0u != (posFiltersMask & CapSense_1_ANY_POS_FILTER))
1355:.\Generated_Source\PSoC5/CapSense_1_CSHL.c ****                 {
1356:.\Generated_Source\PSoC5/CapSense_1_CSHL.c ****                     CapSense_1_posFiltersData[firstTimeIndex] = 0u;
1357:.\Generated_Source\PSoC5/CapSense_1_CSHL.c ****                 }
1358:.\Generated_Source\PSoC5/CapSense_1_CSHL.c ****             #endif /* (0u != CapSense_1_LINEAR_SLIDERS_POS_FILTERS_MASK) */
1359:.\Generated_Source\PSoC5/CapSense_1_CSHL.c ****         }
1360:.\Generated_Source\PSoC5/CapSense_1_CSHL.c **** 
1361:.\Generated_Source\PSoC5/CapSense_1_CSHL.c ****         
1362:.\Generated_Source\PSoC5/CapSense_1_CSHL.c ****         return (position);
1363:.\Generated_Source\PSoC5/CapSense_1_CSHL.c ****     }
1364:.\Generated_Source\PSoC5/CapSense_1_CSHL.c **** #endif /* (CapSense_1_TOTAL_LINEAR_SLIDERS_COUNT > 0u) */
1365:.\Generated_Source\PSoC5/CapSense_1_CSHL.c **** 
1366:.\Generated_Source\PSoC5/CapSense_1_CSHL.c **** 
1367:.\Generated_Source\PSoC5/CapSense_1_CSHL.c **** #if(CapSense_1_TOTAL_RADIAL_SLIDERS_COUNT > 0u)
1368:.\Generated_Source\PSoC5/CapSense_1_CSHL.c ****     /*******************************************************************************
1369:.\Generated_Source\PSoC5/CapSense_1_CSHL.c ****     * Function Name: CapSense_1_GetRadialCentroidPos
1370:.\Generated_Source\PSoC5/CapSense_1_CSHL.c ****     ********************************************************************************
1371:.\Generated_Source\PSoC5/CapSense_1_CSHL.c ****     *
1372:.\Generated_Source\PSoC5/CapSense_1_CSHL.c ****     * Summary:
1373:.\Generated_Source\PSoC5/CapSense_1_CSHL.c ****     *  Checks the CapSense_1_Signal[ ] array for a centroid within
ARM GAS  C:\Users\JohnP\AppData\Local\Temp\ccMCOjex.s 			page 34


1374:.\Generated_Source\PSoC5/CapSense_1_CSHL.c ****     *  slider specified range. The centroid position is calculated to the resolution
1375:.\Generated_Source\PSoC5/CapSense_1_CSHL.c ****     *  specified in the CapSense customizer. The position filters are applied to the
1376:.\Generated_Source\PSoC5/CapSense_1_CSHL.c ****     *  result if enabled.
1377:.\Generated_Source\PSoC5/CapSense_1_CSHL.c ****     *
1378:.\Generated_Source\PSoC5/CapSense_1_CSHL.c ****     * Parameters:
1379:.\Generated_Source\PSoC5/CapSense_1_CSHL.c ****     *  widget:  Widget number.
1380:.\Generated_Source\PSoC5/CapSense_1_CSHL.c ****     *  For every radial slider widget there are defines in this format:
1381:.\Generated_Source\PSoC5/CapSense_1_CSHL.c ****     *  #define CapSense_1_RS_"widget_name"            5
1382:.\Generated_Source\PSoC5/CapSense_1_CSHL.c ****     * 
1383:.\Generated_Source\PSoC5/CapSense_1_CSHL.c ****     * Return:
1384:.\Generated_Source\PSoC5/CapSense_1_CSHL.c ****     *  Returns position value of the radial slider.
1385:.\Generated_Source\PSoC5/CapSense_1_CSHL.c ****     *
1386:.\Generated_Source\PSoC5/CapSense_1_CSHL.c ****     * Side Effects:
1387:.\Generated_Source\PSoC5/CapSense_1_CSHL.c ****     *  If any sensor within the slider widget is active, the function returns values
1388:.\Generated_Source\PSoC5/CapSense_1_CSHL.c ****     *  from zero to the API resolution value set in the CapSense customizer. If no
1389:.\Generated_Source\PSoC5/CapSense_1_CSHL.c ****     *  sensors are active, the function returns 0xFFFF.
1390:.\Generated_Source\PSoC5/CapSense_1_CSHL.c ****     *  There are no checks of widget type argument provided to this function.
1391:.\Generated_Source\PSoC5/CapSense_1_CSHL.c ****     *  The unproper widget type provided will cause unexpected position calculations.
1392:.\Generated_Source\PSoC5/CapSense_1_CSHL.c ****     *
1393:.\Generated_Source\PSoC5/CapSense_1_CSHL.c ****     * Note:
1394:.\Generated_Source\PSoC5/CapSense_1_CSHL.c ****     *  If noise counts on the slider segments are greater than the noise
1395:.\Generated_Source\PSoC5/CapSense_1_CSHL.c ****     *  threshold, this subroutine may generate a false centroid result. The noise
1396:.\Generated_Source\PSoC5/CapSense_1_CSHL.c ****     *  threshold should be set carefully (high enough above the noise level) so 
1397:.\Generated_Source\PSoC5/CapSense_1_CSHL.c ****     *  that noise will not generate a false centroid.
1398:.\Generated_Source\PSoC5/CapSense_1_CSHL.c ****     *
1399:.\Generated_Source\PSoC5/CapSense_1_CSHL.c ****     *
1400:.\Generated_Source\PSoC5/CapSense_1_CSHL.c ****     * Reentrant:
1401:.\Generated_Source\PSoC5/CapSense_1_CSHL.c ****     *  No.
1402:.\Generated_Source\PSoC5/CapSense_1_CSHL.c ****     *
1403:.\Generated_Source\PSoC5/CapSense_1_CSHL.c ****     *******************************************************************************/
1404:.\Generated_Source\PSoC5/CapSense_1_CSHL.c ****      uint16 CapSense_1_GetRadialCentroidPos(uint8 widget)
1405:.\Generated_Source\PSoC5/CapSense_1_CSHL.c **** 	                                       
1406:.\Generated_Source\PSoC5/CapSense_1_CSHL.c ****     {
1407:.\Generated_Source\PSoC5/CapSense_1_CSHL.c ****         #if (0u != CapSense_1_RADIAL_SLIDERS_POS_FILTERS_MASK)
1408:.\Generated_Source\PSoC5/CapSense_1_CSHL.c ****             uint8 posIndex;
1409:.\Generated_Source\PSoC5/CapSense_1_CSHL.c ****             uint8 firstTimeIndex = CapSense_1_posFiltersData[widget];
1410:.\Generated_Source\PSoC5/CapSense_1_CSHL.c ****             uint8 posFiltersMask = CapSense_1_posFiltersMask[widget]; 
1411:.\Generated_Source\PSoC5/CapSense_1_CSHL.c ****         #endif /* (0u != CapSense_1_RADIAL_SLIDERS_POS_FILTERS_MASK) */
1412:.\Generated_Source\PSoC5/CapSense_1_CSHL.c **** 
1413:.\Generated_Source\PSoC5/CapSense_1_CSHL.c ****         #if ((0u != (CapSense_1_MEDIAN_FILTER & CapSense_1_RADIAL_SLIDERS_POS_FILTERS_MASK)) || \
1414:.\Generated_Source\PSoC5/CapSense_1_CSHL.c ****              (0u != (CapSense_1_AVERAGING_FILTER & CapSense_1_RADIAL_SLIDERS_POS_FILTERS_MASK)))
1415:.\Generated_Source\PSoC5/CapSense_1_CSHL.c ****             uint8 tempPos;
1416:.\Generated_Source\PSoC5/CapSense_1_CSHL.c ****         #endif /* ((0u != (CapSense_1_MEDIAN_FILTER & CapSense_1_RADIAL_SLIDERS_POS_FILTERS_MASK)) 
1417:.\Generated_Source\PSoC5/CapSense_1_CSHL.c ****                *   (0u != (CapSense_1_AVERAGING_FILTER & CapSense_1_RADIAL_SLIDERS_POS_FILTERS_MASK
1418:.\Generated_Source\PSoC5/CapSense_1_CSHL.c ****                */
1419:.\Generated_Source\PSoC5/CapSense_1_CSHL.c **** 
1420:.\Generated_Source\PSoC5/CapSense_1_CSHL.c ****         uint8 maximum;
1421:.\Generated_Source\PSoC5/CapSense_1_CSHL.c ****         uint16 position;
1422:.\Generated_Source\PSoC5/CapSense_1_CSHL.c ****         uint8 offset = CapSense_1_rawDataIndex[widget];
1423:.\Generated_Source\PSoC5/CapSense_1_CSHL.c ****         uint8 count = CapSense_1_numberOfSensors[widget];
1424:.\Generated_Source\PSoC5/CapSense_1_CSHL.c ****         
1425:.\Generated_Source\PSoC5/CapSense_1_CSHL.c ****         /* Find Maximum within centroid */        
1426:.\Generated_Source\PSoC5/CapSense_1_CSHL.c ****         #if (CapSense_1_IS_DIPLEX_SLIDER)
1427:.\Generated_Source\PSoC5/CapSense_1_CSHL.c ****             maximum = CapSense_1_FindMaximum(offset, count, CapSense_1_fingerThreshold[widget], 0u)
1428:.\Generated_Source\PSoC5/CapSense_1_CSHL.c ****         #else
1429:.\Generated_Source\PSoC5/CapSense_1_CSHL.c ****             maximum = CapSense_1_FindMaximum(offset, count, CapSense_1_fingerThreshold[widget]);
1430:.\Generated_Source\PSoC5/CapSense_1_CSHL.c ****         #endif /* (CapSense_1_IS_DIPLEX_SLIDER) */
ARM GAS  C:\Users\JohnP\AppData\Local\Temp\ccMCOjex.s 			page 35


1431:.\Generated_Source\PSoC5/CapSense_1_CSHL.c ****         
1432:.\Generated_Source\PSoC5/CapSense_1_CSHL.c ****         if (maximum != 0xFFu)
1433:.\Generated_Source\PSoC5/CapSense_1_CSHL.c ****         {
1434:.\Generated_Source\PSoC5/CapSense_1_CSHL.c ****             /* Calculate centroid */
1435:.\Generated_Source\PSoC5/CapSense_1_CSHL.c ****             position = (uint16) CapSense_1_CalcCentroid(maximum, 
1436:.\Generated_Source\PSoC5/CapSense_1_CSHL.c ****                          offset, count, CapSense_1_centroidMult[widget], CapSense_1_noiseThreshold[
1437:.\Generated_Source\PSoC5/CapSense_1_CSHL.c **** 
1438:.\Generated_Source\PSoC5/CapSense_1_CSHL.c ****             #if (0u != CapSense_1_RADIAL_SLIDERS_POS_FILTERS_MASK)
1439:.\Generated_Source\PSoC5/CapSense_1_CSHL.c ****                 /* Check if this Radial slider has enabled filters */
1440:.\Generated_Source\PSoC5/CapSense_1_CSHL.c ****                 if (0u != (posFiltersMask & CapSense_1_ANY_POS_FILTER))
1441:.\Generated_Source\PSoC5/CapSense_1_CSHL.c ****                 {
1442:.\Generated_Source\PSoC5/CapSense_1_CSHL.c ****                     /* Caluclate position to store filters data */
1443:.\Generated_Source\PSoC5/CapSense_1_CSHL.c ****                     posIndex  = firstTimeIndex + 1u;
1444:.\Generated_Source\PSoC5/CapSense_1_CSHL.c ****                     
1445:.\Generated_Source\PSoC5/CapSense_1_CSHL.c ****                     if (0u == CapSense_1_posFiltersData[firstTimeIndex])
1446:.\Generated_Source\PSoC5/CapSense_1_CSHL.c ****                     {
1447:.\Generated_Source\PSoC5/CapSense_1_CSHL.c ****                         /* Init filters */
1448:.\Generated_Source\PSoC5/CapSense_1_CSHL.c ****                         CapSense_1_posFiltersData[posIndex] = (uint8) position;
1449:.\Generated_Source\PSoC5/CapSense_1_CSHL.c ****                         #if ((0u != (CapSense_1_MEDIAN_FILTER & \
1450:.\Generated_Source\PSoC5/CapSense_1_CSHL.c ****                                      CapSense_1_RADIAL_SLIDERS_POS_FILTERS_MASK)) || \
1451:.\Generated_Source\PSoC5/CapSense_1_CSHL.c ****                              (0u != (CapSense_1_AVERAGING_FILTER & \
1452:.\Generated_Source\PSoC5/CapSense_1_CSHL.c ****                                      CapSense_1_RADIAL_SLIDERS_POS_FILTERS_MASK)))
1453:.\Generated_Source\PSoC5/CapSense_1_CSHL.c **** 
1454:.\Generated_Source\PSoC5/CapSense_1_CSHL.c ****                             if ( (0u != (posFiltersMask & CapSense_1_MEDIAN_FILTER))  || 
1455:.\Generated_Source\PSoC5/CapSense_1_CSHL.c ****                                  (0u != (posFiltersMask & CapSense_1_AVERAGING_FILTER)) )
1456:.\Generated_Source\PSoC5/CapSense_1_CSHL.c ****                             {
1457:.\Generated_Source\PSoC5/CapSense_1_CSHL.c ****                                 CapSense_1_posFiltersData[posIndex + 1u] = (uint8) position;
1458:.\Generated_Source\PSoC5/CapSense_1_CSHL.c ****                             }
1459:.\Generated_Source\PSoC5/CapSense_1_CSHL.c ****                         #endif /* ((0u != (CapSense_1_MEDIAN_FILTER & \
1460:.\Generated_Source\PSoC5/CapSense_1_CSHL.c ****                                *           CapSense_1_RADIAL_SLIDERS_POS_FILTERS_MASK)) || \
1461:.\Generated_Source\PSoC5/CapSense_1_CSHL.c ****                                *   (0u != (CapSense_1_AVERAGING_FILTER & \
1462:.\Generated_Source\PSoC5/CapSense_1_CSHL.c ****                                *           CapSense_1_RADIAL_SLIDERS_POS_FILTERS_MASK)))
1463:.\Generated_Source\PSoC5/CapSense_1_CSHL.c ****                                */
1464:.\Generated_Source\PSoC5/CapSense_1_CSHL.c ****                         
1465:.\Generated_Source\PSoC5/CapSense_1_CSHL.c ****                         CapSense_1_posFiltersData[firstTimeIndex] = 1u;
1466:.\Generated_Source\PSoC5/CapSense_1_CSHL.c ****                     }
1467:.\Generated_Source\PSoC5/CapSense_1_CSHL.c ****                     else
1468:.\Generated_Source\PSoC5/CapSense_1_CSHL.c ****                     {
1469:.\Generated_Source\PSoC5/CapSense_1_CSHL.c ****                         /* Do filtering */
1470:.\Generated_Source\PSoC5/CapSense_1_CSHL.c ****                         #if (0u != (CapSense_1_MEDIAN_FILTER & CapSense_1_RADIAL_SLIDERS_POS_FILTER
1471:.\Generated_Source\PSoC5/CapSense_1_CSHL.c ****                             if (0u != (posFiltersMask & CapSense_1_MEDIAN_FILTER))
1472:.\Generated_Source\PSoC5/CapSense_1_CSHL.c ****                             {
1473:.\Generated_Source\PSoC5/CapSense_1_CSHL.c ****                                 tempPos = (uint8) position;
1474:.\Generated_Source\PSoC5/CapSense_1_CSHL.c ****                                 position = CapSense_1_MedianFilter(position,
1475:.\Generated_Source\PSoC5/CapSense_1_CSHL.c ****                                                                         CapSense_1_posFiltersData[p
1476:.\Generated_Source\PSoC5/CapSense_1_CSHL.c ****                                                                         CapSense_1_posFiltersData[p
1477:.\Generated_Source\PSoC5/CapSense_1_CSHL.c ****                                 CapSense_1_posFiltersData[posIndex + 1u] = 
1478:.\Generated_Source\PSoC5/CapSense_1_CSHL.c ****                                                                               CapSense_1_posFilters
1479:.\Generated_Source\PSoC5/CapSense_1_CSHL.c ****                                 CapSense_1_posFiltersData[posIndex] = tempPos;
1480:.\Generated_Source\PSoC5/CapSense_1_CSHL.c ****                             }
1481:.\Generated_Source\PSoC5/CapSense_1_CSHL.c ****                         #endif /* (0u != (CapSense_1_MEDIAN_FILTER & 
1482:.\Generated_Source\PSoC5/CapSense_1_CSHL.c ****                                *          CapSense_1_RADIAL_SLIDERS_POS_FILTERS_MASK))
1483:.\Generated_Source\PSoC5/CapSense_1_CSHL.c ****                                */
1484:.\Generated_Source\PSoC5/CapSense_1_CSHL.c **** 
1485:.\Generated_Source\PSoC5/CapSense_1_CSHL.c ****                         #if (0u != (CapSense_1_AVERAGING_FILTER & \
1486:.\Generated_Source\PSoC5/CapSense_1_CSHL.c ****                                     CapSense_1_RADIAL_SLIDERS_POS_FILTERS_MASK))
1487:.\Generated_Source\PSoC5/CapSense_1_CSHL.c ****                             if (0u != (posFiltersMask & CapSense_1_AVERAGING_FILTER))
ARM GAS  C:\Users\JohnP\AppData\Local\Temp\ccMCOjex.s 			page 36


1488:.\Generated_Source\PSoC5/CapSense_1_CSHL.c ****                             {
1489:.\Generated_Source\PSoC5/CapSense_1_CSHL.c ****                                 tempPos = (uint8) position;
1490:.\Generated_Source\PSoC5/CapSense_1_CSHL.c ****                                 position = CapSense_1_AveragingFilter(position, 
1491:.\Generated_Source\PSoC5/CapSense_1_CSHL.c ****                                                                        CapSense_1_posFiltersData[po
1492:.\Generated_Source\PSoC5/CapSense_1_CSHL.c ****                                                                        CapSense_1_posFiltersData[po
1493:.\Generated_Source\PSoC5/CapSense_1_CSHL.c ****                                 CapSense_1_posFiltersData[posIndex+1u]= CapSense_1_posFiltersData[p
1494:.\Generated_Source\PSoC5/CapSense_1_CSHL.c ****                                 CapSense_1_posFiltersData[posIndex] = tempPos;
1495:.\Generated_Source\PSoC5/CapSense_1_CSHL.c ****                             }
1496:.\Generated_Source\PSoC5/CapSense_1_CSHL.c ****                         #endif /* (0u != (CapSense_1_AVERAGING_FILTER & \
1497:.\Generated_Source\PSoC5/CapSense_1_CSHL.c ****                                *          CapSense_1_RADIAL_SLIDERS_POS_FILTERS_MASK))
1498:.\Generated_Source\PSoC5/CapSense_1_CSHL.c ****                                */
1499:.\Generated_Source\PSoC5/CapSense_1_CSHL.c **** 
1500:.\Generated_Source\PSoC5/CapSense_1_CSHL.c ****                         #if (0u != (CapSense_1_IIR2_FILTER & CapSense_1_RADIAL_SLIDERS_POS_FILTERS_
1501:.\Generated_Source\PSoC5/CapSense_1_CSHL.c ****                             if (0u != (posFiltersMask & CapSense_1_IIR2_FILTER))
1502:.\Generated_Source\PSoC5/CapSense_1_CSHL.c ****                             {
1503:.\Generated_Source\PSoC5/CapSense_1_CSHL.c ****                                 position = CapSense_1_IIR2Filter(position,
1504:.\Generated_Source\PSoC5/CapSense_1_CSHL.c ****                                                                     (uint16)CapSense_1_posFiltersDa
1505:.\Generated_Source\PSoC5/CapSense_1_CSHL.c ****                                 CapSense_1_posFiltersData[posIndex] = (uint8) position;
1506:.\Generated_Source\PSoC5/CapSense_1_CSHL.c ****                             }
1507:.\Generated_Source\PSoC5/CapSense_1_CSHL.c ****                         #endif /* (0u != (CapSense_1_IIR2_FILTER & 
1508:.\Generated_Source\PSoC5/CapSense_1_CSHL.c ****                                *          CapSense_1_RADIAL_SLIDERS_POS_FILTERS_MASK))
1509:.\Generated_Source\PSoC5/CapSense_1_CSHL.c ****                                */
1510:.\Generated_Source\PSoC5/CapSense_1_CSHL.c **** 
1511:.\Generated_Source\PSoC5/CapSense_1_CSHL.c ****                         #if (0u != (CapSense_1_IIR4_FILTER & CapSense_1_RADIAL_SLIDERS_POS_FILTERS_
1512:.\Generated_Source\PSoC5/CapSense_1_CSHL.c ****                             if (0u != (posFiltersMask & CapSense_1_IIR4_FILTER))
1513:.\Generated_Source\PSoC5/CapSense_1_CSHL.c ****                             {
1514:.\Generated_Source\PSoC5/CapSense_1_CSHL.c ****                                 position = CapSense_1_IIR4Filter(position,
1515:.\Generated_Source\PSoC5/CapSense_1_CSHL.c ****                                                                     (uint16)CapSense_1_posFiltersDa
1516:.\Generated_Source\PSoC5/CapSense_1_CSHL.c ****                                 CapSense_1_posFiltersData[posIndex] = (uint8) position;
1517:.\Generated_Source\PSoC5/CapSense_1_CSHL.c ****                             }
1518:.\Generated_Source\PSoC5/CapSense_1_CSHL.c ****                         #endif /* (0u != (CapSense_1_IIR4_FILTER & 
1519:.\Generated_Source\PSoC5/CapSense_1_CSHL.c ****                                *          CapSense_1_RADIAL_SLIDERS_POS_FILTERS_MASK))
1520:.\Generated_Source\PSoC5/CapSense_1_CSHL.c ****                                */
1521:.\Generated_Source\PSoC5/CapSense_1_CSHL.c **** 
1522:.\Generated_Source\PSoC5/CapSense_1_CSHL.c ****                         #if (0u != (CapSense_1_JITTER_FILTER & CapSense_1_RADIAL_SLIDERS_POS_FILTER
1523:.\Generated_Source\PSoC5/CapSense_1_CSHL.c ****                             if (0u != (posFiltersMask & CapSense_1_JITTER_FILTER))
1524:.\Generated_Source\PSoC5/CapSense_1_CSHL.c ****                             {
1525:.\Generated_Source\PSoC5/CapSense_1_CSHL.c ****                                 position = CapSense_1_JitterFilter(position, 
1526:.\Generated_Source\PSoC5/CapSense_1_CSHL.c ****                                                                          CapSense_1_posFiltersData[
1527:.\Generated_Source\PSoC5/CapSense_1_CSHL.c ****                                 CapSense_1_posFiltersData[posIndex] = (uint8) position;
1528:.\Generated_Source\PSoC5/CapSense_1_CSHL.c ****                             }
1529:.\Generated_Source\PSoC5/CapSense_1_CSHL.c ****                         #endif /* (0u != (CapSense_1_JITTER_FILTER &
1530:.\Generated_Source\PSoC5/CapSense_1_CSHL.c ****                                *           CapSense_1_RADIAL_SLIDERS_POS_FILTERS_MASK))
1531:.\Generated_Source\PSoC5/CapSense_1_CSHL.c ****                                */
1532:.\Generated_Source\PSoC5/CapSense_1_CSHL.c ****                     }
1533:.\Generated_Source\PSoC5/CapSense_1_CSHL.c ****                 }
1534:.\Generated_Source\PSoC5/CapSense_1_CSHL.c ****             #endif /* (0u != CapSense_1_RADIAL_SLIDERS_POS_FILTERS_MASK) */
1535:.\Generated_Source\PSoC5/CapSense_1_CSHL.c **** 
1536:.\Generated_Source\PSoC5/CapSense_1_CSHL.c ****         }
1537:.\Generated_Source\PSoC5/CapSense_1_CSHL.c ****         else
1538:.\Generated_Source\PSoC5/CapSense_1_CSHL.c ****         {
1539:.\Generated_Source\PSoC5/CapSense_1_CSHL.c ****             /* The maximum didn't find */
1540:.\Generated_Source\PSoC5/CapSense_1_CSHL.c ****             position = 0xFFFFu;
1541:.\Generated_Source\PSoC5/CapSense_1_CSHL.c **** 
1542:.\Generated_Source\PSoC5/CapSense_1_CSHL.c ****             #if (0u != CapSense_1_RADIAL_SLIDERS_POS_FILTERS_MASK)
1543:.\Generated_Source\PSoC5/CapSense_1_CSHL.c ****                 /* Reset the filters */
1544:.\Generated_Source\PSoC5/CapSense_1_CSHL.c ****                 if((posFiltersMask & CapSense_1_ANY_POS_FILTER) != 0u)
ARM GAS  C:\Users\JohnP\AppData\Local\Temp\ccMCOjex.s 			page 37


1545:.\Generated_Source\PSoC5/CapSense_1_CSHL.c ****                 {
1546:.\Generated_Source\PSoC5/CapSense_1_CSHL.c ****                     CapSense_1_posFiltersData[firstTimeIndex] = 0u;
1547:.\Generated_Source\PSoC5/CapSense_1_CSHL.c ****                 }
1548:.\Generated_Source\PSoC5/CapSense_1_CSHL.c ****             #endif /* (0u != CapSense_1_RADIAL_SLIDERS_POS_FILTERS_MASK) */
1549:.\Generated_Source\PSoC5/CapSense_1_CSHL.c ****         }
1550:.\Generated_Source\PSoC5/CapSense_1_CSHL.c ****         
1551:.\Generated_Source\PSoC5/CapSense_1_CSHL.c ****         return (position);
1552:.\Generated_Source\PSoC5/CapSense_1_CSHL.c ****     }
1553:.\Generated_Source\PSoC5/CapSense_1_CSHL.c **** #endif
1554:.\Generated_Source\PSoC5/CapSense_1_CSHL.c **** 
1555:.\Generated_Source\PSoC5/CapSense_1_CSHL.c **** 
1556:.\Generated_Source\PSoC5/CapSense_1_CSHL.c **** #if(CapSense_1_TOTAL_TOUCH_PADS_COUNT > 0u)
1557:.\Generated_Source\PSoC5/CapSense_1_CSHL.c ****     /*******************************************************************************
1558:.\Generated_Source\PSoC5/CapSense_1_CSHL.c ****     * Function Name: CapSense_1_GetTouchCentroidPos
1559:.\Generated_Source\PSoC5/CapSense_1_CSHL.c ****     ********************************************************************************
1560:.\Generated_Source\PSoC5/CapSense_1_CSHL.c ****     *
1561:.\Generated_Source\PSoC5/CapSense_1_CSHL.c ****     * Summary:
1562:.\Generated_Source\PSoC5/CapSense_1_CSHL.c ****     *  If a finger is present on touch pad, this function calculates the X and Y
1563:.\Generated_Source\PSoC5/CapSense_1_CSHL.c ****     *  position of the finger by calculating the centroids within touch pad specified
1564:.\Generated_Source\PSoC5/CapSense_1_CSHL.c ****     *  range. The X and Y positions are calculated to the API resolutions set in the
1565:.\Generated_Source\PSoC5/CapSense_1_CSHL.c ****     *  CapSense customizer. Returns a 1 if a finger is on the touchpad.
1566:.\Generated_Source\PSoC5/CapSense_1_CSHL.c ****     *  The position filter is applied to the result if enabled.
1567:.\Generated_Source\PSoC5/CapSense_1_CSHL.c ****     *  This function is available only if a touch pad is defined by the CapSense
1568:.\Generated_Source\PSoC5/CapSense_1_CSHL.c ****     *  customizer.
1569:.\Generated_Source\PSoC5/CapSense_1_CSHL.c ****     *
1570:.\Generated_Source\PSoC5/CapSense_1_CSHL.c ****     * Parameters:
1571:.\Generated_Source\PSoC5/CapSense_1_CSHL.c ****     *  widget:  Widget number. 
1572:.\Generated_Source\PSoC5/CapSense_1_CSHL.c ****     *  For every touchpad widget there are defines in this format:
1573:.\Generated_Source\PSoC5/CapSense_1_CSHL.c ****     *  #define CapSense_1_TP_"widget_name"            5
1574:.\Generated_Source\PSoC5/CapSense_1_CSHL.c ****     *
1575:.\Generated_Source\PSoC5/CapSense_1_CSHL.c ****     *  pos:     Pointer to the array of two uint16 elements, where result
1576:.\Generated_Source\PSoC5/CapSense_1_CSHL.c ****     *  result of calculation of X and Y position are stored.
1577:.\Generated_Source\PSoC5/CapSense_1_CSHL.c ****     *  pos[0u]  - position of X
1578:.\Generated_Source\PSoC5/CapSense_1_CSHL.c ****     *  pos[1u]  - position of Y
1579:.\Generated_Source\PSoC5/CapSense_1_CSHL.c ****     *
1580:.\Generated_Source\PSoC5/CapSense_1_CSHL.c ****     * Return:
1581:.\Generated_Source\PSoC5/CapSense_1_CSHL.c ****     *  Returns a 1 if a finger is on the touch pad, 0 - if not.
1582:.\Generated_Source\PSoC5/CapSense_1_CSHL.c ****     *
1583:.\Generated_Source\PSoC5/CapSense_1_CSHL.c ****     * Side Effects:
1584:.\Generated_Source\PSoC5/CapSense_1_CSHL.c ****     *   There are no checks of widget type argument provided to this function.
1585:.\Generated_Source\PSoC5/CapSense_1_CSHL.c ****     *   The unproper widget type provided will cause unexpected position
1586:.\Generated_Source\PSoC5/CapSense_1_CSHL.c ****     *   calculations.
1587:.\Generated_Source\PSoC5/CapSense_1_CSHL.c ****     *
1588:.\Generated_Source\PSoC5/CapSense_1_CSHL.c ****     * Reentrant:
1589:.\Generated_Source\PSoC5/CapSense_1_CSHL.c ****     *  No.
1590:.\Generated_Source\PSoC5/CapSense_1_CSHL.c ****     *
1591:.\Generated_Source\PSoC5/CapSense_1_CSHL.c ****     *******************************************************************************/
1592:.\Generated_Source\PSoC5/CapSense_1_CSHL.c ****     uint8 CapSense_1_GetTouchCentroidPos(uint8 widget, uint16* pos)
1593:.\Generated_Source\PSoC5/CapSense_1_CSHL.c **** 	                                    
1594:.\Generated_Source\PSoC5/CapSense_1_CSHL.c ****     {
1595:.\Generated_Source\PSoC5/CapSense_1_CSHL.c ****         #if (0u != CapSense_1_TOUCH_PADS_POS_FILTERS_MASK)
1596:.\Generated_Source\PSoC5/CapSense_1_CSHL.c ****             uint8 posXIndex;
1597:.\Generated_Source\PSoC5/CapSense_1_CSHL.c ****             uint8 posYIndex;
1598:.\Generated_Source\PSoC5/CapSense_1_CSHL.c ****             uint8 firstTimeIndex = CapSense_1_posFiltersData[widget];
1599:.\Generated_Source\PSoC5/CapSense_1_CSHL.c ****             uint8 posFiltersMask = CapSense_1_posFiltersMask[widget];
1600:.\Generated_Source\PSoC5/CapSense_1_CSHL.c ****         #endif /* (0u != CapSense_1_TOUCH_PADS_POS_FILTERS_MASK) */
1601:.\Generated_Source\PSoC5/CapSense_1_CSHL.c **** 
ARM GAS  C:\Users\JohnP\AppData\Local\Temp\ccMCOjex.s 			page 38


1602:.\Generated_Source\PSoC5/CapSense_1_CSHL.c ****         #if ((0u != (CapSense_1_MEDIAN_FILTER & CapSense_1_TOUCH_PADS_POS_FILTERS_MASK)) || \
1603:.\Generated_Source\PSoC5/CapSense_1_CSHL.c ****              (0u != (CapSense_1_AVERAGING_FILTER & CapSense_1_TOUCH_PADS_POS_FILTERS_MASK)))
1604:.\Generated_Source\PSoC5/CapSense_1_CSHL.c ****             uint16 tempPos;
1605:.\Generated_Source\PSoC5/CapSense_1_CSHL.c ****         #endif /* ((0u != (CapSense_1_MEDIAN_FILTER & CapSense_1_TOUCH_PADS_POS_FILTERS_MASK)) || \
1606:.\Generated_Source\PSoC5/CapSense_1_CSHL.c ****                *   (0u != (CapSense_1_AVERAGING_FILTER & CapSense_1_TOUCH_PADS_POS_FILTERS_MASK)))
1607:.\Generated_Source\PSoC5/CapSense_1_CSHL.c ****                */
1608:.\Generated_Source\PSoC5/CapSense_1_CSHL.c **** 
1609:.\Generated_Source\PSoC5/CapSense_1_CSHL.c ****         uint8 maxX;
1610:.\Generated_Source\PSoC5/CapSense_1_CSHL.c ****         uint8 maxY;
1611:.\Generated_Source\PSoC5/CapSense_1_CSHL.c ****         uint8 posX;
1612:.\Generated_Source\PSoC5/CapSense_1_CSHL.c ****         uint8 posY;
1613:.\Generated_Source\PSoC5/CapSense_1_CSHL.c ****         uint8 touch = 0u;
1614:.\Generated_Source\PSoC5/CapSense_1_CSHL.c ****         uint8 offset = CapSense_1_rawDataIndex[widget];
1615:.\Generated_Source\PSoC5/CapSense_1_CSHL.c ****         uint8 count = CapSense_1_numberOfSensors[widget];
1616:.\Generated_Source\PSoC5/CapSense_1_CSHL.c ****         
1617:.\Generated_Source\PSoC5/CapSense_1_CSHL.c ****         /* Find Maximum within X centroid */
1618:.\Generated_Source\PSoC5/CapSense_1_CSHL.c ****         #if (CapSense_1_IS_DIPLEX_SLIDER)
1619:.\Generated_Source\PSoC5/CapSense_1_CSHL.c ****             maxX = CapSense_1_FindMaximum(offset, count, CapSense_1_fingerThreshold[widget], 0u);
1620:.\Generated_Source\PSoC5/CapSense_1_CSHL.c ****         #else
1621:.\Generated_Source\PSoC5/CapSense_1_CSHL.c ****             maxX = CapSense_1_FindMaximum(offset, count, CapSense_1_fingerThreshold[widget]);
1622:.\Generated_Source\PSoC5/CapSense_1_CSHL.c ****         #endif /* (CapSense_1_IS_DIPLEX_SLIDER) */
1623:.\Generated_Source\PSoC5/CapSense_1_CSHL.c **** 
1624:.\Generated_Source\PSoC5/CapSense_1_CSHL.c ****         if (maxX != 0xFFu)
1625:.\Generated_Source\PSoC5/CapSense_1_CSHL.c ****         {
1626:.\Generated_Source\PSoC5/CapSense_1_CSHL.c ****             offset = CapSense_1_rawDataIndex[widget + 1u];
1627:.\Generated_Source\PSoC5/CapSense_1_CSHL.c ****             count = CapSense_1_numberOfSensors[widget + 1u];
1628:.\Generated_Source\PSoC5/CapSense_1_CSHL.c **** 
1629:.\Generated_Source\PSoC5/CapSense_1_CSHL.c ****             /* Find Maximum within Y centroid */
1630:.\Generated_Source\PSoC5/CapSense_1_CSHL.c ****             #if (CapSense_1_IS_DIPLEX_SLIDER)
1631:.\Generated_Source\PSoC5/CapSense_1_CSHL.c ****                 maxY = CapSense_1_FindMaximum(offset, count, CapSense_1_fingerThreshold[widget + 1u
1632:.\Generated_Source\PSoC5/CapSense_1_CSHL.c ****             #else
1633:.\Generated_Source\PSoC5/CapSense_1_CSHL.c ****                 maxY = CapSense_1_FindMaximum(offset, count, CapSense_1_fingerThreshold[widget + 1u
1634:.\Generated_Source\PSoC5/CapSense_1_CSHL.c ****             #endif /* (CapSense_1_IS_DIPLEX_SLIDER) */
1635:.\Generated_Source\PSoC5/CapSense_1_CSHL.c **** 
1636:.\Generated_Source\PSoC5/CapSense_1_CSHL.c ****             if (maxY != 0xFFu)
1637:.\Generated_Source\PSoC5/CapSense_1_CSHL.c ****             {
1638:.\Generated_Source\PSoC5/CapSense_1_CSHL.c ****                 /* X and Y maximums are found = true touch */
1639:.\Generated_Source\PSoC5/CapSense_1_CSHL.c ****                 touch = 1u;
1640:.\Generated_Source\PSoC5/CapSense_1_CSHL.c ****                 
1641:.\Generated_Source\PSoC5/CapSense_1_CSHL.c ****                 /* Calculate Y centroid */
1642:.\Generated_Source\PSoC5/CapSense_1_CSHL.c ****                 posY = CapSense_1_CalcCentroid(maxY, offset, count, 
1643:.\Generated_Source\PSoC5/CapSense_1_CSHL.c ****                             CapSense_1_centroidMult[widget + 1u], CapSense_1_noiseThreshold[widget 
1644:.\Generated_Source\PSoC5/CapSense_1_CSHL.c ****                 
1645:.\Generated_Source\PSoC5/CapSense_1_CSHL.c ****                 /* Calculate X centroid */
1646:.\Generated_Source\PSoC5/CapSense_1_CSHL.c ****                 offset = CapSense_1_rawDataIndex[widget];
1647:.\Generated_Source\PSoC5/CapSense_1_CSHL.c ****                 count = CapSense_1_numberOfSensors[widget];
1648:.\Generated_Source\PSoC5/CapSense_1_CSHL.c ****                 
1649:.\Generated_Source\PSoC5/CapSense_1_CSHL.c ****                 posX = CapSense_1_CalcCentroid(maxX, offset, count, 
1650:.\Generated_Source\PSoC5/CapSense_1_CSHL.c ****                             CapSense_1_centroidMult[widget],CapSense_1_noiseThreshold[widget]);
1651:.\Generated_Source\PSoC5/CapSense_1_CSHL.c ****     
1652:.\Generated_Source\PSoC5/CapSense_1_CSHL.c ****                 #if (0u != CapSense_1_TOUCH_PADS_POS_FILTERS_MASK)
1653:.\Generated_Source\PSoC5/CapSense_1_CSHL.c ****                     /* Check if this TP has enabled filters */
1654:.\Generated_Source\PSoC5/CapSense_1_CSHL.c ****                     if (0u != (posFiltersMask & CapSense_1_ANY_POS_FILTER))
1655:.\Generated_Source\PSoC5/CapSense_1_CSHL.c ****                     {
1656:.\Generated_Source\PSoC5/CapSense_1_CSHL.c ****                         /* Caluclate position to store filters data */
1657:.\Generated_Source\PSoC5/CapSense_1_CSHL.c ****                         posXIndex  = firstTimeIndex + 1u;
1658:.\Generated_Source\PSoC5/CapSense_1_CSHL.c ****                         posYIndex  = CapSense_1_posFiltersData[widget + 1u];
ARM GAS  C:\Users\JohnP\AppData\Local\Temp\ccMCOjex.s 			page 39


1659:.\Generated_Source\PSoC5/CapSense_1_CSHL.c ****                         
1660:.\Generated_Source\PSoC5/CapSense_1_CSHL.c ****                         if (0u == CapSense_1_posFiltersData[firstTimeIndex])
1661:.\Generated_Source\PSoC5/CapSense_1_CSHL.c ****                         {
1662:.\Generated_Source\PSoC5/CapSense_1_CSHL.c ****                             /* Init filters */
1663:.\Generated_Source\PSoC5/CapSense_1_CSHL.c ****                             CapSense_1_posFiltersData[posXIndex] = posX;
1664:.\Generated_Source\PSoC5/CapSense_1_CSHL.c ****                             CapSense_1_posFiltersData[posYIndex] = posY;
1665:.\Generated_Source\PSoC5/CapSense_1_CSHL.c **** 
1666:.\Generated_Source\PSoC5/CapSense_1_CSHL.c ****                             #if((0u != (CapSense_1_MEDIAN_FILTER & \
1667:.\Generated_Source\PSoC5/CapSense_1_CSHL.c ****                                         CapSense_1_TOUCH_PADS_POS_FILTERS_MASK))|| \
1668:.\Generated_Source\PSoC5/CapSense_1_CSHL.c ****                                 (0u != (CapSense_1_AVERAGING_FILTER & \
1669:.\Generated_Source\PSoC5/CapSense_1_CSHL.c ****                                         CapSense_1_TOUCH_PADS_POS_FILTERS_MASK)))
1670:.\Generated_Source\PSoC5/CapSense_1_CSHL.c **** 
1671:.\Generated_Source\PSoC5/CapSense_1_CSHL.c ****                                 if ( (0u != (posFiltersMask & CapSense_1_MEDIAN_FILTER)) || 
1672:.\Generated_Source\PSoC5/CapSense_1_CSHL.c ****                                      (0u != (posFiltersMask & CapSense_1_AVERAGING_FILTER)) )
1673:.\Generated_Source\PSoC5/CapSense_1_CSHL.c ****                                 {
1674:.\Generated_Source\PSoC5/CapSense_1_CSHL.c ****                                     CapSense_1_posFiltersData[posXIndex + 1u] = posX;
1675:.\Generated_Source\PSoC5/CapSense_1_CSHL.c ****                                     CapSense_1_posFiltersData[posYIndex + 1u] = posY;
1676:.\Generated_Source\PSoC5/CapSense_1_CSHL.c ****                                 }
1677:.\Generated_Source\PSoC5/CapSense_1_CSHL.c ****                             #endif /* ((0u != (CapSense_1_MEDIAN_FILTER & \
1678:.\Generated_Source\PSoC5/CapSense_1_CSHL.c ****                                    *           CapSense_1_TOUCH_PADS_POS_FILTERS_MASK)) || \
1679:.\Generated_Source\PSoC5/CapSense_1_CSHL.c ****                                    *    (0u != (CapSense_1_AVERAGING_FILTER & \
1680:.\Generated_Source\PSoC5/CapSense_1_CSHL.c ****                                    *            CapSense_1_TOUCH_PADS_POS_FILTERS_MASK)))
1681:.\Generated_Source\PSoC5/CapSense_1_CSHL.c ****                                    */
1682:.\Generated_Source\PSoC5/CapSense_1_CSHL.c ****                             
1683:.\Generated_Source\PSoC5/CapSense_1_CSHL.c ****                             CapSense_1_posFiltersData[firstTimeIndex] = 1u;
1684:.\Generated_Source\PSoC5/CapSense_1_CSHL.c ****                         }
1685:.\Generated_Source\PSoC5/CapSense_1_CSHL.c ****                         else
1686:.\Generated_Source\PSoC5/CapSense_1_CSHL.c ****                         {
1687:.\Generated_Source\PSoC5/CapSense_1_CSHL.c ****                             /* Do filtering */
1688:.\Generated_Source\PSoC5/CapSense_1_CSHL.c ****                             #if (0u != (CapSense_1_MEDIAN_FILTER & CapSense_1_TOUCH_PADS_POS_FILTER
1689:.\Generated_Source\PSoC5/CapSense_1_CSHL.c ****                                 if (0u != (posFiltersMask & CapSense_1_MEDIAN_FILTER))
1690:.\Generated_Source\PSoC5/CapSense_1_CSHL.c ****                                 {
1691:.\Generated_Source\PSoC5/CapSense_1_CSHL.c ****                                     tempPos = posX;
1692:.\Generated_Source\PSoC5/CapSense_1_CSHL.c ****                                     posX = (uint8) CapSense_1_MedianFilter(posX,
1693:.\Generated_Source\PSoC5/CapSense_1_CSHL.c ****                                                                       CapSense_1_posFiltersData[pos
1694:.\Generated_Source\PSoC5/CapSense_1_CSHL.c ****                                                                       CapSense_1_posFiltersData[pos
1695:.\Generated_Source\PSoC5/CapSense_1_CSHL.c ****                                     CapSense_1_posFiltersData[posXIndex + 1u] = 
1696:.\Generated_Source\PSoC5/CapSense_1_CSHL.c ****                                                                              CapSense_1_posFiltersD
1697:.\Generated_Source\PSoC5/CapSense_1_CSHL.c ****                                     CapSense_1_posFiltersData[posXIndex] = tempPos;
1698:.\Generated_Source\PSoC5/CapSense_1_CSHL.c ****                                     
1699:.\Generated_Source\PSoC5/CapSense_1_CSHL.c ****                                     tempPos = posY;
1700:.\Generated_Source\PSoC5/CapSense_1_CSHL.c ****                                     posY = (uint8) CapSense_1_MedianFilter(posY,
1701:.\Generated_Source\PSoC5/CapSense_1_CSHL.c ****                                                                        CapSense_1_posFiltersData[po
1702:.\Generated_Source\PSoC5/CapSense_1_CSHL.c ****                                                                        CapSense_1_posFiltersData[po
1703:.\Generated_Source\PSoC5/CapSense_1_CSHL.c ****                                     CapSense_1_posFiltersData[posYIndex + 1u] = 
1704:.\Generated_Source\PSoC5/CapSense_1_CSHL.c ****                                                                              CapSense_1_posFiltersD
1705:.\Generated_Source\PSoC5/CapSense_1_CSHL.c ****                                     CapSense_1_posFiltersData[posYIndex] = tempPos;
1706:.\Generated_Source\PSoC5/CapSense_1_CSHL.c ****                                 }
1707:.\Generated_Source\PSoC5/CapSense_1_CSHL.c ****                                 
1708:.\Generated_Source\PSoC5/CapSense_1_CSHL.c ****                             #endif /* (0u != (CapSense_1_MEDIAN_FILTER & \
1709:.\Generated_Source\PSoC5/CapSense_1_CSHL.c ****                                    *          CapSense_1_TOUCH_PADS_POS_FILTERS_MASK))
1710:.\Generated_Source\PSoC5/CapSense_1_CSHL.c ****                                    */
1711:.\Generated_Source\PSoC5/CapSense_1_CSHL.c **** 
1712:.\Generated_Source\PSoC5/CapSense_1_CSHL.c ****                             #if(0u !=(CapSense_1_AVERAGING_FILTER & CapSense_1_TOUCH_PADS_POS_FILTE
1713:.\Generated_Source\PSoC5/CapSense_1_CSHL.c ****                                 if (0u != (posFiltersMask & CapSense_1_AVERAGING_FILTER))
1714:.\Generated_Source\PSoC5/CapSense_1_CSHL.c ****                                 {
1715:.\Generated_Source\PSoC5/CapSense_1_CSHL.c ****                                     tempPos = posX;
ARM GAS  C:\Users\JohnP\AppData\Local\Temp\ccMCOjex.s 			page 40


1716:.\Generated_Source\PSoC5/CapSense_1_CSHL.c ****                                     posX = (uint8) CapSense_1_AveragingFilter(posX,
1717:.\Generated_Source\PSoC5/CapSense_1_CSHL.c ****                                                                        CapSense_1_posFiltersData[po
1718:.\Generated_Source\PSoC5/CapSense_1_CSHL.c ****                                                                        CapSense_1_posFiltersData[po
1719:.\Generated_Source\PSoC5/CapSense_1_CSHL.c ****                                     CapSense_1_posFiltersData[posXIndex + 1u] = 
1720:.\Generated_Source\PSoC5/CapSense_1_CSHL.c ****                                                                              CapSense_1_posFiltersD
1721:.\Generated_Source\PSoC5/CapSense_1_CSHL.c ****                                     CapSense_1_posFiltersData[posXIndex] = tempPos;
1722:.\Generated_Source\PSoC5/CapSense_1_CSHL.c ****                                     
1723:.\Generated_Source\PSoC5/CapSense_1_CSHL.c ****                                     tempPos = posY;
1724:.\Generated_Source\PSoC5/CapSense_1_CSHL.c ****                                     posY = (uint8) CapSense_1_AveragingFilter(posY, 
1725:.\Generated_Source\PSoC5/CapSense_1_CSHL.c ****                                                                       CapSense_1_posFiltersData[pos
1726:.\Generated_Source\PSoC5/CapSense_1_CSHL.c ****                                                                       CapSense_1_posFiltersData[pos
1727:.\Generated_Source\PSoC5/CapSense_1_CSHL.c ****                                     CapSense_1_posFiltersData[posYIndex + 1u] = 
1728:.\Generated_Source\PSoC5/CapSense_1_CSHL.c ****                                                                             CapSense_1_posFiltersDa
1729:.\Generated_Source\PSoC5/CapSense_1_CSHL.c ****                                     CapSense_1_posFiltersData[posYIndex] = tempPos;
1730:.\Generated_Source\PSoC5/CapSense_1_CSHL.c ****                                 }
1731:.\Generated_Source\PSoC5/CapSense_1_CSHL.c **** 
1732:.\Generated_Source\PSoC5/CapSense_1_CSHL.c ****                             #endif /* (0u != (CapSense_1_AVERAGING_FILTER & \
1733:.\Generated_Source\PSoC5/CapSense_1_CSHL.c ****                                    *           CapSense_1_TOUCH_PADS_POS_FILTERS_MASK))
1734:.\Generated_Source\PSoC5/CapSense_1_CSHL.c ****                                    */
1735:.\Generated_Source\PSoC5/CapSense_1_CSHL.c **** 
1736:.\Generated_Source\PSoC5/CapSense_1_CSHL.c ****                             #if (0u != (CapSense_1_IIR2_FILTER & CapSense_1_TOUCH_PADS_POS_FILTERS_
1737:.\Generated_Source\PSoC5/CapSense_1_CSHL.c ****                                 if (0u != (posFiltersMask & CapSense_1_IIR2_FILTER))
1738:.\Generated_Source\PSoC5/CapSense_1_CSHL.c ****                                 {
1739:.\Generated_Source\PSoC5/CapSense_1_CSHL.c ****                                     posX = (uint8) CapSense_1_IIR2Filter(posX, 
1740:.\Generated_Source\PSoC5/CapSense_1_CSHL.c ****                                                                            CapSense_1_posFiltersDat
1741:.\Generated_Source\PSoC5/CapSense_1_CSHL.c ****                                     CapSense_1_posFiltersData[posXIndex] = posX;
1742:.\Generated_Source\PSoC5/CapSense_1_CSHL.c ****                                     
1743:.\Generated_Source\PSoC5/CapSense_1_CSHL.c ****                                     posY = (uint8) CapSense_1_IIR2Filter(posY, 
1744:.\Generated_Source\PSoC5/CapSense_1_CSHL.c ****                                                                             CapSense_1_posFiltersDa
1745:.\Generated_Source\PSoC5/CapSense_1_CSHL.c ****                                     CapSense_1_posFiltersData[posYIndex] = posY;
1746:.\Generated_Source\PSoC5/CapSense_1_CSHL.c ****                                 }
1747:.\Generated_Source\PSoC5/CapSense_1_CSHL.c ****                                 
1748:.\Generated_Source\PSoC5/CapSense_1_CSHL.c ****                             #endif /* (0u != (CapSense_1_IIR2_FILTER & \
1749:.\Generated_Source\PSoC5/CapSense_1_CSHL.c ****                                    *          CapSense_1_TOUCH_PADS_POS_FILTERS_MASK))
1750:.\Generated_Source\PSoC5/CapSense_1_CSHL.c ****                                    */
1751:.\Generated_Source\PSoC5/CapSense_1_CSHL.c **** 
1752:.\Generated_Source\PSoC5/CapSense_1_CSHL.c ****                             #if (0u != (CapSense_1_IIR4_FILTER & CapSense_1_TOUCH_PADS_POS_FILTERS_
1753:.\Generated_Source\PSoC5/CapSense_1_CSHL.c ****                                 if (0u != (posFiltersMask & CapSense_1_IIR4_FILTER))
1754:.\Generated_Source\PSoC5/CapSense_1_CSHL.c ****                                 {
1755:.\Generated_Source\PSoC5/CapSense_1_CSHL.c ****                                     posX = (uint8) CapSense_1_IIR4Filter((uint16)posX,
1756:.\Generated_Source\PSoC5/CapSense_1_CSHL.c ****                                                                     (uint16)CapSense_1_posFiltersDa
1757:.\Generated_Source\PSoC5/CapSense_1_CSHL.c ****                                     CapSense_1_posFiltersData[posXIndex] = posX;
1758:.\Generated_Source\PSoC5/CapSense_1_CSHL.c **** 
1759:.\Generated_Source\PSoC5/CapSense_1_CSHL.c ****                                     posY = (uint8) CapSense_1_IIR4Filter((uint16)posY,
1760:.\Generated_Source\PSoC5/CapSense_1_CSHL.c ****                                                                     (uint16)CapSense_1_posFiltersDa
1761:.\Generated_Source\PSoC5/CapSense_1_CSHL.c ****                                     CapSense_1_posFiltersData[posYIndex] = posY;
1762:.\Generated_Source\PSoC5/CapSense_1_CSHL.c ****                                 }
1763:.\Generated_Source\PSoC5/CapSense_1_CSHL.c ****                                 
1764:.\Generated_Source\PSoC5/CapSense_1_CSHL.c ****                             #endif /* (0u != (CapSense_1_IIR4_FILTER & \
1765:.\Generated_Source\PSoC5/CapSense_1_CSHL.c ****                                    *           CapSense_1_TOUCH_PADS_POS_FILTERS_MASK))
1766:.\Generated_Source\PSoC5/CapSense_1_CSHL.c ****                                    */
1767:.\Generated_Source\PSoC5/CapSense_1_CSHL.c **** 
1768:.\Generated_Source\PSoC5/CapSense_1_CSHL.c ****                             #if (0u != (CapSense_1_JITTER_FILTER & CapSense_1_TOUCH_PADS_POS_FILTER
1769:.\Generated_Source\PSoC5/CapSense_1_CSHL.c ****                                 if (0u != (posFiltersMask & CapSense_1_JITTER_FILTER))
1770:.\Generated_Source\PSoC5/CapSense_1_CSHL.c ****                                     {
1771:.\Generated_Source\PSoC5/CapSense_1_CSHL.c ****                                         posX = (uint8) CapSense_1_JitterFilter(posX, 
1772:.\Generated_Source\PSoC5/CapSense_1_CSHL.c ****                                                                             CapSense_1_posFiltersDa
ARM GAS  C:\Users\JohnP\AppData\Local\Temp\ccMCOjex.s 			page 41


1773:.\Generated_Source\PSoC5/CapSense_1_CSHL.c ****                                         CapSense_1_posFiltersData[posXIndex] = posX;
1774:.\Generated_Source\PSoC5/CapSense_1_CSHL.c ****                                         
1775:.\Generated_Source\PSoC5/CapSense_1_CSHL.c ****                                         posY = (uint8) CapSense_1_JitterFilter(posY, 
1776:.\Generated_Source\PSoC5/CapSense_1_CSHL.c ****                                                                             CapSense_1_posFiltersDa
1777:.\Generated_Source\PSoC5/CapSense_1_CSHL.c ****                                         CapSense_1_posFiltersData[posYIndex] = posY;
1778:.\Generated_Source\PSoC5/CapSense_1_CSHL.c ****                                     }
1779:.\Generated_Source\PSoC5/CapSense_1_CSHL.c ****                             #endif /* (0u != (CapSense_1_JITTER_FILTER & \
1780:.\Generated_Source\PSoC5/CapSense_1_CSHL.c ****                                    *           CapSense_1_TOUCH_PADS_POS_FILTERS_MASK))
1781:.\Generated_Source\PSoC5/CapSense_1_CSHL.c ****                                    */
1782:.\Generated_Source\PSoC5/CapSense_1_CSHL.c ****                         }
1783:.\Generated_Source\PSoC5/CapSense_1_CSHL.c ****                     }
1784:.\Generated_Source\PSoC5/CapSense_1_CSHL.c ****                 #endif /* (0u != CapSense_1_TOUCH_PADS_POS_FILTERS_MASK) */
1785:.\Generated_Source\PSoC5/CapSense_1_CSHL.c **** 
1786:.\Generated_Source\PSoC5/CapSense_1_CSHL.c ****                 /* Save positions */
1787:.\Generated_Source\PSoC5/CapSense_1_CSHL.c ****                 pos[0u] = posX;
1788:.\Generated_Source\PSoC5/CapSense_1_CSHL.c ****                 pos[1u] = posY;
1789:.\Generated_Source\PSoC5/CapSense_1_CSHL.c ****             }
1790:.\Generated_Source\PSoC5/CapSense_1_CSHL.c ****         }
1791:.\Generated_Source\PSoC5/CapSense_1_CSHL.c **** 
1792:.\Generated_Source\PSoC5/CapSense_1_CSHL.c ****         #if (0u != CapSense_1_TOUCH_PADS_POS_FILTERS_MASK)
1793:.\Generated_Source\PSoC5/CapSense_1_CSHL.c ****             if(touch == 0u)
1794:.\Generated_Source\PSoC5/CapSense_1_CSHL.c ****             {
1795:.\Generated_Source\PSoC5/CapSense_1_CSHL.c ****                 /* Reset the filters */
1796:.\Generated_Source\PSoC5/CapSense_1_CSHL.c ****                 if ((posFiltersMask & CapSense_1_ANY_POS_FILTER) != 0u)
1797:.\Generated_Source\PSoC5/CapSense_1_CSHL.c ****                 {
1798:.\Generated_Source\PSoC5/CapSense_1_CSHL.c ****                     CapSense_1_posFiltersData[firstTimeIndex] = 0u;
1799:.\Generated_Source\PSoC5/CapSense_1_CSHL.c ****                 }
1800:.\Generated_Source\PSoC5/CapSense_1_CSHL.c ****             }
1801:.\Generated_Source\PSoC5/CapSense_1_CSHL.c ****         #endif /* (0u != CapSense_1_TOUCH_PADS_POS_FILTERS_MASK) */
1802:.\Generated_Source\PSoC5/CapSense_1_CSHL.c ****         
1803:.\Generated_Source\PSoC5/CapSense_1_CSHL.c ****         return (touch);
1804:.\Generated_Source\PSoC5/CapSense_1_CSHL.c ****     }
1805:.\Generated_Source\PSoC5/CapSense_1_CSHL.c **** #endif /* (CapSense_1_TOTAL_TOUCH_PADS_COUNT > 0u) */
1806:.\Generated_Source\PSoC5/CapSense_1_CSHL.c **** 
1807:.\Generated_Source\PSoC5/CapSense_1_CSHL.c **** 
1808:.\Generated_Source\PSoC5/CapSense_1_CSHL.c **** #if ( (CapSense_1_RAW_FILTER_MASK & CapSense_1_MEDIAN_FILTER) | \
1809:.\Generated_Source\PSoC5/CapSense_1_CSHL.c ****       (CapSense_1_POS_FILTERS_MASK & CapSense_1_MEDIAN_FILTER) )
1810:.\Generated_Source\PSoC5/CapSense_1_CSHL.c ****     /*******************************************************************************
1811:.\Generated_Source\PSoC5/CapSense_1_CSHL.c ****     * Function Name: CapSense_1_MedianFilter
1812:.\Generated_Source\PSoC5/CapSense_1_CSHL.c ****     ********************************************************************************
1813:.\Generated_Source\PSoC5/CapSense_1_CSHL.c ****     *
1814:.\Generated_Source\PSoC5/CapSense_1_CSHL.c ****     * Summary:
1815:.\Generated_Source\PSoC5/CapSense_1_CSHL.c ****     *  Median filter function. 
1816:.\Generated_Source\PSoC5/CapSense_1_CSHL.c ****     *  The median filter looks at the three most recent samples and reports the 
1817:.\Generated_Source\PSoC5/CapSense_1_CSHL.c ****     *  median value.
1818:.\Generated_Source\PSoC5/CapSense_1_CSHL.c ****     *
1819:.\Generated_Source\PSoC5/CapSense_1_CSHL.c ****     * Parameters:
1820:.\Generated_Source\PSoC5/CapSense_1_CSHL.c ****     *  x1:  Current value.
1821:.\Generated_Source\PSoC5/CapSense_1_CSHL.c ****     *  x2:  Previous value.
1822:.\Generated_Source\PSoC5/CapSense_1_CSHL.c ****     *  x3:  Before previous value.
1823:.\Generated_Source\PSoC5/CapSense_1_CSHL.c ****     *
1824:.\Generated_Source\PSoC5/CapSense_1_CSHL.c ****     * Return:
1825:.\Generated_Source\PSoC5/CapSense_1_CSHL.c ****     *  Returns filtered value.
1826:.\Generated_Source\PSoC5/CapSense_1_CSHL.c ****     *
1827:.\Generated_Source\PSoC5/CapSense_1_CSHL.c ****     *******************************************************************************/
1828:.\Generated_Source\PSoC5/CapSense_1_CSHL.c ****     uint16 CapSense_1_MedianFilter(uint16 x1, uint16 x2, uint16 x3)
1829:.\Generated_Source\PSoC5/CapSense_1_CSHL.c ****                                          
ARM GAS  C:\Users\JohnP\AppData\Local\Temp\ccMCOjex.s 			page 42


1830:.\Generated_Source\PSoC5/CapSense_1_CSHL.c ****     {
1831:.\Generated_Source\PSoC5/CapSense_1_CSHL.c ****         uint16 tmp;
1832:.\Generated_Source\PSoC5/CapSense_1_CSHL.c ****         
1833:.\Generated_Source\PSoC5/CapSense_1_CSHL.c ****         if (x1 > x2)
1834:.\Generated_Source\PSoC5/CapSense_1_CSHL.c ****         {
1835:.\Generated_Source\PSoC5/CapSense_1_CSHL.c ****             tmp = x2;
1836:.\Generated_Source\PSoC5/CapSense_1_CSHL.c ****             x2 = x1;
1837:.\Generated_Source\PSoC5/CapSense_1_CSHL.c ****             x1 = tmp;
1838:.\Generated_Source\PSoC5/CapSense_1_CSHL.c ****         }
1839:.\Generated_Source\PSoC5/CapSense_1_CSHL.c ****         
1840:.\Generated_Source\PSoC5/CapSense_1_CSHL.c ****         if (x2 > x3)
1841:.\Generated_Source\PSoC5/CapSense_1_CSHL.c ****         {
1842:.\Generated_Source\PSoC5/CapSense_1_CSHL.c ****             x2 = x3;
1843:.\Generated_Source\PSoC5/CapSense_1_CSHL.c ****         }
1844:.\Generated_Source\PSoC5/CapSense_1_CSHL.c ****         
1845:.\Generated_Source\PSoC5/CapSense_1_CSHL.c ****         return ((x1 > x2) ? x1 : x2);
1846:.\Generated_Source\PSoC5/CapSense_1_CSHL.c ****     }
1847:.\Generated_Source\PSoC5/CapSense_1_CSHL.c **** #endif /* ( (CapSense_1_RAW_FILTER_MASK & CapSense_1_MEDIAN_FILTER) | \
1848:.\Generated_Source\PSoC5/CapSense_1_CSHL.c ****        *    (CapSense_1_POS_FILTERS_MASK & CapSense_1_MEDIAN_FILTER) )
1849:.\Generated_Source\PSoC5/CapSense_1_CSHL.c ****        */
1850:.\Generated_Source\PSoC5/CapSense_1_CSHL.c **** 
1851:.\Generated_Source\PSoC5/CapSense_1_CSHL.c **** 
1852:.\Generated_Source\PSoC5/CapSense_1_CSHL.c **** #if ( (CapSense_1_RAW_FILTER_MASK & CapSense_1_AVERAGING_FILTER) | \
1853:.\Generated_Source\PSoC5/CapSense_1_CSHL.c ****       (CapSense_1_POS_FILTERS_MASK & CapSense_1_AVERAGING_FILTER) )
1854:.\Generated_Source\PSoC5/CapSense_1_CSHL.c ****     /*******************************************************************************
1855:.\Generated_Source\PSoC5/CapSense_1_CSHL.c ****     * Function Name: CapSense_1_AveragingFilter
1856:.\Generated_Source\PSoC5/CapSense_1_CSHL.c ****     ********************************************************************************
1857:.\Generated_Source\PSoC5/CapSense_1_CSHL.c ****     *
1858:.\Generated_Source\PSoC5/CapSense_1_CSHL.c ****     * Summary:
1859:.\Generated_Source\PSoC5/CapSense_1_CSHL.c ****     *  Averaging filter function.
1860:.\Generated_Source\PSoC5/CapSense_1_CSHL.c ****     *  The averaging filter looks at the three most recent samples of position and
1861:.\Generated_Source\PSoC5/CapSense_1_CSHL.c ****     *  reports the averaging value.
1862:.\Generated_Source\PSoC5/CapSense_1_CSHL.c ****     *
1863:.\Generated_Source\PSoC5/CapSense_1_CSHL.c ****     * Parameters:
1864:.\Generated_Source\PSoC5/CapSense_1_CSHL.c ****     *  x1:  Current value.
1865:.\Generated_Source\PSoC5/CapSense_1_CSHL.c ****     *  x2:  Previous value.
1866:.\Generated_Source\PSoC5/CapSense_1_CSHL.c ****     *  x3:  Before previous value.
1867:.\Generated_Source\PSoC5/CapSense_1_CSHL.c ****     *
1868:.\Generated_Source\PSoC5/CapSense_1_CSHL.c ****     * Return:
1869:.\Generated_Source\PSoC5/CapSense_1_CSHL.c ****     *  Returns filtered value.
1870:.\Generated_Source\PSoC5/CapSense_1_CSHL.c ****     *
1871:.\Generated_Source\PSoC5/CapSense_1_CSHL.c ****     *******************************************************************************/
1872:.\Generated_Source\PSoC5/CapSense_1_CSHL.c ****     uint16 CapSense_1_AveragingFilter(uint16 x1, uint16 x2, uint16 x3)
1873:.\Generated_Source\PSoC5/CapSense_1_CSHL.c ****                                             
1874:.\Generated_Source\PSoC5/CapSense_1_CSHL.c ****     {
1875:.\Generated_Source\PSoC5/CapSense_1_CSHL.c ****         uint32 tmp = ((uint32)x1 + (uint32)x2 + (uint32)x3) / 3u;
1876:.\Generated_Source\PSoC5/CapSense_1_CSHL.c ****         
1877:.\Generated_Source\PSoC5/CapSense_1_CSHL.c ****         return ((uint16) tmp);
1878:.\Generated_Source\PSoC5/CapSense_1_CSHL.c ****     }
1879:.\Generated_Source\PSoC5/CapSense_1_CSHL.c **** #endif /* ( (CapSense_1_RAW_FILTER_MASK & CapSense_1_AVERAGING_FILTER) | \
1880:.\Generated_Source\PSoC5/CapSense_1_CSHL.c ****        *    (CapSense_1_POS_FILTERS_MASK & CapSense_1_AVERAGING_FILTER) )
1881:.\Generated_Source\PSoC5/CapSense_1_CSHL.c ****        */
1882:.\Generated_Source\PSoC5/CapSense_1_CSHL.c **** 
1883:.\Generated_Source\PSoC5/CapSense_1_CSHL.c **** 
1884:.\Generated_Source\PSoC5/CapSense_1_CSHL.c **** #if ( (CapSense_1_RAW_FILTER_MASK & CapSense_1_IIR2_FILTER) | \
1885:.\Generated_Source\PSoC5/CapSense_1_CSHL.c ****       (CapSense_1_POS_FILTERS_MASK & CapSense_1_IIR2_FILTER) )
1886:.\Generated_Source\PSoC5/CapSense_1_CSHL.c ****     /*******************************************************************************
ARM GAS  C:\Users\JohnP\AppData\Local\Temp\ccMCOjex.s 			page 43


1887:.\Generated_Source\PSoC5/CapSense_1_CSHL.c ****     * Function Name: CapSense_1_IIR2Filter
1888:.\Generated_Source\PSoC5/CapSense_1_CSHL.c ****     ********************************************************************************
1889:.\Generated_Source\PSoC5/CapSense_1_CSHL.c ****     *
1890:.\Generated_Source\PSoC5/CapSense_1_CSHL.c ****     * Summary:
1891:.\Generated_Source\PSoC5/CapSense_1_CSHL.c ****     *  IIR1/2 filter function. IIR1/2 = 1/2current + 1/2previous.
1892:.\Generated_Source\PSoC5/CapSense_1_CSHL.c ****     *
1893:.\Generated_Source\PSoC5/CapSense_1_CSHL.c ****     * Parameters:
1894:.\Generated_Source\PSoC5/CapSense_1_CSHL.c ****     *  x1:  Current value.
1895:.\Generated_Source\PSoC5/CapSense_1_CSHL.c ****     *  x2:  Previous value.
1896:.\Generated_Source\PSoC5/CapSense_1_CSHL.c ****     *
1897:.\Generated_Source\PSoC5/CapSense_1_CSHL.c ****     * Return:
1898:.\Generated_Source\PSoC5/CapSense_1_CSHL.c ****     *  Returns filtered value.
1899:.\Generated_Source\PSoC5/CapSense_1_CSHL.c ****     *
1900:.\Generated_Source\PSoC5/CapSense_1_CSHL.c ****     *******************************************************************************/
1901:.\Generated_Source\PSoC5/CapSense_1_CSHL.c ****     uint16 CapSense_1_IIR2Filter(uint16 x1, uint16 x2)
1902:.\Generated_Source\PSoC5/CapSense_1_CSHL.c ****                                        
1903:.\Generated_Source\PSoC5/CapSense_1_CSHL.c ****     {
1904:.\Generated_Source\PSoC5/CapSense_1_CSHL.c ****         uint32 tmp;
1905:.\Generated_Source\PSoC5/CapSense_1_CSHL.c ****         
1906:.\Generated_Source\PSoC5/CapSense_1_CSHL.c ****         /* IIR = 1/2 Current Value+ 1/2 Previous Value */
1907:.\Generated_Source\PSoC5/CapSense_1_CSHL.c ****         tmp = (uint32)x1 + (uint32)x2;
1908:.\Generated_Source\PSoC5/CapSense_1_CSHL.c ****         tmp >>= 1u;
1909:.\Generated_Source\PSoC5/CapSense_1_CSHL.c ****     
1910:.\Generated_Source\PSoC5/CapSense_1_CSHL.c ****         return ((uint16) tmp);
1911:.\Generated_Source\PSoC5/CapSense_1_CSHL.c ****     }
1912:.\Generated_Source\PSoC5/CapSense_1_CSHL.c **** #endif /* ( (CapSense_1_RAW_FILTER_MASK & CapSense_1_IIR2_FILTER) | \
1913:.\Generated_Source\PSoC5/CapSense_1_CSHL.c ****        *    (CapSense_1_POS_FILTERS_MASK & CapSense_1_IIR2_FILTER) )
1914:.\Generated_Source\PSoC5/CapSense_1_CSHL.c ****        */
1915:.\Generated_Source\PSoC5/CapSense_1_CSHL.c **** 
1916:.\Generated_Source\PSoC5/CapSense_1_CSHL.c **** 
1917:.\Generated_Source\PSoC5/CapSense_1_CSHL.c **** #if ( (CapSense_1_RAW_FILTER_MASK & CapSense_1_IIR4_FILTER) | \
1918:.\Generated_Source\PSoC5/CapSense_1_CSHL.c ****       (CapSense_1_POS_FILTERS_MASK & CapSense_1_IIR4_FILTER) )
1919:.\Generated_Source\PSoC5/CapSense_1_CSHL.c ****     /*******************************************************************************
1920:.\Generated_Source\PSoC5/CapSense_1_CSHL.c ****     * Function Name: CapSense_1_IIR4Filter
1921:.\Generated_Source\PSoC5/CapSense_1_CSHL.c ****     ********************************************************************************
1922:.\Generated_Source\PSoC5/CapSense_1_CSHL.c ****     *
1923:.\Generated_Source\PSoC5/CapSense_1_CSHL.c ****     * Summary:
1924:.\Generated_Source\PSoC5/CapSense_1_CSHL.c ****     *  IIR1/4 filter function. IIR1/4 = 1/4current + 3/4previous.
1925:.\Generated_Source\PSoC5/CapSense_1_CSHL.c ****     *
1926:.\Generated_Source\PSoC5/CapSense_1_CSHL.c ****     * Parameters:
1927:.\Generated_Source\PSoC5/CapSense_1_CSHL.c ****     *  x1:  Current value.
1928:.\Generated_Source\PSoC5/CapSense_1_CSHL.c ****     *  x2:  Previous value.
1929:.\Generated_Source\PSoC5/CapSense_1_CSHL.c ****     *
1930:.\Generated_Source\PSoC5/CapSense_1_CSHL.c ****     * Return:
1931:.\Generated_Source\PSoC5/CapSense_1_CSHL.c ****     *  Returns filtered value.
1932:.\Generated_Source\PSoC5/CapSense_1_CSHL.c ****     *
1933:.\Generated_Source\PSoC5/CapSense_1_CSHL.c ****     *******************************************************************************/
1934:.\Generated_Source\PSoC5/CapSense_1_CSHL.c ****     uint16 CapSense_1_IIR4Filter(uint16 x1, uint16 x2)
1935:.\Generated_Source\PSoC5/CapSense_1_CSHL.c ****                                        
1936:.\Generated_Source\PSoC5/CapSense_1_CSHL.c ****     {
 498              		.loc 1 1936 0
 499              		.cfi_startproc
 500              		@ args = 0, pretend = 0, frame = 0
 501              		@ frame_needed = 0, uses_anonymous_args = 0
 502              		@ link register save eliminated.
 503              	.LVL46:
1937:.\Generated_Source\PSoC5/CapSense_1_CSHL.c ****         uint32 tmp;
ARM GAS  C:\Users\JohnP\AppData\Local\Temp\ccMCOjex.s 			page 44


1938:.\Generated_Source\PSoC5/CapSense_1_CSHL.c ****         
1939:.\Generated_Source\PSoC5/CapSense_1_CSHL.c ****         /* IIR = 1/4 Current Value + 3/4 Previous Value */
1940:.\Generated_Source\PSoC5/CapSense_1_CSHL.c ****         tmp = (uint32)x1 + (uint32)x2;
 504              		.loc 1 1940 0
 505 0000 00EB4100 		add	r0, r0, r1, lsl #1
 506              	.LVL47:
1941:.\Generated_Source\PSoC5/CapSense_1_CSHL.c ****         tmp += ((uint32)x2 << 1u);
 507              		.loc 1 1941 0
 508 0004 0844     		add	r0, r0, r1
 509              	.LVL48:
1942:.\Generated_Source\PSoC5/CapSense_1_CSHL.c ****         tmp >>= 2u;
1943:.\Generated_Source\PSoC5/CapSense_1_CSHL.c ****         
1944:.\Generated_Source\PSoC5/CapSense_1_CSHL.c ****         return ((uint16) tmp);
1945:.\Generated_Source\PSoC5/CapSense_1_CSHL.c ****     }
 510              		.loc 1 1945 0
 511 0006 C0F38F00 		ubfx	r0, r0, #2, #16
 512              	.LVL49:
 513 000a 7047     		bx	lr
 514              		.cfi_endproc
 515              	.LFE11:
 516              		.size	CapSense_1_IIR4Filter, .-CapSense_1_IIR4Filter
 517              		.section	.text.CapSense_1_UpdateSensorBaseline,"ax",%progbits
 518              		.align	2
 519              		.global	CapSense_1_UpdateSensorBaseline
 520              		.thumb
 521              		.thumb_func
 522              		.type	CapSense_1_UpdateSensorBaseline, %function
 523              	CapSense_1_UpdateSensorBaseline:
 524              	.LFB4:
 348:.\Generated_Source\PSoC5/CapSense_1_CSHL.c **** {
 525              		.loc 1 348 0
 526              		.cfi_startproc
 527              		@ args = 0, pretend = 0, frame = 0
 528              		@ frame_needed = 0, uses_anonymous_args = 0
 529              	.LVL50:
 530 0000 2DE9F041 		push	{r4, r5, r6, r7, r8, lr}
 531              		.cfi_def_cfa_offset 24
 532              		.cfi_offset 4, -24
 533              		.cfi_offset 5, -20
 534              		.cfi_offset 6, -16
 535              		.cfi_offset 7, -12
 536              		.cfi_offset 8, -8
 537              		.cfi_offset 14, -4
 538 0004 0446     		mov	r4, r0
 352:.\Generated_Source\PSoC5/CapSense_1_CSHL.c ****     uint8 widget = CapSense_1_widgetNumber[sensor];
 539              		.loc 1 352 0
 540 0006 304B     		ldr	r3, .L52
 541 0008 1B5C     		ldrb	r3, [r3, r0]	@ zero_extendqisi2
 542              	.LVL51:
 353:.\Generated_Source\PSoC5/CapSense_1_CSHL.c ****     uint8 noiseThreshold = CapSense_1_noiseThreshold[widget];
 543              		.loc 1 353 0
 544 000a 304A     		ldr	r2, .L52+4
 545 000c 1344     		add	r3, r3, r2
 546 000e 1F7B     		ldrb	r7, [r3, #12]	@ zero_extendqisi2
 547              	.LVL52:
 382:.\Generated_Source\PSoC5/CapSense_1_CSHL.c ****         filteredRawData = CapSense_1_IIR4Filter(filteredRawData, CapSense_1_rawFilterData1[sensor])
 548              		.loc 1 382 0
ARM GAS  C:\Users\JohnP\AppData\Local\Temp\ccMCOjex.s 			page 45


 549 0010 2F4E     		ldr	r6, .L52+8
 550 0012 304B     		ldr	r3, .L52+12
 551              	.LVL53:
 552 0014 33F81000 		ldrh	r0, [r3, r0, lsl #1]
 553              	.LVL54:
 554 0018 36F81410 		ldrh	r1, [r6, r4, lsl #1]
 555 001c FFF7FEFF 		bl	CapSense_1_IIR4Filter
 556              	.LVL55:
 557 0020 0546     		mov	r5, r0
 558              	.LVL56:
 383:.\Generated_Source\PSoC5/CapSense_1_CSHL.c ****         CapSense_1_rawFilterData1[sensor] = filteredRawData;
 559              		.loc 1 383 0
 560 0022 26F81400 		strh	r0, [r6, r4, lsl #1]	@ movhi
 402:.\Generated_Source\PSoC5/CapSense_1_CSHL.c ****         CapSense_1_CalculateThresholds(sensor);
 561              		.loc 1 402 0
 562 0026 2046     		mov	r0, r4
 563              	.LVL57:
 564 0028 FFF7FEFF 		bl	CapSense_1_CalculateThresholds
 565              	.LVL58:
 408:.\Generated_Source\PSoC5/CapSense_1_CSHL.c ****     if(filteredRawData >= CapSense_1_sensorBaseline[sensor])
 566              		.loc 1 408 0
 567 002c 2A4B     		ldr	r3, .L52+16
 568 002e 33F81430 		ldrh	r3, [r3, r4, lsl #1]
 569 0032 AB42     		cmp	r3, r5
 570 0034 04D8     		bhi	.L43
 410:.\Generated_Source\PSoC5/CapSense_1_CSHL.c ****         tempRaw = filteredRawData - CapSense_1_sensorBaseline[sensor];
 571              		.loc 1 410 0
 572 0036 EE1A     		subs	r6, r5, r3
 573 0038 B6B2     		uxth	r6, r6
 574              	.LVL59:
 411:.\Generated_Source\PSoC5/CapSense_1_CSHL.c ****         widget = 1u;    /* Positive difference - Calculate the Signal */
 575              		.loc 1 411 0
 576 003a 4FF00108 		mov	r8, #1
 577 003e 03E0     		b	.L44
 578              	.LVL60:
 579              	.L43:
 415:.\Generated_Source\PSoC5/CapSense_1_CSHL.c ****         tempRaw = CapSense_1_sensorBaseline[sensor] - filteredRawData;
 580              		.loc 1 415 0
 581 0040 5E1B     		subs	r6, r3, r5
 582 0042 B6B2     		uxth	r6, r6
 583              	.LVL61:
 416:.\Generated_Source\PSoC5/CapSense_1_CSHL.c ****         widget = 0u;    /* Negative difference - Do NOT calculate the Signal */
 584              		.loc 1 416 0
 585 0044 4FF00008 		mov	r8, #0
 586              	.LVL62:
 587              	.L44:
 419:.\Generated_Source\PSoC5/CapSense_1_CSHL.c ****     if((widget == 0u) && (tempRaw > (uint16) CapSense_1_NEGATIVE_NOISE_THRESHOLD))
 588              		.loc 1 419 0
 589 0048 B8F1000F 		cmp	r8, #0
 590 004c 10D1     		bne	.L45
 419:.\Generated_Source\PSoC5/CapSense_1_CSHL.c ****     if((widget == 0u) && (tempRaw > (uint16) CapSense_1_NEGATIVE_NOISE_THRESHOLD))
 591              		.loc 1 419 0 is_stmt 0 discriminator 1
 592 004e 142E     		cmp	r6, #20
 593 0050 0ED9     		bls	.L45
 421:.\Generated_Source\PSoC5/CapSense_1_CSHL.c ****         if(CapSense_1_lowBaselineResetCnt[sensor] >= CapSense_1_LOW_BASELINE_RESET)
 594              		.loc 1 421 0 is_stmt 1
 595 0052 224B     		ldr	r3, .L52+20
ARM GAS  C:\Users\JohnP\AppData\Local\Temp\ccMCOjex.s 			page 46


 596 0054 1B5D     		ldrb	r3, [r3, r4]	@ zero_extendqisi2
 597 0056 042B     		cmp	r3, #4
 598 0058 06D9     		bls	.L46
 423:.\Generated_Source\PSoC5/CapSense_1_CSHL.c ****             CapSense_1_BaseInit(sensor);
 599              		.loc 1 423 0
 600 005a 2046     		mov	r0, r4
 601 005c FFF7FEFF 		bl	CapSense_1_BaseInit
 602              	.LVL63:
 424:.\Generated_Source\PSoC5/CapSense_1_CSHL.c ****             CapSense_1_lowBaselineResetCnt[sensor] = 0u;
 603              		.loc 1 424 0
 604 0060 0022     		movs	r2, #0
 605 0062 1E4B     		ldr	r3, .L52+20
 606 0064 1A55     		strb	r2, [r3, r4]
 607 0066 19E0     		b	.L47
 608              	.L46:
 428:.\Generated_Source\PSoC5/CapSense_1_CSHL.c ****             CapSense_1_lowBaselineResetCnt[sensor]++;
 609              		.loc 1 428 0
 610 0068 0133     		adds	r3, r3, #1
 611 006a 1C4A     		ldr	r2, .L52+20
 612 006c 1355     		strb	r3, [r2, r4]
 613 006e 15E0     		b	.L47
 614              	.L45:
 435:.\Generated_Source\PSoC5/CapSense_1_CSHL.c ****             if ( (tempRaw <= (uint16) noiseThreshold) || 
 615              		.loc 1 435 0
 616 0070 B742     		cmp	r7, r6
 617 0072 04D2     		bcs	.L48
 435:.\Generated_Source\PSoC5/CapSense_1_CSHL.c ****             if ( (tempRaw <= (uint16) noiseThreshold) || 
 618              		.loc 1 435 0 is_stmt 0 discriminator 1
 619 0074 132E     		cmp	r6, #19
 620 0076 11D8     		bhi	.L47
 437:.\Generated_Source\PSoC5/CapSense_1_CSHL.c ****                    && (widget == 0u)))
 621              		.loc 1 437 0 is_stmt 1
 622 0078 B8F1000F 		cmp	r8, #0
 623 007c 0ED1     		bne	.L47
 624              	.L48:
 625              	.LVL64:
 442:.\Generated_Source\PSoC5/CapSense_1_CSHL.c ****                 calc |= (uint32) CapSense_1_sensorBaselineLow[sensor];
 626              		.loc 1 442 0
 627 007e 184A     		ldr	r2, .L52+24
 628 0080 115D     		ldrb	r1, [r2, r4]	@ zero_extendqisi2
 629 0082 41EA0321 		orr	r1, r1, r3, lsl #8
 630              	.LVL65:
 445:.\Generated_Source\PSoC5/CapSense_1_CSHL.c ****                 calc += filteredRawData;
 631              		.loc 1 445 0
 632 0086 0D44     		add	r5, r5, r1
 633              	.LVL66:
 448:.\Generated_Source\PSoC5/CapSense_1_CSHL.c ****                 calc -= CapSense_1_sensorBaseline[sensor];
 634              		.loc 1 448 0
 635 0088 EB1A     		subs	r3, r5, r3
 636              	.LVL67:
 451:.\Generated_Source\PSoC5/CapSense_1_CSHL.c ****                 CapSense_1_sensorBaseline[sensor] = ((uint16) (calc >> 8u));
 637              		.loc 1 451 0
 638 008a C3F30F20 		ubfx	r0, r3, #8, #16
 639 008e 1249     		ldr	r1, .L52+16
 640 0090 21F81400 		strh	r0, [r1, r4, lsl #1]	@ movhi
 452:.\Generated_Source\PSoC5/CapSense_1_CSHL.c ****                 CapSense_1_sensorBaselineLow[sensor] = ((uint8) calc);
 641              		.loc 1 452 0
ARM GAS  C:\Users\JohnP\AppData\Local\Temp\ccMCOjex.s 			page 47


 642 0094 1355     		strb	r3, [r2, r4]
 454:.\Generated_Source\PSoC5/CapSense_1_CSHL.c ****                 CapSense_1_lowBaselineResetCnt[sensor] = 0u;
 643              		.loc 1 454 0
 644 0096 0022     		movs	r2, #0
 645 0098 104B     		ldr	r3, .L52+20
 646              	.LVL68:
 647 009a 1A55     		strb	r2, [r3, r4]
 648              	.L47:
 461:.\Generated_Source\PSoC5/CapSense_1_CSHL.c ****     if((tempRaw > (uint16) noiseThreshold) && (widget != 0u))
 649              		.loc 1 461 0
 650 009c B742     		cmp	r7, r6
 651 009e 0DD2     		bcs	.L49
 461:.\Generated_Source\PSoC5/CapSense_1_CSHL.c ****     if((tempRaw > (uint16) noiseThreshold) && (widget != 0u))
 652              		.loc 1 461 0 is_stmt 0 discriminator 1
 653 00a0 B8F1000F 		cmp	r8, #0
 654 00a4 0AD0     		beq	.L49
 465:.\Generated_Source\PSoC5/CapSense_1_CSHL.c ****             if (tempRaw > 0xFFu)
 655              		.loc 1 465 0 is_stmt 1
 656 00a6 FF2E     		cmp	r6, #255
 657 00a8 04D9     		bls	.L50
 467:.\Generated_Source\PSoC5/CapSense_1_CSHL.c ****                 CapSense_1_sensorSignal[sensor] = 0xFFu;
 658              		.loc 1 467 0
 659 00aa FF22     		movs	r2, #255
 660 00ac 0D4B     		ldr	r3, .L52+28
 661 00ae 1A55     		strb	r2, [r3, r4]
 662 00b0 BDE8F081 		pop	{r4, r5, r6, r7, r8, pc}
 663              	.LVL69:
 664              	.L50:
 471:.\Generated_Source\PSoC5/CapSense_1_CSHL.c ****                 CapSense_1_sensorSignal[sensor] = ((uint8) tempRaw);
 665              		.loc 1 471 0
 666 00b4 0B4B     		ldr	r3, .L52+28
 667 00b6 1E55     		strb	r6, [r3, r4]
 668 00b8 BDE8F081 		pop	{r4, r5, r6, r7, r8, pc}
 669              	.LVL70:
 670              	.L49:
 480:.\Generated_Source\PSoC5/CapSense_1_CSHL.c ****         CapSense_1_sensorSignal[sensor] = 0u;
 671              		.loc 1 480 0
 672 00bc 0022     		movs	r2, #0
 673 00be 094B     		ldr	r3, .L52+28
 674 00c0 1A55     		strb	r2, [r3, r4]
 675 00c2 BDE8F081 		pop	{r4, r5, r6, r7, r8, pc}
 676              	.LVL71:
 677              	.L53:
 678 00c6 00BF     		.align	2
 679              	.L52:
 680 00c8 00000000 		.word	CapSense_1_widgetNumber
 681 00cc 00000000 		.word	.LANCHOR0
 682 00d0 00000000 		.word	CapSense_1_rawFilterData1
 683 00d4 00000000 		.word	CapSense_1_sensorRaw
 684 00d8 00000000 		.word	CapSense_1_sensorBaseline
 685 00dc 00000000 		.word	CapSense_1_lowBaselineResetCnt
 686 00e0 00000000 		.word	CapSense_1_sensorBaselineLow
 687 00e4 00000000 		.word	CapSense_1_sensorSignal
 688              		.cfi_endproc
 689              	.LFE4:
 690              		.size	CapSense_1_UpdateSensorBaseline, .-CapSense_1_UpdateSensorBaseline
 691              		.section	.text.CapSense_1_UpdateEnabledBaselines,"ax",%progbits
ARM GAS  C:\Users\JohnP\AppData\Local\Temp\ccMCOjex.s 			page 48


 692              		.align	2
 693              		.global	CapSense_1_UpdateEnabledBaselines
 694              		.thumb
 695              		.thumb_func
 696              		.type	CapSense_1_UpdateEnabledBaselines, %function
 697              	CapSense_1_UpdateEnabledBaselines:
 698              	.LFB5:
 521:.\Generated_Source\PSoC5/CapSense_1_CSHL.c **** {
 699              		.loc 1 521 0
 700              		.cfi_startproc
 701              		@ args = 0, pretend = 0, frame = 0
 702              		@ frame_needed = 0, uses_anonymous_args = 0
 703 0000 70B5     		push	{r4, r5, r6, lr}
 704              		.cfi_def_cfa_offset 16
 705              		.cfi_offset 4, -16
 706              		.cfi_offset 5, -12
 707              		.cfi_offset 6, -8
 708              		.cfi_offset 14, -4
 709              	.LVL72:
 526:.\Generated_Source\PSoC5/CapSense_1_CSHL.c ****     for(i = 0u; i < CapSense_1_TOTAL_SENSOR_COUNT; i++)
 710              		.loc 1 526 0
 711 0002 0024     		movs	r4, #0
 529:.\Generated_Source\PSoC5/CapSense_1_CSHL.c ****         enMask = (uint8)(0x01u << (i & 0x07u));
 712              		.loc 1 529 0
 713 0004 0126     		movs	r6, #1
 530:.\Generated_Source\PSoC5/CapSense_1_CSHL.c ****         if((CapSense_1_sensorEnableMask[pos] & enMask) != 0u)
 714              		.loc 1 530 0
 715 0006 094D     		ldr	r5, .L58
 526:.\Generated_Source\PSoC5/CapSense_1_CSHL.c ****     for(i = 0u; i < CapSense_1_TOTAL_SENSOR_COUNT; i++)
 716              		.loc 1 526 0
 717 0008 0CE0     		b	.L55
 718              	.LVL73:
 719              	.L57:
 528:.\Generated_Source\PSoC5/CapSense_1_CSHL.c ****         pos = (i >> 3u);
 720              		.loc 1 528 0
 721 000a E308     		lsrs	r3, r4, #3
 529:.\Generated_Source\PSoC5/CapSense_1_CSHL.c ****         enMask = (uint8)(0x01u << (i & 0x07u));
 722              		.loc 1 529 0
 723 000c 04F00702 		and	r2, r4, #7
 724 0010 06FA02F2 		lsl	r2, r6, r2
 725              	.LVL74:
 530:.\Generated_Source\PSoC5/CapSense_1_CSHL.c ****         if((CapSense_1_sensorEnableMask[pos] & enMask) != 0u)
 726              		.loc 1 530 0
 727 0014 EB5C     		ldrb	r3, [r5, r3]	@ zero_extendqisi2
 728 0016 1A42     		tst	r2, r3
 729 0018 02D0     		beq	.L56
 532:.\Generated_Source\PSoC5/CapSense_1_CSHL.c ****             CapSense_1_UpdateSensorBaseline(i);
 730              		.loc 1 532 0
 731 001a 2046     		mov	r0, r4
 732 001c FFF7FEFF 		bl	CapSense_1_UpdateSensorBaseline
 733              	.LVL75:
 734              	.L56:
 526:.\Generated_Source\PSoC5/CapSense_1_CSHL.c ****     for(i = 0u; i < CapSense_1_TOTAL_SENSOR_COUNT; i++)
 735              		.loc 1 526 0
 736 0020 0134     		adds	r4, r4, #1
 737              	.LVL76:
 738 0022 E4B2     		uxtb	r4, r4
ARM GAS  C:\Users\JohnP\AppData\Local\Temp\ccMCOjex.s 			page 49


 739              	.LVL77:
 740              	.L55:
 526:.\Generated_Source\PSoC5/CapSense_1_CSHL.c ****     for(i = 0u; i < CapSense_1_TOTAL_SENSOR_COUNT; i++)
 741              		.loc 1 526 0 is_stmt 0 discriminator 1
 742 0024 002C     		cmp	r4, #0
 743 0026 F0D0     		beq	.L57
 535:.\Generated_Source\PSoC5/CapSense_1_CSHL.c **** }
 744              		.loc 1 535 0 is_stmt 1
 745 0028 70BD     		pop	{r4, r5, r6, pc}
 746              	.LVL78:
 747              	.L59:
 748 002a 00BF     		.align	2
 749              	.L58:
 750 002c 00000000 		.word	CapSense_1_sensorEnableMask
 751              		.cfi_endproc
 752              	.LFE5:
 753              		.size	CapSense_1_UpdateEnabledBaselines, .-CapSense_1_UpdateEnabledBaselines
 754              		.global	CapSense_1_numberOfSensors
 755              		.global	CapSense_1_rawDataIndex
 756              		.global	CapSense_1_debounceCounter
 757              		.global	CapSense_1_debounce
 758              		.global	CapSense_1_hysteresis
 759              		.global	CapSense_1_noiseThreshold
 760              		.global	CapSense_1_fingerThreshold
 761              		.comm	CapSense_1_lowBaselineResetCnt,1,4
 762              		.comm	CapSense_1_sensorOnMask,1,4
 763              		.comm	CapSense_1_sensorSignal,1,4
 764              		.comm	CapSense_1_sensorBaselineLow,1,4
 765              		.comm	CapSense_1_sensorBaseline,2,4
 766              		.comm	CapSense_1_rawFilterData1,2,4
 767              		.section	.rodata
 768              		.align	2
 769              		.type	CapSense_1_numberOfSensors, %object
 770              		.size	CapSense_1_numberOfSensors, 1
 771              	CapSense_1_numberOfSensors:
 772 0000 01       		.byte	1
 773 0001 000000   		.space	3
 774              		.type	CapSense_1_rawDataIndex, %object
 775              		.size	CapSense_1_rawDataIndex, 1
 776              	CapSense_1_rawDataIndex:
 777 0004 00       		.space	1
 778 0005 000000   		.data
 779              		.align	2
 780              		.set	.LANCHOR0,. + 0
 781              		.type	CapSense_1_debounce, %object
 782              		.size	CapSense_1_debounce, 1
 783              	CapSense_1_debounce:
 784 0000 01       		.byte	1
 785 0001 000000   		.space	3
 786              		.type	CapSense_1_fingerThreshold, %object
 787              		.size	CapSense_1_fingerThreshold, 1
 788              	CapSense_1_fingerThreshold:
 789 0004 64       		.byte	100
 790 0005 000000   		.space	3
 791              		.type	CapSense_1_hysteresis, %object
 792              		.size	CapSense_1_hysteresis, 1
 793              	CapSense_1_hysteresis:
ARM GAS  C:\Users\JohnP\AppData\Local\Temp\ccMCOjex.s 			page 50


 794 0008 0A       		.byte	10
 795 0009 000000   		.space	3
 796              		.type	CapSense_1_noiseThreshold, %object
 797              		.size	CapSense_1_noiseThreshold, 1
 798              	CapSense_1_noiseThreshold:
 799 000c 14       		.byte	20
 800 000d 000000   		.bss
 801              		.align	2
 802              		.set	.LANCHOR1,. + 0
 803              		.type	CapSense_1_debounceCounter, %object
 804              		.size	CapSense_1_debounceCounter, 2
 805              	CapSense_1_debounceCounter:
 806 0000 0000     		.space	2
 807 0002 0000     		.text
 808              	.Letext0:
 809              		.file 2 ".\\Generated_Source\\PSoC5\\cytypes.h"
 810              		.file 3 ".\\Generated_Source\\PSoC5\\CapSense_1.h"
 811              		.file 4 ".\\Generated_Source\\PSoC5\\CapSense_1_CSHL.h"