ARM GAS  C:\Users\JohnP\AppData\Local\Temp\ccHy6iik.s 			page 1


   1              		.syntax unified
   2              		.cpu cortex-m3
   3              		.fpu softvfp
   4              		.eabi_attribute 20, 1
   5              		.eabi_attribute 21, 1
   6              		.eabi_attribute 23, 3
   7              		.eabi_attribute 24, 1
   8              		.eabi_attribute 25, 1
   9              		.eabi_attribute 26, 1
  10              		.eabi_attribute 30, 1
  11              		.eabi_attribute 34, 1
  12              		.eabi_attribute 18, 4
  13              		.thumb
  14              		.file	"Compint.c"
  15              		.text
  16              	.Ltext0:
  17              		.cfi_sections	.debug_frame
  18              		.section	.text.Compint_Interrupt,"ax",%progbits
  19              		.align	2
  20              		.global	Compint_Interrupt
  21              		.thumb
  22              		.thumb_func
  23              		.type	Compint_Interrupt, %function
  24              	Compint_Interrupt:
  25              	.LFB3:
  26              		.file 1 ".\\Generated_Source\\PSoC5\\Compint.c"
   1:.\Generated_Source\PSoC5/Compint.c **** /*******************************************************************************
   2:.\Generated_Source\PSoC5/Compint.c **** * File Name: Compint.c  
   3:.\Generated_Source\PSoC5/Compint.c **** * Version 1.70
   4:.\Generated_Source\PSoC5/Compint.c **** *
   5:.\Generated_Source\PSoC5/Compint.c **** *  Description:
   6:.\Generated_Source\PSoC5/Compint.c **** *   API for controlling the state of an interrupt.
   7:.\Generated_Source\PSoC5/Compint.c **** *
   8:.\Generated_Source\PSoC5/Compint.c **** *
   9:.\Generated_Source\PSoC5/Compint.c **** *  Note:
  10:.\Generated_Source\PSoC5/Compint.c **** *
  11:.\Generated_Source\PSoC5/Compint.c **** ********************************************************************************
  12:.\Generated_Source\PSoC5/Compint.c **** * Copyright 2008-2015, Cypress Semiconductor Corporation.  All rights reserved.
  13:.\Generated_Source\PSoC5/Compint.c **** * You may use this file only in accordance with the license, terms, conditions, 
  14:.\Generated_Source\PSoC5/Compint.c **** * disclaimers, and limitations in the end user license agreement accompanying 
  15:.\Generated_Source\PSoC5/Compint.c **** * the software package with which this file was provided.
  16:.\Generated_Source\PSoC5/Compint.c **** *******************************************************************************/
  17:.\Generated_Source\PSoC5/Compint.c **** 
  18:.\Generated_Source\PSoC5/Compint.c **** 
  19:.\Generated_Source\PSoC5/Compint.c **** #include <cydevice_trm.h>
  20:.\Generated_Source\PSoC5/Compint.c **** #include <CyLib.h>
  21:.\Generated_Source\PSoC5/Compint.c **** #include <Compint.h>
  22:.\Generated_Source\PSoC5/Compint.c **** 
  23:.\Generated_Source\PSoC5/Compint.c **** #if !defined(Compint__REMOVED) /* Check for removal by optimization */
  24:.\Generated_Source\PSoC5/Compint.c **** 
  25:.\Generated_Source\PSoC5/Compint.c **** /*******************************************************************************
  26:.\Generated_Source\PSoC5/Compint.c **** *  Place your includes, defines and code here 
  27:.\Generated_Source\PSoC5/Compint.c **** ********************************************************************************/
  28:.\Generated_Source\PSoC5/Compint.c **** /* `#START Compint_intc` */
  29:.\Generated_Source\PSoC5/Compint.c **** #include "system.h"
  30:.\Generated_Source\PSoC5/Compint.c **** extern float heartrate;
  31:.\Generated_Source\PSoC5/Compint.c **** extern int timer_status;   /* 1 for on, 0 for off */
ARM GAS  C:\Users\JohnP\AppData\Local\Temp\ccHy6iik.s 			page 2


  32:.\Generated_Source\PSoC5/Compint.c **** extern int timer_value;
  33:.\Generated_Source\PSoC5/Compint.c **** int startCounts = 0;
  34:.\Generated_Source\PSoC5/Compint.c **** int endCounts = 0;
  35:.\Generated_Source\PSoC5/Compint.c **** /* `#END` */
  36:.\Generated_Source\PSoC5/Compint.c **** 
  37:.\Generated_Source\PSoC5/Compint.c **** #ifndef CYINT_IRQ_BASE
  38:.\Generated_Source\PSoC5/Compint.c **** #define CYINT_IRQ_BASE      16
  39:.\Generated_Source\PSoC5/Compint.c **** #endif /* CYINT_IRQ_BASE */
  40:.\Generated_Source\PSoC5/Compint.c **** #ifndef CYINT_VECT_TABLE
  41:.\Generated_Source\PSoC5/Compint.c **** #define CYINT_VECT_TABLE    ((cyisraddress **) CYREG_NVIC_VECT_OFFSET)
  42:.\Generated_Source\PSoC5/Compint.c **** #endif /* CYINT_VECT_TABLE */
  43:.\Generated_Source\PSoC5/Compint.c **** 
  44:.\Generated_Source\PSoC5/Compint.c **** /* Declared in startup, used to set unused interrupts to. */
  45:.\Generated_Source\PSoC5/Compint.c **** CY_ISR_PROTO(IntDefaultHandler);
  46:.\Generated_Source\PSoC5/Compint.c **** 
  47:.\Generated_Source\PSoC5/Compint.c **** 
  48:.\Generated_Source\PSoC5/Compint.c **** /*******************************************************************************
  49:.\Generated_Source\PSoC5/Compint.c **** * Function Name: Compint_Start
  50:.\Generated_Source\PSoC5/Compint.c **** ********************************************************************************
  51:.\Generated_Source\PSoC5/Compint.c **** *
  52:.\Generated_Source\PSoC5/Compint.c **** * Summary:
  53:.\Generated_Source\PSoC5/Compint.c **** *  Set up the interrupt and enable it. This function disables the interrupt, 
  54:.\Generated_Source\PSoC5/Compint.c **** *  sets the default interrupt vector, sets the priority from the value in the
  55:.\Generated_Source\PSoC5/Compint.c **** *  Design Wide Resources Interrupt Editor, then enables the interrupt to the 
  56:.\Generated_Source\PSoC5/Compint.c **** *  interrupt controller.
  57:.\Generated_Source\PSoC5/Compint.c **** *
  58:.\Generated_Source\PSoC5/Compint.c **** * Parameters:  
  59:.\Generated_Source\PSoC5/Compint.c **** *   None
  60:.\Generated_Source\PSoC5/Compint.c **** *
  61:.\Generated_Source\PSoC5/Compint.c **** * Return:
  62:.\Generated_Source\PSoC5/Compint.c **** *   None
  63:.\Generated_Source\PSoC5/Compint.c **** *
  64:.\Generated_Source\PSoC5/Compint.c **** *******************************************************************************/
  65:.\Generated_Source\PSoC5/Compint.c **** void Compint_Start(void)
  66:.\Generated_Source\PSoC5/Compint.c **** {
  67:.\Generated_Source\PSoC5/Compint.c ****     /* For all we know the interrupt is active. */
  68:.\Generated_Source\PSoC5/Compint.c ****     Compint_Disable();
  69:.\Generated_Source\PSoC5/Compint.c **** 
  70:.\Generated_Source\PSoC5/Compint.c ****     /* Set the ISR to point to the Compint Interrupt. */
  71:.\Generated_Source\PSoC5/Compint.c ****     Compint_SetVector(&Compint_Interrupt);
  72:.\Generated_Source\PSoC5/Compint.c **** 
  73:.\Generated_Source\PSoC5/Compint.c ****     /* Set the priority. */
  74:.\Generated_Source\PSoC5/Compint.c ****     Compint_SetPriority((uint8)Compint_INTC_PRIOR_NUMBER);
  75:.\Generated_Source\PSoC5/Compint.c **** 
  76:.\Generated_Source\PSoC5/Compint.c ****     /* Enable it. */
  77:.\Generated_Source\PSoC5/Compint.c ****     Compint_Enable();
  78:.\Generated_Source\PSoC5/Compint.c **** }
  79:.\Generated_Source\PSoC5/Compint.c **** 
  80:.\Generated_Source\PSoC5/Compint.c **** 
  81:.\Generated_Source\PSoC5/Compint.c **** /*******************************************************************************
  82:.\Generated_Source\PSoC5/Compint.c **** * Function Name: Compint_StartEx
  83:.\Generated_Source\PSoC5/Compint.c **** ********************************************************************************
  84:.\Generated_Source\PSoC5/Compint.c **** *
  85:.\Generated_Source\PSoC5/Compint.c **** * Summary:
  86:.\Generated_Source\PSoC5/Compint.c **** *  Sets up the interrupt and enables it. This function disables the interrupt,
  87:.\Generated_Source\PSoC5/Compint.c **** *  sets the interrupt vector based on the address passed in, sets the priority 
  88:.\Generated_Source\PSoC5/Compint.c **** *  from the value in the Design Wide Resources Interrupt Editor, then enables 
ARM GAS  C:\Users\JohnP\AppData\Local\Temp\ccHy6iik.s 			page 3


  89:.\Generated_Source\PSoC5/Compint.c **** *  the interrupt to the interrupt controller.
  90:.\Generated_Source\PSoC5/Compint.c **** *  
  91:.\Generated_Source\PSoC5/Compint.c **** *  When defining ISR functions, the CY_ISR and CY_ISR_PROTO macros should be 
  92:.\Generated_Source\PSoC5/Compint.c **** *  used to provide consistent definition across compilers:
  93:.\Generated_Source\PSoC5/Compint.c **** *  
  94:.\Generated_Source\PSoC5/Compint.c **** *  Function definition example:
  95:.\Generated_Source\PSoC5/Compint.c **** *   CY_ISR(MyISR)
  96:.\Generated_Source\PSoC5/Compint.c **** *   {
  97:.\Generated_Source\PSoC5/Compint.c **** *   }
  98:.\Generated_Source\PSoC5/Compint.c **** *   Function prototype example:
  99:.\Generated_Source\PSoC5/Compint.c **** *   CY_ISR_PROTO(MyISR);
 100:.\Generated_Source\PSoC5/Compint.c **** *
 101:.\Generated_Source\PSoC5/Compint.c **** * Parameters:  
 102:.\Generated_Source\PSoC5/Compint.c **** *   address: Address of the ISR to set in the interrupt vector table.
 103:.\Generated_Source\PSoC5/Compint.c **** *
 104:.\Generated_Source\PSoC5/Compint.c **** * Return:
 105:.\Generated_Source\PSoC5/Compint.c **** *   None
 106:.\Generated_Source\PSoC5/Compint.c **** *
 107:.\Generated_Source\PSoC5/Compint.c **** *******************************************************************************/
 108:.\Generated_Source\PSoC5/Compint.c **** void Compint_StartEx(cyisraddress address)
 109:.\Generated_Source\PSoC5/Compint.c **** {
 110:.\Generated_Source\PSoC5/Compint.c ****     /* For all we know the interrupt is active. */
 111:.\Generated_Source\PSoC5/Compint.c ****     Compint_Disable();
 112:.\Generated_Source\PSoC5/Compint.c **** 
 113:.\Generated_Source\PSoC5/Compint.c ****     /* Set the ISR to point to the Compint Interrupt. */
 114:.\Generated_Source\PSoC5/Compint.c ****     Compint_SetVector(address);
 115:.\Generated_Source\PSoC5/Compint.c **** 
 116:.\Generated_Source\PSoC5/Compint.c ****     /* Set the priority. */
 117:.\Generated_Source\PSoC5/Compint.c ****     Compint_SetPriority((uint8)Compint_INTC_PRIOR_NUMBER);
 118:.\Generated_Source\PSoC5/Compint.c **** 
 119:.\Generated_Source\PSoC5/Compint.c ****     /* Enable it. */
 120:.\Generated_Source\PSoC5/Compint.c ****     Compint_Enable();
 121:.\Generated_Source\PSoC5/Compint.c **** }
 122:.\Generated_Source\PSoC5/Compint.c **** 
 123:.\Generated_Source\PSoC5/Compint.c **** 
 124:.\Generated_Source\PSoC5/Compint.c **** /*******************************************************************************
 125:.\Generated_Source\PSoC5/Compint.c **** * Function Name: Compint_Stop
 126:.\Generated_Source\PSoC5/Compint.c **** ********************************************************************************
 127:.\Generated_Source\PSoC5/Compint.c **** *
 128:.\Generated_Source\PSoC5/Compint.c **** * Summary:
 129:.\Generated_Source\PSoC5/Compint.c **** *   Disables and removes the interrupt.
 130:.\Generated_Source\PSoC5/Compint.c **** *
 131:.\Generated_Source\PSoC5/Compint.c **** * Parameters:  
 132:.\Generated_Source\PSoC5/Compint.c **** *   None
 133:.\Generated_Source\PSoC5/Compint.c **** *
 134:.\Generated_Source\PSoC5/Compint.c **** * Return:
 135:.\Generated_Source\PSoC5/Compint.c **** *   None
 136:.\Generated_Source\PSoC5/Compint.c **** *
 137:.\Generated_Source\PSoC5/Compint.c **** *******************************************************************************/
 138:.\Generated_Source\PSoC5/Compint.c **** void Compint_Stop(void)
 139:.\Generated_Source\PSoC5/Compint.c **** {
 140:.\Generated_Source\PSoC5/Compint.c ****     /* Disable this interrupt. */
 141:.\Generated_Source\PSoC5/Compint.c ****     Compint_Disable();
 142:.\Generated_Source\PSoC5/Compint.c **** 
 143:.\Generated_Source\PSoC5/Compint.c ****     /* Set the ISR to point to the passive one. */
 144:.\Generated_Source\PSoC5/Compint.c ****     Compint_SetVector(&IntDefaultHandler);
 145:.\Generated_Source\PSoC5/Compint.c **** }
ARM GAS  C:\Users\JohnP\AppData\Local\Temp\ccHy6iik.s 			page 4


 146:.\Generated_Source\PSoC5/Compint.c **** 
 147:.\Generated_Source\PSoC5/Compint.c **** 
 148:.\Generated_Source\PSoC5/Compint.c **** /*******************************************************************************
 149:.\Generated_Source\PSoC5/Compint.c **** * Function Name: Compint_Interrupt
 150:.\Generated_Source\PSoC5/Compint.c **** ********************************************************************************
 151:.\Generated_Source\PSoC5/Compint.c **** *
 152:.\Generated_Source\PSoC5/Compint.c **** * Summary:
 153:.\Generated_Source\PSoC5/Compint.c **** *   The default Interrupt Service Routine for Compint.
 154:.\Generated_Source\PSoC5/Compint.c **** *
 155:.\Generated_Source\PSoC5/Compint.c **** *   Add custom code between the coments to keep the next version of this file
 156:.\Generated_Source\PSoC5/Compint.c **** *   from over writting your code.
 157:.\Generated_Source\PSoC5/Compint.c **** *
 158:.\Generated_Source\PSoC5/Compint.c **** * Parameters:  
 159:.\Generated_Source\PSoC5/Compint.c **** *
 160:.\Generated_Source\PSoC5/Compint.c **** * Return:
 161:.\Generated_Source\PSoC5/Compint.c **** *   None
 162:.\Generated_Source\PSoC5/Compint.c **** *
 163:.\Generated_Source\PSoC5/Compint.c **** *******************************************************************************/
 164:.\Generated_Source\PSoC5/Compint.c **** CY_ISR(Compint_Interrupt)
 165:.\Generated_Source\PSoC5/Compint.c **** {
  27              		.loc 1 165 0
  28              		.cfi_startproc
  29              		@ args = 0, pretend = 0, frame = 0
  30              		@ frame_needed = 0, uses_anonymous_args = 0
  31 0000 10B5     		push	{r4, lr}
  32              		.cfi_def_cfa_offset 8
  33              		.cfi_offset 4, -8
  34              		.cfi_offset 14, -4
 166:.\Generated_Source\PSoC5/Compint.c ****     /*  Place your Interrupt code here. */
 167:.\Generated_Source\PSoC5/Compint.c ****     /* `#START Compint_Interrupt` */
 168:.\Generated_Source\PSoC5/Compint.c ****     endCounts = startCounts;
  35              		.loc 1 168 0
  36 0002 034C     		ldr	r4, .L2
  37 0004 6368     		ldr	r3, [r4, #4]
  38 0006 2360     		str	r3, [r4]
 169:.\Generated_Source\PSoC5/Compint.c ****     startCounts = HeartbeatCounter_ReadCounter();
  39              		.loc 1 169 0
  40 0008 FFF7FEFF 		bl	HeartbeatCounter_ReadCounter
  41              	.LVL0:
  42 000c 6060     		str	r0, [r4, #4]
  43 000e 10BD     		pop	{r4, pc}
  44              	.L3:
  45              		.align	2
  46              	.L2:
  47 0010 00000000 		.word	.LANCHOR0
  48              		.cfi_endproc
  49              	.LFE3:
  50              		.size	Compint_Interrupt, .-Compint_Interrupt
  51              		.section	.text.Compint_SetVector,"ax",%progbits
  52              		.align	2
  53              		.global	Compint_SetVector
  54              		.thumb
  55              		.thumb_func
  56              		.type	Compint_SetVector, %function
  57              	Compint_SetVector:
  58              	.LFB4:
 170:.\Generated_Source\PSoC5/Compint.c **** //    TERMINAL_WriteNumber(heartrate);
ARM GAS  C:\Users\JohnP\AppData\Local\Temp\ccHy6iik.s 			page 5


 171:.\Generated_Source\PSoC5/Compint.c ****     /*
 172:.\Generated_Source\PSoC5/Compint.c ****     Compint_ClearPending();
 173:.\Generated_Source\PSoC5/Compint.c ****     if(timer_status == 0) { // timer is off
 174:.\Generated_Source\PSoC5/Compint.c ****         startCounts = HeartbeatCounter_ReadCounter();
 175:.\Generated_Source\PSoC5/Compint.c ****         timer_status = 1;
 176:.\Generated_Source\PSoC5/Compint.c ****     } else {                // timer is on at 24MHz
 177:.\Generated_Source\PSoC5/Compint.c ****         endCounts = HeartbeatCounter_ReadCounter();
 178:.\Generated_Source\PSoC5/Compint.c **** //        heartrate = startCounts-HeartbeatCounter_ReadCounter();
 179:.\Generated_Source\PSoC5/Compint.c ****         timer_status = 0;
 180:.\Generated_Source\PSoC5/Compint.c ****     }
 181:.\Generated_Source\PSoC5/Compint.c ****     */
 182:.\Generated_Source\PSoC5/Compint.c ****     /* `#END` */
 183:.\Generated_Source\PSoC5/Compint.c **** }
 184:.\Generated_Source\PSoC5/Compint.c **** 
 185:.\Generated_Source\PSoC5/Compint.c **** 
 186:.\Generated_Source\PSoC5/Compint.c **** /*******************************************************************************
 187:.\Generated_Source\PSoC5/Compint.c **** * Function Name: Compint_SetVector
 188:.\Generated_Source\PSoC5/Compint.c **** ********************************************************************************
 189:.\Generated_Source\PSoC5/Compint.c **** *
 190:.\Generated_Source\PSoC5/Compint.c **** * Summary:
 191:.\Generated_Source\PSoC5/Compint.c **** *   Change the ISR vector for the Interrupt. Note calling Compint_Start
 192:.\Generated_Source\PSoC5/Compint.c **** *   will override any effect this method would have had. To set the vector 
 193:.\Generated_Source\PSoC5/Compint.c **** *   before the component has been started use Compint_StartEx instead.
 194:.\Generated_Source\PSoC5/Compint.c **** * 
 195:.\Generated_Source\PSoC5/Compint.c **** *   When defining ISR functions, the CY_ISR and CY_ISR_PROTO macros should be 
 196:.\Generated_Source\PSoC5/Compint.c **** *   used to provide consistent definition across compilers:
 197:.\Generated_Source\PSoC5/Compint.c **** *
 198:.\Generated_Source\PSoC5/Compint.c **** *   Function definition example:
 199:.\Generated_Source\PSoC5/Compint.c **** *   CY_ISR(MyISR)
 200:.\Generated_Source\PSoC5/Compint.c **** *   {
 201:.\Generated_Source\PSoC5/Compint.c **** *   }
 202:.\Generated_Source\PSoC5/Compint.c **** *
 203:.\Generated_Source\PSoC5/Compint.c **** *   Function prototype example:
 204:.\Generated_Source\PSoC5/Compint.c **** *     CY_ISR_PROTO(MyISR);
 205:.\Generated_Source\PSoC5/Compint.c **** *
 206:.\Generated_Source\PSoC5/Compint.c **** * Parameters:
 207:.\Generated_Source\PSoC5/Compint.c **** *   address: Address of the ISR to set in the interrupt vector table.
 208:.\Generated_Source\PSoC5/Compint.c **** *
 209:.\Generated_Source\PSoC5/Compint.c **** * Return:
 210:.\Generated_Source\PSoC5/Compint.c **** *   None
 211:.\Generated_Source\PSoC5/Compint.c **** *
 212:.\Generated_Source\PSoC5/Compint.c **** *******************************************************************************/
 213:.\Generated_Source\PSoC5/Compint.c **** void Compint_SetVector(cyisraddress address)
 214:.\Generated_Source\PSoC5/Compint.c **** {
  59              		.loc 1 214 0
  60              		.cfi_startproc
  61              		@ args = 0, pretend = 0, frame = 0
  62              		@ frame_needed = 0, uses_anonymous_args = 0
  63              		@ link register save eliminated.
  64              	.LVL1:
 215:.\Generated_Source\PSoC5/Compint.c ****     cyisraddress * ramVectorTable;
 216:.\Generated_Source\PSoC5/Compint.c **** 
 217:.\Generated_Source\PSoC5/Compint.c ****     ramVectorTable = (cyisraddress *) *CYINT_VECT_TABLE;
  65              		.loc 1 217 0
  66 0000 014B     		ldr	r3, .L5
  67 0002 1B68     		ldr	r3, [r3]
  68              	.LVL2:
ARM GAS  C:\Users\JohnP\AppData\Local\Temp\ccHy6iik.s 			page 6


 218:.\Generated_Source\PSoC5/Compint.c **** 
 219:.\Generated_Source\PSoC5/Compint.c ****     ramVectorTable[CYINT_IRQ_BASE + (uint32)Compint__INTC_NUMBER] = address;
  69              		.loc 1 219 0
  70 0004 1864     		str	r0, [r3, #64]
  71 0006 7047     		bx	lr
  72              	.L6:
  73              		.align	2
  74              	.L5:
  75 0008 08ED00E0 		.word	-536810232
  76              		.cfi_endproc
  77              	.LFE4:
  78              		.size	Compint_SetVector, .-Compint_SetVector
  79              		.section	.text.Compint_GetVector,"ax",%progbits
  80              		.align	2
  81              		.global	Compint_GetVector
  82              		.thumb
  83              		.thumb_func
  84              		.type	Compint_GetVector, %function
  85              	Compint_GetVector:
  86              	.LFB5:
 220:.\Generated_Source\PSoC5/Compint.c **** }
 221:.\Generated_Source\PSoC5/Compint.c **** 
 222:.\Generated_Source\PSoC5/Compint.c **** 
 223:.\Generated_Source\PSoC5/Compint.c **** /*******************************************************************************
 224:.\Generated_Source\PSoC5/Compint.c **** * Function Name: Compint_GetVector
 225:.\Generated_Source\PSoC5/Compint.c **** ********************************************************************************
 226:.\Generated_Source\PSoC5/Compint.c **** *
 227:.\Generated_Source\PSoC5/Compint.c **** * Summary:
 228:.\Generated_Source\PSoC5/Compint.c **** *   Gets the "address" of the current ISR vector for the Interrupt.
 229:.\Generated_Source\PSoC5/Compint.c **** *
 230:.\Generated_Source\PSoC5/Compint.c **** * Parameters:
 231:.\Generated_Source\PSoC5/Compint.c **** *   None
 232:.\Generated_Source\PSoC5/Compint.c **** *
 233:.\Generated_Source\PSoC5/Compint.c **** * Return:
 234:.\Generated_Source\PSoC5/Compint.c **** *   Address of the ISR in the interrupt vector table.
 235:.\Generated_Source\PSoC5/Compint.c **** *
 236:.\Generated_Source\PSoC5/Compint.c **** *******************************************************************************/
 237:.\Generated_Source\PSoC5/Compint.c **** cyisraddress Compint_GetVector(void)
 238:.\Generated_Source\PSoC5/Compint.c **** {
  87              		.loc 1 238 0
  88              		.cfi_startproc
  89              		@ args = 0, pretend = 0, frame = 0
  90              		@ frame_needed = 0, uses_anonymous_args = 0
  91              		@ link register save eliminated.
 239:.\Generated_Source\PSoC5/Compint.c ****     cyisraddress * ramVectorTable;
 240:.\Generated_Source\PSoC5/Compint.c **** 
 241:.\Generated_Source\PSoC5/Compint.c ****     ramVectorTable = (cyisraddress *) *CYINT_VECT_TABLE;
  92              		.loc 1 241 0
  93 0000 014B     		ldr	r3, .L8
  94 0002 1B68     		ldr	r3, [r3]
  95              	.LVL3:
 242:.\Generated_Source\PSoC5/Compint.c **** 
 243:.\Generated_Source\PSoC5/Compint.c ****     return ramVectorTable[CYINT_IRQ_BASE + (uint32)Compint__INTC_NUMBER];
 244:.\Generated_Source\PSoC5/Compint.c **** }
  96              		.loc 1 244 0
  97 0004 186C     		ldr	r0, [r3, #64]
  98 0006 7047     		bx	lr
ARM GAS  C:\Users\JohnP\AppData\Local\Temp\ccHy6iik.s 			page 7


  99              	.L9:
 100              		.align	2
 101              	.L8:
 102 0008 08ED00E0 		.word	-536810232
 103              		.cfi_endproc
 104              	.LFE5:
 105              		.size	Compint_GetVector, .-Compint_GetVector
 106              		.section	.text.Compint_SetPriority,"ax",%progbits
 107              		.align	2
 108              		.global	Compint_SetPriority
 109              		.thumb
 110              		.thumb_func
 111              		.type	Compint_SetPriority, %function
 112              	Compint_SetPriority:
 113              	.LFB6:
 245:.\Generated_Source\PSoC5/Compint.c **** 
 246:.\Generated_Source\PSoC5/Compint.c **** 
 247:.\Generated_Source\PSoC5/Compint.c **** /*******************************************************************************
 248:.\Generated_Source\PSoC5/Compint.c **** * Function Name: Compint_SetPriority
 249:.\Generated_Source\PSoC5/Compint.c **** ********************************************************************************
 250:.\Generated_Source\PSoC5/Compint.c **** *
 251:.\Generated_Source\PSoC5/Compint.c **** * Summary:
 252:.\Generated_Source\PSoC5/Compint.c **** *   Sets the Priority of the Interrupt. 
 253:.\Generated_Source\PSoC5/Compint.c **** *
 254:.\Generated_Source\PSoC5/Compint.c **** *   Note calling Compint_Start or Compint_StartEx will 
 255:.\Generated_Source\PSoC5/Compint.c **** *   override any effect this API would have had. This API should only be called
 256:.\Generated_Source\PSoC5/Compint.c **** *   after Compint_Start or Compint_StartEx has been called. 
 257:.\Generated_Source\PSoC5/Compint.c **** *   To set the initial priority for the component, use the Design-Wide Resources
 258:.\Generated_Source\PSoC5/Compint.c **** *   Interrupt Editor.
 259:.\Generated_Source\PSoC5/Compint.c **** *
 260:.\Generated_Source\PSoC5/Compint.c **** *   Note This API has no effect on Non-maskable interrupt NMI).
 261:.\Generated_Source\PSoC5/Compint.c **** *
 262:.\Generated_Source\PSoC5/Compint.c **** * Parameters:
 263:.\Generated_Source\PSoC5/Compint.c **** *   priority: Priority of the interrupt, 0 being the highest priority
 264:.\Generated_Source\PSoC5/Compint.c **** *             PSoC 3 and PSoC 5LP: Priority is from 0 to 7.
 265:.\Generated_Source\PSoC5/Compint.c **** *             PSoC 4: Priority is from 0 to 3.
 266:.\Generated_Source\PSoC5/Compint.c **** *
 267:.\Generated_Source\PSoC5/Compint.c **** * Return:
 268:.\Generated_Source\PSoC5/Compint.c **** *   None
 269:.\Generated_Source\PSoC5/Compint.c **** *
 270:.\Generated_Source\PSoC5/Compint.c **** *******************************************************************************/
 271:.\Generated_Source\PSoC5/Compint.c **** void Compint_SetPriority(uint8 priority)
 272:.\Generated_Source\PSoC5/Compint.c **** {
 114              		.loc 1 272 0
 115              		.cfi_startproc
 116              		@ args = 0, pretend = 0, frame = 0
 117              		@ frame_needed = 0, uses_anonymous_args = 0
 118              		@ link register save eliminated.
 119              	.LVL4:
 273:.\Generated_Source\PSoC5/Compint.c ****     *Compint_INTC_PRIOR = priority << 5;
 120              		.loc 1 273 0
 121 0000 4001     		lsls	r0, r0, #5
 122              	.LVL5:
 123 0002 C0B2     		uxtb	r0, r0
 124 0004 014B     		ldr	r3, .L11
 125 0006 1870     		strb	r0, [r3]
 126 0008 7047     		bx	lr
ARM GAS  C:\Users\JohnP\AppData\Local\Temp\ccHy6iik.s 			page 8


 127              	.L12:
 128 000a 00BF     		.align	2
 129              	.L11:
 130 000c 00E400E0 		.word	-536812544
 131              		.cfi_endproc
 132              	.LFE6:
 133              		.size	Compint_SetPriority, .-Compint_SetPriority
 134              		.section	.text.Compint_GetPriority,"ax",%progbits
 135              		.align	2
 136              		.global	Compint_GetPriority
 137              		.thumb
 138              		.thumb_func
 139              		.type	Compint_GetPriority, %function
 140              	Compint_GetPriority:
 141              	.LFB7:
 274:.\Generated_Source\PSoC5/Compint.c **** }
 275:.\Generated_Source\PSoC5/Compint.c **** 
 276:.\Generated_Source\PSoC5/Compint.c **** 
 277:.\Generated_Source\PSoC5/Compint.c **** /*******************************************************************************
 278:.\Generated_Source\PSoC5/Compint.c **** * Function Name: Compint_GetPriority
 279:.\Generated_Source\PSoC5/Compint.c **** ********************************************************************************
 280:.\Generated_Source\PSoC5/Compint.c **** *
 281:.\Generated_Source\PSoC5/Compint.c **** * Summary:
 282:.\Generated_Source\PSoC5/Compint.c **** *   Gets the Priority of the Interrupt.
 283:.\Generated_Source\PSoC5/Compint.c **** *
 284:.\Generated_Source\PSoC5/Compint.c **** * Parameters:
 285:.\Generated_Source\PSoC5/Compint.c **** *   None
 286:.\Generated_Source\PSoC5/Compint.c **** *
 287:.\Generated_Source\PSoC5/Compint.c **** * Return:
 288:.\Generated_Source\PSoC5/Compint.c **** *   Priority of the interrupt, 0 being the highest priority
 289:.\Generated_Source\PSoC5/Compint.c **** *    PSoC 3 and PSoC 5LP: Priority is from 0 to 7.
 290:.\Generated_Source\PSoC5/Compint.c **** *    PSoC 4: Priority is from 0 to 3.
 291:.\Generated_Source\PSoC5/Compint.c **** *
 292:.\Generated_Source\PSoC5/Compint.c **** *******************************************************************************/
 293:.\Generated_Source\PSoC5/Compint.c **** uint8 Compint_GetPriority(void)
 294:.\Generated_Source\PSoC5/Compint.c **** {
 142              		.loc 1 294 0
 143              		.cfi_startproc
 144              		@ args = 0, pretend = 0, frame = 0
 145              		@ frame_needed = 0, uses_anonymous_args = 0
 146              		@ link register save eliminated.
 295:.\Generated_Source\PSoC5/Compint.c ****     uint8 priority;
 296:.\Generated_Source\PSoC5/Compint.c **** 
 297:.\Generated_Source\PSoC5/Compint.c **** 
 298:.\Generated_Source\PSoC5/Compint.c ****     priority = *Compint_INTC_PRIOR >> 5;
 147              		.loc 1 298 0
 148 0000 014B     		ldr	r3, .L14
 149 0002 1878     		ldrb	r0, [r3]	@ zero_extendqisi2
 150              	.LVL6:
 299:.\Generated_Source\PSoC5/Compint.c **** 
 300:.\Generated_Source\PSoC5/Compint.c ****     return priority;
 301:.\Generated_Source\PSoC5/Compint.c **** }
 151              		.loc 1 301 0
 152 0004 4009     		lsrs	r0, r0, #5
 153              	.LVL7:
 154 0006 7047     		bx	lr
 155              	.L15:
ARM GAS  C:\Users\JohnP\AppData\Local\Temp\ccHy6iik.s 			page 9


 156              		.align	2
 157              	.L14:
 158 0008 00E400E0 		.word	-536812544
 159              		.cfi_endproc
 160              	.LFE7:
 161              		.size	Compint_GetPriority, .-Compint_GetPriority
 162              		.section	.text.Compint_Enable,"ax",%progbits
 163              		.align	2
 164              		.global	Compint_Enable
 165              		.thumb
 166              		.thumb_func
 167              		.type	Compint_Enable, %function
 168              	Compint_Enable:
 169              	.LFB8:
 302:.\Generated_Source\PSoC5/Compint.c **** 
 303:.\Generated_Source\PSoC5/Compint.c **** 
 304:.\Generated_Source\PSoC5/Compint.c **** /*******************************************************************************
 305:.\Generated_Source\PSoC5/Compint.c **** * Function Name: Compint_Enable
 306:.\Generated_Source\PSoC5/Compint.c **** ********************************************************************************
 307:.\Generated_Source\PSoC5/Compint.c **** *
 308:.\Generated_Source\PSoC5/Compint.c **** * Summary:
 309:.\Generated_Source\PSoC5/Compint.c **** *   Enables the interrupt to the interrupt controller. Do not call this function
 310:.\Generated_Source\PSoC5/Compint.c **** *   unless ISR_Start() has been called or the functionality of the ISR_Start() 
 311:.\Generated_Source\PSoC5/Compint.c **** *   function, which sets the vector and the priority, has been called.
 312:.\Generated_Source\PSoC5/Compint.c **** *
 313:.\Generated_Source\PSoC5/Compint.c **** * Parameters:
 314:.\Generated_Source\PSoC5/Compint.c **** *   None
 315:.\Generated_Source\PSoC5/Compint.c **** *
 316:.\Generated_Source\PSoC5/Compint.c **** * Return:
 317:.\Generated_Source\PSoC5/Compint.c **** *   None
 318:.\Generated_Source\PSoC5/Compint.c **** *
 319:.\Generated_Source\PSoC5/Compint.c **** *******************************************************************************/
 320:.\Generated_Source\PSoC5/Compint.c **** void Compint_Enable(void)
 321:.\Generated_Source\PSoC5/Compint.c **** {
 170              		.loc 1 321 0
 171              		.cfi_startproc
 172              		@ args = 0, pretend = 0, frame = 0
 173              		@ frame_needed = 0, uses_anonymous_args = 0
 174              		@ link register save eliminated.
 322:.\Generated_Source\PSoC5/Compint.c ****     /* Enable the general interrupt. */
 323:.\Generated_Source\PSoC5/Compint.c ****     *Compint_INTC_SET_EN = Compint__INTC_MASK;
 175              		.loc 1 323 0
 176 0000 0122     		movs	r2, #1
 177 0002 014B     		ldr	r3, .L17
 178 0004 1A60     		str	r2, [r3]
 179 0006 7047     		bx	lr
 180              	.L18:
 181              		.align	2
 182              	.L17:
 183 0008 00E100E0 		.word	-536813312
 184              		.cfi_endproc
 185              	.LFE8:
 186              		.size	Compint_Enable, .-Compint_Enable
 187              		.section	.text.Compint_GetState,"ax",%progbits
 188              		.align	2
 189              		.global	Compint_GetState
 190              		.thumb
ARM GAS  C:\Users\JohnP\AppData\Local\Temp\ccHy6iik.s 			page 10


 191              		.thumb_func
 192              		.type	Compint_GetState, %function
 193              	Compint_GetState:
 194              	.LFB9:
 324:.\Generated_Source\PSoC5/Compint.c **** }
 325:.\Generated_Source\PSoC5/Compint.c **** 
 326:.\Generated_Source\PSoC5/Compint.c **** 
 327:.\Generated_Source\PSoC5/Compint.c **** /*******************************************************************************
 328:.\Generated_Source\PSoC5/Compint.c **** * Function Name: Compint_GetState
 329:.\Generated_Source\PSoC5/Compint.c **** ********************************************************************************
 330:.\Generated_Source\PSoC5/Compint.c **** *
 331:.\Generated_Source\PSoC5/Compint.c **** * Summary:
 332:.\Generated_Source\PSoC5/Compint.c **** *   Gets the state (enabled, disabled) of the Interrupt.
 333:.\Generated_Source\PSoC5/Compint.c **** *
 334:.\Generated_Source\PSoC5/Compint.c **** * Parameters:
 335:.\Generated_Source\PSoC5/Compint.c **** *   None
 336:.\Generated_Source\PSoC5/Compint.c **** *
 337:.\Generated_Source\PSoC5/Compint.c **** * Return:
 338:.\Generated_Source\PSoC5/Compint.c **** *   1 if enabled, 0 if disabled.
 339:.\Generated_Source\PSoC5/Compint.c **** *
 340:.\Generated_Source\PSoC5/Compint.c **** *******************************************************************************/
 341:.\Generated_Source\PSoC5/Compint.c **** uint8 Compint_GetState(void)
 342:.\Generated_Source\PSoC5/Compint.c **** {
 195              		.loc 1 342 0
 196              		.cfi_startproc
 197              		@ args = 0, pretend = 0, frame = 0
 198              		@ frame_needed = 0, uses_anonymous_args = 0
 199              		@ link register save eliminated.
 343:.\Generated_Source\PSoC5/Compint.c ****     /* Get the state of the general interrupt. */
 344:.\Generated_Source\PSoC5/Compint.c ****     return ((*Compint_INTC_SET_EN & (uint32)Compint__INTC_MASK) != 0u) ? 1u:0u;
 200              		.loc 1 344 0
 201 0000 024B     		ldr	r3, .L20
 202 0002 1868     		ldr	r0, [r3]
 345:.\Generated_Source\PSoC5/Compint.c **** }
 203              		.loc 1 345 0
 204 0004 00F00100 		and	r0, r0, #1
 205 0008 7047     		bx	lr
 206              	.L21:
 207 000a 00BF     		.align	2
 208              	.L20:
 209 000c 00E100E0 		.word	-536813312
 210              		.cfi_endproc
 211              	.LFE9:
 212              		.size	Compint_GetState, .-Compint_GetState
 213              		.section	.text.Compint_Disable,"ax",%progbits
 214              		.align	2
 215              		.global	Compint_Disable
 216              		.thumb
 217              		.thumb_func
 218              		.type	Compint_Disable, %function
 219              	Compint_Disable:
 220              	.LFB10:
 346:.\Generated_Source\PSoC5/Compint.c **** 
 347:.\Generated_Source\PSoC5/Compint.c **** 
 348:.\Generated_Source\PSoC5/Compint.c **** /*******************************************************************************
 349:.\Generated_Source\PSoC5/Compint.c **** * Function Name: Compint_Disable
 350:.\Generated_Source\PSoC5/Compint.c **** ********************************************************************************
ARM GAS  C:\Users\JohnP\AppData\Local\Temp\ccHy6iik.s 			page 11


 351:.\Generated_Source\PSoC5/Compint.c **** *
 352:.\Generated_Source\PSoC5/Compint.c **** * Summary:
 353:.\Generated_Source\PSoC5/Compint.c **** *   Disables the Interrupt in the interrupt controller.
 354:.\Generated_Source\PSoC5/Compint.c **** *
 355:.\Generated_Source\PSoC5/Compint.c **** * Parameters:
 356:.\Generated_Source\PSoC5/Compint.c **** *   None
 357:.\Generated_Source\PSoC5/Compint.c **** *
 358:.\Generated_Source\PSoC5/Compint.c **** * Return:
 359:.\Generated_Source\PSoC5/Compint.c **** *   None
 360:.\Generated_Source\PSoC5/Compint.c **** *
 361:.\Generated_Source\PSoC5/Compint.c **** *******************************************************************************/
 362:.\Generated_Source\PSoC5/Compint.c **** void Compint_Disable(void)
 363:.\Generated_Source\PSoC5/Compint.c **** {
 221              		.loc 1 363 0
 222              		.cfi_startproc
 223              		@ args = 0, pretend = 0, frame = 0
 224              		@ frame_needed = 0, uses_anonymous_args = 0
 225              		@ link register save eliminated.
 364:.\Generated_Source\PSoC5/Compint.c ****     /* Disable the general interrupt. */
 365:.\Generated_Source\PSoC5/Compint.c ****     *Compint_INTC_CLR_EN = Compint__INTC_MASK;
 226              		.loc 1 365 0
 227 0000 0122     		movs	r2, #1
 228 0002 014B     		ldr	r3, .L23
 229 0004 1A60     		str	r2, [r3]
 230 0006 7047     		bx	lr
 231              	.L24:
 232              		.align	2
 233              	.L23:
 234 0008 80E100E0 		.word	-536813184
 235              		.cfi_endproc
 236              	.LFE10:
 237              		.size	Compint_Disable, .-Compint_Disable
 238              		.section	.text.Compint_Start,"ax",%progbits
 239              		.align	2
 240              		.global	Compint_Start
 241              		.thumb
 242              		.thumb_func
 243              		.type	Compint_Start, %function
 244              	Compint_Start:
 245              	.LFB0:
  66:.\Generated_Source\PSoC5/Compint.c **** {
 246              		.loc 1 66 0
 247              		.cfi_startproc
 248              		@ args = 0, pretend = 0, frame = 0
 249              		@ frame_needed = 0, uses_anonymous_args = 0
 250 0000 08B5     		push	{r3, lr}
 251              		.cfi_def_cfa_offset 8
 252              		.cfi_offset 3, -8
 253              		.cfi_offset 14, -4
  68:.\Generated_Source\PSoC5/Compint.c ****     Compint_Disable();
 254              		.loc 1 68 0
 255 0002 FFF7FEFF 		bl	Compint_Disable
 256              	.LVL8:
  71:.\Generated_Source\PSoC5/Compint.c ****     Compint_SetVector(&Compint_Interrupt);
 257              		.loc 1 71 0
 258 0006 0448     		ldr	r0, .L26
 259 0008 FFF7FEFF 		bl	Compint_SetVector
ARM GAS  C:\Users\JohnP\AppData\Local\Temp\ccHy6iik.s 			page 12


 260              	.LVL9:
  74:.\Generated_Source\PSoC5/Compint.c ****     Compint_SetPriority((uint8)Compint_INTC_PRIOR_NUMBER);
 261              		.loc 1 74 0
 262 000c 0720     		movs	r0, #7
 263 000e FFF7FEFF 		bl	Compint_SetPriority
 264              	.LVL10:
  77:.\Generated_Source\PSoC5/Compint.c ****     Compint_Enable();
 265              		.loc 1 77 0
 266 0012 FFF7FEFF 		bl	Compint_Enable
 267              	.LVL11:
 268 0016 08BD     		pop	{r3, pc}
 269              	.L27:
 270              		.align	2
 271              	.L26:
 272 0018 00000000 		.word	Compint_Interrupt
 273              		.cfi_endproc
 274              	.LFE0:
 275              		.size	Compint_Start, .-Compint_Start
 276              		.section	.text.Compint_StartEx,"ax",%progbits
 277              		.align	2
 278              		.global	Compint_StartEx
 279              		.thumb
 280              		.thumb_func
 281              		.type	Compint_StartEx, %function
 282              	Compint_StartEx:
 283              	.LFB1:
 109:.\Generated_Source\PSoC5/Compint.c **** {
 284              		.loc 1 109 0
 285              		.cfi_startproc
 286              		@ args = 0, pretend = 0, frame = 0
 287              		@ frame_needed = 0, uses_anonymous_args = 0
 288              	.LVL12:
 289 0000 10B5     		push	{r4, lr}
 290              		.cfi_def_cfa_offset 8
 291              		.cfi_offset 4, -8
 292              		.cfi_offset 14, -4
 293 0002 0446     		mov	r4, r0
 111:.\Generated_Source\PSoC5/Compint.c ****     Compint_Disable();
 294              		.loc 1 111 0
 295 0004 FFF7FEFF 		bl	Compint_Disable
 296              	.LVL13:
 114:.\Generated_Source\PSoC5/Compint.c ****     Compint_SetVector(address);
 297              		.loc 1 114 0
 298 0008 2046     		mov	r0, r4
 299 000a FFF7FEFF 		bl	Compint_SetVector
 300              	.LVL14:
 117:.\Generated_Source\PSoC5/Compint.c ****     Compint_SetPriority((uint8)Compint_INTC_PRIOR_NUMBER);
 301              		.loc 1 117 0
 302 000e 0720     		movs	r0, #7
 303 0010 FFF7FEFF 		bl	Compint_SetPriority
 304              	.LVL15:
 120:.\Generated_Source\PSoC5/Compint.c ****     Compint_Enable();
 305              		.loc 1 120 0
 306 0014 FFF7FEFF 		bl	Compint_Enable
 307              	.LVL16:
 308 0018 10BD     		pop	{r4, pc}
 309              		.cfi_endproc
ARM GAS  C:\Users\JohnP\AppData\Local\Temp\ccHy6iik.s 			page 13


 310              	.LFE1:
 311              		.size	Compint_StartEx, .-Compint_StartEx
 312 001a 00BF     		.section	.text.Compint_Stop,"ax",%progbits
 313              		.align	2
 314              		.global	Compint_Stop
 315              		.thumb
 316              		.thumb_func
 317              		.type	Compint_Stop, %function
 318              	Compint_Stop:
 319              	.LFB2:
 139:.\Generated_Source\PSoC5/Compint.c **** {
 320              		.loc 1 139 0
 321              		.cfi_startproc
 322              		@ args = 0, pretend = 0, frame = 0
 323              		@ frame_needed = 0, uses_anonymous_args = 0
 324 0000 08B5     		push	{r3, lr}
 325              		.cfi_def_cfa_offset 8
 326              		.cfi_offset 3, -8
 327              		.cfi_offset 14, -4
 141:.\Generated_Source\PSoC5/Compint.c ****     Compint_Disable();
 328              		.loc 1 141 0
 329 0002 FFF7FEFF 		bl	Compint_Disable
 330              	.LVL17:
 144:.\Generated_Source\PSoC5/Compint.c ****     Compint_SetVector(&IntDefaultHandler);
 331              		.loc 1 144 0
 332 0006 0248     		ldr	r0, .L30
 333 0008 FFF7FEFF 		bl	Compint_SetVector
 334              	.LVL18:
 335 000c 08BD     		pop	{r3, pc}
 336              	.L31:
 337 000e 00BF     		.align	2
 338              	.L30:
 339 0010 00000000 		.word	IntDefaultHandler
 340              		.cfi_endproc
 341              	.LFE2:
 342              		.size	Compint_Stop, .-Compint_Stop
 343              		.section	.text.Compint_SetPending,"ax",%progbits
 344              		.align	2
 345              		.global	Compint_SetPending
 346              		.thumb
 347              		.thumb_func
 348              		.type	Compint_SetPending, %function
 349              	Compint_SetPending:
 350              	.LFB11:
 366:.\Generated_Source\PSoC5/Compint.c **** }
 367:.\Generated_Source\PSoC5/Compint.c **** 
 368:.\Generated_Source\PSoC5/Compint.c **** 
 369:.\Generated_Source\PSoC5/Compint.c **** /*******************************************************************************
 370:.\Generated_Source\PSoC5/Compint.c **** * Function Name: Compint_SetPending
 371:.\Generated_Source\PSoC5/Compint.c **** ********************************************************************************
 372:.\Generated_Source\PSoC5/Compint.c **** *
 373:.\Generated_Source\PSoC5/Compint.c **** * Summary:
 374:.\Generated_Source\PSoC5/Compint.c **** *   Causes the Interrupt to enter the pending state, a software method of
 375:.\Generated_Source\PSoC5/Compint.c **** *   generating the interrupt.
 376:.\Generated_Source\PSoC5/Compint.c **** *
 377:.\Generated_Source\PSoC5/Compint.c **** * Parameters:
 378:.\Generated_Source\PSoC5/Compint.c **** *   None
ARM GAS  C:\Users\JohnP\AppData\Local\Temp\ccHy6iik.s 			page 14


 379:.\Generated_Source\PSoC5/Compint.c **** *
 380:.\Generated_Source\PSoC5/Compint.c **** * Return:
 381:.\Generated_Source\PSoC5/Compint.c **** *   None
 382:.\Generated_Source\PSoC5/Compint.c **** *
 383:.\Generated_Source\PSoC5/Compint.c **** * Side Effects:
 384:.\Generated_Source\PSoC5/Compint.c **** *   If interrupts are enabled and the interrupt is set up properly, the ISR is
 385:.\Generated_Source\PSoC5/Compint.c **** *   entered (depending on the priority of this interrupt and other pending 
 386:.\Generated_Source\PSoC5/Compint.c **** *   interrupts).
 387:.\Generated_Source\PSoC5/Compint.c **** *
 388:.\Generated_Source\PSoC5/Compint.c **** *******************************************************************************/
 389:.\Generated_Source\PSoC5/Compint.c **** void Compint_SetPending(void)
 390:.\Generated_Source\PSoC5/Compint.c **** {
 351              		.loc 1 390 0
 352              		.cfi_startproc
 353              		@ args = 0, pretend = 0, frame = 0
 354              		@ frame_needed = 0, uses_anonymous_args = 0
 355              		@ link register save eliminated.
 391:.\Generated_Source\PSoC5/Compint.c ****     *Compint_INTC_SET_PD = Compint__INTC_MASK;
 356              		.loc 1 391 0
 357 0000 0122     		movs	r2, #1
 358 0002 014B     		ldr	r3, .L33
 359 0004 1A60     		str	r2, [r3]
 360 0006 7047     		bx	lr
 361              	.L34:
 362              		.align	2
 363              	.L33:
 364 0008 00E200E0 		.word	-536813056
 365              		.cfi_endproc
 366              	.LFE11:
 367              		.size	Compint_SetPending, .-Compint_SetPending
 368              		.section	.text.Compint_ClearPending,"ax",%progbits
 369              		.align	2
 370              		.global	Compint_ClearPending
 371              		.thumb
 372              		.thumb_func
 373              		.type	Compint_ClearPending, %function
 374              	Compint_ClearPending:
 375              	.LFB12:
 392:.\Generated_Source\PSoC5/Compint.c **** }
 393:.\Generated_Source\PSoC5/Compint.c **** 
 394:.\Generated_Source\PSoC5/Compint.c **** 
 395:.\Generated_Source\PSoC5/Compint.c **** /*******************************************************************************
 396:.\Generated_Source\PSoC5/Compint.c **** * Function Name: Compint_ClearPending
 397:.\Generated_Source\PSoC5/Compint.c **** ********************************************************************************
 398:.\Generated_Source\PSoC5/Compint.c **** *
 399:.\Generated_Source\PSoC5/Compint.c **** * Summary:
 400:.\Generated_Source\PSoC5/Compint.c **** *   Clears a pending interrupt in the interrupt controller.
 401:.\Generated_Source\PSoC5/Compint.c **** *
 402:.\Generated_Source\PSoC5/Compint.c **** *   Note Some interrupt sources are clear-on-read and require the block 
 403:.\Generated_Source\PSoC5/Compint.c **** *   interrupt/status register to be read/cleared with the appropriate block API 
 404:.\Generated_Source\PSoC5/Compint.c **** *   (GPIO, UART, and so on). Otherwise the ISR will continue to remain in 
 405:.\Generated_Source\PSoC5/Compint.c **** *   pending state even though the interrupt itself is cleared using this API.
 406:.\Generated_Source\PSoC5/Compint.c **** *
 407:.\Generated_Source\PSoC5/Compint.c **** * Parameters:
 408:.\Generated_Source\PSoC5/Compint.c **** *   None
 409:.\Generated_Source\PSoC5/Compint.c **** *
 410:.\Generated_Source\PSoC5/Compint.c **** * Return:
ARM GAS  C:\Users\JohnP\AppData\Local\Temp\ccHy6iik.s 			page 15


 411:.\Generated_Source\PSoC5/Compint.c **** *   None
 412:.\Generated_Source\PSoC5/Compint.c **** *
 413:.\Generated_Source\PSoC5/Compint.c **** *******************************************************************************/
 414:.\Generated_Source\PSoC5/Compint.c **** void Compint_ClearPending(void)
 415:.\Generated_Source\PSoC5/Compint.c **** {
 376              		.loc 1 415 0
 377              		.cfi_startproc
 378              		@ args = 0, pretend = 0, frame = 0
 379              		@ frame_needed = 0, uses_anonymous_args = 0
 380              		@ link register save eliminated.
 416:.\Generated_Source\PSoC5/Compint.c ****     *Compint_INTC_CLR_PD = Compint__INTC_MASK;
 381              		.loc 1 416 0
 382 0000 0122     		movs	r2, #1
 383 0002 014B     		ldr	r3, .L36
 384 0004 1A60     		str	r2, [r3]
 385 0006 7047     		bx	lr
 386              	.L37:
 387              		.align	2
 388              	.L36:
 389 0008 80E200E0 		.word	-536812928
 390              		.cfi_endproc
 391              	.LFE12:
 392              		.size	Compint_ClearPending, .-Compint_ClearPending
 393              		.global	endCounts
 394              		.global	startCounts
 395              		.comm	timer_value,4,4
 396              		.comm	timer_status,4,4
 397              		.comm	heartbeatCounter,4,4
 398              		.comm	heartrate,4,4
 399              		.comm	Prev_state,4,4
 400              		.comm	currentState,4,4
 401              		.bss
 402              		.align	2
 403              		.set	.LANCHOR0,. + 0
 404              		.type	endCounts, %object
 405              		.size	endCounts, 4
 406              	endCounts:
 407 0000 00000000 		.space	4
 408              		.type	startCounts, %object
 409              		.size	startCounts, 4
 410              	startCounts:
 411 0004 00000000 		.space	4
 412              		.text
 413              	.Letext0:
 414              		.file 2 "Generated_Source\\PSoC5/cytypes.h"
 415              		.file 3 "./states.h"
 416              		.file 4 "./heartrate.h"
 417              		.file 5 "Generated_Source\\PSoC5/HeartbeatCounter.h"