ARM GAS  C:\Users\JohnP\AppData\Local\Temp\ccvFeghF.s 			page 1


   1              		.syntax unified
   2              		.cpu cortex-m3
   3              		.fpu softvfp
   4              		.eabi_attribute 20, 1
   5              		.eabi_attribute 21, 1
   6              		.eabi_attribute 23, 3
   7              		.eabi_attribute 24, 1
   8              		.eabi_attribute 25, 1
   9              		.eabi_attribute 26, 1
  10              		.eabi_attribute 30, 1
  11              		.eabi_attribute 34, 1
  12              		.eabi_attribute 18, 4
  13              		.thumb
  14              		.file	"display.c"
  15              		.text
  16              	.Ltext0:
  17              		.cfi_sections	.debug_frame
  18              		.section	.text.Display_welcome_message,"ax",%progbits
  19              		.align	2
  20              		.global	Display_welcome_message
  21              		.thumb
  22              		.thumb_func
  23              		.type	Display_welcome_message, %function
  24              	Display_welcome_message:
  25              	.LFB0:
  26              		.file 1 ".\\display.c"
   1:.\display.c   **** /* ========================================
   2:.\display.c   ****  *
   3:.\display.c   ****  * Copyright YOUR COMPANY, THE YEAR
   4:.\display.c   ****  * All Rights Reserved
   5:.\display.c   ****  * UNPUBLISHED, LICENSED SOFTWARE.
   6:.\display.c   ****  *
   7:.\display.c   ****  * CONFIDENTIAL AND PROPRIETARY INFORMATION
   8:.\display.c   ****  * WHICH IS THE PROPERTY OF your company.
   9:.\display.c   ****  *
  10:.\display.c   ****  * ========================================
  11:.\display.c   **** */
  12:.\display.c   **** 
  13:.\display.c   **** #include "display.h"
  14:.\display.c   **** 
  15:.\display.c   **** int loading_bar_speed_ms = 100;
  16:.\display.c   **** 
  17:.\display.c   **** 
  18:.\display.c   **** void Display_welcome_message(){
  27              		.loc 1 18 0
  28              		.cfi_startproc
  29              		@ args = 0, pretend = 0, frame = 0
  30              		@ frame_needed = 0, uses_anonymous_args = 0
  31 0000 F8B5     		push	{r3, r4, r5, r6, r7, lr}
  32              		.cfi_def_cfa_offset 24
  33              		.cfi_offset 3, -24
  34              		.cfi_offset 4, -20
  35              		.cfi_offset 5, -16
  36              		.cfi_offset 6, -12
  37              		.cfi_offset 7, -8
  38              		.cfi_offset 14, -4
  19:.\display.c   ****     LCD_ClearDisplay();
ARM GAS  C:\Users\JohnP\AppData\Local\Temp\ccvFeghF.s 			page 2


  39              		.loc 1 19 0
  40 0002 0120     		movs	r0, #1
  41 0004 FFF7FEFF 		bl	LCD_WriteControl
  42              	.LVL0:
  20:.\display.c   ****     int i;
  21:.\display.c   ****     for (i=0; i<16; i++){
  43              		.loc 1 21 0
  44 0008 0024     		movs	r4, #0
  22:.\display.c   ****         LCD_Position(0,i);
  45              		.loc 1 22 0
  46 000a 2746     		mov	r7, r4
  23:.\display.c   ****         LCD_PutChar(LCD_CUSTOM_5);
  47              		.loc 1 23 0
  48 000c 0526     		movs	r6, #5
  24:.\display.c   ****         CyDelay(loading_bar_speed_ms);
  49              		.loc 1 24 0
  50 000e 104D     		ldr	r5, .L4
  21:.\display.c   ****     for (i=0; i<16; i++){
  51              		.loc 1 21 0
  52 0010 0AE0     		b	.L2
  53              	.LVL1:
  54              	.L3:
  22:.\display.c   ****         LCD_Position(0,i);
  55              		.loc 1 22 0 discriminator 2
  56 0012 3846     		mov	r0, r7
  57 0014 E1B2     		uxtb	r1, r4
  58 0016 FFF7FEFF 		bl	LCD_Position
  59              	.LVL2:
  23:.\display.c   ****         LCD_PutChar(LCD_CUSTOM_5);
  60              		.loc 1 23 0 discriminator 2
  61 001a 3046     		mov	r0, r6
  62 001c FFF7FEFF 		bl	LCD_PutChar
  63              	.LVL3:
  64              		.loc 1 24 0 discriminator 2
  65 0020 2868     		ldr	r0, [r5]
  66 0022 FFF7FEFF 		bl	CyDelay
  67              	.LVL4:
  21:.\display.c   ****     for (i=0; i<16; i++){
  68              		.loc 1 21 0 discriminator 2
  69 0026 0134     		adds	r4, r4, #1
  70              	.LVL5:
  71              	.L2:
  21:.\display.c   ****     for (i=0; i<16; i++){
  72              		.loc 1 21 0 is_stmt 0 discriminator 1
  73 0028 0F2C     		cmp	r4, #15
  74 002a F2DD     		ble	.L3
  25:.\display.c   ****     }
  26:.\display.c   ****     LCD_ClearDisplay();
  75              		.loc 1 26 0 is_stmt 1
  76 002c 0120     		movs	r0, #1
  77 002e FFF7FEFF 		bl	LCD_WriteControl
  78              	.LVL6:
  27:.\display.c   ****     LCD_Position(0,3);
  79              		.loc 1 27 0
  80 0032 0020     		movs	r0, #0
  81 0034 0321     		movs	r1, #3
  82 0036 FFF7FEFF 		bl	LCD_Position
ARM GAS  C:\Users\JohnP\AppData\Local\Temp\ccvFeghF.s 			page 3


  83              	.LVL7:
  28:.\display.c   ****     LCD_PrintString("Welcome to ");
  84              		.loc 1 28 0
  85 003a 0648     		ldr	r0, .L4+4
  86 003c FFF7FEFF 		bl	LCD_PrintString
  87              	.LVL8:
  29:.\display.c   ****     LCD_Position(1,2);
  88              		.loc 1 29 0
  89 0040 0120     		movs	r0, #1
  90 0042 0221     		movs	r1, #2
  91 0044 FFF7FEFF 		bl	LCD_Position
  92              	.LVL9:
  30:.\display.c   ****     LCD_PrintString("My Treadmill");
  93              		.loc 1 30 0
  94 0048 0348     		ldr	r0, .L4+8
  95 004a FFF7FEFF 		bl	LCD_PrintString
  96              	.LVL10:
  97 004e F8BD     		pop	{r3, r4, r5, r6, r7, pc}
  98              	.LVL11:
  99              	.L5:
 100              		.align	2
 101              	.L4:
 102 0050 00000000 		.word	.LANCHOR0
 103 0054 00000000 		.word	.LC0
 104 0058 0C000000 		.word	.LC1
 105              		.cfi_endproc
 106              	.LFE0:
 107              		.size	Display_welcome_message, .-Display_welcome_message
 108              		.section	.text.Display_sleep,"ax",%progbits
 109              		.align	2
 110              		.global	Display_sleep
 111              		.thumb
 112              		.thumb_func
 113              		.type	Display_sleep, %function
 114              	Display_sleep:
 115              	.LFB1:
  31:.\display.c   **** }   
  32:.\display.c   **** 
  33:.\display.c   **** /*
  34:.\display.c   **** void Display_welcome_message(){
  35:.\display.c   ****     LCD_ClearDisplay();
  36:.\display.c   ****     LCD_Position(0,0);
  37:.\display.c   ****     LCD_PrintString("8");
  38:.\display.c   ****     int i;
  39:.\display.c   ****     for (i=0; i<14; i++){
  40:.\display.c   ****         LCD_PrintString("=");
  41:.\display.c   ****         CyDelay(loading_bar_speed_ms);
  42:.\display.c   ****     }
  43:.\display.c   ****     LCD_PrintString("D");
  44:.\display.c   **** }   
  45:.\display.c   **** */
  46:.\display.c   **** void Display_sleep(){    
 116              		.loc 1 46 0
 117              		.cfi_startproc
 118              		@ args = 0, pretend = 0, frame = 0
 119              		@ frame_needed = 0, uses_anonymous_args = 0
 120 0000 08B5     		push	{r3, lr}
ARM GAS  C:\Users\JohnP\AppData\Local\Temp\ccvFeghF.s 			page 4


 121              		.cfi_def_cfa_offset 8
 122              		.cfi_offset 3, -8
 123              		.cfi_offset 14, -4
  47:.\display.c   ****     LCD_Position(0,0);
 124              		.loc 1 47 0
 125 0002 0020     		movs	r0, #0
 126 0004 0146     		mov	r1, r0
 127 0006 FFF7FEFF 		bl	LCD_Position
 128              	.LVL12:
  48:.\display.c   ****     LCD_PrintString("Sleeping...");
 129              		.loc 1 48 0
 130 000a 0248     		ldr	r0, .L7
 131 000c FFF7FEFF 		bl	LCD_PrintString
 132              	.LVL13:
 133 0010 08BD     		pop	{r3, pc}
 134              	.L8:
 135 0012 00BF     		.align	2
 136              	.L7:
 137 0014 1C000000 		.word	.LC2
 138              		.cfi_endproc
 139              	.LFE1:
 140              		.size	Display_sleep, .-Display_sleep
 141              		.section	.text.Display_profile_selection,"ax",%progbits
 142              		.align	2
 143              		.global	Display_profile_selection
 144              		.thumb
 145              		.thumb_func
 146              		.type	Display_profile_selection, %function
 147              	Display_profile_selection:
 148              	.LFB2:
  49:.\display.c   **** //        LCD_DrawHorizontalBG(0,0,8,i);
  50:.\display.c   **** //        LCD_PrintString("zzzzzz");
  51:.\display.c   **** //        CyDelay(1000);
  52:.\display.c   ****     
  53:.\display.c   **** }
  54:.\display.c   **** 
  55:.\display.c   **** void Display_profile_selection(int profile){
 149              		.loc 1 55 0
 150              		.cfi_startproc
 151              		@ args = 0, pretend = 0, frame = 0
 152              		@ frame_needed = 0, uses_anonymous_args = 0
 153              	.LVL14:
 154 0000 2DE9F041 		push	{r4, r5, r6, r7, r8, lr}
 155              		.cfi_def_cfa_offset 24
 156              		.cfi_offset 4, -24
 157              		.cfi_offset 5, -20
 158              		.cfi_offset 6, -16
 159              		.cfi_offset 7, -12
 160              		.cfi_offset 8, -8
 161              		.cfi_offset 14, -4
 162 0004 0546     		mov	r5, r0
 163              	.LVL15:
  56:.\display.c   ****     int i;
  57:.\display.c   ****     for (i=4;i>0;i--){
 164              		.loc 1 57 0
 165 0006 0424     		movs	r4, #4
  58:.\display.c   ****         LCD_ClearDisplay();
ARM GAS  C:\Users\JohnP\AppData\Local\Temp\ccvFeghF.s 			page 5


  59:.\display.c   ****         CyDelay(100);
  60:.\display.c   ****         switch (profile){
  61:.\display.c   ****             case REGULAR:
  62:.\display.c   ****                 LCD_Position(1,0);
  63:.\display.c   ****                 LCD_PrintString("Regular   ");
  64:.\display.c   ****                 break;
  65:.\display.c   ****             case LIGHT:
  66:.\display.c   ****                 LCD_Position(1,0);
  67:.\display.c   ****                 LCD_PrintString("Light     ");
  68:.\display.c   ****                 break; 
  69:.\display.c   ****             case HILLS:
  70:.\display.c   ****                 LCD_Position(1,0);
  71:.\display.c   ****                 LCD_PrintString("Hills     ");
  72:.\display.c   ****                 break;
  73:.\display.c   ****             case CARDIO:
  74:.\display.c   ****                 LCD_Position(1,0);
  75:.\display.c   ****                 LCD_PrintString("Cardio    ");
  76:.\display.c   ****                 break;
  77:.\display.c   ****             case FATBURN:
  78:.\display.c   ****                 LCD_Position(1,0);
  79:.\display.c   ****                 LCD_PrintString("Fat Burn  ");
 166              		.loc 1 79 0
 167 0008 DFF89080 		ldr	r8, .L19+16
  75:.\display.c   ****                 LCD_PrintString("Cardio    ");
 168              		.loc 1 75 0
 169 000c 1F4F     		ldr	r7, .L19
  71:.\display.c   ****                 LCD_PrintString("Hills     ");
 170              		.loc 1 71 0
 171 000e 204E     		ldr	r6, .L19+4
  57:.\display.c   ****     for (i=4;i>0;i--){
 172              		.loc 1 57 0
 173 0010 37E0     		b	.L10
 174              	.LVL16:
 175              	.L18:
  58:.\display.c   ****         LCD_ClearDisplay();
 176              		.loc 1 58 0
 177 0012 0120     		movs	r0, #1
 178 0014 FFF7FEFF 		bl	LCD_WriteControl
 179              	.LVL17:
  59:.\display.c   ****         CyDelay(100);
 180              		.loc 1 59 0
 181 0018 6420     		movs	r0, #100
 182 001a FFF7FEFF 		bl	CyDelay
 183              	.LVL18:
  60:.\display.c   ****         switch (profile){
 184              		.loc 1 60 0
 185 001e 042D     		cmp	r5, #4
 186 0020 2BD8     		bhi	.L11
 187 0022 DFE805F0 		tbb	[pc, r5]
 188              	.L13:
 189 0026 03       		.byte	(.L12-.L13)/2
 190 0027 0B       		.byte	(.L14-.L13)/2
 191 0028 13       		.byte	(.L15-.L13)/2
 192 0029 1B       		.byte	(.L16-.L13)/2
 193 002a 23       		.byte	(.L17-.L13)/2
 194 002b 00       		.p2align 1
 195              	.L12:
ARM GAS  C:\Users\JohnP\AppData\Local\Temp\ccvFeghF.s 			page 6


  62:.\display.c   ****                 LCD_Position(1,0);
 196              		.loc 1 62 0
 197 002c 0120     		movs	r0, #1
 198 002e 0021     		movs	r1, #0
 199 0030 FFF7FEFF 		bl	LCD_Position
 200              	.LVL19:
  63:.\display.c   ****                 LCD_PrintString("Regular   ");
 201              		.loc 1 63 0
 202 0034 1748     		ldr	r0, .L19+8
 203 0036 FFF7FEFF 		bl	LCD_PrintString
 204              	.LVL20:
  64:.\display.c   ****                 break;
 205              		.loc 1 64 0
 206 003a 1EE0     		b	.L11
 207              	.L14:
  66:.\display.c   ****                 LCD_Position(1,0);
 208              		.loc 1 66 0
 209 003c 0120     		movs	r0, #1
 210 003e 0021     		movs	r1, #0
 211 0040 FFF7FEFF 		bl	LCD_Position
 212              	.LVL21:
  67:.\display.c   ****                 LCD_PrintString("Light     ");
 213              		.loc 1 67 0
 214 0044 1448     		ldr	r0, .L19+12
 215 0046 FFF7FEFF 		bl	LCD_PrintString
 216              	.LVL22:
  68:.\display.c   ****                 break; 
 217              		.loc 1 68 0
 218 004a 16E0     		b	.L11
 219              	.L15:
  70:.\display.c   ****                 LCD_Position(1,0);
 220              		.loc 1 70 0
 221 004c 0120     		movs	r0, #1
 222 004e 0021     		movs	r1, #0
 223 0050 FFF7FEFF 		bl	LCD_Position
 224              	.LVL23:
  71:.\display.c   ****                 LCD_PrintString("Hills     ");
 225              		.loc 1 71 0
 226 0054 3046     		mov	r0, r6
 227 0056 FFF7FEFF 		bl	LCD_PrintString
 228              	.LVL24:
  72:.\display.c   ****                 break;
 229              		.loc 1 72 0
 230 005a 0EE0     		b	.L11
 231              	.L16:
  74:.\display.c   ****                 LCD_Position(1,0);
 232              		.loc 1 74 0
 233 005c 0120     		movs	r0, #1
 234 005e 0021     		movs	r1, #0
 235 0060 FFF7FEFF 		bl	LCD_Position
 236              	.LVL25:
  75:.\display.c   ****                 LCD_PrintString("Cardio    ");
 237              		.loc 1 75 0
 238 0064 3846     		mov	r0, r7
 239 0066 FFF7FEFF 		bl	LCD_PrintString
 240              	.LVL26:
  76:.\display.c   ****                 break;
ARM GAS  C:\Users\JohnP\AppData\Local\Temp\ccvFeghF.s 			page 7


 241              		.loc 1 76 0
 242 006a 06E0     		b	.L11
 243              	.L17:
  78:.\display.c   ****                 LCD_Position(1,0);
 244              		.loc 1 78 0
 245 006c 0120     		movs	r0, #1
 246 006e 0021     		movs	r1, #0
 247 0070 FFF7FEFF 		bl	LCD_Position
 248              	.LVL27:
 249              		.loc 1 79 0
 250 0074 4046     		mov	r0, r8
 251 0076 FFF7FEFF 		bl	LCD_PrintString
 252              	.LVL28:
 253              	.L11:
  80:.\display.c   ****                 break;
  81:.\display.c   ****             default:
  82:.\display.c   ****                 break;
  83:.\display.c   ****         }
  84:.\display.c   ****         CyDelay(100);
 254              		.loc 1 84 0
 255 007a 6420     		movs	r0, #100
 256 007c FFF7FEFF 		bl	CyDelay
 257              	.LVL29:
  57:.\display.c   ****     for (i=4;i>0;i--){
 258              		.loc 1 57 0
 259 0080 013C     		subs	r4, r4, #1
 260              	.LVL30:
 261              	.L10:
  57:.\display.c   ****     for (i=4;i>0;i--){
 262              		.loc 1 57 0 is_stmt 0 discriminator 1
 263 0082 002C     		cmp	r4, #0
 264 0084 C5DC     		bgt	.L18
  85:.\display.c   ****     }
  86:.\display.c   **** }
 265              		.loc 1 86 0 is_stmt 1
 266 0086 BDE8F081 		pop	{r4, r5, r6, r7, r8, pc}
 267              	.LVL31:
 268              	.L20:
 269 008a 00BF     		.align	2
 270              	.L19:
 271 008c 4C000000 		.word	.LC6
 272 0090 40000000 		.word	.LC5
 273 0094 28000000 		.word	.LC3
 274 0098 34000000 		.word	.LC4
 275 009c 58000000 		.word	.LC7
 276              		.cfi_endproc
 277              	.LFE2:
 278              		.size	Display_profile_selection, .-Display_profile_selection
 279              		.global	loading_bar_speed_ms
 280              		.comm	Prev_state,4,4
 281              		.comm	currentState,4,4
 282              		.comm	timer_value,4,4
 283              		.comm	timer_status,4,4
 284              		.comm	heartbeatCounter,4,4
 285              		.comm	heartrate,4,4
 286              		.data
 287              		.align	2
ARM GAS  C:\Users\JohnP\AppData\Local\Temp\ccvFeghF.s 			page 8


 288              		.set	.LANCHOR0,. + 0
 289              		.type	loading_bar_speed_ms, %object
 290              		.size	loading_bar_speed_ms, 4
 291              	loading_bar_speed_ms:
 292 0000 64000000 		.word	100
 293              		.section	.rodata.str1.4,"aMS",%progbits,1
 294              		.align	2
 295              	.LC0:
 296 0000 57656C63 		.ascii	"Welcome to \000"
 296      6F6D6520 
 296      746F2000 
 297              	.LC1:
 298 000c 4D792054 		.ascii	"My Treadmill\000"
 298      72656164 
 298      6D696C6C 
 298      00
 299 0019 000000   		.space	3
 300              	.LC2:
 301 001c 536C6565 		.ascii	"Sleeping...\000"
 301      70696E67 
 301      2E2E2E00 
 302              	.LC3:
 303 0028 52656775 		.ascii	"Regular   \000"
 303      6C617220 
 303      202000
 304 0033 00       		.space	1
 305              	.LC4:
 306 0034 4C696768 		.ascii	"Light     \000"
 306      74202020 
 306      202000
 307 003f 00       		.space	1
 308              	.LC5:
 309 0040 48696C6C 		.ascii	"Hills     \000"
 309      73202020 
 309      202000
 310 004b 00       		.space	1
 311              	.LC6:
 312 004c 43617264 		.ascii	"Cardio    \000"
 312      696F2020 
 312      202000
 313 0057 00       		.space	1
 314              	.LC7:
 315 0058 46617420 		.ascii	"Fat Burn  \000"
 315      4275726E 
 315      202000
 316 0063 00       		.text
 317              	.Letext0:
 318              		.file 2 "Generated_Source\\PSoC5/cytypes.h"
 319              		.file 3 ".\\states.h"
 320              		.file 4 ".\\heartrate.h"
 321              		.file 5 "Generated_Source\\PSoC5/LCD.h"
 322              		.file 6 "Generated_Source\\PSoC5/CyLib.h"