ARM GAS  C:\Users\JohnP\AppData\Local\Temp\cc9HNoOK.s 			page 1


   1              		.syntax unified
   2              		.cpu cortex-m3
   3              		.fpu softvfp
   4              		.eabi_attribute 20, 1
   5              		.eabi_attribute 21, 1
   6              		.eabi_attribute 23, 3
   7              		.eabi_attribute 24, 1
   8              		.eabi_attribute 25, 1
   9              		.eabi_attribute 26, 1
  10              		.eabi_attribute 30, 1
  11              		.eabi_attribute 34, 1
  12              		.eabi_attribute 18, 4
  13              		.thumb
  14              		.file	"LCD_Char_1_LCDPort.c"
  15              		.text
  16              	.Ltext0:
  17              		.cfi_sections	.debug_frame
  18              		.section	.text.LCD_Char_1_LCDPort_Write,"ax",%progbits
  19              		.align	2
  20              		.global	LCD_Char_1_LCDPort_Write
  21              		.thumb
  22              		.thumb_func
  23              		.type	LCD_Char_1_LCDPort_Write, %function
  24              	LCD_Char_1_LCDPort_Write:
  25              	.LFB0:
  26              		.file 1 ".\\Generated_Source\\PSoC5\\LCD_Char_1_LCDPort.c"
   1:.\Generated_Source\PSoC5/LCD_Char_1_LCDPort.c **** /*******************************************************************************
   2:.\Generated_Source\PSoC5/LCD_Char_1_LCDPort.c **** * File Name: LCD_Char_1_LCDPort.c  
   3:.\Generated_Source\PSoC5/LCD_Char_1_LCDPort.c **** * Version 2.10
   4:.\Generated_Source\PSoC5/LCD_Char_1_LCDPort.c **** *
   5:.\Generated_Source\PSoC5/LCD_Char_1_LCDPort.c **** * Description:
   6:.\Generated_Source\PSoC5/LCD_Char_1_LCDPort.c **** *  This file contains API to enable firmware control of a Pins component.
   7:.\Generated_Source\PSoC5/LCD_Char_1_LCDPort.c **** *
   8:.\Generated_Source\PSoC5/LCD_Char_1_LCDPort.c **** * Note:
   9:.\Generated_Source\PSoC5/LCD_Char_1_LCDPort.c **** *
  10:.\Generated_Source\PSoC5/LCD_Char_1_LCDPort.c **** ********************************************************************************
  11:.\Generated_Source\PSoC5/LCD_Char_1_LCDPort.c **** * Copyright 2008-2014, Cypress Semiconductor Corporation.  All rights reserved.
  12:.\Generated_Source\PSoC5/LCD_Char_1_LCDPort.c **** * You may use this file only in accordance with the license, terms, conditions, 
  13:.\Generated_Source\PSoC5/LCD_Char_1_LCDPort.c **** * disclaimers, and limitations in the end user license agreement accompanying 
  14:.\Generated_Source\PSoC5/LCD_Char_1_LCDPort.c **** * the software package with which this file was provided.
  15:.\Generated_Source\PSoC5/LCD_Char_1_LCDPort.c **** *******************************************************************************/
  16:.\Generated_Source\PSoC5/LCD_Char_1_LCDPort.c **** 
  17:.\Generated_Source\PSoC5/LCD_Char_1_LCDPort.c **** #include "cytypes.h"
  18:.\Generated_Source\PSoC5/LCD_Char_1_LCDPort.c **** #include "LCD_Char_1_LCDPort.h"
  19:.\Generated_Source\PSoC5/LCD_Char_1_LCDPort.c **** 
  20:.\Generated_Source\PSoC5/LCD_Char_1_LCDPort.c **** /* APIs are not generated for P15[7:6] on PSoC 5 */
  21:.\Generated_Source\PSoC5/LCD_Char_1_LCDPort.c **** #if !(CY_PSOC5A &&\
  22:.\Generated_Source\PSoC5/LCD_Char_1_LCDPort.c **** 	 LCD_Char_1_LCDPort__PORT == 15 && ((LCD_Char_1_LCDPort__MASK & 0xC0) != 0))
  23:.\Generated_Source\PSoC5/LCD_Char_1_LCDPort.c **** 
  24:.\Generated_Source\PSoC5/LCD_Char_1_LCDPort.c **** 
  25:.\Generated_Source\PSoC5/LCD_Char_1_LCDPort.c **** /*******************************************************************************
  26:.\Generated_Source\PSoC5/LCD_Char_1_LCDPort.c **** * Function Name: LCD_Char_1_LCDPort_Write
  27:.\Generated_Source\PSoC5/LCD_Char_1_LCDPort.c **** ********************************************************************************
  28:.\Generated_Source\PSoC5/LCD_Char_1_LCDPort.c **** *
  29:.\Generated_Source\PSoC5/LCD_Char_1_LCDPort.c **** * Summary:
  30:.\Generated_Source\PSoC5/LCD_Char_1_LCDPort.c **** *  Assign a new value to the digital port's data output register.  
  31:.\Generated_Source\PSoC5/LCD_Char_1_LCDPort.c **** *
ARM GAS  C:\Users\JohnP\AppData\Local\Temp\cc9HNoOK.s 			page 2


  32:.\Generated_Source\PSoC5/LCD_Char_1_LCDPort.c **** * Parameters:  
  33:.\Generated_Source\PSoC5/LCD_Char_1_LCDPort.c **** *  prtValue:  The value to be assigned to the Digital Port. 
  34:.\Generated_Source\PSoC5/LCD_Char_1_LCDPort.c **** *
  35:.\Generated_Source\PSoC5/LCD_Char_1_LCDPort.c **** * Return: 
  36:.\Generated_Source\PSoC5/LCD_Char_1_LCDPort.c **** *  None
  37:.\Generated_Source\PSoC5/LCD_Char_1_LCDPort.c **** *  
  38:.\Generated_Source\PSoC5/LCD_Char_1_LCDPort.c **** *******************************************************************************/
  39:.\Generated_Source\PSoC5/LCD_Char_1_LCDPort.c **** void LCD_Char_1_LCDPort_Write(uint8 value) 
  40:.\Generated_Source\PSoC5/LCD_Char_1_LCDPort.c **** {
  27              		.loc 1 40 0
  28              		.cfi_startproc
  29              		@ args = 0, pretend = 0, frame = 0
  30              		@ frame_needed = 0, uses_anonymous_args = 0
  31              		@ link register save eliminated.
  32              	.LVL0:
  41:.\Generated_Source\PSoC5/LCD_Char_1_LCDPort.c ****     uint8 staticBits = (LCD_Char_1_LCDPort_DR & (uint8)(~LCD_Char_1_LCDPort_MASK));
  33              		.loc 1 41 0
  34 0000 044B     		ldr	r3, .L2
  35 0002 1A78     		ldrb	r2, [r3]	@ zero_extendqisi2
  36 0004 02F08002 		and	r2, r2, #128
  37              	.LVL1:
  42:.\Generated_Source\PSoC5/LCD_Char_1_LCDPort.c ****     LCD_Char_1_LCDPort_DR = staticBits | ((uint8)(value << LCD_Char_1_LCDPort_SHIFT) & LCD_Char_1_L
  38              		.loc 1 42 0
  39 0008 00F07F00 		and	r0, r0, #127
  40              	.LVL2:
  41 000c 0243     		orrs	r2, r2, r0
  42              	.LVL3:
  43 000e 1A70     		strb	r2, [r3]
  44 0010 7047     		bx	lr
  45              	.L3:
  46 0012 00BF     		.align	2
  47              	.L2:
  48 0014 00510040 		.word	1073762560
  49              		.cfi_endproc
  50              	.LFE0:
  51              		.size	LCD_Char_1_LCDPort_Write, .-LCD_Char_1_LCDPort_Write
  52              		.section	.text.LCD_Char_1_LCDPort_SetDriveMode,"ax",%progbits
  53              		.align	2
  54              		.global	LCD_Char_1_LCDPort_SetDriveMode
  55              		.thumb
  56              		.thumb_func
  57              		.type	LCD_Char_1_LCDPort_SetDriveMode, %function
  58              	LCD_Char_1_LCDPort_SetDriveMode:
  59              	.LFB1:
  43:.\Generated_Source\PSoC5/LCD_Char_1_LCDPort.c **** }
  44:.\Generated_Source\PSoC5/LCD_Char_1_LCDPort.c **** 
  45:.\Generated_Source\PSoC5/LCD_Char_1_LCDPort.c **** 
  46:.\Generated_Source\PSoC5/LCD_Char_1_LCDPort.c **** /*******************************************************************************
  47:.\Generated_Source\PSoC5/LCD_Char_1_LCDPort.c **** * Function Name: LCD_Char_1_LCDPort_SetDriveMode
  48:.\Generated_Source\PSoC5/LCD_Char_1_LCDPort.c **** ********************************************************************************
  49:.\Generated_Source\PSoC5/LCD_Char_1_LCDPort.c **** *
  50:.\Generated_Source\PSoC5/LCD_Char_1_LCDPort.c **** * Summary:
  51:.\Generated_Source\PSoC5/LCD_Char_1_LCDPort.c **** *  Change the drive mode on the pins of the port.
  52:.\Generated_Source\PSoC5/LCD_Char_1_LCDPort.c **** * 
  53:.\Generated_Source\PSoC5/LCD_Char_1_LCDPort.c **** * Parameters:  
  54:.\Generated_Source\PSoC5/LCD_Char_1_LCDPort.c **** *  mode:  Change the pins to one of the following drive modes.
  55:.\Generated_Source\PSoC5/LCD_Char_1_LCDPort.c **** *
ARM GAS  C:\Users\JohnP\AppData\Local\Temp\cc9HNoOK.s 			page 3


  56:.\Generated_Source\PSoC5/LCD_Char_1_LCDPort.c **** *  LCD_Char_1_LCDPort_DM_STRONG     Strong Drive 
  57:.\Generated_Source\PSoC5/LCD_Char_1_LCDPort.c **** *  LCD_Char_1_LCDPort_DM_OD_HI      Open Drain, Drives High 
  58:.\Generated_Source\PSoC5/LCD_Char_1_LCDPort.c **** *  LCD_Char_1_LCDPort_DM_OD_LO      Open Drain, Drives Low 
  59:.\Generated_Source\PSoC5/LCD_Char_1_LCDPort.c **** *  LCD_Char_1_LCDPort_DM_RES_UP     Resistive Pull Up 
  60:.\Generated_Source\PSoC5/LCD_Char_1_LCDPort.c **** *  LCD_Char_1_LCDPort_DM_RES_DWN    Resistive Pull Down 
  61:.\Generated_Source\PSoC5/LCD_Char_1_LCDPort.c **** *  LCD_Char_1_LCDPort_DM_RES_UPDWN  Resistive Pull Up/Down 
  62:.\Generated_Source\PSoC5/LCD_Char_1_LCDPort.c **** *  LCD_Char_1_LCDPort_DM_DIG_HIZ    High Impedance Digital 
  63:.\Generated_Source\PSoC5/LCD_Char_1_LCDPort.c **** *  LCD_Char_1_LCDPort_DM_ALG_HIZ    High Impedance Analog 
  64:.\Generated_Source\PSoC5/LCD_Char_1_LCDPort.c **** *
  65:.\Generated_Source\PSoC5/LCD_Char_1_LCDPort.c **** * Return: 
  66:.\Generated_Source\PSoC5/LCD_Char_1_LCDPort.c **** *  None
  67:.\Generated_Source\PSoC5/LCD_Char_1_LCDPort.c **** *
  68:.\Generated_Source\PSoC5/LCD_Char_1_LCDPort.c **** *******************************************************************************/
  69:.\Generated_Source\PSoC5/LCD_Char_1_LCDPort.c **** void LCD_Char_1_LCDPort_SetDriveMode(uint8 mode) 
  70:.\Generated_Source\PSoC5/LCD_Char_1_LCDPort.c **** {
  60              		.loc 1 70 0
  61              		.cfi_startproc
  62              		@ args = 0, pretend = 0, frame = 0
  63              		@ frame_needed = 0, uses_anonymous_args = 0
  64              		@ link register save eliminated.
  65              	.LVL4:
  71:.\Generated_Source\PSoC5/LCD_Char_1_LCDPort.c **** 	CyPins_SetPinDriveMode(LCD_Char_1_LCDPort_0, mode);
  66              		.loc 1 71 0
  67 0000 164B     		ldr	r3, .L5
  68 0002 1A78     		ldrb	r2, [r3]	@ zero_extendqisi2
  69 0004 00F00E00 		and	r0, r0, #14
  70              	.LVL5:
  71 0008 02F0F102 		and	r2, r2, #241
  72 000c 0243     		orrs	r2, r2, r0
  73 000e 1A70     		strb	r2, [r3]
  72:.\Generated_Source\PSoC5/LCD_Char_1_LCDPort.c **** 	CyPins_SetPinDriveMode(LCD_Char_1_LCDPort_1, mode);
  74              		.loc 1 72 0
  75 0010 0133     		adds	r3, r3, #1
  76 0012 1A78     		ldrb	r2, [r3]	@ zero_extendqisi2
  77 0014 02F0F102 		and	r2, r2, #241
  78 0018 0243     		orrs	r2, r2, r0
  79 001a 1A70     		strb	r2, [r3]
  73:.\Generated_Source\PSoC5/LCD_Char_1_LCDPort.c **** 	CyPins_SetPinDriveMode(LCD_Char_1_LCDPort_2, mode);
  80              		.loc 1 73 0
  81 001c 0133     		adds	r3, r3, #1
  82 001e 1A78     		ldrb	r2, [r3]	@ zero_extendqisi2
  83 0020 02F0F102 		and	r2, r2, #241
  84 0024 0243     		orrs	r2, r2, r0
  85 0026 1A70     		strb	r2, [r3]
  74:.\Generated_Source\PSoC5/LCD_Char_1_LCDPort.c **** 	CyPins_SetPinDriveMode(LCD_Char_1_LCDPort_3, mode);
  86              		.loc 1 74 0
  87 0028 0133     		adds	r3, r3, #1
  88 002a 1A78     		ldrb	r2, [r3]	@ zero_extendqisi2
  89 002c 02F0F102 		and	r2, r2, #241
  90 0030 0243     		orrs	r2, r2, r0
  91 0032 1A70     		strb	r2, [r3]
  75:.\Generated_Source\PSoC5/LCD_Char_1_LCDPort.c **** 	CyPins_SetPinDriveMode(LCD_Char_1_LCDPort_4, mode);
  92              		.loc 1 75 0
  93 0034 0133     		adds	r3, r3, #1
  94 0036 1A78     		ldrb	r2, [r3]	@ zero_extendqisi2
  95 0038 02F0F102 		and	r2, r2, #241
  96 003c 0243     		orrs	r2, r2, r0
ARM GAS  C:\Users\JohnP\AppData\Local\Temp\cc9HNoOK.s 			page 4


  97 003e 1A70     		strb	r2, [r3]
  76:.\Generated_Source\PSoC5/LCD_Char_1_LCDPort.c **** 	CyPins_SetPinDriveMode(LCD_Char_1_LCDPort_5, mode);
  98              		.loc 1 76 0
  99 0040 0133     		adds	r3, r3, #1
 100 0042 1A78     		ldrb	r2, [r3]	@ zero_extendqisi2
 101 0044 02F0F102 		and	r2, r2, #241
 102 0048 0243     		orrs	r2, r2, r0
 103 004a 1A70     		strb	r2, [r3]
  77:.\Generated_Source\PSoC5/LCD_Char_1_LCDPort.c **** 	CyPins_SetPinDriveMode(LCD_Char_1_LCDPort_6, mode);
 104              		.loc 1 77 0
 105 004c 0133     		adds	r3, r3, #1
 106 004e 1A78     		ldrb	r2, [r3]	@ zero_extendqisi2
 107 0050 02F0F102 		and	r2, r2, #241
 108 0054 1043     		orrs	r0, r0, r2
 109 0056 1870     		strb	r0, [r3]
 110 0058 7047     		bx	lr
 111              	.L6:
 112 005a 00BF     		.align	2
 113              	.L5:
 114 005c 00500040 		.word	1073762304
 115              		.cfi_endproc
 116              	.LFE1:
 117              		.size	LCD_Char_1_LCDPort_SetDriveMode, .-LCD_Char_1_LCDPort_SetDriveMode
 118              		.section	.text.LCD_Char_1_LCDPort_Read,"ax",%progbits
 119              		.align	2
 120              		.global	LCD_Char_1_LCDPort_Read
 121              		.thumb
 122              		.thumb_func
 123              		.type	LCD_Char_1_LCDPort_Read, %function
 124              	LCD_Char_1_LCDPort_Read:
 125              	.LFB2:
  78:.\Generated_Source\PSoC5/LCD_Char_1_LCDPort.c **** }
  79:.\Generated_Source\PSoC5/LCD_Char_1_LCDPort.c **** 
  80:.\Generated_Source\PSoC5/LCD_Char_1_LCDPort.c **** 
  81:.\Generated_Source\PSoC5/LCD_Char_1_LCDPort.c **** /*******************************************************************************
  82:.\Generated_Source\PSoC5/LCD_Char_1_LCDPort.c **** * Function Name: LCD_Char_1_LCDPort_Read
  83:.\Generated_Source\PSoC5/LCD_Char_1_LCDPort.c **** ********************************************************************************
  84:.\Generated_Source\PSoC5/LCD_Char_1_LCDPort.c **** *
  85:.\Generated_Source\PSoC5/LCD_Char_1_LCDPort.c **** * Summary:
  86:.\Generated_Source\PSoC5/LCD_Char_1_LCDPort.c **** *  Read the current value on the pins of the Digital Port in right justified 
  87:.\Generated_Source\PSoC5/LCD_Char_1_LCDPort.c **** *  form.
  88:.\Generated_Source\PSoC5/LCD_Char_1_LCDPort.c **** *
  89:.\Generated_Source\PSoC5/LCD_Char_1_LCDPort.c **** * Parameters:  
  90:.\Generated_Source\PSoC5/LCD_Char_1_LCDPort.c **** *  None
  91:.\Generated_Source\PSoC5/LCD_Char_1_LCDPort.c **** *
  92:.\Generated_Source\PSoC5/LCD_Char_1_LCDPort.c **** * Return: 
  93:.\Generated_Source\PSoC5/LCD_Char_1_LCDPort.c **** *  Returns the current value of the Digital Port as a right justified number
  94:.\Generated_Source\PSoC5/LCD_Char_1_LCDPort.c **** *  
  95:.\Generated_Source\PSoC5/LCD_Char_1_LCDPort.c **** * Note:
  96:.\Generated_Source\PSoC5/LCD_Char_1_LCDPort.c **** *  Macro LCD_Char_1_LCDPort_ReadPS calls this function. 
  97:.\Generated_Source\PSoC5/LCD_Char_1_LCDPort.c **** *  
  98:.\Generated_Source\PSoC5/LCD_Char_1_LCDPort.c **** *******************************************************************************/
  99:.\Generated_Source\PSoC5/LCD_Char_1_LCDPort.c **** uint8 LCD_Char_1_LCDPort_Read(void) 
 100:.\Generated_Source\PSoC5/LCD_Char_1_LCDPort.c **** {
 126              		.loc 1 100 0
 127              		.cfi_startproc
 128              		@ args = 0, pretend = 0, frame = 0
ARM GAS  C:\Users\JohnP\AppData\Local\Temp\cc9HNoOK.s 			page 5


 129              		@ frame_needed = 0, uses_anonymous_args = 0
 130              		@ link register save eliminated.
 101:.\Generated_Source\PSoC5/LCD_Char_1_LCDPort.c ****     return (LCD_Char_1_LCDPort_PS & LCD_Char_1_LCDPort_MASK) >> LCD_Char_1_LCDPort_SHIFT;
 131              		.loc 1 101 0
 132 0000 024B     		ldr	r3, .L8
 133 0002 1878     		ldrb	r0, [r3]	@ zero_extendqisi2
 102:.\Generated_Source\PSoC5/LCD_Char_1_LCDPort.c **** }
 134              		.loc 1 102 0
 135 0004 00F07F00 		and	r0, r0, #127
 136 0008 7047     		bx	lr
 137              	.L9:
 138 000a 00BF     		.align	2
 139              	.L8:
 140 000c 01510040 		.word	1073762561
 141              		.cfi_endproc
 142              	.LFE2:
 143              		.size	LCD_Char_1_LCDPort_Read, .-LCD_Char_1_LCDPort_Read
 144              		.section	.text.LCD_Char_1_LCDPort_ReadDataReg,"ax",%progbits
 145              		.align	2
 146              		.global	LCD_Char_1_LCDPort_ReadDataReg
 147              		.thumb
 148              		.thumb_func
 149              		.type	LCD_Char_1_LCDPort_ReadDataReg, %function
 150              	LCD_Char_1_LCDPort_ReadDataReg:
 151              	.LFB3:
 103:.\Generated_Source\PSoC5/LCD_Char_1_LCDPort.c **** 
 104:.\Generated_Source\PSoC5/LCD_Char_1_LCDPort.c **** 
 105:.\Generated_Source\PSoC5/LCD_Char_1_LCDPort.c **** /*******************************************************************************
 106:.\Generated_Source\PSoC5/LCD_Char_1_LCDPort.c **** * Function Name: LCD_Char_1_LCDPort_ReadDataReg
 107:.\Generated_Source\PSoC5/LCD_Char_1_LCDPort.c **** ********************************************************************************
 108:.\Generated_Source\PSoC5/LCD_Char_1_LCDPort.c **** *
 109:.\Generated_Source\PSoC5/LCD_Char_1_LCDPort.c **** * Summary:
 110:.\Generated_Source\PSoC5/LCD_Char_1_LCDPort.c **** *  Read the current value assigned to a Digital Port's data output register
 111:.\Generated_Source\PSoC5/LCD_Char_1_LCDPort.c **** *
 112:.\Generated_Source\PSoC5/LCD_Char_1_LCDPort.c **** * Parameters:  
 113:.\Generated_Source\PSoC5/LCD_Char_1_LCDPort.c **** *  None 
 114:.\Generated_Source\PSoC5/LCD_Char_1_LCDPort.c **** *
 115:.\Generated_Source\PSoC5/LCD_Char_1_LCDPort.c **** * Return: 
 116:.\Generated_Source\PSoC5/LCD_Char_1_LCDPort.c **** *  Returns the current value assigned to the Digital Port's data output register
 117:.\Generated_Source\PSoC5/LCD_Char_1_LCDPort.c **** *  
 118:.\Generated_Source\PSoC5/LCD_Char_1_LCDPort.c **** *******************************************************************************/
 119:.\Generated_Source\PSoC5/LCD_Char_1_LCDPort.c **** uint8 LCD_Char_1_LCDPort_ReadDataReg(void) 
 120:.\Generated_Source\PSoC5/LCD_Char_1_LCDPort.c **** {
 152              		.loc 1 120 0
 153              		.cfi_startproc
 154              		@ args = 0, pretend = 0, frame = 0
 155              		@ frame_needed = 0, uses_anonymous_args = 0
 156              		@ link register save eliminated.
 121:.\Generated_Source\PSoC5/LCD_Char_1_LCDPort.c ****     return (LCD_Char_1_LCDPort_DR & LCD_Char_1_LCDPort_MASK) >> LCD_Char_1_LCDPort_SHIFT;
 157              		.loc 1 121 0
 158 0000 024B     		ldr	r3, .L11
 159 0002 1878     		ldrb	r0, [r3]	@ zero_extendqisi2
 122:.\Generated_Source\PSoC5/LCD_Char_1_LCDPort.c **** }
 160              		.loc 1 122 0
 161 0004 00F07F00 		and	r0, r0, #127
 162 0008 7047     		bx	lr
 163              	.L12:
ARM GAS  C:\Users\JohnP\AppData\Local\Temp\cc9HNoOK.s 			page 6


 164 000a 00BF     		.align	2
 165              	.L11:
 166 000c 00510040 		.word	1073762560
 167              		.cfi_endproc
 168              	.LFE3:
 169              		.size	LCD_Char_1_LCDPort_ReadDataReg, .-LCD_Char_1_LCDPort_ReadDataReg
 170              		.text
 171              	.Letext0:
 172              		.file 2 ".\\Generated_Source\\PSoC5\\cytypes.h"