ARM GAS  C:\Users\JohnP\AppData\Local\Temp\ccXb2IMc.s 			page 1


   1              		.syntax unified
   2              		.cpu cortex-m3
   3              		.fpu softvfp
   4              		.eabi_attribute 20, 1
   5              		.eabi_attribute 21, 1
   6              		.eabi_attribute 23, 3
   7              		.eabi_attribute 24, 1
   8              		.eabi_attribute 25, 1
   9              		.eabi_attribute 26, 1
  10              		.eabi_attribute 30, 1
  11              		.eabi_attribute 34, 1
  12              		.eabi_attribute 18, 4
  13              		.thumb
  14              		.file	"LCD_Char_1.c"
  15              		.text
  16              	.Ltext0:
  17              		.cfi_sections	.debug_frame
  18              		.section	.text.LCD_Char_1_WrCntrlNib,"ax",%progbits
  19              		.align	2
  20              		.thumb
  21              		.thumb_func
  22              		.type	LCD_Char_1_WrCntrlNib, %function
  23              	LCD_Char_1_WrCntrlNib:
  24              	.LFB11:
  25              		.file 1 ".\\Generated_Source\\PSoC5\\LCD_Char_1.c"
   1:.\Generated_Source\PSoC5/LCD_Char_1.c **** /*******************************************************************************
   2:.\Generated_Source\PSoC5/LCD_Char_1.c **** * File Name: LCD_Char_1.c
   3:.\Generated_Source\PSoC5/LCD_Char_1.c **** * Version 2.10
   4:.\Generated_Source\PSoC5/LCD_Char_1.c **** *
   5:.\Generated_Source\PSoC5/LCD_Char_1.c **** * Description:
   6:.\Generated_Source\PSoC5/LCD_Char_1.c **** *  This file provides source code for the Character LCD component's API.
   7:.\Generated_Source\PSoC5/LCD_Char_1.c **** *
   8:.\Generated_Source\PSoC5/LCD_Char_1.c **** * Note:
   9:.\Generated_Source\PSoC5/LCD_Char_1.c **** *
  10:.\Generated_Source\PSoC5/LCD_Char_1.c **** ********************************************************************************
  11:.\Generated_Source\PSoC5/LCD_Char_1.c **** * Copyright 2008-2014, Cypress Semiconductor Corporation.  All rights reserved.
  12:.\Generated_Source\PSoC5/LCD_Char_1.c **** * You may use this file only in accordance with the license, terms, conditions,
  13:.\Generated_Source\PSoC5/LCD_Char_1.c **** * disclaimers, and limitations in the end user license agreement accompanying
  14:.\Generated_Source\PSoC5/LCD_Char_1.c **** * the software package with which this file was provided.
  15:.\Generated_Source\PSoC5/LCD_Char_1.c **** *******************************************************************************/
  16:.\Generated_Source\PSoC5/LCD_Char_1.c **** 
  17:.\Generated_Source\PSoC5/LCD_Char_1.c **** #include "CyLib.h"
  18:.\Generated_Source\PSoC5/LCD_Char_1.c **** #include "LCD_Char_1.h"
  19:.\Generated_Source\PSoC5/LCD_Char_1.c **** 
  20:.\Generated_Source\PSoC5/LCD_Char_1.c **** 
  21:.\Generated_Source\PSoC5/LCD_Char_1.c **** static void LCD_Char_1_WrDatNib(uint8 nibble) ;
  22:.\Generated_Source\PSoC5/LCD_Char_1.c **** static void LCD_Char_1_WrCntrlNib(uint8 nibble) ;
  23:.\Generated_Source\PSoC5/LCD_Char_1.c **** 
  24:.\Generated_Source\PSoC5/LCD_Char_1.c **** /* Stores state of component. Indicates whether component is or not
  25:.\Generated_Source\PSoC5/LCD_Char_1.c **** * in enable state.
  26:.\Generated_Source\PSoC5/LCD_Char_1.c **** */
  27:.\Generated_Source\PSoC5/LCD_Char_1.c **** uint8 LCD_Char_1_enableState = 0u;
  28:.\Generated_Source\PSoC5/LCD_Char_1.c **** 
  29:.\Generated_Source\PSoC5/LCD_Char_1.c **** uint8 LCD_Char_1_initVar = 0u;
  30:.\Generated_Source\PSoC5/LCD_Char_1.c **** 
  31:.\Generated_Source\PSoC5/LCD_Char_1.c **** 
  32:.\Generated_Source\PSoC5/LCD_Char_1.c **** /*******************************************************************************
ARM GAS  C:\Users\JohnP\AppData\Local\Temp\ccXb2IMc.s 			page 2


  33:.\Generated_Source\PSoC5/LCD_Char_1.c **** * Function Name: LCD_Char_1_Init
  34:.\Generated_Source\PSoC5/LCD_Char_1.c **** ********************************************************************************
  35:.\Generated_Source\PSoC5/LCD_Char_1.c **** *
  36:.\Generated_Source\PSoC5/LCD_Char_1.c **** * Summary:
  37:.\Generated_Source\PSoC5/LCD_Char_1.c **** *  Performs initialization required for the components normal work.
  38:.\Generated_Source\PSoC5/LCD_Char_1.c **** *  This function initializes the LCD hardware module as follows:
  39:.\Generated_Source\PSoC5/LCD_Char_1.c **** *        Enables a 4-bit interface
  40:.\Generated_Source\PSoC5/LCD_Char_1.c **** *        Clears the display
  41:.\Generated_Source\PSoC5/LCD_Char_1.c **** *        Enables the auto cursor increment
  42:.\Generated_Source\PSoC5/LCD_Char_1.c **** *        Resets the cursor to start position
  43:.\Generated_Source\PSoC5/LCD_Char_1.c **** *  Also, it loads a custom character set to the LCD if it was defined in the customizer.
  44:.\Generated_Source\PSoC5/LCD_Char_1.c **** *
  45:.\Generated_Source\PSoC5/LCD_Char_1.c **** * Parameters:
  46:.\Generated_Source\PSoC5/LCD_Char_1.c **** *  None.
  47:.\Generated_Source\PSoC5/LCD_Char_1.c **** *
  48:.\Generated_Source\PSoC5/LCD_Char_1.c **** * Return:
  49:.\Generated_Source\PSoC5/LCD_Char_1.c **** *  None.
  50:.\Generated_Source\PSoC5/LCD_Char_1.c **** *
  51:.\Generated_Source\PSoC5/LCD_Char_1.c **** * Reentrant:
  52:.\Generated_Source\PSoC5/LCD_Char_1.c **** *  No.
  53:.\Generated_Source\PSoC5/LCD_Char_1.c **** *
  54:.\Generated_Source\PSoC5/LCD_Char_1.c **** *******************************************************************************/
  55:.\Generated_Source\PSoC5/LCD_Char_1.c **** void LCD_Char_1_Init(void) 
  56:.\Generated_Source\PSoC5/LCD_Char_1.c **** {
  57:.\Generated_Source\PSoC5/LCD_Char_1.c ****     /* INIT CODE */
  58:.\Generated_Source\PSoC5/LCD_Char_1.c ****     CyDelay(40u);                                                        /* Delay 40 ms */
  59:.\Generated_Source\PSoC5/LCD_Char_1.c ****     LCD_Char_1_WrCntrlNib(LCD_Char_1_DISPLAY_8_BIT_INIT);    /* Selects 8-bit mode */
  60:.\Generated_Source\PSoC5/LCD_Char_1.c ****     CyDelay(5u);                                                         /* Delay 5 ms */
  61:.\Generated_Source\PSoC5/LCD_Char_1.c ****     LCD_Char_1_WrCntrlNib(LCD_Char_1_DISPLAY_8_BIT_INIT);    /* Selects 8-bit mode */
  62:.\Generated_Source\PSoC5/LCD_Char_1.c ****     CyDelay(15u);                                                        /* Delay 15 ms */
  63:.\Generated_Source\PSoC5/LCD_Char_1.c ****     LCD_Char_1_WrCntrlNib(LCD_Char_1_DISPLAY_8_BIT_INIT);    /* Selects 8-bit mode */
  64:.\Generated_Source\PSoC5/LCD_Char_1.c ****     CyDelay(1u);                                                         /* Delay 1 ms */
  65:.\Generated_Source\PSoC5/LCD_Char_1.c ****     LCD_Char_1_WrCntrlNib(LCD_Char_1_DISPLAY_4_BIT_INIT);    /* Selects 4-bit mode */
  66:.\Generated_Source\PSoC5/LCD_Char_1.c ****     CyDelay(5u);                                                         /* Delay 5 ms */
  67:.\Generated_Source\PSoC5/LCD_Char_1.c **** 
  68:.\Generated_Source\PSoC5/LCD_Char_1.c ****     LCD_Char_1_WriteControl(LCD_Char_1_CURSOR_AUTO_INCR_ON);    /* Incr Cursor After Writes */
  69:.\Generated_Source\PSoC5/LCD_Char_1.c ****     LCD_Char_1_WriteControl(LCD_Char_1_DISPLAY_CURSOR_ON);      /* Turn Display, Cursor ON */
  70:.\Generated_Source\PSoC5/LCD_Char_1.c ****     LCD_Char_1_WriteControl(LCD_Char_1_DISPLAY_2_LINES_5x10);   /* 2 Lines by 5x10 Characters */
  71:.\Generated_Source\PSoC5/LCD_Char_1.c ****     LCD_Char_1_WriteControl(LCD_Char_1_DISPLAY_CURSOR_OFF);     /* Turn Display, Cursor OFF */
  72:.\Generated_Source\PSoC5/LCD_Char_1.c ****     LCD_Char_1_WriteControl(LCD_Char_1_CLEAR_DISPLAY);          /* Clear LCD Screen */
  73:.\Generated_Source\PSoC5/LCD_Char_1.c ****     LCD_Char_1_WriteControl(LCD_Char_1_DISPLAY_ON_CURSOR_OFF);  /* Turn Display ON, Cursor OFF */
  74:.\Generated_Source\PSoC5/LCD_Char_1.c ****     LCD_Char_1_WriteControl(LCD_Char_1_RESET_CURSOR_POSITION);  /* Set Cursor to 0,0 */
  75:.\Generated_Source\PSoC5/LCD_Char_1.c ****     CyDelay(5u);
  76:.\Generated_Source\PSoC5/LCD_Char_1.c **** 
  77:.\Generated_Source\PSoC5/LCD_Char_1.c ****     #if(LCD_Char_1_CUSTOM_CHAR_SET != LCD_Char_1_NONE)
  78:.\Generated_Source\PSoC5/LCD_Char_1.c ****         LCD_Char_1_LoadCustomFonts(LCD_Char_1_customFonts);
  79:.\Generated_Source\PSoC5/LCD_Char_1.c ****     #endif /* LCD_Char_1_CUSTOM_CHAR_SET != LCD_Char_1_NONE */
  80:.\Generated_Source\PSoC5/LCD_Char_1.c **** }
  81:.\Generated_Source\PSoC5/LCD_Char_1.c **** 
  82:.\Generated_Source\PSoC5/LCD_Char_1.c **** 
  83:.\Generated_Source\PSoC5/LCD_Char_1.c **** /*******************************************************************************
  84:.\Generated_Source\PSoC5/LCD_Char_1.c **** * Function Name: LCD_Char_1_Enable
  85:.\Generated_Source\PSoC5/LCD_Char_1.c **** ********************************************************************************
  86:.\Generated_Source\PSoC5/LCD_Char_1.c **** *
  87:.\Generated_Source\PSoC5/LCD_Char_1.c **** * Summary:
  88:.\Generated_Source\PSoC5/LCD_Char_1.c **** *  Turns on the display.
  89:.\Generated_Source\PSoC5/LCD_Char_1.c **** *
ARM GAS  C:\Users\JohnP\AppData\Local\Temp\ccXb2IMc.s 			page 3


  90:.\Generated_Source\PSoC5/LCD_Char_1.c **** * Parameters:
  91:.\Generated_Source\PSoC5/LCD_Char_1.c **** *  None.
  92:.\Generated_Source\PSoC5/LCD_Char_1.c **** *
  93:.\Generated_Source\PSoC5/LCD_Char_1.c **** * Return:
  94:.\Generated_Source\PSoC5/LCD_Char_1.c **** *  None.
  95:.\Generated_Source\PSoC5/LCD_Char_1.c **** *
  96:.\Generated_Source\PSoC5/LCD_Char_1.c **** * Reentrant:
  97:.\Generated_Source\PSoC5/LCD_Char_1.c **** *  No.
  98:.\Generated_Source\PSoC5/LCD_Char_1.c **** *
  99:.\Generated_Source\PSoC5/LCD_Char_1.c **** * Theory:
 100:.\Generated_Source\PSoC5/LCD_Char_1.c **** *  This function has no effect when it is called the first time as
 101:.\Generated_Source\PSoC5/LCD_Char_1.c **** *  LCD_Char_1_Init() turns on the LCD.
 102:.\Generated_Source\PSoC5/LCD_Char_1.c **** *
 103:.\Generated_Source\PSoC5/LCD_Char_1.c **** *******************************************************************************/
 104:.\Generated_Source\PSoC5/LCD_Char_1.c **** void LCD_Char_1_Enable(void) 
 105:.\Generated_Source\PSoC5/LCD_Char_1.c **** {
 106:.\Generated_Source\PSoC5/LCD_Char_1.c ****     LCD_Char_1_DisplayOn();
 107:.\Generated_Source\PSoC5/LCD_Char_1.c ****     LCD_Char_1_enableState = 1u;
 108:.\Generated_Source\PSoC5/LCD_Char_1.c **** }
 109:.\Generated_Source\PSoC5/LCD_Char_1.c **** 
 110:.\Generated_Source\PSoC5/LCD_Char_1.c **** 
 111:.\Generated_Source\PSoC5/LCD_Char_1.c **** /*******************************************************************************
 112:.\Generated_Source\PSoC5/LCD_Char_1.c **** * Function Name: LCD_Char_1_Start
 113:.\Generated_Source\PSoC5/LCD_Char_1.c **** ********************************************************************************
 114:.\Generated_Source\PSoC5/LCD_Char_1.c **** *
 115:.\Generated_Source\PSoC5/LCD_Char_1.c **** * Summary:
 116:.\Generated_Source\PSoC5/LCD_Char_1.c **** *  Performs initialization required for the components normal work.
 117:.\Generated_Source\PSoC5/LCD_Char_1.c **** *  This function initializes the LCD hardware module as follows:
 118:.\Generated_Source\PSoC5/LCD_Char_1.c **** *        Enables 4-bit interface
 119:.\Generated_Source\PSoC5/LCD_Char_1.c **** *        Clears the display
 120:.\Generated_Source\PSoC5/LCD_Char_1.c **** *        Enables auto cursor increment
 121:.\Generated_Source\PSoC5/LCD_Char_1.c **** *        Resets the cursor to start position
 122:.\Generated_Source\PSoC5/LCD_Char_1.c **** *  Also, it loads a custom character set to the LCD if it was defined in the customizer.
 123:.\Generated_Source\PSoC5/LCD_Char_1.c **** *  If it was not the first call in this project, then it just turns on the
 124:.\Generated_Source\PSoC5/LCD_Char_1.c **** *  display
 125:.\Generated_Source\PSoC5/LCD_Char_1.c **** *
 126:.\Generated_Source\PSoC5/LCD_Char_1.c **** *
 127:.\Generated_Source\PSoC5/LCD_Char_1.c **** * Parameters:
 128:.\Generated_Source\PSoC5/LCD_Char_1.c **** *  LCD_Char_1_initVar - global variable.
 129:.\Generated_Source\PSoC5/LCD_Char_1.c **** *
 130:.\Generated_Source\PSoC5/LCD_Char_1.c **** * Return:
 131:.\Generated_Source\PSoC5/LCD_Char_1.c **** *  LCD_Char_1_initVar - global variable.
 132:.\Generated_Source\PSoC5/LCD_Char_1.c **** *
 133:.\Generated_Source\PSoC5/LCD_Char_1.c **** * Reentrant:
 134:.\Generated_Source\PSoC5/LCD_Char_1.c **** *  No.
 135:.\Generated_Source\PSoC5/LCD_Char_1.c **** *
 136:.\Generated_Source\PSoC5/LCD_Char_1.c **** *******************************************************************************/
 137:.\Generated_Source\PSoC5/LCD_Char_1.c **** void LCD_Char_1_Start(void) 
 138:.\Generated_Source\PSoC5/LCD_Char_1.c **** {
 139:.\Generated_Source\PSoC5/LCD_Char_1.c ****     /* If not initialized, perform initialization */
 140:.\Generated_Source\PSoC5/LCD_Char_1.c ****     if(LCD_Char_1_initVar == 0u)
 141:.\Generated_Source\PSoC5/LCD_Char_1.c ****     {
 142:.\Generated_Source\PSoC5/LCD_Char_1.c ****         LCD_Char_1_Init();
 143:.\Generated_Source\PSoC5/LCD_Char_1.c ****         LCD_Char_1_initVar = 1u;
 144:.\Generated_Source\PSoC5/LCD_Char_1.c ****     }
 145:.\Generated_Source\PSoC5/LCD_Char_1.c **** 
 146:.\Generated_Source\PSoC5/LCD_Char_1.c ****     /* Turn on the LCD */
ARM GAS  C:\Users\JohnP\AppData\Local\Temp\ccXb2IMc.s 			page 4


 147:.\Generated_Source\PSoC5/LCD_Char_1.c ****     LCD_Char_1_Enable();
 148:.\Generated_Source\PSoC5/LCD_Char_1.c **** }
 149:.\Generated_Source\PSoC5/LCD_Char_1.c **** 
 150:.\Generated_Source\PSoC5/LCD_Char_1.c **** 
 151:.\Generated_Source\PSoC5/LCD_Char_1.c **** /*******************************************************************************
 152:.\Generated_Source\PSoC5/LCD_Char_1.c **** * Function Name: LCD_Char_1_Stop
 153:.\Generated_Source\PSoC5/LCD_Char_1.c **** ********************************************************************************
 154:.\Generated_Source\PSoC5/LCD_Char_1.c **** *
 155:.\Generated_Source\PSoC5/LCD_Char_1.c **** * Summary:
 156:.\Generated_Source\PSoC5/LCD_Char_1.c **** *  Turns off the display of the LCD screen.
 157:.\Generated_Source\PSoC5/LCD_Char_1.c **** *
 158:.\Generated_Source\PSoC5/LCD_Char_1.c **** * Parameters:
 159:.\Generated_Source\PSoC5/LCD_Char_1.c **** *  None.
 160:.\Generated_Source\PSoC5/LCD_Char_1.c **** *
 161:.\Generated_Source\PSoC5/LCD_Char_1.c **** * Return:
 162:.\Generated_Source\PSoC5/LCD_Char_1.c **** *  None.
 163:.\Generated_Source\PSoC5/LCD_Char_1.c **** *
 164:.\Generated_Source\PSoC5/LCD_Char_1.c **** * Reentrant:
 165:.\Generated_Source\PSoC5/LCD_Char_1.c **** *  No.
 166:.\Generated_Source\PSoC5/LCD_Char_1.c **** *
 167:.\Generated_Source\PSoC5/LCD_Char_1.c **** *******************************************************************************/
 168:.\Generated_Source\PSoC5/LCD_Char_1.c **** void LCD_Char_1_Stop(void) 
 169:.\Generated_Source\PSoC5/LCD_Char_1.c **** {
 170:.\Generated_Source\PSoC5/LCD_Char_1.c ****     /* Calls LCD Off Macro */
 171:.\Generated_Source\PSoC5/LCD_Char_1.c ****     LCD_Char_1_DisplayOff();
 172:.\Generated_Source\PSoC5/LCD_Char_1.c ****     LCD_Char_1_enableState = 0u;
 173:.\Generated_Source\PSoC5/LCD_Char_1.c **** }
 174:.\Generated_Source\PSoC5/LCD_Char_1.c **** 
 175:.\Generated_Source\PSoC5/LCD_Char_1.c **** 
 176:.\Generated_Source\PSoC5/LCD_Char_1.c **** /*******************************************************************************
 177:.\Generated_Source\PSoC5/LCD_Char_1.c **** *  Function Name: LCD_Char_1_Position
 178:.\Generated_Source\PSoC5/LCD_Char_1.c **** ********************************************************************************
 179:.\Generated_Source\PSoC5/LCD_Char_1.c **** *
 180:.\Generated_Source\PSoC5/LCD_Char_1.c **** * Summary:
 181:.\Generated_Source\PSoC5/LCD_Char_1.c **** *  Moves the active cursor location to a point specified by the input arguments
 182:.\Generated_Source\PSoC5/LCD_Char_1.c **** *
 183:.\Generated_Source\PSoC5/LCD_Char_1.c **** * Parameters:
 184:.\Generated_Source\PSoC5/LCD_Char_1.c **** *  row:    Specific row of LCD module to be written
 185:.\Generated_Source\PSoC5/LCD_Char_1.c **** *  column: Column of LCD module to be written
 186:.\Generated_Source\PSoC5/LCD_Char_1.c **** *
 187:.\Generated_Source\PSoC5/LCD_Char_1.c **** * Return:
 188:.\Generated_Source\PSoC5/LCD_Char_1.c **** *  None.
 189:.\Generated_Source\PSoC5/LCD_Char_1.c **** *
 190:.\Generated_Source\PSoC5/LCD_Char_1.c **** * Note:
 191:.\Generated_Source\PSoC5/LCD_Char_1.c **** *  This only applies for LCD displays that use the 2X40 address mode.
 192:.\Generated_Source\PSoC5/LCD_Char_1.c **** *  In this case Row 2 starts with a 0x28 offset from Row 1.
 193:.\Generated_Source\PSoC5/LCD_Char_1.c **** *  When there are more than 2 rows, each row must be fewer than 20 characters.
 194:.\Generated_Source\PSoC5/LCD_Char_1.c **** *
 195:.\Generated_Source\PSoC5/LCD_Char_1.c **** *******************************************************************************/
 196:.\Generated_Source\PSoC5/LCD_Char_1.c **** void LCD_Char_1_Position(uint8 row, uint8 column) 
 197:.\Generated_Source\PSoC5/LCD_Char_1.c **** {
 198:.\Generated_Source\PSoC5/LCD_Char_1.c ****     switch (row)
 199:.\Generated_Source\PSoC5/LCD_Char_1.c ****     {
 200:.\Generated_Source\PSoC5/LCD_Char_1.c ****         case (uint8)0:
 201:.\Generated_Source\PSoC5/LCD_Char_1.c ****             LCD_Char_1_WriteControl(LCD_Char_1_ROW_0_START + column);
 202:.\Generated_Source\PSoC5/LCD_Char_1.c ****             break;
 203:.\Generated_Source\PSoC5/LCD_Char_1.c ****         case (uint8) 1:
ARM GAS  C:\Users\JohnP\AppData\Local\Temp\ccXb2IMc.s 			page 5


 204:.\Generated_Source\PSoC5/LCD_Char_1.c ****             LCD_Char_1_WriteControl(LCD_Char_1_ROW_1_START + column);
 205:.\Generated_Source\PSoC5/LCD_Char_1.c ****             break;
 206:.\Generated_Source\PSoC5/LCD_Char_1.c ****         case (uint8) 2:
 207:.\Generated_Source\PSoC5/LCD_Char_1.c ****             LCD_Char_1_WriteControl(LCD_Char_1_ROW_2_START + column);
 208:.\Generated_Source\PSoC5/LCD_Char_1.c ****             break;
 209:.\Generated_Source\PSoC5/LCD_Char_1.c ****         case (uint8) 3:
 210:.\Generated_Source\PSoC5/LCD_Char_1.c ****             LCD_Char_1_WriteControl(LCD_Char_1_ROW_3_START + column);
 211:.\Generated_Source\PSoC5/LCD_Char_1.c ****             break;
 212:.\Generated_Source\PSoC5/LCD_Char_1.c ****         default:
 213:.\Generated_Source\PSoC5/LCD_Char_1.c ****             /* if default case is hit, invalid row argument was passed.*/
 214:.\Generated_Source\PSoC5/LCD_Char_1.c ****             break;
 215:.\Generated_Source\PSoC5/LCD_Char_1.c ****     }
 216:.\Generated_Source\PSoC5/LCD_Char_1.c **** }
 217:.\Generated_Source\PSoC5/LCD_Char_1.c **** 
 218:.\Generated_Source\PSoC5/LCD_Char_1.c **** 
 219:.\Generated_Source\PSoC5/LCD_Char_1.c **** /*******************************************************************************
 220:.\Generated_Source\PSoC5/LCD_Char_1.c **** * Function Name: LCD_Char_1_PrintString
 221:.\Generated_Source\PSoC5/LCD_Char_1.c **** ********************************************************************************
 222:.\Generated_Source\PSoC5/LCD_Char_1.c **** *
 223:.\Generated_Source\PSoC5/LCD_Char_1.c **** * Summary:
 224:.\Generated_Source\PSoC5/LCD_Char_1.c **** *  Writes a zero terminated string to the LCD.
 225:.\Generated_Source\PSoC5/LCD_Char_1.c **** *
 226:.\Generated_Source\PSoC5/LCD_Char_1.c **** * Parameters:
 227:.\Generated_Source\PSoC5/LCD_Char_1.c **** *  string: Pointer to head of char8 array to be written to the LCD module
 228:.\Generated_Source\PSoC5/LCD_Char_1.c **** *
 229:.\Generated_Source\PSoC5/LCD_Char_1.c **** * Return:
 230:.\Generated_Source\PSoC5/LCD_Char_1.c **** *  None.
 231:.\Generated_Source\PSoC5/LCD_Char_1.c **** *
 232:.\Generated_Source\PSoC5/LCD_Char_1.c **** *******************************************************************************/
 233:.\Generated_Source\PSoC5/LCD_Char_1.c **** void LCD_Char_1_PrintString(char8 const string[]) 
 234:.\Generated_Source\PSoC5/LCD_Char_1.c **** {
 235:.\Generated_Source\PSoC5/LCD_Char_1.c ****     uint8 indexU8 = 1u;
 236:.\Generated_Source\PSoC5/LCD_Char_1.c ****     char8 current = *string;
 237:.\Generated_Source\PSoC5/LCD_Char_1.c **** 
 238:.\Generated_Source\PSoC5/LCD_Char_1.c ****     /* Until null is reached, print next character */
 239:.\Generated_Source\PSoC5/LCD_Char_1.c ****     while((char8) '\0' != current)
 240:.\Generated_Source\PSoC5/LCD_Char_1.c ****     {
 241:.\Generated_Source\PSoC5/LCD_Char_1.c ****         LCD_Char_1_WriteData((uint8)current);
 242:.\Generated_Source\PSoC5/LCD_Char_1.c ****         current = string[indexU8];
 243:.\Generated_Source\PSoC5/LCD_Char_1.c ****         indexU8++;
 244:.\Generated_Source\PSoC5/LCD_Char_1.c ****     }
 245:.\Generated_Source\PSoC5/LCD_Char_1.c **** }
 246:.\Generated_Source\PSoC5/LCD_Char_1.c **** 
 247:.\Generated_Source\PSoC5/LCD_Char_1.c **** 
 248:.\Generated_Source\PSoC5/LCD_Char_1.c **** /*******************************************************************************
 249:.\Generated_Source\PSoC5/LCD_Char_1.c **** *  Function Name: LCD_Char_1_PutChar
 250:.\Generated_Source\PSoC5/LCD_Char_1.c **** ********************************************************************************
 251:.\Generated_Source\PSoC5/LCD_Char_1.c **** *
 252:.\Generated_Source\PSoC5/LCD_Char_1.c **** * Summary:
 253:.\Generated_Source\PSoC5/LCD_Char_1.c **** *  Writes a single character to the current cursor position of the LCD module.
 254:.\Generated_Source\PSoC5/LCD_Char_1.c **** *  Custom character names (_CUSTOM_0 through
 255:.\Generated_Source\PSoC5/LCD_Char_1.c **** *  _CUSTOM_7) are acceptable as inputs.
 256:.\Generated_Source\PSoC5/LCD_Char_1.c **** *
 257:.\Generated_Source\PSoC5/LCD_Char_1.c **** * Parameters:
 258:.\Generated_Source\PSoC5/LCD_Char_1.c **** *  character: Character to be written to LCD
 259:.\Generated_Source\PSoC5/LCD_Char_1.c **** *
 260:.\Generated_Source\PSoC5/LCD_Char_1.c **** * Return:
ARM GAS  C:\Users\JohnP\AppData\Local\Temp\ccXb2IMc.s 			page 6


 261:.\Generated_Source\PSoC5/LCD_Char_1.c **** *  None.
 262:.\Generated_Source\PSoC5/LCD_Char_1.c **** *
 263:.\Generated_Source\PSoC5/LCD_Char_1.c **** *******************************************************************************/
 264:.\Generated_Source\PSoC5/LCD_Char_1.c **** void LCD_Char_1_PutChar(char8 character) 
 265:.\Generated_Source\PSoC5/LCD_Char_1.c **** {
 266:.\Generated_Source\PSoC5/LCD_Char_1.c ****     LCD_Char_1_WriteData((uint8)character);
 267:.\Generated_Source\PSoC5/LCD_Char_1.c **** }
 268:.\Generated_Source\PSoC5/LCD_Char_1.c **** 
 269:.\Generated_Source\PSoC5/LCD_Char_1.c **** 
 270:.\Generated_Source\PSoC5/LCD_Char_1.c **** /*******************************************************************************
 271:.\Generated_Source\PSoC5/LCD_Char_1.c **** *  Function Name: LCD_Char_1_WriteData
 272:.\Generated_Source\PSoC5/LCD_Char_1.c **** ********************************************************************************
 273:.\Generated_Source\PSoC5/LCD_Char_1.c **** *
 274:.\Generated_Source\PSoC5/LCD_Char_1.c **** * Summary:
 275:.\Generated_Source\PSoC5/LCD_Char_1.c **** *  Writes a data byte to the LCD module's Data Display RAM.
 276:.\Generated_Source\PSoC5/LCD_Char_1.c **** *
 277:.\Generated_Source\PSoC5/LCD_Char_1.c **** * Parameters:
 278:.\Generated_Source\PSoC5/LCD_Char_1.c **** *  dByte: Byte to be written to the LCD module
 279:.\Generated_Source\PSoC5/LCD_Char_1.c **** *
 280:.\Generated_Source\PSoC5/LCD_Char_1.c **** * Return:
 281:.\Generated_Source\PSoC5/LCD_Char_1.c **** *  None.
 282:.\Generated_Source\PSoC5/LCD_Char_1.c **** *
 283:.\Generated_Source\PSoC5/LCD_Char_1.c **** *******************************************************************************/
 284:.\Generated_Source\PSoC5/LCD_Char_1.c **** void LCD_Char_1_WriteData(uint8 dByte) 
 285:.\Generated_Source\PSoC5/LCD_Char_1.c **** {
 286:.\Generated_Source\PSoC5/LCD_Char_1.c ****     uint8 nibble;
 287:.\Generated_Source\PSoC5/LCD_Char_1.c **** 
 288:.\Generated_Source\PSoC5/LCD_Char_1.c ****     LCD_Char_1_IsReady();
 289:.\Generated_Source\PSoC5/LCD_Char_1.c ****     nibble = dByte >> LCD_Char_1_NIBBLE_SHIFT;
 290:.\Generated_Source\PSoC5/LCD_Char_1.c **** 
 291:.\Generated_Source\PSoC5/LCD_Char_1.c ****     /* Write high nibble */
 292:.\Generated_Source\PSoC5/LCD_Char_1.c ****     LCD_Char_1_WrDatNib(nibble);
 293:.\Generated_Source\PSoC5/LCD_Char_1.c **** 
 294:.\Generated_Source\PSoC5/LCD_Char_1.c ****     nibble = dByte & LCD_Char_1_NIBBLE_MASK;
 295:.\Generated_Source\PSoC5/LCD_Char_1.c ****     /* Write low nibble */
 296:.\Generated_Source\PSoC5/LCD_Char_1.c ****     LCD_Char_1_WrDatNib(nibble);
 297:.\Generated_Source\PSoC5/LCD_Char_1.c **** }
 298:.\Generated_Source\PSoC5/LCD_Char_1.c **** 
 299:.\Generated_Source\PSoC5/LCD_Char_1.c **** 
 300:.\Generated_Source\PSoC5/LCD_Char_1.c **** /*******************************************************************************
 301:.\Generated_Source\PSoC5/LCD_Char_1.c **** *  Function Name: LCD_Char_1_WriteControl
 302:.\Generated_Source\PSoC5/LCD_Char_1.c **** ********************************************************************************
 303:.\Generated_Source\PSoC5/LCD_Char_1.c **** *
 304:.\Generated_Source\PSoC5/LCD_Char_1.c **** * Summary:
 305:.\Generated_Source\PSoC5/LCD_Char_1.c **** *  Writes a command byte to the LCD module.
 306:.\Generated_Source\PSoC5/LCD_Char_1.c **** *
 307:.\Generated_Source\PSoC5/LCD_Char_1.c **** * Parameters:
 308:.\Generated_Source\PSoC5/LCD_Char_1.c **** *  cByte:  The byte to be written to theLCD module
 309:.\Generated_Source\PSoC5/LCD_Char_1.c **** * 
 310:.\Generated_Source\PSoC5/LCD_Char_1.c **** * Return:
 311:.\Generated_Source\PSoC5/LCD_Char_1.c **** *  None.
 312:.\Generated_Source\PSoC5/LCD_Char_1.c **** *
 313:.\Generated_Source\PSoC5/LCD_Char_1.c **** *******************************************************************************/
 314:.\Generated_Source\PSoC5/LCD_Char_1.c **** void LCD_Char_1_WriteControl(uint8 cByte) 
 315:.\Generated_Source\PSoC5/LCD_Char_1.c **** {
 316:.\Generated_Source\PSoC5/LCD_Char_1.c ****     uint8 nibble;
 317:.\Generated_Source\PSoC5/LCD_Char_1.c **** 
ARM GAS  C:\Users\JohnP\AppData\Local\Temp\ccXb2IMc.s 			page 7


 318:.\Generated_Source\PSoC5/LCD_Char_1.c ****     LCD_Char_1_IsReady();
 319:.\Generated_Source\PSoC5/LCD_Char_1.c **** 
 320:.\Generated_Source\PSoC5/LCD_Char_1.c ****     nibble = cByte >> LCD_Char_1_NIBBLE_SHIFT;
 321:.\Generated_Source\PSoC5/LCD_Char_1.c ****     
 322:.\Generated_Source\PSoC5/LCD_Char_1.c ****     /* WrCntrlNib(High Nibble) */
 323:.\Generated_Source\PSoC5/LCD_Char_1.c ****     LCD_Char_1_WrCntrlNib(nibble);
 324:.\Generated_Source\PSoC5/LCD_Char_1.c ****     nibble = cByte & LCD_Char_1_NIBBLE_MASK;
 325:.\Generated_Source\PSoC5/LCD_Char_1.c **** 
 326:.\Generated_Source\PSoC5/LCD_Char_1.c ****     /* WrCntrlNib(Low Nibble) */
 327:.\Generated_Source\PSoC5/LCD_Char_1.c ****     LCD_Char_1_WrCntrlNib(nibble);
 328:.\Generated_Source\PSoC5/LCD_Char_1.c **** }
 329:.\Generated_Source\PSoC5/LCD_Char_1.c **** 
 330:.\Generated_Source\PSoC5/LCD_Char_1.c **** 
 331:.\Generated_Source\PSoC5/LCD_Char_1.c **** /*******************************************************************************
 332:.\Generated_Source\PSoC5/LCD_Char_1.c **** * Function Name: LCD_Char_1_IsReady
 333:.\Generated_Source\PSoC5/LCD_Char_1.c **** ********************************************************************************
 334:.\Generated_Source\PSoC5/LCD_Char_1.c **** *
 335:.\Generated_Source\PSoC5/LCD_Char_1.c **** * Summary:
 336:.\Generated_Source\PSoC5/LCD_Char_1.c **** *  Polls the LCD until the ready bit is set or a timeout occurs.
 337:.\Generated_Source\PSoC5/LCD_Char_1.c **** *
 338:.\Generated_Source\PSoC5/LCD_Char_1.c **** * Parameters:
 339:.\Generated_Source\PSoC5/LCD_Char_1.c **** *  None.
 340:.\Generated_Source\PSoC5/LCD_Char_1.c **** *
 341:.\Generated_Source\PSoC5/LCD_Char_1.c **** * Return:
 342:.\Generated_Source\PSoC5/LCD_Char_1.c **** *  None.
 343:.\Generated_Source\PSoC5/LCD_Char_1.c **** *
 344:.\Generated_Source\PSoC5/LCD_Char_1.c **** * Note:
 345:.\Generated_Source\PSoC5/LCD_Char_1.c **** *  Changes the pins to High-Z.
 346:.\Generated_Source\PSoC5/LCD_Char_1.c **** *
 347:.\Generated_Source\PSoC5/LCD_Char_1.c **** *******************************************************************************/
 348:.\Generated_Source\PSoC5/LCD_Char_1.c **** void LCD_Char_1_IsReady(void) 
 349:.\Generated_Source\PSoC5/LCD_Char_1.c **** {
 350:.\Generated_Source\PSoC5/LCD_Char_1.c ****     uint8 value;
 351:.\Generated_Source\PSoC5/LCD_Char_1.c ****     uint32 timeout;
 352:.\Generated_Source\PSoC5/LCD_Char_1.c ****     timeout = LCD_Char_1_READY_DELAY;
 353:.\Generated_Source\PSoC5/LCD_Char_1.c **** 
 354:.\Generated_Source\PSoC5/LCD_Char_1.c ****     /* Clear LCD port*/
 355:.\Generated_Source\PSoC5/LCD_Char_1.c ****     LCD_Char_1_PORT_DR_REG &= ((uint8)(~LCD_Char_1_PORT_MASK));
 356:.\Generated_Source\PSoC5/LCD_Char_1.c **** 
 357:.\Generated_Source\PSoC5/LCD_Char_1.c ****     /* PSoC4 has a little different from PSoC3/5 port/pin organization for setting Drive Modes.
 358:.\Generated_Source\PSoC5/LCD_Char_1.c ****   
 359:.\Generated_Source\PSoC5/LCD_Char_1.c ****     */
 360:.\Generated_Source\PSoC5/LCD_Char_1.c ****     #if (CY_PSOC4)
 361:.\Generated_Source\PSoC5/LCD_Char_1.c ****         
 362:.\Generated_Source\PSoC5/LCD_Char_1.c ****         /* Mask off data pins to clear old values out */
 363:.\Generated_Source\PSoC5/LCD_Char_1.c ****         value = LCD_Char_1_PORT_PC_REG & ((uint32) (~ LCD_Char_1_DM_DATA_MASK));
 364:.\Generated_Source\PSoC5/LCD_Char_1.c ****         /* Load in high Z values for data pins, others unchanged */
 365:.\Generated_Source\PSoC5/LCD_Char_1.c ****         LCD_Char_1_PORT_PC_REG = value | LCD_Char_1_HIGH_Z_DATA_DM;
 366:.\Generated_Source\PSoC5/LCD_Char_1.c **** 
 367:.\Generated_Source\PSoC5/LCD_Char_1.c ****     #else
 368:.\Generated_Source\PSoC5/LCD_Char_1.c ****     
 369:.\Generated_Source\PSoC5/LCD_Char_1.c ****         /* Change Port to High-Z Status on data pins */
 370:.\Generated_Source\PSoC5/LCD_Char_1.c **** 
 371:.\Generated_Source\PSoC5/LCD_Char_1.c ****         /* Mask off data pins to clear old values out */
 372:.\Generated_Source\PSoC5/LCD_Char_1.c ****         value = LCD_Char_1_PORT_DM0_REG & ((uint8)(~LCD_Char_1_DATA_MASK));
 373:.\Generated_Source\PSoC5/LCD_Char_1.c ****         /* Load in high Z values for data pins, others unchanged */
 374:.\Generated_Source\PSoC5/LCD_Char_1.c ****         LCD_Char_1_PORT_DM0_REG = value | (LCD_Char_1_HIGH_Z_DM0 & LCD_Char_1_DATA_MASK);
ARM GAS  C:\Users\JohnP\AppData\Local\Temp\ccXb2IMc.s 			page 8


 375:.\Generated_Source\PSoC5/LCD_Char_1.c **** 
 376:.\Generated_Source\PSoC5/LCD_Char_1.c ****         /* Mask off data pins to clear old values out */
 377:.\Generated_Source\PSoC5/LCD_Char_1.c ****         value = LCD_Char_1_PORT_DM1_REG & ((uint8)(~LCD_Char_1_DATA_MASK));
 378:.\Generated_Source\PSoC5/LCD_Char_1.c ****         /* Load in high Z values for data pins, others unchanged */
 379:.\Generated_Source\PSoC5/LCD_Char_1.c ****         LCD_Char_1_PORT_DM1_REG = value;
 380:.\Generated_Source\PSoC5/LCD_Char_1.c **** 
 381:.\Generated_Source\PSoC5/LCD_Char_1.c ****         /* Mask off data pins to clear old values out */
 382:.\Generated_Source\PSoC5/LCD_Char_1.c ****         value = LCD_Char_1_PORT_DM2_REG & ((uint8)(~LCD_Char_1_DATA_MASK));
 383:.\Generated_Source\PSoC5/LCD_Char_1.c ****         /* Load in high Z values for data pins, others unchanged */
 384:.\Generated_Source\PSoC5/LCD_Char_1.c ****         LCD_Char_1_PORT_DM2_REG = value;
 385:.\Generated_Source\PSoC5/LCD_Char_1.c ****     
 386:.\Generated_Source\PSoC5/LCD_Char_1.c ****     #endif /* CY_PSOC4 */
 387:.\Generated_Source\PSoC5/LCD_Char_1.c ****     
 388:.\Generated_Source\PSoC5/LCD_Char_1.c ****     /* Make sure RS is low */
 389:.\Generated_Source\PSoC5/LCD_Char_1.c ****     LCD_Char_1_PORT_DR_REG &= ((uint8)(~LCD_Char_1_RS));
 390:.\Generated_Source\PSoC5/LCD_Char_1.c **** 
 391:.\Generated_Source\PSoC5/LCD_Char_1.c ****     /* Set R/W high to read */
 392:.\Generated_Source\PSoC5/LCD_Char_1.c ****     LCD_Char_1_PORT_DR_REG |= LCD_Char_1_RW;
 393:.\Generated_Source\PSoC5/LCD_Char_1.c **** 
 394:.\Generated_Source\PSoC5/LCD_Char_1.c ****     do
 395:.\Generated_Source\PSoC5/LCD_Char_1.c ****     {
 396:.\Generated_Source\PSoC5/LCD_Char_1.c ****         /* 40 ns delay required before rising Enable and 500ns between neighbour Enables */
 397:.\Generated_Source\PSoC5/LCD_Char_1.c ****         CyDelayUs(0u);
 398:.\Generated_Source\PSoC5/LCD_Char_1.c **** 
 399:.\Generated_Source\PSoC5/LCD_Char_1.c ****         /* Set E high */
 400:.\Generated_Source\PSoC5/LCD_Char_1.c ****         LCD_Char_1_PORT_DR_REG |= LCD_Char_1_E;
 401:.\Generated_Source\PSoC5/LCD_Char_1.c **** 
 402:.\Generated_Source\PSoC5/LCD_Char_1.c ****         /* 360 ns delay setup time for data pins */
 403:.\Generated_Source\PSoC5/LCD_Char_1.c ****         CyDelayUs(1u);
 404:.\Generated_Source\PSoC5/LCD_Char_1.c **** 
 405:.\Generated_Source\PSoC5/LCD_Char_1.c ****         /* Get port state */
 406:.\Generated_Source\PSoC5/LCD_Char_1.c ****         value = LCD_Char_1_PORT_PS_REG;
 407:.\Generated_Source\PSoC5/LCD_Char_1.c **** 
 408:.\Generated_Source\PSoC5/LCD_Char_1.c ****         /* Set enable low */
 409:.\Generated_Source\PSoC5/LCD_Char_1.c ****         LCD_Char_1_PORT_DR_REG &= ((uint8)(~LCD_Char_1_E));
 410:.\Generated_Source\PSoC5/LCD_Char_1.c **** 
 411:.\Generated_Source\PSoC5/LCD_Char_1.c ****         /* This gives true delay between disabling Enable bit and polling Ready bit */
 412:.\Generated_Source\PSoC5/LCD_Char_1.c ****         CyDelayUs(0u);
 413:.\Generated_Source\PSoC5/LCD_Char_1.c **** 
 414:.\Generated_Source\PSoC5/LCD_Char_1.c ****         /* Extract ready bit */
 415:.\Generated_Source\PSoC5/LCD_Char_1.c ****         value &= LCD_Char_1_READY_BIT;
 416:.\Generated_Source\PSoC5/LCD_Char_1.c **** 
 417:.\Generated_Source\PSoC5/LCD_Char_1.c ****         /* Set E high as we in 4-bit interface we need extra operation */
 418:.\Generated_Source\PSoC5/LCD_Char_1.c ****         LCD_Char_1_PORT_DR_REG |= LCD_Char_1_E;
 419:.\Generated_Source\PSoC5/LCD_Char_1.c **** 
 420:.\Generated_Source\PSoC5/LCD_Char_1.c ****         /* 360 ns delay setup time for data pins */
 421:.\Generated_Source\PSoC5/LCD_Char_1.c ****         CyDelayUs(1u);
 422:.\Generated_Source\PSoC5/LCD_Char_1.c **** 
 423:.\Generated_Source\PSoC5/LCD_Char_1.c ****         /* Set enable low */
 424:.\Generated_Source\PSoC5/LCD_Char_1.c ****         LCD_Char_1_PORT_DR_REG &= ((uint8)(~LCD_Char_1_E));
 425:.\Generated_Source\PSoC5/LCD_Char_1.c **** 
 426:.\Generated_Source\PSoC5/LCD_Char_1.c ****         /* If LCD is not ready make a delay */
 427:.\Generated_Source\PSoC5/LCD_Char_1.c ****         if (value == 0u)
 428:.\Generated_Source\PSoC5/LCD_Char_1.c ****         {
 429:.\Generated_Source\PSoC5/LCD_Char_1.c ****             CyDelayUs(10u);
 430:.\Generated_Source\PSoC5/LCD_Char_1.c ****         }
 431:.\Generated_Source\PSoC5/LCD_Char_1.c **** 
ARM GAS  C:\Users\JohnP\AppData\Local\Temp\ccXb2IMc.s 			page 9


 432:.\Generated_Source\PSoC5/LCD_Char_1.c ****         /* Repeat until bit 4 is not zero or until timeout. */
 433:.\Generated_Source\PSoC5/LCD_Char_1.c ****         timeout--;
 434:.\Generated_Source\PSoC5/LCD_Char_1.c **** 
 435:.\Generated_Source\PSoC5/LCD_Char_1.c ****     } while ((value != 0u) && (timeout > 0u));
 436:.\Generated_Source\PSoC5/LCD_Char_1.c **** 
 437:.\Generated_Source\PSoC5/LCD_Char_1.c ****     /* Set R/W low to write */
 438:.\Generated_Source\PSoC5/LCD_Char_1.c ****     LCD_Char_1_PORT_DR_REG &= ((uint8)(~LCD_Char_1_RW));
 439:.\Generated_Source\PSoC5/LCD_Char_1.c **** 
 440:.\Generated_Source\PSoC5/LCD_Char_1.c ****     /* Clear LCD port*/
 441:.\Generated_Source\PSoC5/LCD_Char_1.c ****     LCD_Char_1_PORT_DR_REG &= ((uint8)(~LCD_Char_1_PORT_MASK));
 442:.\Generated_Source\PSoC5/LCD_Char_1.c **** 
 443:.\Generated_Source\PSoC5/LCD_Char_1.c ****     #if (CY_PSOC4)
 444:.\Generated_Source\PSoC5/LCD_Char_1.c ****         
 445:.\Generated_Source\PSoC5/LCD_Char_1.c ****         /* Mask off data pins to clear old values out */
 446:.\Generated_Source\PSoC5/LCD_Char_1.c ****         value = LCD_Char_1_PORT_PC_REG & ((uint32)(~ LCD_Char_1_DM_DATA_MASK));
 447:.\Generated_Source\PSoC5/LCD_Char_1.c ****         /* Load in high Z values for data pins, others unchanged */
 448:.\Generated_Source\PSoC5/LCD_Char_1.c ****         LCD_Char_1_PORT_PC_REG = value | LCD_Char_1_STRONG_DATA_DM;
 449:.\Generated_Source\PSoC5/LCD_Char_1.c **** 
 450:.\Generated_Source\PSoC5/LCD_Char_1.c ****     #else
 451:.\Generated_Source\PSoC5/LCD_Char_1.c **** 
 452:.\Generated_Source\PSoC5/LCD_Char_1.c ****         /* Change Port to Output (Strong) on data pins */
 453:.\Generated_Source\PSoC5/LCD_Char_1.c ****         /* Mask off data pins to clear high z values out. Configure data pins 
 454:.\Generated_Source\PSoC5/LCD_Char_1.c ****         * to Strong Drive, others unchanged.
 455:.\Generated_Source\PSoC5/LCD_Char_1.c ****         */
 456:.\Generated_Source\PSoC5/LCD_Char_1.c ****         LCD_Char_1_PORT_DM0_REG &= ((uint8)(~LCD_Char_1_DATA_MASK));
 457:.\Generated_Source\PSoC5/LCD_Char_1.c ****         /* Mask off data pins to clear high z values out */
 458:.\Generated_Source\PSoC5/LCD_Char_1.c ****         value = LCD_Char_1_PORT_DM1_REG & ((uint8)(~LCD_Char_1_DATA_MASK));
 459:.\Generated_Source\PSoC5/LCD_Char_1.c ****         /* Configure data pins to Strong Drive, others unchanged */
 460:.\Generated_Source\PSoC5/LCD_Char_1.c ****         LCD_Char_1_PORT_DM1_REG = value | (LCD_Char_1_STRONG_DM1 & LCD_Char_1_DATA_MASK);
 461:.\Generated_Source\PSoC5/LCD_Char_1.c **** 
 462:.\Generated_Source\PSoC5/LCD_Char_1.c ****         /* Mask off data pins to clear high z values out */
 463:.\Generated_Source\PSoC5/LCD_Char_1.c ****         value = LCD_Char_1_PORT_DM2_REG & ((uint8)(~LCD_Char_1_DATA_MASK));
 464:.\Generated_Source\PSoC5/LCD_Char_1.c ****         /* Configure data pins to Strong Drive, others unchanged */
 465:.\Generated_Source\PSoC5/LCD_Char_1.c ****         LCD_Char_1_PORT_DM2_REG = value | (LCD_Char_1_STRONG_DM2 & LCD_Char_1_DATA_MASK);
 466:.\Generated_Source\PSoC5/LCD_Char_1.c ****     
 467:.\Generated_Source\PSoC5/LCD_Char_1.c ****     #endif /* CY_PSOC4 */
 468:.\Generated_Source\PSoC5/LCD_Char_1.c **** }
 469:.\Generated_Source\PSoC5/LCD_Char_1.c **** 
 470:.\Generated_Source\PSoC5/LCD_Char_1.c **** 
 471:.\Generated_Source\PSoC5/LCD_Char_1.c **** /*******************************************************************************
 472:.\Generated_Source\PSoC5/LCD_Char_1.c **** *  Function Name: LCD_Char_1_WrDatNib
 473:.\Generated_Source\PSoC5/LCD_Char_1.c **** ********************************************************************************
 474:.\Generated_Source\PSoC5/LCD_Char_1.c **** *
 475:.\Generated_Source\PSoC5/LCD_Char_1.c **** * Summary:
 476:.\Generated_Source\PSoC5/LCD_Char_1.c **** *  Writes a data nibble to the LCD module.
 477:.\Generated_Source\PSoC5/LCD_Char_1.c **** *
 478:.\Generated_Source\PSoC5/LCD_Char_1.c **** * Parameters:
 479:.\Generated_Source\PSoC5/LCD_Char_1.c **** *  nibble:  Byte containing nibble in the least significant nibble to be
 480:.\Generated_Source\PSoC5/LCD_Char_1.c **** *           written to the LCD module.
 481:.\Generated_Source\PSoC5/LCD_Char_1.c **** *
 482:.\Generated_Source\PSoC5/LCD_Char_1.c **** * Return:
 483:.\Generated_Source\PSoC5/LCD_Char_1.c **** *  None.
 484:.\Generated_Source\PSoC5/LCD_Char_1.c **** *
 485:.\Generated_Source\PSoC5/LCD_Char_1.c **** *******************************************************************************/
 486:.\Generated_Source\PSoC5/LCD_Char_1.c **** static void LCD_Char_1_WrDatNib(uint8 nibble) 
 487:.\Generated_Source\PSoC5/LCD_Char_1.c **** {
 488:.\Generated_Source\PSoC5/LCD_Char_1.c ****     /* RS should be low to select data register */
ARM GAS  C:\Users\JohnP\AppData\Local\Temp\ccXb2IMc.s 			page 10


 489:.\Generated_Source\PSoC5/LCD_Char_1.c ****     LCD_Char_1_PORT_DR_REG |= LCD_Char_1_RS;
 490:.\Generated_Source\PSoC5/LCD_Char_1.c ****     /* Reset RW for write operation */
 491:.\Generated_Source\PSoC5/LCD_Char_1.c ****     LCD_Char_1_PORT_DR_REG &= ((uint8)(~LCD_Char_1_RW));
 492:.\Generated_Source\PSoC5/LCD_Char_1.c **** 
 493:.\Generated_Source\PSoC5/LCD_Char_1.c ****     /* Guaranteed delay between Setting RS and RW and setting E bits */
 494:.\Generated_Source\PSoC5/LCD_Char_1.c ****     CyDelayUs(0u);
 495:.\Generated_Source\PSoC5/LCD_Char_1.c ****     
 496:.\Generated_Source\PSoC5/LCD_Char_1.c ****     /* Clear data pins */
 497:.\Generated_Source\PSoC5/LCD_Char_1.c ****     LCD_Char_1_PORT_DR_REG &= ((uint8)(~LCD_Char_1_DATA_MASK));
 498:.\Generated_Source\PSoC5/LCD_Char_1.c **** 
 499:.\Generated_Source\PSoC5/LCD_Char_1.c ****     /* Write data, bring E high */
 500:.\Generated_Source\PSoC5/LCD_Char_1.c ****     #if(0u != LCD_Char_1_PORT_SHIFT) /* MISRA forbids shift by 0 so need to handle that */
 501:.\Generated_Source\PSoC5/LCD_Char_1.c ****         LCD_Char_1_PORT_DR_REG |= 
 502:.\Generated_Source\PSoC5/LCD_Char_1.c ****             (LCD_Char_1_E | ((uint8)(((uint8) nibble) << LCD_Char_1_PORT_SHIFT)));
 503:.\Generated_Source\PSoC5/LCD_Char_1.c ****     #else
 504:.\Generated_Source\PSoC5/LCD_Char_1.c ****         LCD_Char_1_PORT_DR_REG |= (LCD_Char_1_E | nibble);
 505:.\Generated_Source\PSoC5/LCD_Char_1.c ****     #endif /* (0u != LCD_Char_1_PORT_SHIFT) */
 506:.\Generated_Source\PSoC5/LCD_Char_1.c **** 
 507:.\Generated_Source\PSoC5/LCD_Char_1.c ****     /* Minimum of 230 ns delay */
 508:.\Generated_Source\PSoC5/LCD_Char_1.c ****     CyDelayUs(1u);
 509:.\Generated_Source\PSoC5/LCD_Char_1.c **** 
 510:.\Generated_Source\PSoC5/LCD_Char_1.c ****     LCD_Char_1_PORT_DR_REG &= ((uint8)(~LCD_Char_1_E));
 511:.\Generated_Source\PSoC5/LCD_Char_1.c **** }
 512:.\Generated_Source\PSoC5/LCD_Char_1.c **** 
 513:.\Generated_Source\PSoC5/LCD_Char_1.c **** 
 514:.\Generated_Source\PSoC5/LCD_Char_1.c **** /*******************************************************************************
 515:.\Generated_Source\PSoC5/LCD_Char_1.c **** *  Function Name: LCD_Char_1_WrCntrlNib
 516:.\Generated_Source\PSoC5/LCD_Char_1.c **** ********************************************************************************
 517:.\Generated_Source\PSoC5/LCD_Char_1.c **** *
 518:.\Generated_Source\PSoC5/LCD_Char_1.c **** * Summary:
 519:.\Generated_Source\PSoC5/LCD_Char_1.c **** *  Writes a control nibble to the LCD module.
 520:.\Generated_Source\PSoC5/LCD_Char_1.c **** *
 521:.\Generated_Source\PSoC5/LCD_Char_1.c **** * Parameters:
 522:.\Generated_Source\PSoC5/LCD_Char_1.c **** *  nibble: The byte containing a nibble in the four least significant bits.????
 523:.\Generated_Source\PSoC5/LCD_Char_1.c **** *
 524:.\Generated_Source\PSoC5/LCD_Char_1.c **** * Return:
 525:.\Generated_Source\PSoC5/LCD_Char_1.c **** *  None.
 526:.\Generated_Source\PSoC5/LCD_Char_1.c **** *
 527:.\Generated_Source\PSoC5/LCD_Char_1.c **** *******************************************************************************/
 528:.\Generated_Source\PSoC5/LCD_Char_1.c **** static void LCD_Char_1_WrCntrlNib(uint8 nibble) 
 529:.\Generated_Source\PSoC5/LCD_Char_1.c **** {
  26              		.loc 1 529 0
  27              		.cfi_startproc
  28              		@ args = 0, pretend = 0, frame = 0
  29              		@ frame_needed = 0, uses_anonymous_args = 0
  30              	.LVL0:
  31 0000 10B5     		push	{r4, lr}
  32              		.cfi_def_cfa_offset 8
  33              		.cfi_offset 4, -8
  34              		.cfi_offset 14, -4
 530:.\Generated_Source\PSoC5/LCD_Char_1.c ****     /* RS and RW should be low to select instruction register and  write operation respectively */
 531:.\Generated_Source\PSoC5/LCD_Char_1.c ****     LCD_Char_1_PORT_DR_REG &= ((uint8)(~(LCD_Char_1_RS | LCD_Char_1_RW)));
  35              		.loc 1 531 0
  36 0002 0B4C     		ldr	r4, .L2
  37 0004 2378     		ldrb	r3, [r4]	@ zero_extendqisi2
  38 0006 03F09F03 		and	r3, r3, #159
  39 000a 2370     		strb	r3, [r4]
ARM GAS  C:\Users\JohnP\AppData\Local\Temp\ccXb2IMc.s 			page 11


 532:.\Generated_Source\PSoC5/LCD_Char_1.c **** 
 533:.\Generated_Source\PSoC5/LCD_Char_1.c ****     /* Two following lines of code will give 40ns delay */
 534:.\Generated_Source\PSoC5/LCD_Char_1.c ****     /* Clear data pins */
 535:.\Generated_Source\PSoC5/LCD_Char_1.c ****     LCD_Char_1_PORT_DR_REG &= ((uint8)(~LCD_Char_1_DATA_MASK));
  40              		.loc 1 535 0
  41 000c 2378     		ldrb	r3, [r4]	@ zero_extendqisi2
  42 000e 03F0F003 		and	r3, r3, #240
  43 0012 2370     		strb	r3, [r4]
 536:.\Generated_Source\PSoC5/LCD_Char_1.c **** 
 537:.\Generated_Source\PSoC5/LCD_Char_1.c ****     /* Write control data and set enable signal */
 538:.\Generated_Source\PSoC5/LCD_Char_1.c ****     #if(0u != LCD_Char_1_PORT_SHIFT) /* MISRA forbids shift by 0 so need to handle that */
 539:.\Generated_Source\PSoC5/LCD_Char_1.c ****         LCD_Char_1_PORT_DR_REG |= 
 540:.\Generated_Source\PSoC5/LCD_Char_1.c ****             (LCD_Char_1_E | ((uint8)(((uint8) nibble) << LCD_Char_1_PORT_SHIFT)));
 541:.\Generated_Source\PSoC5/LCD_Char_1.c ****     #else
 542:.\Generated_Source\PSoC5/LCD_Char_1.c ****         LCD_Char_1_PORT_DR_REG |= (LCD_Char_1_E | nibble);
  44              		.loc 1 542 0
  45 0014 2378     		ldrb	r3, [r4]	@ zero_extendqisi2
  46 0016 1843     		orrs	r0, r0, r3
  47              	.LVL1:
  48 0018 40F01003 		orr	r3, r0, #16
  49 001c 2370     		strb	r3, [r4]
 543:.\Generated_Source\PSoC5/LCD_Char_1.c ****     #endif /* (0u != LCD_Char_1_PORT_SHIFT) */
 544:.\Generated_Source\PSoC5/LCD_Char_1.c **** 
 545:.\Generated_Source\PSoC5/LCD_Char_1.c ****     /* Minimum of 230 ns delay */
 546:.\Generated_Source\PSoC5/LCD_Char_1.c ****     CyDelayUs(1u);
  50              		.loc 1 546 0
  51 001e 0120     		movs	r0, #1
  52 0020 FFF7FEFF 		bl	CyDelayUs
  53              	.LVL2:
 547:.\Generated_Source\PSoC5/LCD_Char_1.c **** 
 548:.\Generated_Source\PSoC5/LCD_Char_1.c ****     LCD_Char_1_PORT_DR_REG &= ((uint8)(~LCD_Char_1_E));
  54              		.loc 1 548 0
  55 0024 2378     		ldrb	r3, [r4]	@ zero_extendqisi2
  56 0026 03F0EF03 		and	r3, r3, #239
  57 002a 2370     		strb	r3, [r4]
  58 002c 10BD     		pop	{r4, pc}
  59              	.L3:
  60 002e 00BF     		.align	2
  61              	.L2:
  62 0030 00510040 		.word	1073762560
  63              		.cfi_endproc
  64              	.LFE11:
  65              		.size	LCD_Char_1_WrCntrlNib, .-LCD_Char_1_WrCntrlNib
  66              		.section	.text.LCD_Char_1_WrDatNib,"ax",%progbits
  67              		.align	2
  68              		.thumb
  69              		.thumb_func
  70              		.type	LCD_Char_1_WrDatNib, %function
  71              	LCD_Char_1_WrDatNib:
  72              	.LFB10:
 487:.\Generated_Source\PSoC5/LCD_Char_1.c **** {
  73              		.loc 1 487 0
  74              		.cfi_startproc
  75              		@ args = 0, pretend = 0, frame = 0
  76              		@ frame_needed = 0, uses_anonymous_args = 0
  77              	.LVL3:
  78 0000 38B5     		push	{r3, r4, r5, lr}
ARM GAS  C:\Users\JohnP\AppData\Local\Temp\ccXb2IMc.s 			page 12


  79              		.cfi_def_cfa_offset 16
  80              		.cfi_offset 3, -16
  81              		.cfi_offset 4, -12
  82              		.cfi_offset 5, -8
  83              		.cfi_offset 14, -4
  84 0002 0546     		mov	r5, r0
 489:.\Generated_Source\PSoC5/LCD_Char_1.c ****     LCD_Char_1_PORT_DR_REG |= LCD_Char_1_RS;
  85              		.loc 1 489 0
  86 0004 0E4C     		ldr	r4, .L5
  87 0006 2378     		ldrb	r3, [r4]	@ zero_extendqisi2
  88 0008 43F02003 		orr	r3, r3, #32
  89 000c 2370     		strb	r3, [r4]
 491:.\Generated_Source\PSoC5/LCD_Char_1.c ****     LCD_Char_1_PORT_DR_REG &= ((uint8)(~LCD_Char_1_RW));
  90              		.loc 1 491 0
  91 000e 2378     		ldrb	r3, [r4]	@ zero_extendqisi2
  92 0010 03F0BF03 		and	r3, r3, #191
  93 0014 2370     		strb	r3, [r4]
 494:.\Generated_Source\PSoC5/LCD_Char_1.c ****     CyDelayUs(0u);
  94              		.loc 1 494 0
  95 0016 0020     		movs	r0, #0
  96              	.LVL4:
  97 0018 FFF7FEFF 		bl	CyDelayUs
  98              	.LVL5:
 497:.\Generated_Source\PSoC5/LCD_Char_1.c ****     LCD_Char_1_PORT_DR_REG &= ((uint8)(~LCD_Char_1_DATA_MASK));
  99              		.loc 1 497 0
 100 001c 2378     		ldrb	r3, [r4]	@ zero_extendqisi2
 101 001e 03F0F003 		and	r3, r3, #240
 102 0022 2370     		strb	r3, [r4]
 504:.\Generated_Source\PSoC5/LCD_Char_1.c ****         LCD_Char_1_PORT_DR_REG |= (LCD_Char_1_E | nibble);
 103              		.loc 1 504 0
 104 0024 2378     		ldrb	r3, [r4]	@ zero_extendqisi2
 105 0026 1D43     		orrs	r5, r5, r3
 106 0028 45F01005 		orr	r5, r5, #16
 107 002c 2570     		strb	r5, [r4]
 508:.\Generated_Source\PSoC5/LCD_Char_1.c ****     CyDelayUs(1u);
 108              		.loc 1 508 0
 109 002e 0120     		movs	r0, #1
 110 0030 FFF7FEFF 		bl	CyDelayUs
 111              	.LVL6:
 510:.\Generated_Source\PSoC5/LCD_Char_1.c ****     LCD_Char_1_PORT_DR_REG &= ((uint8)(~LCD_Char_1_E));
 112              		.loc 1 510 0
 113 0034 2378     		ldrb	r3, [r4]	@ zero_extendqisi2
 114 0036 03F0EF03 		and	r3, r3, #239
 115 003a 2370     		strb	r3, [r4]
 116 003c 38BD     		pop	{r3, r4, r5, pc}
 117              	.L6:
 118 003e 00BF     		.align	2
 119              	.L5:
 120 0040 00510040 		.word	1073762560
 121              		.cfi_endproc
 122              	.LFE10:
 123              		.size	LCD_Char_1_WrDatNib, .-LCD_Char_1_WrDatNib
 124              		.section	.text.LCD_Char_1_IsReady,"ax",%progbits
 125              		.align	2
 126              		.global	LCD_Char_1_IsReady
 127              		.thumb
 128              		.thumb_func
ARM GAS  C:\Users\JohnP\AppData\Local\Temp\ccXb2IMc.s 			page 13


 129              		.type	LCD_Char_1_IsReady, %function
 130              	LCD_Char_1_IsReady:
 131              	.LFB9:
 349:.\Generated_Source\PSoC5/LCD_Char_1.c **** {
 132              		.loc 1 349 0
 133              		.cfi_startproc
 134              		@ args = 0, pretend = 0, frame = 0
 135              		@ frame_needed = 0, uses_anonymous_args = 0
 136 0000 2DE9F041 		push	{r4, r5, r6, r7, r8, lr}
 137              		.cfi_def_cfa_offset 24
 138              		.cfi_offset 4, -24
 139              		.cfi_offset 5, -20
 140              		.cfi_offset 6, -16
 141              		.cfi_offset 7, -12
 142              		.cfi_offset 8, -8
 143              		.cfi_offset 14, -4
 144              	.LVL7:
 355:.\Generated_Source\PSoC5/LCD_Char_1.c ****     LCD_Char_1_PORT_DR_REG &= ((uint8)(~LCD_Char_1_PORT_MASK));
 145              		.loc 1 355 0
 146 0004 364B     		ldr	r3, .L12
 147 0006 1A78     		ldrb	r2, [r3]	@ zero_extendqisi2
 148 0008 02F08002 		and	r2, r2, #128
 149 000c D2B2     		uxtb	r2, r2
 150 000e 1A70     		strb	r2, [r3]
 372:.\Generated_Source\PSoC5/LCD_Char_1.c ****         value = LCD_Char_1_PORT_DM0_REG & ((uint8)(~LCD_Char_1_DATA_MASK));
 151              		.loc 1 372 0
 152 0010 344A     		ldr	r2, .L12+4
 153 0012 1178     		ldrb	r1, [r2]	@ zero_extendqisi2
 154 0014 01F0F001 		and	r1, r1, #240
 155              	.LVL8:
 374:.\Generated_Source\PSoC5/LCD_Char_1.c ****         LCD_Char_1_PORT_DM0_REG = value | (LCD_Char_1_HIGH_Z_DM0 & LCD_Char_1_DATA_MASK);
 156              		.loc 1 374 0
 157 0018 41F00F01 		orr	r1, r1, #15
 158              	.LVL9:
 159 001c 1170     		strb	r1, [r2]
 377:.\Generated_Source\PSoC5/LCD_Char_1.c ****         value = LCD_Char_1_PORT_DM1_REG & ((uint8)(~LCD_Char_1_DATA_MASK));
 160              		.loc 1 377 0
 161 001e 0132     		adds	r2, r2, #1
 162 0020 1178     		ldrb	r1, [r2]	@ zero_extendqisi2
 163 0022 01F0F001 		and	r1, r1, #240
 164              	.LVL10:
 379:.\Generated_Source\PSoC5/LCD_Char_1.c ****         LCD_Char_1_PORT_DM1_REG = value;
 165              		.loc 1 379 0
 166 0026 1170     		strb	r1, [r2]
 382:.\Generated_Source\PSoC5/LCD_Char_1.c ****         value = LCD_Char_1_PORT_DM2_REG & ((uint8)(~LCD_Char_1_DATA_MASK));
 167              		.loc 1 382 0
 168 0028 0132     		adds	r2, r2, #1
 169 002a 1178     		ldrb	r1, [r2]	@ zero_extendqisi2
 170              	.LVL11:
 171 002c 01F0F001 		and	r1, r1, #240
 172              	.LVL12:
 384:.\Generated_Source\PSoC5/LCD_Char_1.c ****         LCD_Char_1_PORT_DM2_REG = value;
 173              		.loc 1 384 0
 174 0030 1170     		strb	r1, [r2]
 389:.\Generated_Source\PSoC5/LCD_Char_1.c ****     LCD_Char_1_PORT_DR_REG &= ((uint8)(~LCD_Char_1_RS));
 175              		.loc 1 389 0
 176 0032 1A78     		ldrb	r2, [r3]	@ zero_extendqisi2
ARM GAS  C:\Users\JohnP\AppData\Local\Temp\ccXb2IMc.s 			page 14


 177 0034 02F0DF02 		and	r2, r2, #223
 178 0038 1A70     		strb	r2, [r3]
 392:.\Generated_Source\PSoC5/LCD_Char_1.c ****     LCD_Char_1_PORT_DR_REG |= LCD_Char_1_RW;
 179              		.loc 1 392 0
 180 003a 1A78     		ldrb	r2, [r3]	@ zero_extendqisi2
 181 003c 42F04002 		orr	r2, r2, #64
 182 0040 1A70     		strb	r2, [r3]
 352:.\Generated_Source\PSoC5/LCD_Char_1.c ****     timeout = LCD_Char_1_READY_DELAY;
 183              		.loc 1 352 0
 184 0042 4FF4CA75 		mov	r5, #404
 397:.\Generated_Source\PSoC5/LCD_Char_1.c ****         CyDelayUs(0u);
 185              		.loc 1 397 0
 186 0046 0027     		movs	r7, #0
 400:.\Generated_Source\PSoC5/LCD_Char_1.c ****         LCD_Char_1_PORT_DR_REG |= LCD_Char_1_E;
 187              		.loc 1 400 0
 188 0048 1C46     		mov	r4, r3
 406:.\Generated_Source\PSoC5/LCD_Char_1.c ****         value = LCD_Char_1_PORT_PS_REG;
 189              		.loc 1 406 0
 190 004a DFF89C80 		ldr	r8, .L12+8
 191              	.LVL13:
 192              	.L10:
 397:.\Generated_Source\PSoC5/LCD_Char_1.c ****         CyDelayUs(0u);
 193              		.loc 1 397 0
 194 004e 3846     		mov	r0, r7
 195 0050 FFF7FEFF 		bl	CyDelayUs
 196              	.LVL14:
 400:.\Generated_Source\PSoC5/LCD_Char_1.c ****         LCD_Char_1_PORT_DR_REG |= LCD_Char_1_E;
 197              		.loc 1 400 0
 198 0054 2378     		ldrb	r3, [r4]	@ zero_extendqisi2
 199 0056 43F01003 		orr	r3, r3, #16
 200 005a 2370     		strb	r3, [r4]
 403:.\Generated_Source\PSoC5/LCD_Char_1.c ****         CyDelayUs(1u);
 201              		.loc 1 403 0
 202 005c 0120     		movs	r0, #1
 203 005e FFF7FEFF 		bl	CyDelayUs
 204              	.LVL15:
 406:.\Generated_Source\PSoC5/LCD_Char_1.c ****         value = LCD_Char_1_PORT_PS_REG;
 205              		.loc 1 406 0
 206 0062 98F80060 		ldrb	r6, [r8]	@ zero_extendqisi2
 207 0066 F6B2     		uxtb	r6, r6
 208              	.LVL16:
 409:.\Generated_Source\PSoC5/LCD_Char_1.c ****         LCD_Char_1_PORT_DR_REG &= ((uint8)(~LCD_Char_1_E));
 209              		.loc 1 409 0
 210 0068 2378     		ldrb	r3, [r4]	@ zero_extendqisi2
 211 006a 03F0EF03 		and	r3, r3, #239
 212 006e 2370     		strb	r3, [r4]
 412:.\Generated_Source\PSoC5/LCD_Char_1.c ****         CyDelayUs(0u);
 213              		.loc 1 412 0
 214 0070 3846     		mov	r0, r7
 215 0072 FFF7FEFF 		bl	CyDelayUs
 216              	.LVL17:
 415:.\Generated_Source\PSoC5/LCD_Char_1.c ****         value &= LCD_Char_1_READY_BIT;
 217              		.loc 1 415 0
 218 0076 06F00806 		and	r6, r6, #8
 219              	.LVL18:
 220 007a F6B2     		uxtb	r6, r6
 221              	.LVL19:
ARM GAS  C:\Users\JohnP\AppData\Local\Temp\ccXb2IMc.s 			page 15


 418:.\Generated_Source\PSoC5/LCD_Char_1.c ****         LCD_Char_1_PORT_DR_REG |= LCD_Char_1_E;
 222              		.loc 1 418 0
 223 007c 2378     		ldrb	r3, [r4]	@ zero_extendqisi2
 224 007e 43F01003 		orr	r3, r3, #16
 225 0082 2370     		strb	r3, [r4]
 421:.\Generated_Source\PSoC5/LCD_Char_1.c ****         CyDelayUs(1u);
 226              		.loc 1 421 0
 227 0084 0120     		movs	r0, #1
 228 0086 FFF7FEFF 		bl	CyDelayUs
 229              	.LVL20:
 424:.\Generated_Source\PSoC5/LCD_Char_1.c ****         LCD_Char_1_PORT_DR_REG &= ((uint8)(~LCD_Char_1_E));
 230              		.loc 1 424 0
 231 008a 2378     		ldrb	r3, [r4]	@ zero_extendqisi2
 232 008c 03F0EF03 		and	r3, r3, #239
 233 0090 2370     		strb	r3, [r4]
 427:.\Generated_Source\PSoC5/LCD_Char_1.c ****         if (value == 0u)
 234              		.loc 1 427 0
 235 0092 16B9     		cbnz	r6, .L8
 429:.\Generated_Source\PSoC5/LCD_Char_1.c ****             CyDelayUs(10u);
 236              		.loc 1 429 0
 237 0094 0A20     		movs	r0, #10
 238 0096 FFF7FEFF 		bl	CyDelayUs
 239              	.LVL21:
 240              	.L8:
 433:.\Generated_Source\PSoC5/LCD_Char_1.c ****         timeout--;
 241              		.loc 1 433 0
 242 009a 013D     		subs	r5, r5, #1
 243              	.LVL22:
 435:.\Generated_Source\PSoC5/LCD_Char_1.c ****     } while ((value != 0u) && (timeout > 0u));
 244              		.loc 1 435 0
 245 009c 0EB1     		cbz	r6, .L9
 435:.\Generated_Source\PSoC5/LCD_Char_1.c ****     } while ((value != 0u) && (timeout > 0u));
 246              		.loc 1 435 0 is_stmt 0 discriminator 1
 247 009e 002D     		cmp	r5, #0
 248 00a0 D5D1     		bne	.L10
 249              	.L9:
 438:.\Generated_Source\PSoC5/LCD_Char_1.c ****     LCD_Char_1_PORT_DR_REG &= ((uint8)(~LCD_Char_1_RW));
 250              		.loc 1 438 0 is_stmt 1
 251 00a2 0F4B     		ldr	r3, .L12
 252 00a4 1A78     		ldrb	r2, [r3]	@ zero_extendqisi2
 253 00a6 02F0BF02 		and	r2, r2, #191
 254 00aa 1A70     		strb	r2, [r3]
 441:.\Generated_Source\PSoC5/LCD_Char_1.c ****     LCD_Char_1_PORT_DR_REG &= ((uint8)(~LCD_Char_1_PORT_MASK));
 255              		.loc 1 441 0
 256 00ac 1A78     		ldrb	r2, [r3]	@ zero_extendqisi2
 257 00ae 02F08002 		and	r2, r2, #128
 258 00b2 D2B2     		uxtb	r2, r2
 259 00b4 1A70     		strb	r2, [r3]
 456:.\Generated_Source\PSoC5/LCD_Char_1.c ****         LCD_Char_1_PORT_DM0_REG &= ((uint8)(~LCD_Char_1_DATA_MASK));
 260              		.loc 1 456 0
 261 00b6 0233     		adds	r3, r3, #2
 262 00b8 1A78     		ldrb	r2, [r3]	@ zero_extendqisi2
 263 00ba 02F0F002 		and	r2, r2, #240
 264 00be 1A70     		strb	r2, [r3]
 458:.\Generated_Source\PSoC5/LCD_Char_1.c ****         value = LCD_Char_1_PORT_DM1_REG & ((uint8)(~LCD_Char_1_DATA_MASK));
 265              		.loc 1 458 0
 266 00c0 0133     		adds	r3, r3, #1
ARM GAS  C:\Users\JohnP\AppData\Local\Temp\ccXb2IMc.s 			page 16


 267 00c2 1A78     		ldrb	r2, [r3]	@ zero_extendqisi2
 268 00c4 02F0F002 		and	r2, r2, #240
 269              	.LVL23:
 460:.\Generated_Source\PSoC5/LCD_Char_1.c ****         LCD_Char_1_PORT_DM1_REG = value | (LCD_Char_1_STRONG_DM1 & LCD_Char_1_DATA_MASK);
 270              		.loc 1 460 0
 271 00c8 42F00F02 		orr	r2, r2, #15
 272              	.LVL24:
 273 00cc 1A70     		strb	r2, [r3]
 463:.\Generated_Source\PSoC5/LCD_Char_1.c ****         value = LCD_Char_1_PORT_DM2_REG & ((uint8)(~LCD_Char_1_DATA_MASK));
 274              		.loc 1 463 0
 275 00ce 0133     		adds	r3, r3, #1
 276 00d0 1A78     		ldrb	r2, [r3]	@ zero_extendqisi2
 277 00d2 02F0F002 		and	r2, r2, #240
 278              	.LVL25:
 465:.\Generated_Source\PSoC5/LCD_Char_1.c ****         LCD_Char_1_PORT_DM2_REG = value | (LCD_Char_1_STRONG_DM2 & LCD_Char_1_DATA_MASK);
 279              		.loc 1 465 0
 280 00d6 42F00F02 		orr	r2, r2, #15
 281              	.LVL26:
 282 00da 1A70     		strb	r2, [r3]
 283 00dc BDE8F081 		pop	{r4, r5, r6, r7, r8, pc}
 284              	.LVL27:
 285              	.L13:
 286              		.align	2
 287              	.L12:
 288 00e0 00510040 		.word	1073762560
 289 00e4 02510040 		.word	1073762562
 290 00e8 01510040 		.word	1073762561
 291              		.cfi_endproc
 292              	.LFE9:
 293              		.size	LCD_Char_1_IsReady, .-LCD_Char_1_IsReady
 294              		.section	.text.LCD_Char_1_WriteData,"ax",%progbits
 295              		.align	2
 296              		.global	LCD_Char_1_WriteData
 297              		.thumb
 298              		.thumb_func
 299              		.type	LCD_Char_1_WriteData, %function
 300              	LCD_Char_1_WriteData:
 301              	.LFB7:
 285:.\Generated_Source\PSoC5/LCD_Char_1.c **** {
 302              		.loc 1 285 0
 303              		.cfi_startproc
 304              		@ args = 0, pretend = 0, frame = 0
 305              		@ frame_needed = 0, uses_anonymous_args = 0
 306              	.LVL28:
 307 0000 10B5     		push	{r4, lr}
 308              		.cfi_def_cfa_offset 8
 309              		.cfi_offset 4, -8
 310              		.cfi_offset 14, -4
 311 0002 0446     		mov	r4, r0
 288:.\Generated_Source\PSoC5/LCD_Char_1.c ****     LCD_Char_1_IsReady();
 312              		.loc 1 288 0
 313 0004 FFF7FEFF 		bl	LCD_Char_1_IsReady
 314              	.LVL29:
 292:.\Generated_Source\PSoC5/LCD_Char_1.c ****     LCD_Char_1_WrDatNib(nibble);
 315              		.loc 1 292 0
 316 0008 2009     		lsrs	r0, r4, #4
 317 000a FFF7FEFF 		bl	LCD_Char_1_WrDatNib
ARM GAS  C:\Users\JohnP\AppData\Local\Temp\ccXb2IMc.s 			page 17


 318              	.LVL30:
 296:.\Generated_Source\PSoC5/LCD_Char_1.c ****     LCD_Char_1_WrDatNib(nibble);
 319              		.loc 1 296 0
 320 000e 04F00F00 		and	r0, r4, #15
 321 0012 FFF7FEFF 		bl	LCD_Char_1_WrDatNib
 322              	.LVL31:
 323 0016 10BD     		pop	{r4, pc}
 324              		.cfi_endproc
 325              	.LFE7:
 326              		.size	LCD_Char_1_WriteData, .-LCD_Char_1_WriteData
 327              		.section	.text.LCD_Char_1_PrintString,"ax",%progbits
 328              		.align	2
 329              		.global	LCD_Char_1_PrintString
 330              		.thumb
 331              		.thumb_func
 332              		.type	LCD_Char_1_PrintString, %function
 333              	LCD_Char_1_PrintString:
 334              	.LFB5:
 234:.\Generated_Source\PSoC5/LCD_Char_1.c **** {
 335              		.loc 1 234 0
 336              		.cfi_startproc
 337              		@ args = 0, pretend = 0, frame = 0
 338              		@ frame_needed = 0, uses_anonymous_args = 0
 339              	.LVL32:
 340 0000 38B5     		push	{r3, r4, r5, lr}
 341              		.cfi_def_cfa_offset 16
 342              		.cfi_offset 3, -16
 343              		.cfi_offset 4, -12
 344              		.cfi_offset 5, -8
 345              		.cfi_offset 14, -4
 346 0002 0546     		mov	r5, r0
 347              	.LVL33:
 236:.\Generated_Source\PSoC5/LCD_Char_1.c ****     char8 current = *string;
 348              		.loc 1 236 0
 349 0004 0078     		ldrb	r0, [r0]	@ zero_extendqisi2
 350              	.LVL34:
 235:.\Generated_Source\PSoC5/LCD_Char_1.c ****     uint8 indexU8 = 1u;
 351              		.loc 1 235 0
 352 0006 0124     		movs	r4, #1
 239:.\Generated_Source\PSoC5/LCD_Char_1.c ****     while((char8) '\0' != current)
 353              		.loc 1 239 0
 354 0008 04E0     		b	.L16
 355              	.LVL35:
 356              	.L17:
 241:.\Generated_Source\PSoC5/LCD_Char_1.c ****         LCD_Char_1_WriteData((uint8)current);
 357              		.loc 1 241 0
 358 000a FFF7FEFF 		bl	LCD_Char_1_WriteData
 359              	.LVL36:
 242:.\Generated_Source\PSoC5/LCD_Char_1.c ****         current = string[indexU8];
 360              		.loc 1 242 0
 361 000e 285D     		ldrb	r0, [r5, r4]	@ zero_extendqisi2
 362              	.LVL37:
 243:.\Generated_Source\PSoC5/LCD_Char_1.c ****         indexU8++;
 363              		.loc 1 243 0
 364 0010 0134     		adds	r4, r4, #1
 365              	.LVL38:
 366 0012 E4B2     		uxtb	r4, r4
ARM GAS  C:\Users\JohnP\AppData\Local\Temp\ccXb2IMc.s 			page 18


 367              	.LVL39:
 368              	.L16:
 239:.\Generated_Source\PSoC5/LCD_Char_1.c ****     while((char8) '\0' != current)
 369              		.loc 1 239 0 discriminator 1
 370 0014 0028     		cmp	r0, #0
 371 0016 F8D1     		bne	.L17
 245:.\Generated_Source\PSoC5/LCD_Char_1.c **** }
 372              		.loc 1 245 0
 373 0018 38BD     		pop	{r3, r4, r5, pc}
 374              		.cfi_endproc
 375              	.LFE5:
 376              		.size	LCD_Char_1_PrintString, .-LCD_Char_1_PrintString
 377 001a 00BF     		.section	.text.LCD_Char_1_PutChar,"ax",%progbits
 378              		.align	2
 379              		.global	LCD_Char_1_PutChar
 380              		.thumb
 381              		.thumb_func
 382              		.type	LCD_Char_1_PutChar, %function
 383              	LCD_Char_1_PutChar:
 384              	.LFB6:
 265:.\Generated_Source\PSoC5/LCD_Char_1.c **** {
 385              		.loc 1 265 0
 386              		.cfi_startproc
 387              		@ args = 0, pretend = 0, frame = 0
 388              		@ frame_needed = 0, uses_anonymous_args = 0
 389              	.LVL40:
 390 0000 08B5     		push	{r3, lr}
 391              		.cfi_def_cfa_offset 8
 392              		.cfi_offset 3, -8
 393              		.cfi_offset 14, -4
 266:.\Generated_Source\PSoC5/LCD_Char_1.c ****     LCD_Char_1_WriteData((uint8)character);
 394              		.loc 1 266 0
 395 0002 FFF7FEFF 		bl	LCD_Char_1_WriteData
 396              	.LVL41:
 397 0006 08BD     		pop	{r3, pc}
 398              		.cfi_endproc
 399              	.LFE6:
 400              		.size	LCD_Char_1_PutChar, .-LCD_Char_1_PutChar
 401              		.section	.text.LCD_Char_1_WriteControl,"ax",%progbits
 402              		.align	2
 403              		.global	LCD_Char_1_WriteControl
 404              		.thumb
 405              		.thumb_func
 406              		.type	LCD_Char_1_WriteControl, %function
 407              	LCD_Char_1_WriteControl:
 408              	.LFB8:
 315:.\Generated_Source\PSoC5/LCD_Char_1.c **** {
 409              		.loc 1 315 0
 410              		.cfi_startproc
 411              		@ args = 0, pretend = 0, frame = 0
 412              		@ frame_needed = 0, uses_anonymous_args = 0
 413              	.LVL42:
 414 0000 10B5     		push	{r4, lr}
 415              		.cfi_def_cfa_offset 8
 416              		.cfi_offset 4, -8
 417              		.cfi_offset 14, -4
 418 0002 0446     		mov	r4, r0
ARM GAS  C:\Users\JohnP\AppData\Local\Temp\ccXb2IMc.s 			page 19


 318:.\Generated_Source\PSoC5/LCD_Char_1.c ****     LCD_Char_1_IsReady();
 419              		.loc 1 318 0
 420 0004 FFF7FEFF 		bl	LCD_Char_1_IsReady
 421              	.LVL43:
 323:.\Generated_Source\PSoC5/LCD_Char_1.c ****     LCD_Char_1_WrCntrlNib(nibble);
 422              		.loc 1 323 0
 423 0008 2009     		lsrs	r0, r4, #4
 424 000a FFF7FEFF 		bl	LCD_Char_1_WrCntrlNib
 425              	.LVL44:
 327:.\Generated_Source\PSoC5/LCD_Char_1.c ****     LCD_Char_1_WrCntrlNib(nibble);
 426              		.loc 1 327 0
 427 000e 04F00F00 		and	r0, r4, #15
 428 0012 FFF7FEFF 		bl	LCD_Char_1_WrCntrlNib
 429              	.LVL45:
 430 0016 10BD     		pop	{r4, pc}
 431              		.cfi_endproc
 432              	.LFE8:
 433              		.size	LCD_Char_1_WriteControl, .-LCD_Char_1_WriteControl
 434              		.section	.text.LCD_Char_1_Init,"ax",%progbits
 435              		.align	2
 436              		.global	LCD_Char_1_Init
 437              		.thumb
 438              		.thumb_func
 439              		.type	LCD_Char_1_Init, %function
 440              	LCD_Char_1_Init:
 441              	.LFB0:
  56:.\Generated_Source\PSoC5/LCD_Char_1.c **** {
 442              		.loc 1 56 0
 443              		.cfi_startproc
 444              		@ args = 0, pretend = 0, frame = 0
 445              		@ frame_needed = 0, uses_anonymous_args = 0
 446 0000 08B5     		push	{r3, lr}
 447              		.cfi_def_cfa_offset 8
 448              		.cfi_offset 3, -8
 449              		.cfi_offset 14, -4
  58:.\Generated_Source\PSoC5/LCD_Char_1.c ****     CyDelay(40u);                                                        /* Delay 40 ms */
 450              		.loc 1 58 0
 451 0002 2820     		movs	r0, #40
 452 0004 FFF7FEFF 		bl	CyDelay
 453              	.LVL46:
  59:.\Generated_Source\PSoC5/LCD_Char_1.c ****     LCD_Char_1_WrCntrlNib(LCD_Char_1_DISPLAY_8_BIT_INIT);    /* Selects 8-bit mode */
 454              		.loc 1 59 0
 455 0008 0320     		movs	r0, #3
 456 000a FFF7FEFF 		bl	LCD_Char_1_WrCntrlNib
 457              	.LVL47:
  60:.\Generated_Source\PSoC5/LCD_Char_1.c ****     CyDelay(5u);                                                         /* Delay 5 ms */
 458              		.loc 1 60 0
 459 000e 0520     		movs	r0, #5
 460 0010 FFF7FEFF 		bl	CyDelay
 461              	.LVL48:
  61:.\Generated_Source\PSoC5/LCD_Char_1.c ****     LCD_Char_1_WrCntrlNib(LCD_Char_1_DISPLAY_8_BIT_INIT);    /* Selects 8-bit mode */
 462              		.loc 1 61 0
 463 0014 0320     		movs	r0, #3
 464 0016 FFF7FEFF 		bl	LCD_Char_1_WrCntrlNib
 465              	.LVL49:
  62:.\Generated_Source\PSoC5/LCD_Char_1.c ****     CyDelay(15u);                                                        /* Delay 15 ms */
 466              		.loc 1 62 0
ARM GAS  C:\Users\JohnP\AppData\Local\Temp\ccXb2IMc.s 			page 20


 467 001a 0F20     		movs	r0, #15
 468 001c FFF7FEFF 		bl	CyDelay
 469              	.LVL50:
  63:.\Generated_Source\PSoC5/LCD_Char_1.c ****     LCD_Char_1_WrCntrlNib(LCD_Char_1_DISPLAY_8_BIT_INIT);    /* Selects 8-bit mode */
 470              		.loc 1 63 0
 471 0020 0320     		movs	r0, #3
 472 0022 FFF7FEFF 		bl	LCD_Char_1_WrCntrlNib
 473              	.LVL51:
  64:.\Generated_Source\PSoC5/LCD_Char_1.c ****     CyDelay(1u);                                                         /* Delay 1 ms */
 474              		.loc 1 64 0
 475 0026 0120     		movs	r0, #1
 476 0028 FFF7FEFF 		bl	CyDelay
 477              	.LVL52:
  65:.\Generated_Source\PSoC5/LCD_Char_1.c ****     LCD_Char_1_WrCntrlNib(LCD_Char_1_DISPLAY_4_BIT_INIT);    /* Selects 4-bit mode */
 478              		.loc 1 65 0
 479 002c 0220     		movs	r0, #2
 480 002e FFF7FEFF 		bl	LCD_Char_1_WrCntrlNib
 481              	.LVL53:
  66:.\Generated_Source\PSoC5/LCD_Char_1.c ****     CyDelay(5u);                                                         /* Delay 5 ms */
 482              		.loc 1 66 0
 483 0032 0520     		movs	r0, #5
 484 0034 FFF7FEFF 		bl	CyDelay
 485              	.LVL54:
  68:.\Generated_Source\PSoC5/LCD_Char_1.c ****     LCD_Char_1_WriteControl(LCD_Char_1_CURSOR_AUTO_INCR_ON);    /* Incr Cursor After Writes */
 486              		.loc 1 68 0
 487 0038 0620     		movs	r0, #6
 488 003a FFF7FEFF 		bl	LCD_Char_1_WriteControl
 489              	.LVL55:
  69:.\Generated_Source\PSoC5/LCD_Char_1.c ****     LCD_Char_1_WriteControl(LCD_Char_1_DISPLAY_CURSOR_ON);      /* Turn Display, Cursor ON */
 490              		.loc 1 69 0
 491 003e 0E20     		movs	r0, #14
 492 0040 FFF7FEFF 		bl	LCD_Char_1_WriteControl
 493              	.LVL56:
  70:.\Generated_Source\PSoC5/LCD_Char_1.c ****     LCD_Char_1_WriteControl(LCD_Char_1_DISPLAY_2_LINES_5x10);   /* 2 Lines by 5x10 Characters */
 494              		.loc 1 70 0
 495 0044 2C20     		movs	r0, #44
 496 0046 FFF7FEFF 		bl	LCD_Char_1_WriteControl
 497              	.LVL57:
  71:.\Generated_Source\PSoC5/LCD_Char_1.c ****     LCD_Char_1_WriteControl(LCD_Char_1_DISPLAY_CURSOR_OFF);     /* Turn Display, Cursor OFF */
 498              		.loc 1 71 0
 499 004a 0820     		movs	r0, #8
 500 004c FFF7FEFF 		bl	LCD_Char_1_WriteControl
 501              	.LVL58:
  72:.\Generated_Source\PSoC5/LCD_Char_1.c ****     LCD_Char_1_WriteControl(LCD_Char_1_CLEAR_DISPLAY);          /* Clear LCD Screen */
 502              		.loc 1 72 0
 503 0050 0120     		movs	r0, #1
 504 0052 FFF7FEFF 		bl	LCD_Char_1_WriteControl
 505              	.LVL59:
  73:.\Generated_Source\PSoC5/LCD_Char_1.c ****     LCD_Char_1_WriteControl(LCD_Char_1_DISPLAY_ON_CURSOR_OFF);  /* Turn Display ON, Cursor OFF */
 506              		.loc 1 73 0
 507 0056 0C20     		movs	r0, #12
 508 0058 FFF7FEFF 		bl	LCD_Char_1_WriteControl
 509              	.LVL60:
  74:.\Generated_Source\PSoC5/LCD_Char_1.c ****     LCD_Char_1_WriteControl(LCD_Char_1_RESET_CURSOR_POSITION);  /* Set Cursor to 0,0 */
 510              		.loc 1 74 0
 511 005c 0320     		movs	r0, #3
 512 005e FFF7FEFF 		bl	LCD_Char_1_WriteControl
ARM GAS  C:\Users\JohnP\AppData\Local\Temp\ccXb2IMc.s 			page 21


 513              	.LVL61:
  75:.\Generated_Source\PSoC5/LCD_Char_1.c ****     CyDelay(5u);
 514              		.loc 1 75 0
 515 0062 0520     		movs	r0, #5
 516 0064 FFF7FEFF 		bl	CyDelay
 517              	.LVL62:
 518 0068 08BD     		pop	{r3, pc}
 519              		.cfi_endproc
 520              	.LFE0:
 521              		.size	LCD_Char_1_Init, .-LCD_Char_1_Init
 522 006a 00BF     		.section	.text.LCD_Char_1_Enable,"ax",%progbits
 523              		.align	2
 524              		.global	LCD_Char_1_Enable
 525              		.thumb
 526              		.thumb_func
 527              		.type	LCD_Char_1_Enable, %function
 528              	LCD_Char_1_Enable:
 529              	.LFB1:
 105:.\Generated_Source\PSoC5/LCD_Char_1.c **** {
 530              		.loc 1 105 0
 531              		.cfi_startproc
 532              		@ args = 0, pretend = 0, frame = 0
 533              		@ frame_needed = 0, uses_anonymous_args = 0
 534 0000 08B5     		push	{r3, lr}
 535              		.cfi_def_cfa_offset 8
 536              		.cfi_offset 3, -8
 537              		.cfi_offset 14, -4
 106:.\Generated_Source\PSoC5/LCD_Char_1.c ****     LCD_Char_1_DisplayOn();
 538              		.loc 1 106 0
 539 0002 0C20     		movs	r0, #12
 540 0004 FFF7FEFF 		bl	LCD_Char_1_WriteControl
 541              	.LVL63:
 107:.\Generated_Source\PSoC5/LCD_Char_1.c ****     LCD_Char_1_enableState = 1u;
 542              		.loc 1 107 0
 543 0008 0122     		movs	r2, #1
 544 000a 014B     		ldr	r3, .L22
 545 000c 1A70     		strb	r2, [r3]
 546 000e 08BD     		pop	{r3, pc}
 547              	.L23:
 548              		.align	2
 549              	.L22:
 550 0010 00000000 		.word	.LANCHOR0
 551              		.cfi_endproc
 552              	.LFE1:
 553              		.size	LCD_Char_1_Enable, .-LCD_Char_1_Enable
 554              		.section	.text.LCD_Char_1_Start,"ax",%progbits
 555              		.align	2
 556              		.global	LCD_Char_1_Start
 557              		.thumb
 558              		.thumb_func
 559              		.type	LCD_Char_1_Start, %function
 560              	LCD_Char_1_Start:
 561              	.LFB2:
 138:.\Generated_Source\PSoC5/LCD_Char_1.c **** {
 562              		.loc 1 138 0
 563              		.cfi_startproc
 564              		@ args = 0, pretend = 0, frame = 0
ARM GAS  C:\Users\JohnP\AppData\Local\Temp\ccXb2IMc.s 			page 22


 565              		@ frame_needed = 0, uses_anonymous_args = 0
 566 0000 08B5     		push	{r3, lr}
 567              		.cfi_def_cfa_offset 8
 568              		.cfi_offset 3, -8
 569              		.cfi_offset 14, -4
 140:.\Generated_Source\PSoC5/LCD_Char_1.c ****     if(LCD_Char_1_initVar == 0u)
 570              		.loc 1 140 0
 571 0002 054B     		ldr	r3, .L26
 572 0004 5B78     		ldrb	r3, [r3, #1]	@ zero_extendqisi2
 573 0006 23B9     		cbnz	r3, .L25
 142:.\Generated_Source\PSoC5/LCD_Char_1.c ****         LCD_Char_1_Init();
 574              		.loc 1 142 0
 575 0008 FFF7FEFF 		bl	LCD_Char_1_Init
 576              	.LVL64:
 143:.\Generated_Source\PSoC5/LCD_Char_1.c ****         LCD_Char_1_initVar = 1u;
 577              		.loc 1 143 0
 578 000c 0122     		movs	r2, #1
 579 000e 024B     		ldr	r3, .L26
 580 0010 5A70     		strb	r2, [r3, #1]
 581              	.L25:
 147:.\Generated_Source\PSoC5/LCD_Char_1.c ****     LCD_Char_1_Enable();
 582              		.loc 1 147 0
 583 0012 FFF7FEFF 		bl	LCD_Char_1_Enable
 584              	.LVL65:
 585 0016 08BD     		pop	{r3, pc}
 586              	.L27:
 587              		.align	2
 588              	.L26:
 589 0018 00000000 		.word	.LANCHOR0
 590              		.cfi_endproc
 591              	.LFE2:
 592              		.size	LCD_Char_1_Start, .-LCD_Char_1_Start
 593              		.section	.text.LCD_Char_1_Stop,"ax",%progbits
 594              		.align	2
 595              		.global	LCD_Char_1_Stop
 596              		.thumb
 597              		.thumb_func
 598              		.type	LCD_Char_1_Stop, %function
 599              	LCD_Char_1_Stop:
 600              	.LFB3:
 169:.\Generated_Source\PSoC5/LCD_Char_1.c **** {
 601              		.loc 1 169 0
 602              		.cfi_startproc
 603              		@ args = 0, pretend = 0, frame = 0
 604              		@ frame_needed = 0, uses_anonymous_args = 0
 605 0000 08B5     		push	{r3, lr}
 606              		.cfi_def_cfa_offset 8
 607              		.cfi_offset 3, -8
 608              		.cfi_offset 14, -4
 171:.\Generated_Source\PSoC5/LCD_Char_1.c ****     LCD_Char_1_DisplayOff();
 609              		.loc 1 171 0
 610 0002 0820     		movs	r0, #8
 611 0004 FFF7FEFF 		bl	LCD_Char_1_WriteControl
 612              	.LVL66:
 172:.\Generated_Source\PSoC5/LCD_Char_1.c ****     LCD_Char_1_enableState = 0u;
 613              		.loc 1 172 0
 614 0008 0022     		movs	r2, #0
ARM GAS  C:\Users\JohnP\AppData\Local\Temp\ccXb2IMc.s 			page 23


 615 000a 014B     		ldr	r3, .L29
 616 000c 1A70     		strb	r2, [r3]
 617 000e 08BD     		pop	{r3, pc}
 618              	.L30:
 619              		.align	2
 620              	.L29:
 621 0010 00000000 		.word	.LANCHOR0
 622              		.cfi_endproc
 623              	.LFE3:
 624              		.size	LCD_Char_1_Stop, .-LCD_Char_1_Stop
 625              		.section	.text.LCD_Char_1_Position,"ax",%progbits
 626              		.align	2
 627              		.global	LCD_Char_1_Position
 628              		.thumb
 629              		.thumb_func
 630              		.type	LCD_Char_1_Position, %function
 631              	LCD_Char_1_Position:
 632              	.LFB4:
 197:.\Generated_Source\PSoC5/LCD_Char_1.c **** {
 633              		.loc 1 197 0
 634              		.cfi_startproc
 635              		@ args = 0, pretend = 0, frame = 0
 636              		@ frame_needed = 0, uses_anonymous_args = 0
 637              	.LVL67:
 638 0000 08B5     		push	{r3, lr}
 639              		.cfi_def_cfa_offset 8
 640              		.cfi_offset 3, -8
 641              		.cfi_offset 14, -4
 198:.\Generated_Source\PSoC5/LCD_Char_1.c ****     switch (row)
 642              		.loc 1 198 0
 643 0002 0328     		cmp	r0, #3
 644 0004 19D8     		bhi	.L31
 645 0006 DFE800F0 		tbb	[pc, r0]
 646              	.L34:
 647 000a 02       		.byte	(.L33-.L34)/2
 648 000b 07       		.byte	(.L35-.L34)/2
 649 000c 0D       		.byte	(.L36-.L34)/2
 650 000d 13       		.byte	(.L37-.L34)/2
 651              		.p2align 1
 652              	.L33:
 201:.\Generated_Source\PSoC5/LCD_Char_1.c ****             LCD_Char_1_WriteControl(LCD_Char_1_ROW_0_START + column);
 653              		.loc 1 201 0
 654 000e 81F08000 		eor	r0, r1, #128
 655              	.LVL68:
 656 0012 FFF7FEFF 		bl	LCD_Char_1_WriteControl
 657              	.LVL69:
 202:.\Generated_Source\PSoC5/LCD_Char_1.c ****             break;
 658              		.loc 1 202 0
 659 0016 08BD     		pop	{r3, pc}
 660              	.LVL70:
 661              	.L35:
 204:.\Generated_Source\PSoC5/LCD_Char_1.c ****             LCD_Char_1_WriteControl(LCD_Char_1_ROW_1_START + column);
 662              		.loc 1 204 0
 663 0018 A1F14000 		sub	r0, r1, #64
 664              	.LVL71:
 665 001c C0B2     		uxtb	r0, r0
 666 001e FFF7FEFF 		bl	LCD_Char_1_WriteControl
ARM GAS  C:\Users\JohnP\AppData\Local\Temp\ccXb2IMc.s 			page 24


 667              	.LVL72:
 205:.\Generated_Source\PSoC5/LCD_Char_1.c ****             break;
 668              		.loc 1 205 0
 669 0022 08BD     		pop	{r3, pc}
 670              	.LVL73:
 671              	.L36:
 207:.\Generated_Source\PSoC5/LCD_Char_1.c ****             LCD_Char_1_WriteControl(LCD_Char_1_ROW_2_START + column);
 672              		.loc 1 207 0
 673 0024 A1F16C00 		sub	r0, r1, #108
 674              	.LVL74:
 675 0028 C0B2     		uxtb	r0, r0
 676 002a FFF7FEFF 		bl	LCD_Char_1_WriteControl
 677              	.LVL75:
 208:.\Generated_Source\PSoC5/LCD_Char_1.c ****             break;
 678              		.loc 1 208 0
 679 002e 08BD     		pop	{r3, pc}
 680              	.LVL76:
 681              	.L37:
 210:.\Generated_Source\PSoC5/LCD_Char_1.c ****             LCD_Char_1_WriteControl(LCD_Char_1_ROW_3_START + column);
 682              		.loc 1 210 0
 683 0030 A1F12C00 		sub	r0, r1, #44
 684              	.LVL77:
 685 0034 C0B2     		uxtb	r0, r0
 686 0036 FFF7FEFF 		bl	LCD_Char_1_WriteControl
 687              	.LVL78:
 688              	.L31:
 689 003a 08BD     		pop	{r3, pc}
 690              		.cfi_endproc
 691              	.LFE4:
 692              		.size	LCD_Char_1_Position, .-LCD_Char_1_Position
 693              		.section	.text.LCD_Char_1_PrintInt8,"ax",%progbits
 694              		.align	2
 695              		.global	LCD_Char_1_PrintInt8
 696              		.thumb
 697              		.thumb_func
 698              		.type	LCD_Char_1_PrintInt8, %function
 699              	LCD_Char_1_PrintInt8:
 700              	.LFB12:
 549:.\Generated_Source\PSoC5/LCD_Char_1.c **** }
 550:.\Generated_Source\PSoC5/LCD_Char_1.c **** 
 551:.\Generated_Source\PSoC5/LCD_Char_1.c **** 
 552:.\Generated_Source\PSoC5/LCD_Char_1.c **** #if(LCD_Char_1_CONVERSION_ROUTINES == 1u)
 553:.\Generated_Source\PSoC5/LCD_Char_1.c **** 
 554:.\Generated_Source\PSoC5/LCD_Char_1.c ****     /*******************************************************************************
 555:.\Generated_Source\PSoC5/LCD_Char_1.c ****     *  Function Name: LCD_Char_1_PrintInt8
 556:.\Generated_Source\PSoC5/LCD_Char_1.c ****     ********************************************************************************
 557:.\Generated_Source\PSoC5/LCD_Char_1.c ****     *
 558:.\Generated_Source\PSoC5/LCD_Char_1.c ****     * Summary:
 559:.\Generated_Source\PSoC5/LCD_Char_1.c ****     *  Print a byte as two ASCII characters.
 560:.\Generated_Source\PSoC5/LCD_Char_1.c ****     *
 561:.\Generated_Source\PSoC5/LCD_Char_1.c ****     * Parameters:
 562:.\Generated_Source\PSoC5/LCD_Char_1.c ****     *  value: The byte to be printed out as ASCII characters.
 563:.\Generated_Source\PSoC5/LCD_Char_1.c ****     *
 564:.\Generated_Source\PSoC5/LCD_Char_1.c ****     * Return:
 565:.\Generated_Source\PSoC5/LCD_Char_1.c ****     *  None.
 566:.\Generated_Source\PSoC5/LCD_Char_1.c ****     *
 567:.\Generated_Source\PSoC5/LCD_Char_1.c ****     *******************************************************************************/
ARM GAS  C:\Users\JohnP\AppData\Local\Temp\ccXb2IMc.s 			page 25


 568:.\Generated_Source\PSoC5/LCD_Char_1.c ****     void LCD_Char_1_PrintInt8(uint8 value) 
 569:.\Generated_Source\PSoC5/LCD_Char_1.c ****     {
 701              		.loc 1 569 0
 702              		.cfi_startproc
 703              		@ args = 0, pretend = 0, frame = 0
 704              		@ frame_needed = 0, uses_anonymous_args = 0
 705              	.LVL79:
 706 0000 38B5     		push	{r3, r4, r5, lr}
 707              		.cfi_def_cfa_offset 16
 708              		.cfi_offset 3, -16
 709              		.cfi_offset 4, -12
 710              		.cfi_offset 5, -8
 711              		.cfi_offset 14, -4
 712 0002 0546     		mov	r5, r0
 570:.\Generated_Source\PSoC5/LCD_Char_1.c ****         static char8 const CYCODE LCD_Char_1_hex[16u] = "0123456789ABCDEF";
 571:.\Generated_Source\PSoC5/LCD_Char_1.c ****         
 572:.\Generated_Source\PSoC5/LCD_Char_1.c ****         LCD_Char_1_PutChar((char8) LCD_Char_1_hex[value >> LCD_Char_1_BYTE_UPPER_NIBBLE_SHIFT]);
 713              		.loc 1 572 0
 714 0004 0309     		lsrs	r3, r0, #4
 715 0006 054C     		ldr	r4, .L39
 716 0008 E05C     		ldrb	r0, [r4, r3]	@ zero_extendqisi2
 717              	.LVL80:
 718 000a FFF7FEFF 		bl	LCD_Char_1_PutChar
 719              	.LVL81:
 573:.\Generated_Source\PSoC5/LCD_Char_1.c ****         LCD_Char_1_PutChar((char8) LCD_Char_1_hex[value & LCD_Char_1_BYTE_LOWER_NIBBLE_MASK]);
 720              		.loc 1 573 0
 721 000e 05F00F05 		and	r5, r5, #15
 722 0012 605D     		ldrb	r0, [r4, r5]	@ zero_extendqisi2
 723 0014 FFF7FEFF 		bl	LCD_Char_1_PutChar
 724              	.LVL82:
 725 0018 38BD     		pop	{r3, r4, r5, pc}
 726              	.L40:
 727 001a 00BF     		.align	2
 728              	.L39:
 729 001c 00000000 		.word	.LANCHOR1
 730              		.cfi_endproc
 731              	.LFE12:
 732              		.size	LCD_Char_1_PrintInt8, .-LCD_Char_1_PrintInt8
 733              		.section	.text.LCD_Char_1_PrintInt16,"ax",%progbits
 734              		.align	2
 735              		.global	LCD_Char_1_PrintInt16
 736              		.thumb
 737              		.thumb_func
 738              		.type	LCD_Char_1_PrintInt16, %function
 739              	LCD_Char_1_PrintInt16:
 740              	.LFB13:
 574:.\Generated_Source\PSoC5/LCD_Char_1.c ****     }
 575:.\Generated_Source\PSoC5/LCD_Char_1.c **** 
 576:.\Generated_Source\PSoC5/LCD_Char_1.c **** 
 577:.\Generated_Source\PSoC5/LCD_Char_1.c ****     /*******************************************************************************
 578:.\Generated_Source\PSoC5/LCD_Char_1.c ****     *  Function Name: LCD_Char_1_PrintInt16
 579:.\Generated_Source\PSoC5/LCD_Char_1.c ****     ********************************************************************************
 580:.\Generated_Source\PSoC5/LCD_Char_1.c ****     *
 581:.\Generated_Source\PSoC5/LCD_Char_1.c ****     * Summary:
 582:.\Generated_Source\PSoC5/LCD_Char_1.c ****     *  Print a uint16 as four ASCII characters.
 583:.\Generated_Source\PSoC5/LCD_Char_1.c ****     *
 584:.\Generated_Source\PSoC5/LCD_Char_1.c ****     * Parameters:
ARM GAS  C:\Users\JohnP\AppData\Local\Temp\ccXb2IMc.s 			page 26


 585:.\Generated_Source\PSoC5/LCD_Char_1.c ****     *  value: The uint16 to be printed out as ASCII characters.
 586:.\Generated_Source\PSoC5/LCD_Char_1.c ****     *
 587:.\Generated_Source\PSoC5/LCD_Char_1.c ****     * Return:
 588:.\Generated_Source\PSoC5/LCD_Char_1.c ****     *  None.
 589:.\Generated_Source\PSoC5/LCD_Char_1.c ****     *
 590:.\Generated_Source\PSoC5/LCD_Char_1.c ****     *******************************************************************************/
 591:.\Generated_Source\PSoC5/LCD_Char_1.c ****     void LCD_Char_1_PrintInt16(uint16 value) 
 592:.\Generated_Source\PSoC5/LCD_Char_1.c ****     {
 741              		.loc 1 592 0
 742              		.cfi_startproc
 743              		@ args = 0, pretend = 0, frame = 0
 744              		@ frame_needed = 0, uses_anonymous_args = 0
 745              	.LVL83:
 746 0000 10B5     		push	{r4, lr}
 747              		.cfi_def_cfa_offset 8
 748              		.cfi_offset 4, -8
 749              		.cfi_offset 14, -4
 750 0002 0446     		mov	r4, r0
 593:.\Generated_Source\PSoC5/LCD_Char_1.c ****         LCD_Char_1_PrintInt8((uint8)(value >> LCD_Char_1_U16_UPPER_BYTE_SHIFT));
 751              		.loc 1 593 0
 752 0004 000A     		lsrs	r0, r0, #8
 753              	.LVL84:
 754 0006 FFF7FEFF 		bl	LCD_Char_1_PrintInt8
 755              	.LVL85:
 594:.\Generated_Source\PSoC5/LCD_Char_1.c ****         LCD_Char_1_PrintInt8((uint8)(value & LCD_Char_1_U16_LOWER_BYTE_MASK));
 756              		.loc 1 594 0
 757 000a E0B2     		uxtb	r0, r4
 758 000c FFF7FEFF 		bl	LCD_Char_1_PrintInt8
 759              	.LVL86:
 760 0010 10BD     		pop	{r4, pc}
 761              		.cfi_endproc
 762              	.LFE13:
 763              		.size	LCD_Char_1_PrintInt16, .-LCD_Char_1_PrintInt16
 764 0012 00BF     		.section	.text.LCD_Char_1_PrintInt32,"ax",%progbits
 765              		.align	2
 766              		.global	LCD_Char_1_PrintInt32
 767              		.thumb
 768              		.thumb_func
 769              		.type	LCD_Char_1_PrintInt32, %function
 770              	LCD_Char_1_PrintInt32:
 771              	.LFB14:
 595:.\Generated_Source\PSoC5/LCD_Char_1.c ****     }
 596:.\Generated_Source\PSoC5/LCD_Char_1.c **** 
 597:.\Generated_Source\PSoC5/LCD_Char_1.c ****     
 598:.\Generated_Source\PSoC5/LCD_Char_1.c ****     /*******************************************************************************
 599:.\Generated_Source\PSoC5/LCD_Char_1.c ****     *  Function Name: LCD_Char_1_PrintInt32
 600:.\Generated_Source\PSoC5/LCD_Char_1.c ****     ********************************************************************************
 601:.\Generated_Source\PSoC5/LCD_Char_1.c ****     *
 602:.\Generated_Source\PSoC5/LCD_Char_1.c ****     * Summary:
 603:.\Generated_Source\PSoC5/LCD_Char_1.c ****     *  Print a uint32 hexadecimal number as eight ASCII characters.
 604:.\Generated_Source\PSoC5/LCD_Char_1.c ****     *
 605:.\Generated_Source\PSoC5/LCD_Char_1.c ****     * Parameters:
 606:.\Generated_Source\PSoC5/LCD_Char_1.c ****     *  value: The uint32 to be printed out as ASCII characters.
 607:.\Generated_Source\PSoC5/LCD_Char_1.c ****     *
 608:.\Generated_Source\PSoC5/LCD_Char_1.c ****     * Return:
 609:.\Generated_Source\PSoC5/LCD_Char_1.c ****     *  None.
 610:.\Generated_Source\PSoC5/LCD_Char_1.c ****     *
ARM GAS  C:\Users\JohnP\AppData\Local\Temp\ccXb2IMc.s 			page 27


 611:.\Generated_Source\PSoC5/LCD_Char_1.c ****     *******************************************************************************/
 612:.\Generated_Source\PSoC5/LCD_Char_1.c ****     void LCD_Char_1_PrintInt32(uint32 value) 
 613:.\Generated_Source\PSoC5/LCD_Char_1.c ****     {
 772              		.loc 1 613 0
 773              		.cfi_startproc
 774              		@ args = 0, pretend = 0, frame = 0
 775              		@ frame_needed = 0, uses_anonymous_args = 0
 776              	.LVL87:
 777 0000 38B5     		push	{r3, r4, r5, lr}
 778              		.cfi_def_cfa_offset 16
 779              		.cfi_offset 3, -16
 780              		.cfi_offset 4, -12
 781              		.cfi_offset 5, -8
 782              		.cfi_offset 14, -4
 783 0002 0546     		mov	r5, r0
 784              	.LVL88:
 614:.\Generated_Source\PSoC5/LCD_Char_1.c ****         uint8 shift = LCD_Char_1_32_BIT_SHIFT;
 785              		.loc 1 614 0
 786 0004 2024     		movs	r4, #32
 615:.\Generated_Source\PSoC5/LCD_Char_1.c ****         
 616:.\Generated_Source\PSoC5/LCD_Char_1.c ****         while (shift != 0u)
 787              		.loc 1 616 0
 788 0006 06E0     		b	.L43
 789              	.LVL89:
 790              	.L44:
 617:.\Generated_Source\PSoC5/LCD_Char_1.c ****         {
 618:.\Generated_Source\PSoC5/LCD_Char_1.c ****             /* "shift" var is to be subtracted by 8 prior shifting. This implements 
 619:.\Generated_Source\PSoC5/LCD_Char_1.c ****             * shifting by 24, 16, 8 and 0u. 
 620:.\Generated_Source\PSoC5/LCD_Char_1.c ****             */
 621:.\Generated_Source\PSoC5/LCD_Char_1.c ****             shift -= LCD_Char_1_8_BIT_SHIFT;
 791              		.loc 1 621 0
 792 0008 083C     		subs	r4, r4, #8
 793              	.LVL90:
 794 000a E4B2     		uxtb	r4, r4
 795              	.LVL91:
 622:.\Generated_Source\PSoC5/LCD_Char_1.c ****             
 623:.\Generated_Source\PSoC5/LCD_Char_1.c ****             /* Print 8 bits of uint32 hex number */
 624:.\Generated_Source\PSoC5/LCD_Char_1.c ****             LCD_Char_1_PrintInt8((uint8) ((uint32) (value >> shift)));
 796              		.loc 1 624 0
 797 000c 25FA04F0 		lsr	r0, r5, r4
 798 0010 C0B2     		uxtb	r0, r0
 799 0012 FFF7FEFF 		bl	LCD_Char_1_PrintInt8
 800              	.LVL92:
 801              	.L43:
 616:.\Generated_Source\PSoC5/LCD_Char_1.c ****         while (shift != 0u)
 802              		.loc 1 616 0 discriminator 1
 803 0016 002C     		cmp	r4, #0
 804 0018 F6D1     		bne	.L44
 625:.\Generated_Source\PSoC5/LCD_Char_1.c ****         }
 626:.\Generated_Source\PSoC5/LCD_Char_1.c ****     }
 805              		.loc 1 626 0
 806 001a 38BD     		pop	{r3, r4, r5, pc}
 807              		.cfi_endproc
 808              	.LFE14:
 809              		.size	LCD_Char_1_PrintInt32, .-LCD_Char_1_PrintInt32
 810              		.section	.text.LCD_Char_1_PrintU32Number,"ax",%progbits
 811              		.align	2
ARM GAS  C:\Users\JohnP\AppData\Local\Temp\ccXb2IMc.s 			page 28


 812              		.global	LCD_Char_1_PrintU32Number
 813              		.thumb
 814              		.thumb_func
 815              		.type	LCD_Char_1_PrintU32Number, %function
 816              	LCD_Char_1_PrintU32Number:
 817              	.LFB15:
 627:.\Generated_Source\PSoC5/LCD_Char_1.c ****     
 628:.\Generated_Source\PSoC5/LCD_Char_1.c ****     
 629:.\Generated_Source\PSoC5/LCD_Char_1.c ****     /*******************************************************************************
 630:.\Generated_Source\PSoC5/LCD_Char_1.c ****     *  Function Name: LCD_Char_1_PrintNumber
 631:.\Generated_Source\PSoC5/LCD_Char_1.c ****     ********************************************************************************
 632:.\Generated_Source\PSoC5/LCD_Char_1.c ****     *
 633:.\Generated_Source\PSoC5/LCD_Char_1.c ****     * Summary:
 634:.\Generated_Source\PSoC5/LCD_Char_1.c ****     *  Print an uint16 value as a left-justified decimal value.
 635:.\Generated_Source\PSoC5/LCD_Char_1.c ****     *
 636:.\Generated_Source\PSoC5/LCD_Char_1.c ****     * Parameters:
 637:.\Generated_Source\PSoC5/LCD_Char_1.c ****     *  value: A 16-bit value to be printed in ASCII characters as a decimal number
 638:.\Generated_Source\PSoC5/LCD_Char_1.c ****     *
 639:.\Generated_Source\PSoC5/LCD_Char_1.c ****     * Return:
 640:.\Generated_Source\PSoC5/LCD_Char_1.c ****     *  None.
 641:.\Generated_Source\PSoC5/LCD_Char_1.c ****     *
 642:.\Generated_Source\PSoC5/LCD_Char_1.c ****     * Note:
 643:.\Generated_Source\PSoC5/LCD_Char_1.c ****     *  This function is implemented as a macro.
 644:.\Generated_Source\PSoC5/LCD_Char_1.c ****     *
 645:.\Generated_Source\PSoC5/LCD_Char_1.c ****     *******************************************************************************/
 646:.\Generated_Source\PSoC5/LCD_Char_1.c **** 
 647:.\Generated_Source\PSoC5/LCD_Char_1.c ****     
 648:.\Generated_Source\PSoC5/LCD_Char_1.c ****     /*******************************************************************************
 649:.\Generated_Source\PSoC5/LCD_Char_1.c ****     *  Function Name: LCD_Char_1_PrintU32Number
 650:.\Generated_Source\PSoC5/LCD_Char_1.c ****     ********************************************************************************
 651:.\Generated_Source\PSoC5/LCD_Char_1.c ****     *
 652:.\Generated_Source\PSoC5/LCD_Char_1.c ****     * Summary:
 653:.\Generated_Source\PSoC5/LCD_Char_1.c ****     *  Print an uint32 value as a left-justified decimal value.
 654:.\Generated_Source\PSoC5/LCD_Char_1.c ****     *
 655:.\Generated_Source\PSoC5/LCD_Char_1.c ****     * Parameters:
 656:.\Generated_Source\PSoC5/LCD_Char_1.c ****     *  value: A 32-bit value to be printed in ASCII characters as a decimal number
 657:.\Generated_Source\PSoC5/LCD_Char_1.c ****     *
 658:.\Generated_Source\PSoC5/LCD_Char_1.c ****     * Return:
 659:.\Generated_Source\PSoC5/LCD_Char_1.c ****     *  None.
 660:.\Generated_Source\PSoC5/LCD_Char_1.c ****     *
 661:.\Generated_Source\PSoC5/LCD_Char_1.c ****     *******************************************************************************/
 662:.\Generated_Source\PSoC5/LCD_Char_1.c ****     void LCD_Char_1_PrintU32Number(uint32 value) 
 663:.\Generated_Source\PSoC5/LCD_Char_1.c ****     {
 818              		.loc 1 663 0
 819              		.cfi_startproc
 820              		@ args = 0, pretend = 0, frame = 16
 821              		@ frame_needed = 0, uses_anonymous_args = 0
 822              	.LVL93:
 823 0000 10B5     		push	{r4, lr}
 824              		.cfi_def_cfa_offset 8
 825              		.cfi_offset 4, -8
 826              		.cfi_offset 14, -4
 827 0002 84B0     		sub	sp, sp, #16
 828              		.cfi_def_cfa_offset 24
 829              	.LVL94:
 664:.\Generated_Source\PSoC5/LCD_Char_1.c ****         uint8 tmpDigit;
 665:.\Generated_Source\PSoC5/LCD_Char_1.c ****         char8 number[LCD_Char_1_NUMBER_OF_REMAINDERS_U32 + 1u];
ARM GAS  C:\Users\JohnP\AppData\Local\Temp\ccXb2IMc.s 			page 29


 666:.\Generated_Source\PSoC5/LCD_Char_1.c ****         uint8 digIndex = LCD_Char_1_NUMBER_OF_REMAINDERS_U32;
 667:.\Generated_Source\PSoC5/LCD_Char_1.c ****         
 668:.\Generated_Source\PSoC5/LCD_Char_1.c ****         /* This API will output a decimal number as a string and that string will be 
 669:.\Generated_Source\PSoC5/LCD_Char_1.c ****         * filled from end to start. Set Null termination character first.
 670:.\Generated_Source\PSoC5/LCD_Char_1.c ****         */
 671:.\Generated_Source\PSoC5/LCD_Char_1.c ****         number[digIndex] = (char8) '\0';
 830              		.loc 1 671 0
 831 0004 0023     		movs	r3, #0
 832 0006 8DF80E30 		strb	r3, [sp, #14]
 833              	.LVL95:
 672:.\Generated_Source\PSoC5/LCD_Char_1.c ****         digIndex--;
 834              		.loc 1 672 0
 835 000a 0922     		movs	r2, #9
 673:.\Generated_Source\PSoC5/LCD_Char_1.c ****         
 674:.\Generated_Source\PSoC5/LCD_Char_1.c ****         /* Load these in reverse order */
 675:.\Generated_Source\PSoC5/LCD_Char_1.c ****         while(value >= LCD_Char_1_TEN)
 676:.\Generated_Source\PSoC5/LCD_Char_1.c ****         {
 677:.\Generated_Source\PSoC5/LCD_Char_1.c ****             /* Extract decimal digit, indexed by 'digIndex', from 'value' and
 678:.\Generated_Source\PSoC5/LCD_Char_1.c ****             * convert it to ASCII character.
 679:.\Generated_Source\PSoC5/LCD_Char_1.c ****             */
 680:.\Generated_Source\PSoC5/LCD_Char_1.c ****             tmpDigit = (uint8) (((uint8) (value % LCD_Char_1_TEN)) + (uint8) LCD_Char_1_ZERO_CHAR_A
 836              		.loc 1 680 0
 837 000c 134C     		ldr	r4, .L48
 675:.\Generated_Source\PSoC5/LCD_Char_1.c ****         while(value >= LCD_Char_1_TEN)
 838              		.loc 1 675 0
 839 000e 0FE0     		b	.L46
 840              	.LVL96:
 841              	.L47:
 842              		.loc 1 680 0
 843 0010 A4FB0013 		umull	r1, r3, r4, r0
 844 0014 DB08     		lsrs	r3, r3, #3
 845 0016 1946     		mov	r1, r3
 846 0018 03EB8303 		add	r3, r3, r3, lsl #2
 847 001c 5B00     		lsls	r3, r3, #1
 848 001e C31A     		subs	r3, r0, r3
 849 0020 3033     		adds	r3, r3, #48
 850              	.LVL97:
 681:.\Generated_Source\PSoC5/LCD_Char_1.c ****             
 682:.\Generated_Source\PSoC5/LCD_Char_1.c ****             /* Temporary variable 'tmpDigit' is used to avoid Violation of MISRA rule 
 683:.\Generated_Source\PSoC5/LCD_Char_1.c ****             * #10.3.
 684:.\Generated_Source\PSoC5/LCD_Char_1.c ****             */
 685:.\Generated_Source\PSoC5/LCD_Char_1.c ****             number[digIndex] = (char8) tmpDigit;
 851              		.loc 1 685 0
 852 0022 04A8     		add	r0, sp, #16
 853              	.LVL98:
 854 0024 1044     		add	r0, r0, r2
 855 0026 00F80C3C 		strb	r3, [r0, #-12]
 686:.\Generated_Source\PSoC5/LCD_Char_1.c ****             value /= LCD_Char_1_TEN;
 856              		.loc 1 686 0
 857 002a 0846     		mov	r0, r1
 858              	.LVL99:
 687:.\Generated_Source\PSoC5/LCD_Char_1.c ****             digIndex--;
 859              		.loc 1 687 0
 860 002c 013A     		subs	r2, r2, #1
 861              	.LVL100:
 862 002e D2B2     		uxtb	r2, r2
 863              	.LVL101:
ARM GAS  C:\Users\JohnP\AppData\Local\Temp\ccXb2IMc.s 			page 30


 864              	.L46:
 675:.\Generated_Source\PSoC5/LCD_Char_1.c ****         while(value >= LCD_Char_1_TEN)
 865              		.loc 1 675 0 discriminator 1
 866 0030 0928     		cmp	r0, #9
 867 0032 EDD8     		bhi	.L47
 688:.\Generated_Source\PSoC5/LCD_Char_1.c ****         }
 689:.\Generated_Source\PSoC5/LCD_Char_1.c ****         
 690:.\Generated_Source\PSoC5/LCD_Char_1.c ****         /* Extract last decimal digit 'digIndex', from the 'value' and convert it
 691:.\Generated_Source\PSoC5/LCD_Char_1.c ****         * to ASCII character.
 692:.\Generated_Source\PSoC5/LCD_Char_1.c ****         */
 693:.\Generated_Source\PSoC5/LCD_Char_1.c ****         tmpDigit = (uint8) (((uint8)(value % LCD_Char_1_TEN)) + (uint8) LCD_Char_1_ZERO_CHAR_ASCII)
 868              		.loc 1 693 0
 869 0034 094B     		ldr	r3, .L48
 870 0036 A3FB0013 		umull	r1, r3, r3, r0
 871 003a DB08     		lsrs	r3, r3, #3
 872 003c 03EB8303 		add	r3, r3, r3, lsl #2
 873 0040 5B00     		lsls	r3, r3, #1
 874 0042 C31A     		subs	r3, r0, r3
 875 0044 3033     		adds	r3, r3, #48
 876              	.LVL102:
 694:.\Generated_Source\PSoC5/LCD_Char_1.c ****         number[digIndex] = (char8) tmpDigit;
 877              		.loc 1 694 0
 878 0046 04A9     		add	r1, sp, #16
 879 0048 1144     		add	r1, r1, r2
 880 004a 01F80C3C 		strb	r3, [r1, #-12]
 695:.\Generated_Source\PSoC5/LCD_Char_1.c **** 
 696:.\Generated_Source\PSoC5/LCD_Char_1.c ****         /* Print out number */
 697:.\Generated_Source\PSoC5/LCD_Char_1.c ****         LCD_Char_1_PrintString(&number[digIndex]);
 881              		.loc 1 697 0
 882 004e 01A8     		add	r0, sp, #4
 883              	.LVL103:
 884 0050 1044     		add	r0, r0, r2
 885 0052 FFF7FEFF 		bl	LCD_Char_1_PrintString
 886              	.LVL104:
 698:.\Generated_Source\PSoC5/LCD_Char_1.c ****     }
 887              		.loc 1 698 0
 888 0056 04B0     		add	sp, sp, #16
 889              		@ sp needed
 890 0058 10BD     		pop	{r4, pc}
 891              	.L49:
 892 005a 00BF     		.align	2
 893              	.L48:
 894 005c CDCCCCCC 		.word	-858993459
 895              		.cfi_endproc
 896              	.LFE15:
 897              		.size	LCD_Char_1_PrintU32Number, .-LCD_Char_1_PrintU32Number
 898              		.global	LCD_Char_1_initVar
 899              		.global	LCD_Char_1_enableState
 900              		.section	.rodata
 901              		.align	2
 902              		.set	.LANCHOR1,. + 0
 903              		.type	LCD_Char_1_hex.4908, %object
 904              		.size	LCD_Char_1_hex.4908, 16
 905              	LCD_Char_1_hex.4908:
 906 0000 30313233 		.ascii	"0123456789ABCDEF"
 906      34353637 
 906      38394142 
ARM GAS  C:\Users\JohnP\AppData\Local\Temp\ccXb2IMc.s 			page 31


 906      43444546 
 907              		.bss
 908              		.set	.LANCHOR0,. + 0
 909              		.type	LCD_Char_1_enableState, %object
 910              		.size	LCD_Char_1_enableState, 1
 911              	LCD_Char_1_enableState:
 912 0000 00       		.space	1
 913              		.type	LCD_Char_1_initVar, %object
 914              		.size	LCD_Char_1_initVar, 1
 915              	LCD_Char_1_initVar:
 916 0001 00       		.space	1
 917              		.text
 918              	.Letext0:
 919              		.file 2 ".\\Generated_Source\\PSoC5\\cytypes.h"
 920              		.file 3 ".\\Generated_Source\\PSoC5\\CyLib.h"