ARM GAS  C:\Users\JohnP\AppData\Local\Temp\ccTpLhhn.s 			page 1


   1              		.syntax unified
   2              		.cpu cortex-m3
   3              		.fpu softvfp
   4              		.eabi_attribute 20, 1
   5              		.eabi_attribute 21, 1
   6              		.eabi_attribute 23, 3
   7              		.eabi_attribute 24, 1
   8              		.eabi_attribute 25, 1
   9              		.eabi_attribute 26, 1
  10              		.eabi_attribute 30, 1
  11              		.eabi_attribute 34, 1
  12              		.eabi_attribute 18, 4
  13              		.thumb
  14              		.file	"states.c"
  15              		.text
  16              	.Ltext0:
  17              		.cfi_sections	.debug_frame
  18              		.section	.text.State_sleep,"ax",%progbits
  19              		.align	2
  20              		.global	State_sleep
  21              		.thumb
  22              		.thumb_func
  23              		.type	State_sleep, %function
  24              	State_sleep:
  25              	.LFB0:
  26              		.file 1 ".\\states.c"
   1:.\states.c    **** /* ========================================
   2:.\states.c    ****  *
   3:.\states.c    ****  * Copyright YOUR COMPANY, THE YEAR
   4:.\states.c    ****  * All Rights Reserved
   5:.\states.c    ****  * UNPUBLISHED, LICENSED SOFTWARE.
   6:.\states.c    ****  *
   7:.\states.c    ****  * CONFIDENTIAL AND PROPRIETARY INFORMATION
   8:.\states.c    ****  * WHICH IS THE PROPERTY OF your company.
   9:.\states.c    ****  *
  10:.\states.c    ****  * ========================================
  11:.\states.c    **** */
  12:.\states.c    **** #include "states.h"
  13:.\states.c    **** 
  14:.\states.c    **** int selectedProfile = 0;
  15:.\states.c    **** extern float heartbeatCounter;
  16:.\states.c    **** 
  17:.\states.c    **** STATE State_sleep(){
  27              		.loc 1 17 0
  28              		.cfi_startproc
  29              		@ args = 0, pretend = 0, frame = 0
  30              		@ frame_needed = 0, uses_anonymous_args = 0
  31 0000 F8B5     		push	{r3, r4, r5, r6, r7, lr}
  32              		.cfi_def_cfa_offset 24
  33              		.cfi_offset 3, -24
  34              		.cfi_offset 4, -20
  35              		.cfi_offset 5, -16
  36              		.cfi_offset 6, -12
  37              		.cfi_offset 7, -8
  38              		.cfi_offset 14, -4
  18:.\states.c    ****     LCD_ClearDisplay();
  39              		.loc 1 18 0
ARM GAS  C:\Users\JohnP\AppData\Local\Temp\ccTpLhhn.s 			page 2


  40 0002 0120     		movs	r0, #1
  41 0004 FFF7FEFF 		bl	LCD_WriteControl
  42              	.LVL0:
  19:.\states.c    ****     Display_sleep();
  43              		.loc 1 19 0
  44 0008 FFF7FEFF 		bl	Display_sleep
  45              	.LVL1:
  20:.\states.c    ****     CapSense_UpdateEnabledBaselines();
  46              		.loc 1 20 0
  47 000c FFF7FEFF 		bl	CapSense_UpdateEnabledBaselines
  48              	.LVL2:
  21:.\states.c    ****     CapSense_ScanEnabledWidgets();
  49              		.loc 1 21 0
  50 0010 FFF7FEFF 		bl	CapSense_ScanEnabledWidgets
  51              	.LVL3:
  52              	.L2:
  22:.\states.c    **** 	while(CapSense_IsBusy() != 0);
  53              		.loc 1 22 0 discriminator 1
  54 0014 FFF7FEFF 		bl	CapSense_IsBusy
  55              	.LVL4:
  56 0018 0028     		cmp	r0, #0
  57 001a FBD1     		bne	.L2
  23:.\states.c    ****     if (CapSense_ReadSensorRaw(CapSense_SENSOR_LINEARSLIDER0_E0__LS) > 15000){
  58              		.loc 1 23 0
  59 001c 0220     		movs	r0, #2
  60 001e FFF7FEFF 		bl	CapSense_ReadSensorRaw
  61              	.LVL5:
  62 0022 43F69823 		movw	r3, #15000
  63 0026 9842     		cmp	r0, r3
  64 0028 16D8     		bhi	.L8
  65              	.LBB2:
  66 002a 1BE0     		b	.L4
  67              	.LVL6:
  68              	.L7:
  24:.\states.c    ****         int countDown;
  25:.\states.c    ****         for (countDown = 10; countDown > 0; countDown--) {
  26:.\states.c    ****             CapSense_ScanEnabledWidgets();
  69              		.loc 1 26 0
  70 002c FFF7FEFF 		bl	CapSense_ScanEnabledWidgets
  71              	.LVL7:
  27:.\states.c    ****             if (CapSense_ReadSensorRaw(CapSense_SENSOR_LINEARSLIDER0_E4__LS) > 15000){
  72              		.loc 1 27 0
  73 0030 2846     		mov	r0, r5
  74 0032 FFF7FEFF 		bl	CapSense_ReadSensorRaw
  75              	.LVL8:
  76 0036 43F69823 		movw	r3, #15000
  77 003a 9842     		cmp	r0, r3
  78 003c 07D9     		bls	.L5
  28:.\states.c    ****                 Prev_state = STATE_SLEEP;
  79              		.loc 1 28 0
  80 003e 0023     		movs	r3, #0
  81 0040 3B60     		str	r3, [r7]
  29:.\states.c    ****                 LCD_ClearDisplay();
  82              		.loc 1 29 0
  83 0042 0120     		movs	r0, #1
  84 0044 FFF7FEFF 		bl	LCD_WriteControl
  85              	.LVL9:
ARM GAS  C:\Users\JohnP\AppData\Local\Temp\ccTpLhhn.s 			page 3


  30:.\states.c    ****                 currentState = STATE_PROFILE_SELECTION;
  86              		.loc 1 30 0
  87 0048 0323     		movs	r3, #3
  88 004a 3360     		str	r3, [r6]
  89 004c 02E0     		b	.L6
  90              	.L5:
  31:.\states.c    ****             }
  32:.\states.c    ****             else {
  33:.\states.c    ****                 CyDelay(10);        
  91              		.loc 1 33 0
  92 004e 0A20     		movs	r0, #10
  93 0050 FFF7FEFF 		bl	CyDelay
  94              	.LVL10:
  95              	.L6:
  25:.\states.c    ****         for (countDown = 10; countDown > 0; countDown--) {
  96              		.loc 1 25 0
  97 0054 013C     		subs	r4, r4, #1
  98              	.LVL11:
  99 0056 03E0     		b	.L3
 100              	.LVL12:
 101              	.L8:
 102              	.LBE2:
 103 0058 0A24     		movs	r4, #10
 104              	.LBB3:
  27:.\states.c    ****             if (CapSense_ReadSensorRaw(CapSense_SENSOR_LINEARSLIDER0_E4__LS) > 15000){
 105              		.loc 1 27 0
 106 005a 0625     		movs	r5, #6
  28:.\states.c    ****                 Prev_state = STATE_SLEEP;
 107              		.loc 1 28 0
 108 005c 034F     		ldr	r7, .L10
  30:.\states.c    ****                 currentState = STATE_PROFILE_SELECTION;
 109              		.loc 1 30 0
 110 005e 044E     		ldr	r6, .L10+4
 111              	.L3:
 112              	.LVL13:
  25:.\states.c    ****         for (countDown = 10; countDown > 0; countDown--) {
 113              		.loc 1 25 0 discriminator 1
 114 0060 002C     		cmp	r4, #0
 115 0062 E3DC     		bgt	.L7
 116              	.LVL14:
 117              	.L4:
 118              	.LBE3:
  34:.\states.c    ****             }
  35:.\states.c    ****         }
  36:.\states.c    ****     }
  37:.\states.c    ****     return currentState;
  38:.\states.c    **** }
 119              		.loc 1 38 0
 120 0064 024B     		ldr	r3, .L10+4
 121 0066 1868     		ldr	r0, [r3]
 122 0068 F8BD     		pop	{r3, r4, r5, r6, r7, pc}
 123              	.L11:
 124 006a 00BF     		.align	2
 125              	.L10:
 126 006c 00000000 		.word	Prev_state
 127 0070 00000000 		.word	currentState
 128              		.cfi_endproc
ARM GAS  C:\Users\JohnP\AppData\Local\Temp\ccTpLhhn.s 			page 4


 129              	.LFE0:
 130              		.size	State_sleep, .-State_sleep
 131              		.section	.text.State_reset,"ax",%progbits
 132              		.align	2
 133              		.global	State_reset
 134              		.thumb
 135              		.thumb_func
 136              		.type	State_reset, %function
 137              	State_reset:
 138              	.LFB1:
  39:.\states.c    **** 
  40:.\states.c    **** STATE State_reset(){
 139              		.loc 1 40 0
 140              		.cfi_startproc
 141              		@ args = 0, pretend = 0, frame = 0
 142              		@ frame_needed = 0, uses_anonymous_args = 0
 143 0000 08B5     		push	{r3, lr}
 144              		.cfi_def_cfa_offset 8
 145              		.cfi_offset 3, -8
 146              		.cfi_offset 14, -4
  41:.\states.c    ****     System_init();
 147              		.loc 1 41 0
 148 0002 FFF7FEFF 		bl	System_init
 149              	.LVL15:
  42:.\states.c    ****     Display_welcome_message();
 150              		.loc 1 42 0
 151 0006 FFF7FEFF 		bl	Display_welcome_message
 152              	.LVL16:
  43:.\states.c    ****     Play_startup_music();
 153              		.loc 1 43 0
 154 000a FFF7FEFF 		bl	Play_startup_music
 155              	.LVL17:
  44:.\states.c    ****     Prev_state = STATE_RESET;
 156              		.loc 1 44 0
 157 000e 0122     		movs	r2, #1
 158 0010 054B     		ldr	r3, .L13
 159 0012 1A60     		str	r2, [r3]
  45:.\states.c    ****     LCD_Position(0,0);
 160              		.loc 1 45 0
 161 0014 0020     		movs	r0, #0
 162 0016 0146     		mov	r1, r0
 163 0018 FFF7FEFF 		bl	LCD_Position
 164              	.LVL18:
  46:.\states.c    ****     LCD_PrintString("RESET");
 165              		.loc 1 46 0
 166 001c 0348     		ldr	r0, .L13+4
 167 001e FFF7FEFF 		bl	LCD_PrintString
 168              	.LVL19:
  47:.\states.c    ****     return STATE_START;
  48:.\states.c    **** }
 169              		.loc 1 48 0
 170 0022 0220     		movs	r0, #2
 171 0024 08BD     		pop	{r3, pc}
 172              	.L14:
 173 0026 00BF     		.align	2
 174              	.L13:
 175 0028 00000000 		.word	Prev_state
ARM GAS  C:\Users\JohnP\AppData\Local\Temp\ccTpLhhn.s 			page 5


 176 002c 00000000 		.word	.LC0
 177              		.cfi_endproc
 178              	.LFE1:
 179              		.size	State_reset, .-State_reset
 180              		.section	.text.State_start,"ax",%progbits
 181              		.align	2
 182              		.global	State_start
 183              		.thumb
 184              		.thumb_func
 185              		.type	State_start, %function
 186              	State_start:
 187              	.LFB2:
  49:.\states.c    **** 
  50:.\states.c    **** STATE State_start(){
 188              		.loc 1 50 0
 189              		.cfi_startproc
 190              		@ args = 0, pretend = 0, frame = 0
 191              		@ frame_needed = 0, uses_anonymous_args = 0
 192 0000 08B5     		push	{r3, lr}
 193              		.cfi_def_cfa_offset 8
 194              		.cfi_offset 3, -8
 195              		.cfi_offset 14, -4
  51:.\states.c    ****     LCD_PrintString("START");
 196              		.loc 1 51 0
 197 0002 0448     		ldr	r0, .L16
 198 0004 FFF7FEFF 		bl	LCD_PrintString
 199              	.LVL20:
  52:.\states.c    ****     Prev_state = STATE_START;
 200              		.loc 1 52 0
 201 0008 0222     		movs	r2, #2
 202 000a 034B     		ldr	r3, .L16+4
 203 000c 1A60     		str	r2, [r3]
  53:.\states.c    ****     return STATE_PROFILE_SELECTION;   
  54:.\states.c    **** }
 204              		.loc 1 54 0
 205 000e 0320     		movs	r0, #3
 206 0010 08BD     		pop	{r3, pc}
 207              	.L17:
 208 0012 00BF     		.align	2
 209              	.L16:
 210 0014 08000000 		.word	.LC1
 211 0018 00000000 		.word	Prev_state
 212              		.cfi_endproc
 213              	.LFE2:
 214              		.size	State_start, .-State_start
 215              		.section	.text.State_profile_selection,"ax",%progbits
 216              		.align	2
 217              		.global	State_profile_selection
 218              		.thumb
 219              		.thumb_func
 220              		.type	State_profile_selection, %function
 221              	State_profile_selection:
 222              	.LFB3:
  55:.\states.c    **** 
  56:.\states.c    **** STATE State_profile_selection(){
 223              		.loc 1 56 0
 224              		.cfi_startproc
ARM GAS  C:\Users\JohnP\AppData\Local\Temp\ccTpLhhn.s 			page 6


 225              		@ args = 0, pretend = 0, frame = 0
 226              		@ frame_needed = 0, uses_anonymous_args = 0
 227 0000 08B5     		push	{r3, lr}
 228              		.cfi_def_cfa_offset 8
 229              		.cfi_offset 3, -8
 230              		.cfi_offset 14, -4
  57:.\states.c    ****     if(Prev_state == STATE_PROFILE_SELECTION) {
 231              		.loc 1 57 0
 232 0002 3B4B     		ldr	r3, .L34
 233 0004 1B68     		ldr	r3, [r3]
 234 0006 032B     		cmp	r3, #3
 235 0008 04D1     		bne	.L19
  58:.\states.c    ****         LCD_Position(0,0); 
 236              		.loc 1 58 0
 237 000a 0020     		movs	r0, #0
 238 000c 0146     		mov	r1, r0
 239 000e FFF7FEFF 		bl	LCD_Position
 240              	.LVL21:
 241 0012 08E0     		b	.L20
 242              	.L19:
  59:.\states.c    ****     }
  60:.\states.c    ****     else {
  61:.\states.c    ****         LCD_ClearDisplay();  
 243              		.loc 1 61 0
 244 0014 0120     		movs	r0, #1
 245 0016 FFF7FEFF 		bl	LCD_WriteControl
 246              	.LVL22:
  62:.\states.c    ****         LCD_PrintString("Select a profile..");
 247              		.loc 1 62 0
 248 001a 3648     		ldr	r0, .L34+4
 249 001c FFF7FEFF 		bl	LCD_PrintString
 250              	.LVL23:
  63:.\states.c    ****         Prev_state = STATE_PROFILE_SELECTION;
 251              		.loc 1 63 0
 252 0020 0322     		movs	r2, #3
 253 0022 334B     		ldr	r3, .L34
 254 0024 1A60     		str	r2, [r3]
 255              	.L20:
  64:.\states.c    ****         
  65:.\states.c    ****     }
  66:.\states.c    ****     LCD_Position(1,0);
 256              		.loc 1 66 0
 257 0026 0120     		movs	r0, #1
 258 0028 0021     		movs	r1, #0
 259 002a FFF7FEFF 		bl	LCD_Position
 260              	.LVL24:
  67:.\states.c    ****     CapSense_UpdateEnabledBaselines();
 261              		.loc 1 67 0
 262 002e FFF7FEFF 		bl	CapSense_UpdateEnabledBaselines
 263              	.LVL25:
  68:.\states.c    ****     CapSense_ScanEnabledWidgets();
 264              		.loc 1 68 0
 265 0032 FFF7FEFF 		bl	CapSense_ScanEnabledWidgets
 266              	.LVL26:
 267              	.L21:
  69:.\states.c    ****     while(CapSense_IsBusy() != 0);
 268              		.loc 1 69 0 discriminator 1
ARM GAS  C:\Users\JohnP\AppData\Local\Temp\ccTpLhhn.s 			page 7


 269 0036 FFF7FEFF 		bl	CapSense_IsBusy
 270              	.LVL27:
 271 003a 0028     		cmp	r0, #0
 272 003c FBD1     		bne	.L21
  70:.\states.c    ****     
  71:.\states.c    ****     if (CapSense_CheckIsWidgetActive(CapSense_BUTTON0__BTN)) {
 273              		.loc 1 71 0
 274 003e 0120     		movs	r0, #1
 275 0040 FFF7FEFF 		bl	CapSense_CheckIsWidgetActive
 276              	.LVL28:
 277 0044 78B1     		cbz	r0, .L22
  72:.\states.c    ****         if (selectedProfile >= 0) {
 278              		.loc 1 72 0
 279 0046 2C4B     		ldr	r3, .L34+8
 280 0048 1B68     		ldr	r3, [r3]
 281 004a 002B     		cmp	r3, #0
 282 004c 07DB     		blt	.L23
  73:.\states.c    ****             selectedProfile--;
 283              		.loc 1 73 0
 284 004e 013B     		subs	r3, r3, #1
 285 0050 294A     		ldr	r2, .L34+8
 286 0052 1360     		str	r3, [r2]
  74:.\states.c    ****             CyDelay(500);
 287              		.loc 1 74 0
 288 0054 4FF4FA70 		mov	r0, #500
 289 0058 FFF7FEFF 		bl	CyDelay
 290              	.LVL29:
 291 005c 0FE0     		b	.L24
 292              	.L23:
  75:.\states.c    ****         }
  76:.\states.c    ****         else {
  77:.\states.c    ****             selectedProfile = 5;   
 293              		.loc 1 77 0
 294 005e 0522     		movs	r2, #5
 295 0060 254B     		ldr	r3, .L34+8
 296 0062 1A60     		str	r2, [r3]
 297 0064 0BE0     		b	.L24
 298              	.L22:
  78:.\states.c    ****         }
  79:.\states.c    ****     }
  80:.\states.c    ****     else if (CapSense_CheckIsWidgetActive(CapSense_BUTTON1__BTN)) {
 299              		.loc 1 80 0
 300 0066 0220     		movs	r0, #2
 301 0068 FFF7FEFF 		bl	CapSense_CheckIsWidgetActive
 302              	.LVL30:
 303 006c 38B1     		cbz	r0, .L24
  81:.\states.c    ****             Display_profile_selection(selectedProfile);
 304              		.loc 1 81 0
 305 006e 224B     		ldr	r3, .L34+8
 306 0070 1868     		ldr	r0, [r3]
 307 0072 FFF7FEFF 		bl	Display_profile_selection
 308              	.LVL31:
  82:.\states.c    ****             Motor_rampUp();
 309              		.loc 1 82 0
 310 0076 FFF7FEFF 		bl	Motor_rampUp
 311              	.LVL32:
  83:.\states.c    ****             return STATE_MOVING;
ARM GAS  C:\Users\JohnP\AppData\Local\Temp\ccTpLhhn.s 			page 8


 312              		.loc 1 83 0
 313 007a 0420     		movs	r0, #4
 314 007c 08BD     		pop	{r3, pc}
 315              	.L24:
  84:.\states.c    ****     }
  85:.\states.c    ****     switch (selectedProfile){
 316              		.loc 1 85 0
 317 007e 1E4B     		ldr	r3, .L34+8
 318 0080 1B68     		ldr	r3, [r3]
 319 0082 042B     		cmp	r3, #4
 320 0084 31D8     		bhi	.L32
 321 0086 DFE803F0 		tbb	[pc, r3]
 322              	.L27:
 323 008a 03       		.byte	(.L26-.L27)/2
 324 008b 0C       		.byte	(.L28-.L27)/2
 325 008c 15       		.byte	(.L29-.L27)/2
 326 008d 1E       		.byte	(.L30-.L27)/2
 327 008e 27       		.byte	(.L31-.L27)/2
 328 008f 00       		.p2align 1
 329              	.L26:
  86:.\states.c    ****         case REGULAR:
  87:.\states.c    ****             LCD_Position(1,0);
 330              		.loc 1 87 0
 331 0090 0120     		movs	r0, #1
 332 0092 0021     		movs	r1, #0
 333 0094 FFF7FEFF 		bl	LCD_Position
 334              	.LVL33:
  88:.\states.c    ****             LCD_PrintString("Regular   ");
 335              		.loc 1 88 0
 336 0098 1848     		ldr	r0, .L34+12
 337 009a FFF7FEFF 		bl	LCD_PrintString
 338              	.LVL34:
  89:.\states.c    ****             break;
  90:.\states.c    ****         case LIGHT:
  91:.\states.c    ****             LCD_Position(1,0);
  92:.\states.c    ****             LCD_PrintString("Light     ");
  93:.\states.c    ****             break; 
  94:.\states.c    ****         case HILLS:
  95:.\states.c    ****             LCD_Position(1,0);
  96:.\states.c    ****             LCD_PrintString("Hills     ");
  97:.\states.c    ****             break;
  98:.\states.c    ****         case CARDIO:
  99:.\states.c    ****             LCD_Position(1,0);
 100:.\states.c    ****             LCD_PrintString("Cardio    ");
 101:.\states.c    ****             break;
 102:.\states.c    ****         case FATBURN:
 103:.\states.c    ****             LCD_Position(1,0);
 104:.\states.c    ****             LCD_PrintString("Fat Burn  ");
 105:.\states.c    ****             break;
 106:.\states.c    ****         default:
 107:.\states.c    ****             break;
 108:.\states.c    ****     }
 109:.\states.c    ****     return STATE_PROFILE_SELECTION;   
 339              		.loc 1 109 0
 340 009e 0320     		movs	r0, #3
  89:.\states.c    ****             break;
 341              		.loc 1 89 0
ARM GAS  C:\Users\JohnP\AppData\Local\Temp\ccTpLhhn.s 			page 9


 342 00a0 08BD     		pop	{r3, pc}
 343              	.L28:
  91:.\states.c    ****             LCD_Position(1,0);
 344              		.loc 1 91 0
 345 00a2 0120     		movs	r0, #1
 346 00a4 0021     		movs	r1, #0
 347 00a6 FFF7FEFF 		bl	LCD_Position
 348              	.LVL35:
  92:.\states.c    ****             LCD_PrintString("Light     ");
 349              		.loc 1 92 0
 350 00aa 1548     		ldr	r0, .L34+16
 351 00ac FFF7FEFF 		bl	LCD_PrintString
 352              	.LVL36:
 353              		.loc 1 109 0
 354 00b0 0320     		movs	r0, #3
  93:.\states.c    ****             break; 
 355              		.loc 1 93 0
 356 00b2 08BD     		pop	{r3, pc}
 357              	.L29:
  95:.\states.c    ****             LCD_Position(1,0);
 358              		.loc 1 95 0
 359 00b4 0120     		movs	r0, #1
 360 00b6 0021     		movs	r1, #0
 361 00b8 FFF7FEFF 		bl	LCD_Position
 362              	.LVL37:
  96:.\states.c    ****             LCD_PrintString("Hills     ");
 363              		.loc 1 96 0
 364 00bc 1148     		ldr	r0, .L34+20
 365 00be FFF7FEFF 		bl	LCD_PrintString
 366              	.LVL38:
 367              		.loc 1 109 0
 368 00c2 0320     		movs	r0, #3
  97:.\states.c    ****             break;
 369              		.loc 1 97 0
 370 00c4 08BD     		pop	{r3, pc}
 371              	.L30:
  99:.\states.c    ****             LCD_Position(1,0);
 372              		.loc 1 99 0
 373 00c6 0120     		movs	r0, #1
 374 00c8 0021     		movs	r1, #0
 375 00ca FFF7FEFF 		bl	LCD_Position
 376              	.LVL39:
 100:.\states.c    ****             LCD_PrintString("Cardio    ");
 377              		.loc 1 100 0
 378 00ce 0E48     		ldr	r0, .L34+24
 379 00d0 FFF7FEFF 		bl	LCD_PrintString
 380              	.LVL40:
 381              		.loc 1 109 0
 382 00d4 0320     		movs	r0, #3
 101:.\states.c    ****             break;
 383              		.loc 1 101 0
 384 00d6 08BD     		pop	{r3, pc}
 385              	.L31:
 103:.\states.c    ****             LCD_Position(1,0);
 386              		.loc 1 103 0
 387 00d8 0120     		movs	r0, #1
 388 00da 0021     		movs	r1, #0
ARM GAS  C:\Users\JohnP\AppData\Local\Temp\ccTpLhhn.s 			page 10


 389 00dc FFF7FEFF 		bl	LCD_Position
 390              	.LVL41:
 104:.\states.c    ****             LCD_PrintString("Fat Burn  ");
 391              		.loc 1 104 0
 392 00e0 0A48     		ldr	r0, .L34+28
 393 00e2 FFF7FEFF 		bl	LCD_PrintString
 394              	.LVL42:
 395              		.loc 1 109 0
 396 00e6 0320     		movs	r0, #3
 105:.\states.c    ****             break;
 397              		.loc 1 105 0
 398 00e8 08BD     		pop	{r3, pc}
 399              	.L32:
 400              		.loc 1 109 0
 401 00ea 0320     		movs	r0, #3
 110:.\states.c    **** }
 402              		.loc 1 110 0
 403 00ec 08BD     		pop	{r3, pc}
 404              	.L35:
 405 00ee 00BF     		.align	2
 406              	.L34:
 407 00f0 00000000 		.word	Prev_state
 408 00f4 10000000 		.word	.LC2
 409 00f8 00000000 		.word	.LANCHOR0
 410 00fc 24000000 		.word	.LC3
 411 0100 30000000 		.word	.LC4
 412 0104 3C000000 		.word	.LC5
 413 0108 48000000 		.word	.LC6
 414 010c 54000000 		.word	.LC7
 415              		.cfi_endproc
 416              	.LFE3:
 417              		.size	State_profile_selection, .-State_profile_selection
 418              		.section	.text.State_moving,"ax",%progbits
 419              		.align	2
 420              		.global	State_moving
 421              		.thumb
 422              		.thumb_func
 423              		.type	State_moving, %function
 424              	State_moving:
 425              	.LFB4:
 111:.\states.c    **** 
 112:.\states.c    **** STATE State_moving(){
 426              		.loc 1 112 0
 427              		.cfi_startproc
 428              		@ args = 0, pretend = 0, frame = 0
 429              		@ frame_needed = 0, uses_anonymous_args = 0
 430 0000 10B5     		push	{r4, lr}
 431              		.cfi_def_cfa_offset 8
 432              		.cfi_offset 4, -8
 433              		.cfi_offset 14, -4
 113:.\states.c    ****     Prev_state = STATE_MOVING;
 434              		.loc 1 113 0
 435 0002 0424     		movs	r4, #4
 436 0004 044B     		ldr	r3, .L37
 437 0006 1C60     		str	r4, [r3]
 114:.\states.c    ****     /* wait for a detection of heartrate change */
 115:.\states.c    ****     //Detect_heartrate();
ARM GAS  C:\Users\JohnP\AppData\Local\Temp\ccTpLhhn.s 			page 11


 116:.\states.c    ****     LCD_Position(0,0);
 438              		.loc 1 116 0
 439 0008 0020     		movs	r0, #0
 440 000a 0146     		mov	r1, r0
 441 000c FFF7FEFF 		bl	LCD_Position
 442              	.LVL43:
 117:.\states.c    **** //    LCD_PrintU32Number(heartrate);
 118:.\states.c    ****  //   LCD_PrintString("    ")
 119:.\states.c    ****     Detect_heartrate();
 443              		.loc 1 119 0
 444 0010 FFF7FEFF 		bl	Detect_heartrate
 445              	.LVL44:
 120:.\states.c    ****     return STATE_MOVING;   
 121:.\states.c    **** }
 446              		.loc 1 121 0
 447 0014 2046     		mov	r0, r4
 448 0016 10BD     		pop	{r4, pc}
 449              	.L38:
 450              		.align	2
 451              	.L37:
 452 0018 00000000 		.word	Prev_state
 453              		.cfi_endproc
 454              	.LFE4:
 455              		.size	State_moving, .-State_moving
 456              		.section	.text.State_heartrate_change,"ax",%progbits
 457              		.align	2
 458              		.global	State_heartrate_change
 459              		.thumb
 460              		.thumb_func
 461              		.type	State_heartrate_change, %function
 462              	State_heartrate_change:
 463              	.LFB5:
 122:.\states.c    **** 
 123:.\states.c    **** STATE State_heartrate_change(){
 464              		.loc 1 123 0
 465              		.cfi_startproc
 466              		@ args = 0, pretend = 0, frame = 0
 467              		@ frame_needed = 0, uses_anonymous_args = 0
 468              		@ link register save eliminated.
 124:.\states.c    ****     Prev_state = STATE_HEARTRATE_CHANGE;
 469              		.loc 1 124 0
 470 0000 0522     		movs	r2, #5
 471 0002 024B     		ldr	r3, .L40
 472 0004 1A60     		str	r2, [r3]
 125:.\states.c    ****     return STATE_MOVING;   
 126:.\states.c    **** }
 473              		.loc 1 126 0
 474 0006 0420     		movs	r0, #4
 475 0008 7047     		bx	lr
 476              	.L41:
 477 000a 00BF     		.align	2
 478              	.L40:
 479 000c 00000000 		.word	Prev_state
 480              		.cfi_endproc
 481              	.LFE5:
 482              		.size	State_heartrate_change, .-State_heartrate_change
 483              		.global	selectedProfile
ARM GAS  C:\Users\JohnP\AppData\Local\Temp\ccTpLhhn.s 			page 12


 484              		.comm	Prev_state,4,4
 485              		.comm	currentState,4,4
 486              		.comm	timer_value,4,4
 487              		.comm	timer_status,4,4
 488              		.comm	heartbeatCounter,4,4
 489              		.comm	heartrate,4,4
 490              		.section	.rodata.str1.4,"aMS",%progbits,1
 491              		.align	2
 492              	.LC0:
 493 0000 52455345 		.ascii	"RESET\000"
 493      5400
 494 0006 0000     		.space	2
 495              	.LC1:
 496 0008 53544152 		.ascii	"START\000"
 496      5400
 497 000e 0000     		.space	2
 498              	.LC2:
 499 0010 53656C65 		.ascii	"Select a profile..\000"
 499      63742061 
 499      2070726F 
 499      66696C65 
 499      2E2E00
 500 0023 00       		.space	1
 501              	.LC3:
 502 0024 52656775 		.ascii	"Regular   \000"
 502      6C617220 
 502      202000
 503 002f 00       		.space	1
 504              	.LC4:
 505 0030 4C696768 		.ascii	"Light     \000"
 505      74202020 
 505      202000
 506 003b 00       		.space	1
 507              	.LC5:
 508 003c 48696C6C 		.ascii	"Hills     \000"
 508      73202020 
 508      202000
 509 0047 00       		.space	1
 510              	.LC6:
 511 0048 43617264 		.ascii	"Cardio    \000"
 511      696F2020 
 511      202000
 512 0053 00       		.space	1
 513              	.LC7:
 514 0054 46617420 		.ascii	"Fat Burn  \000"
 514      4275726E 
 514      202000
 515 005f 00       		.bss
 516              		.align	2
 517              		.set	.LANCHOR0,. + 0
 518              		.type	selectedProfile, %object
 519              		.size	selectedProfile, 4
 520              	selectedProfile:
 521 0000 00000000 		.space	4
 522              		.text
 523              	.Letext0:
 524              		.file 2 "Generated_Source\\PSoC5/cytypes.h"
ARM GAS  C:\Users\JohnP\AppData\Local\Temp\ccTpLhhn.s 			page 13


 525              		.file 3 ".\\states.h"
 526              		.file 4 ".\\heartrate.h"
 527              		.file 5 "Generated_Source\\PSoC5/LCD.h"
 528              		.file 6 "Generated_Source\\PSoC5/CyLib.h"
 529              		.file 7 "Generated_Source\\PSoC5/CapSense.h"
 530              		.file 8 "Generated_Source\\PSoC5/CapSense_CSHL.h"
 531              		.file 9 ".\\display.h"
 532              		.file 10 ".\\system.h"
 533              		.file 11 ".\\speaker.h"
 534              		.file 12 ".\\motor.h"