ARM GAS  C:\Users\JohnP\AppData\Local\Temp\ccXVfz0p.s 			page 1


   1              		.syntax unified
   2              		.cpu cortex-m3
   3              		.fpu softvfp
   4              		.eabi_attribute 20, 1
   5              		.eabi_attribute 21, 1
   6              		.eabi_attribute 23, 3
   7              		.eabi_attribute 24, 1
   8              		.eabi_attribute 25, 1
   9              		.eabi_attribute 26, 1
  10              		.eabi_attribute 30, 1
  11              		.eabi_attribute 34, 1
  12              		.eabi_attribute 18, 4
  13              		.thumb
  14              		.file	"USBUART_episr.c"
  15              		.text
  16              	.Ltext0:
  17              		.cfi_sections	.debug_frame
  18              		.section	.text.USBUART_EP_1_ISR,"ax",%progbits
  19              		.align	2
  20              		.global	USBUART_EP_1_ISR
  21              		.thumb
  22              		.thumb_func
  23              		.type	USBUART_EP_1_ISR, %function
  24              	USBUART_EP_1_ISR:
  25              	.LFB0:
  26              		.file 1 ".\\Generated_Source\\PSoC5\\USBUART_episr.c"
   1:.\Generated_Source\PSoC5/USBUART_episr.c **** /*******************************************************************************
   2:.\Generated_Source\PSoC5/USBUART_episr.c **** * File Name: USBUART_episr.c
   3:.\Generated_Source\PSoC5/USBUART_episr.c **** * Version 2.80
   4:.\Generated_Source\PSoC5/USBUART_episr.c **** *
   5:.\Generated_Source\PSoC5/USBUART_episr.c **** * Description:
   6:.\Generated_Source\PSoC5/USBUART_episr.c **** *  Data endpoint Interrupt Service Routines
   7:.\Generated_Source\PSoC5/USBUART_episr.c **** *
   8:.\Generated_Source\PSoC5/USBUART_episr.c **** * Note:
   9:.\Generated_Source\PSoC5/USBUART_episr.c **** *
  10:.\Generated_Source\PSoC5/USBUART_episr.c **** ********************************************************************************
  11:.\Generated_Source\PSoC5/USBUART_episr.c **** * Copyright 2008-2014, Cypress Semiconductor Corporation.  All rights reserved.
  12:.\Generated_Source\PSoC5/USBUART_episr.c **** * You may use this file only in accordance with the license, terms, conditions,
  13:.\Generated_Source\PSoC5/USBUART_episr.c **** * disclaimers, and limitations in the end user license agreement accompanying
  14:.\Generated_Source\PSoC5/USBUART_episr.c **** * the software package with which this file was provided.
  15:.\Generated_Source\PSoC5/USBUART_episr.c **** *******************************************************************************/
  16:.\Generated_Source\PSoC5/USBUART_episr.c **** 
  17:.\Generated_Source\PSoC5/USBUART_episr.c **** #include "USBUART.h"
  18:.\Generated_Source\PSoC5/USBUART_episr.c **** #include "USBUART_pvt.h"
  19:.\Generated_Source\PSoC5/USBUART_episr.c **** #if (defined(USBUART_ENABLE_MIDI_STREAMING) && (USBUART_ENABLE_MIDI_API != 0u))
  20:.\Generated_Source\PSoC5/USBUART_episr.c ****     #include "USBUART_midi.h"
  21:.\Generated_Source\PSoC5/USBUART_episr.c **** #endif /* (defined(USBUART_ENABLE_MIDI_STREAMING) && (USBUART_ENABLE_MIDI_API != 0u)) */
  22:.\Generated_Source\PSoC5/USBUART_episr.c **** #if ((USBUART_EP_MM == USBUART__EP_DMAAUTO) && (USBUART_EP_DMA_AUTO_OPT == 0u))
  23:.\Generated_Source\PSoC5/USBUART_episr.c ****     #include "USBUART_EP8_DMA_Done_SR.h"
  24:.\Generated_Source\PSoC5/USBUART_episr.c ****     #include "USBUART_EP17_DMA_Done_SR.h"
  25:.\Generated_Source\PSoC5/USBUART_episr.c **** #endif /* (USBUART_EP_MM == USBUART__EP_DMAAUTO) && (USBUART_EP_DMA_AUTO_OPT == 0u) */
  26:.\Generated_Source\PSoC5/USBUART_episr.c **** 
  27:.\Generated_Source\PSoC5/USBUART_episr.c **** 
  28:.\Generated_Source\PSoC5/USBUART_episr.c **** /***************************************
  29:.\Generated_Source\PSoC5/USBUART_episr.c **** * Custom Declarations
  30:.\Generated_Source\PSoC5/USBUART_episr.c **** ***************************************/
  31:.\Generated_Source\PSoC5/USBUART_episr.c **** /* `#START CUSTOM_DECLARATIONS` Place your declaration here */
ARM GAS  C:\Users\JohnP\AppData\Local\Temp\ccXVfz0p.s 			page 2


  32:.\Generated_Source\PSoC5/USBUART_episr.c **** 
  33:.\Generated_Source\PSoC5/USBUART_episr.c **** /* `#END` */
  34:.\Generated_Source\PSoC5/USBUART_episr.c **** 
  35:.\Generated_Source\PSoC5/USBUART_episr.c **** 
  36:.\Generated_Source\PSoC5/USBUART_episr.c **** #if(USBUART_EP1_ISR_REMOVE == 0u)
  37:.\Generated_Source\PSoC5/USBUART_episr.c **** 
  38:.\Generated_Source\PSoC5/USBUART_episr.c **** 
  39:.\Generated_Source\PSoC5/USBUART_episr.c ****     /******************************************************************************
  40:.\Generated_Source\PSoC5/USBUART_episr.c ****     * Function Name: USBUART_EP_1_ISR
  41:.\Generated_Source\PSoC5/USBUART_episr.c ****     *******************************************************************************
  42:.\Generated_Source\PSoC5/USBUART_episr.c ****     *
  43:.\Generated_Source\PSoC5/USBUART_episr.c ****     * Summary:
  44:.\Generated_Source\PSoC5/USBUART_episr.c ****     *  Endpoint 1 Interrupt Service Routine
  45:.\Generated_Source\PSoC5/USBUART_episr.c ****     *
  46:.\Generated_Source\PSoC5/USBUART_episr.c ****     * Parameters:
  47:.\Generated_Source\PSoC5/USBUART_episr.c ****     *  None.
  48:.\Generated_Source\PSoC5/USBUART_episr.c ****     *
  49:.\Generated_Source\PSoC5/USBUART_episr.c ****     * Return:
  50:.\Generated_Source\PSoC5/USBUART_episr.c ****     *  None.
  51:.\Generated_Source\PSoC5/USBUART_episr.c ****     *
  52:.\Generated_Source\PSoC5/USBUART_episr.c ****     ******************************************************************************/
  53:.\Generated_Source\PSoC5/USBUART_episr.c ****     CY_ISR(USBUART_EP_1_ISR)
  54:.\Generated_Source\PSoC5/USBUART_episr.c ****     {
  27              		.loc 1 54 0
  28              		.cfi_startproc
  29              		@ args = 0, pretend = 0, frame = 0
  30              		@ frame_needed = 0, uses_anonymous_args = 0
  31              		@ link register save eliminated.
  55:.\Generated_Source\PSoC5/USBUART_episr.c ****         #if (defined(USBUART_ENABLE_MIDI_STREAMING) && !defined(USBUART_MAIN_SERVICE_MIDI_OUT)  && 
  56:.\Generated_Source\PSoC5/USBUART_episr.c ****                      USBUART_ISR_SERVICE_MIDI_OUT && CY_PSOC3)
  57:.\Generated_Source\PSoC5/USBUART_episr.c ****             uint8 int_en;
  58:.\Generated_Source\PSoC5/USBUART_episr.c ****         #endif /* USBUART_ISR_SERVICE_MIDI_OUT && CY_PSOC3 */
  59:.\Generated_Source\PSoC5/USBUART_episr.c **** 
  60:.\Generated_Source\PSoC5/USBUART_episr.c ****         /* `#START EP1_USER_CODE` Place your code here */
  61:.\Generated_Source\PSoC5/USBUART_episr.c **** 
  62:.\Generated_Source\PSoC5/USBUART_episr.c ****         /* `#END` */
  63:.\Generated_Source\PSoC5/USBUART_episr.c **** 
  64:.\Generated_Source\PSoC5/USBUART_episr.c ****         #if (defined(USBUART_ENABLE_MIDI_STREAMING) && !defined(USBUART_MAIN_SERVICE_MIDI_OUT) && \
  65:.\Generated_Source\PSoC5/USBUART_episr.c ****                      USBUART_ISR_SERVICE_MIDI_OUT && CY_PSOC3)
  66:.\Generated_Source\PSoC5/USBUART_episr.c ****             int_en = EA;
  67:.\Generated_Source\PSoC5/USBUART_episr.c ****             CyGlobalIntEnable;  /* Make sure nested interrupt is enabled */
  68:.\Generated_Source\PSoC5/USBUART_episr.c ****         #endif /* USBUART_ISR_SERVICE_MIDI_OUT && CY_PSOC3 */
  69:.\Generated_Source\PSoC5/USBUART_episr.c **** 
  70:.\Generated_Source\PSoC5/USBUART_episr.c ****         CY_GET_REG8(USBUART_SIE_EP1_CR0_PTR); /* Must read the mode reg */
  32              		.loc 1 70 0
  33 0000 0A4B     		ldr	r3, .L3
  34 0002 1B78     		ldrb	r3, [r3]	@ zero_extendqisi2
  71:.\Generated_Source\PSoC5/USBUART_episr.c ****         /* Do not toggle ISOC endpoint */
  72:.\Generated_Source\PSoC5/USBUART_episr.c ****         if((USBUART_EP[USBUART_EP1].attrib & USBUART_EP_TYPE_MASK) !=
  35              		.loc 1 72 0
  36 0004 0A4B     		ldr	r3, .L3+4
  37 0006 1B7B     		ldrb	r3, [r3, #12]	@ zero_extendqisi2
  38 0008 03F00303 		and	r3, r3, #3
  39 000c 012B     		cmp	r3, #1
  40 000e 04D0     		beq	.L2
  73:.\Generated_Source\PSoC5/USBUART_episr.c ****                                                                                     USBUART_EP_TYPE
  74:.\Generated_Source\PSoC5/USBUART_episr.c ****         {
ARM GAS  C:\Users\JohnP\AppData\Local\Temp\ccXVfz0p.s 			page 3


  75:.\Generated_Source\PSoC5/USBUART_episr.c ****             USBUART_EP[USBUART_EP1].epToggle ^= USBUART_EPX_CNT_DATA_TOGGLE;
  41              		.loc 1 75 0
  42 0010 074B     		ldr	r3, .L3+4
  43 0012 DA7B     		ldrb	r2, [r3, #15]	@ zero_extendqisi2
  44 0014 82F08002 		eor	r2, r2, #128
  45 0018 DA73     		strb	r2, [r3, #15]
  46              	.L2:
  76:.\Generated_Source\PSoC5/USBUART_episr.c ****         }
  77:.\Generated_Source\PSoC5/USBUART_episr.c ****         USBUART_EP[USBUART_EP1].apiEpState = USBUART_EVENT_PENDING;
  47              		.loc 1 77 0
  48 001a 0122     		movs	r2, #1
  49 001c 044B     		ldr	r3, .L3+4
  50 001e 5A73     		strb	r2, [r3, #13]
  78:.\Generated_Source\PSoC5/USBUART_episr.c ****         CY_SET_REG8(USBUART_SIE_EP_INT_SR_PTR, CY_GET_REG8(USBUART_SIE_EP_INT_SR_PTR) &
  51              		.loc 1 78 0
  52 0020 044B     		ldr	r3, .L3+8
  53 0022 1A78     		ldrb	r2, [r3]	@ zero_extendqisi2
  54 0024 02F0FE02 		and	r2, r2, #254
  55 0028 1A70     		strb	r2, [r3]
  56 002a 7047     		bx	lr
  57              	.L4:
  58              		.align	2
  59              	.L3:
  60 002c 0E600040 		.word	1073766414
  61 0030 00000000 		.word	USBUART_EP
  62 0034 0B600040 		.word	1073766411
  63              		.cfi_endproc
  64              	.LFE0:
  65              		.size	USBUART_EP_1_ISR, .-USBUART_EP_1_ISR
  66              		.section	.text.USBUART_EP_2_ISR,"ax",%progbits
  67              		.align	2
  68              		.global	USBUART_EP_2_ISR
  69              		.thumb
  70              		.thumb_func
  71              		.type	USBUART_EP_2_ISR, %function
  72              	USBUART_EP_2_ISR:
  73              	.LFB1:
  79:.\Generated_Source\PSoC5/USBUART_episr.c ****                                                                     (uint8)~USBUART_SIE_EP_INT_EP1_
  80:.\Generated_Source\PSoC5/USBUART_episr.c **** 
  81:.\Generated_Source\PSoC5/USBUART_episr.c ****         #if (defined(USBUART_ENABLE_MIDI_STREAMING) && !defined(USBUART_MAIN_SERVICE_MIDI_OUT) && \
  82:.\Generated_Source\PSoC5/USBUART_episr.c ****                      USBUART_ISR_SERVICE_MIDI_OUT)
  83:.\Generated_Source\PSoC5/USBUART_episr.c ****             if(USBUART_midi_out_ep == USBUART_EP1)
  84:.\Generated_Source\PSoC5/USBUART_episr.c ****             {
  85:.\Generated_Source\PSoC5/USBUART_episr.c ****                 USBUART_MIDI_OUT_EP_Service();
  86:.\Generated_Source\PSoC5/USBUART_episr.c ****             }
  87:.\Generated_Source\PSoC5/USBUART_episr.c ****         #endif /*  USBUART_ISR_SERVICE_MIDI_OUT */
  88:.\Generated_Source\PSoC5/USBUART_episr.c **** 
  89:.\Generated_Source\PSoC5/USBUART_episr.c ****         /* `#START EP1_END_USER_CODE` Place your code here */
  90:.\Generated_Source\PSoC5/USBUART_episr.c **** 
  91:.\Generated_Source\PSoC5/USBUART_episr.c ****         /* `#END` */
  92:.\Generated_Source\PSoC5/USBUART_episr.c **** 
  93:.\Generated_Source\PSoC5/USBUART_episr.c ****         #if (defined(USBUART_ENABLE_MIDI_STREAMING) && !defined(USBUART_MAIN_SERVICE_MIDI_OUT) && \
  94:.\Generated_Source\PSoC5/USBUART_episr.c ****                      USBUART_ISR_SERVICE_MIDI_OUT && CY_PSOC3)
  95:.\Generated_Source\PSoC5/USBUART_episr.c ****             EA = int_en;
  96:.\Generated_Source\PSoC5/USBUART_episr.c ****         #endif /* USBUART_ISR_SERVICE_MIDI_OUT && CY_PSOC3 */
  97:.\Generated_Source\PSoC5/USBUART_episr.c ****     }
  98:.\Generated_Source\PSoC5/USBUART_episr.c **** 
ARM GAS  C:\Users\JohnP\AppData\Local\Temp\ccXVfz0p.s 			page 4


  99:.\Generated_Source\PSoC5/USBUART_episr.c **** #endif   /*  USBUART_EP1_ISR_REMOVE */
 100:.\Generated_Source\PSoC5/USBUART_episr.c **** 
 101:.\Generated_Source\PSoC5/USBUART_episr.c **** 
 102:.\Generated_Source\PSoC5/USBUART_episr.c **** #if(USBUART_EP2_ISR_REMOVE == 0u)
 103:.\Generated_Source\PSoC5/USBUART_episr.c **** 
 104:.\Generated_Source\PSoC5/USBUART_episr.c ****     /*******************************************************************************
 105:.\Generated_Source\PSoC5/USBUART_episr.c ****     * Function Name: USBUART_EP_2_ISR
 106:.\Generated_Source\PSoC5/USBUART_episr.c ****     ********************************************************************************
 107:.\Generated_Source\PSoC5/USBUART_episr.c ****     *
 108:.\Generated_Source\PSoC5/USBUART_episr.c ****     * Summary:
 109:.\Generated_Source\PSoC5/USBUART_episr.c ****     *  Endpoint 2 Interrupt Service Routine
 110:.\Generated_Source\PSoC5/USBUART_episr.c ****     *
 111:.\Generated_Source\PSoC5/USBUART_episr.c ****     * Parameters:
 112:.\Generated_Source\PSoC5/USBUART_episr.c ****     *  None.
 113:.\Generated_Source\PSoC5/USBUART_episr.c ****     *
 114:.\Generated_Source\PSoC5/USBUART_episr.c ****     * Return:
 115:.\Generated_Source\PSoC5/USBUART_episr.c ****     *  None.
 116:.\Generated_Source\PSoC5/USBUART_episr.c ****     *
 117:.\Generated_Source\PSoC5/USBUART_episr.c ****     *******************************************************************************/
 118:.\Generated_Source\PSoC5/USBUART_episr.c ****     CY_ISR(USBUART_EP_2_ISR)
 119:.\Generated_Source\PSoC5/USBUART_episr.c ****     {
  74              		.loc 1 119 0
  75              		.cfi_startproc
  76              		@ args = 0, pretend = 0, frame = 0
  77              		@ frame_needed = 0, uses_anonymous_args = 0
  78              		@ link register save eliminated.
 120:.\Generated_Source\PSoC5/USBUART_episr.c ****         #if (defined(USBUART_ENABLE_MIDI_STREAMING) && !defined(USBUART_MAIN_SERVICE_MIDI_OUT) && \
 121:.\Generated_Source\PSoC5/USBUART_episr.c ****                      USBUART_ISR_SERVICE_MIDI_OUT && CY_PSOC3)
 122:.\Generated_Source\PSoC5/USBUART_episr.c ****             uint8 int_en;
 123:.\Generated_Source\PSoC5/USBUART_episr.c ****         #endif /* USBUART_ISR_SERVICE_MIDI_OUT && CY_PSOC3 */
 124:.\Generated_Source\PSoC5/USBUART_episr.c **** 
 125:.\Generated_Source\PSoC5/USBUART_episr.c ****         /* `#START EP2_USER_CODE` Place your code here */
 126:.\Generated_Source\PSoC5/USBUART_episr.c **** 
 127:.\Generated_Source\PSoC5/USBUART_episr.c ****         /* `#END` */
 128:.\Generated_Source\PSoC5/USBUART_episr.c **** 
 129:.\Generated_Source\PSoC5/USBUART_episr.c ****         #if (defined(USBUART_ENABLE_MIDI_STREAMING) && !defined(USBUART_MAIN_SERVICE_MIDI_OUT) && \
 130:.\Generated_Source\PSoC5/USBUART_episr.c ****                      USBUART_ISR_SERVICE_MIDI_OUT && CY_PSOC3)
 131:.\Generated_Source\PSoC5/USBUART_episr.c ****             int_en = EA;
 132:.\Generated_Source\PSoC5/USBUART_episr.c ****             CyGlobalIntEnable;  /* Make sure nested interrupt is enabled */
 133:.\Generated_Source\PSoC5/USBUART_episr.c ****         #endif /* USBUART_ISR_SERVICE_MIDI_OUT && CY_PSOC3 */
 134:.\Generated_Source\PSoC5/USBUART_episr.c **** 
 135:.\Generated_Source\PSoC5/USBUART_episr.c ****         CY_GET_REG8(USBUART_SIE_EP2_CR0_PTR); /* Must read the mode reg */
  79              		.loc 1 135 0
  80 0000 0A4B     		ldr	r3, .L7
  81 0002 1B78     		ldrb	r3, [r3]	@ zero_extendqisi2
 136:.\Generated_Source\PSoC5/USBUART_episr.c ****         /* Do not toggle ISOC endpoint */
 137:.\Generated_Source\PSoC5/USBUART_episr.c ****         if((USBUART_EP[USBUART_EP2].attrib & USBUART_EP_TYPE_MASK) !=
  82              		.loc 1 137 0
  83 0004 0A4B     		ldr	r3, .L7+4
  84 0006 1B7E     		ldrb	r3, [r3, #24]	@ zero_extendqisi2
  85 0008 03F00303 		and	r3, r3, #3
  86 000c 012B     		cmp	r3, #1
  87 000e 04D0     		beq	.L6
 138:.\Generated_Source\PSoC5/USBUART_episr.c ****                                                                                     USBUART_EP_TYPE
 139:.\Generated_Source\PSoC5/USBUART_episr.c ****         {
 140:.\Generated_Source\PSoC5/USBUART_episr.c ****             USBUART_EP[USBUART_EP2].epToggle ^= USBUART_EPX_CNT_DATA_TOGGLE;
  88              		.loc 1 140 0
ARM GAS  C:\Users\JohnP\AppData\Local\Temp\ccXVfz0p.s 			page 5


  89 0010 074B     		ldr	r3, .L7+4
  90 0012 DA7E     		ldrb	r2, [r3, #27]	@ zero_extendqisi2
  91 0014 82F08002 		eor	r2, r2, #128
  92 0018 DA76     		strb	r2, [r3, #27]
  93              	.L6:
 141:.\Generated_Source\PSoC5/USBUART_episr.c ****         }
 142:.\Generated_Source\PSoC5/USBUART_episr.c ****         USBUART_EP[USBUART_EP2].apiEpState = USBUART_EVENT_PENDING;
  94              		.loc 1 142 0
  95 001a 0122     		movs	r2, #1
  96 001c 044B     		ldr	r3, .L7+4
  97 001e 5A76     		strb	r2, [r3, #25]
 143:.\Generated_Source\PSoC5/USBUART_episr.c ****         CY_SET_REG8(USBUART_SIE_EP_INT_SR_PTR, CY_GET_REG8(USBUART_SIE_EP_INT_SR_PTR)
  98              		.loc 1 143 0
  99 0020 044B     		ldr	r3, .L7+8
 100 0022 1A78     		ldrb	r2, [r3]	@ zero_extendqisi2
 101 0024 02F0FD02 		and	r2, r2, #253
 102 0028 1A70     		strb	r2, [r3]
 103 002a 7047     		bx	lr
 104              	.L8:
 105              		.align	2
 106              	.L7:
 107 002c 1E600040 		.word	1073766430
 108 0030 00000000 		.word	USBUART_EP
 109 0034 0B600040 		.word	1073766411
 110              		.cfi_endproc
 111              	.LFE1:
 112              		.size	USBUART_EP_2_ISR, .-USBUART_EP_2_ISR
 113              		.section	.text.USBUART_EP_3_ISR,"ax",%progbits
 114              		.align	2
 115              		.global	USBUART_EP_3_ISR
 116              		.thumb
 117              		.thumb_func
 118              		.type	USBUART_EP_3_ISR, %function
 119              	USBUART_EP_3_ISR:
 120              	.LFB2:
 144:.\Generated_Source\PSoC5/USBUART_episr.c ****                                                                         & (uint8)~USBUART_SIE_EP_IN
 145:.\Generated_Source\PSoC5/USBUART_episr.c **** 
 146:.\Generated_Source\PSoC5/USBUART_episr.c ****         #if (defined(USBUART_ENABLE_MIDI_STREAMING) && !defined(USBUART_MAIN_SERVICE_MIDI_OUT) && \
 147:.\Generated_Source\PSoC5/USBUART_episr.c ****                      USBUART_ISR_SERVICE_MIDI_OUT)
 148:.\Generated_Source\PSoC5/USBUART_episr.c ****             if(USBUART_midi_out_ep == USBUART_EP2)
 149:.\Generated_Source\PSoC5/USBUART_episr.c ****             {
 150:.\Generated_Source\PSoC5/USBUART_episr.c ****                 USBUART_MIDI_OUT_EP_Service();
 151:.\Generated_Source\PSoC5/USBUART_episr.c ****             }
 152:.\Generated_Source\PSoC5/USBUART_episr.c ****         #endif /*  USBUART_ISR_SERVICE_MIDI_OUT */
 153:.\Generated_Source\PSoC5/USBUART_episr.c **** 
 154:.\Generated_Source\PSoC5/USBUART_episr.c ****         /* `#START EP2_END_USER_CODE` Place your code here */
 155:.\Generated_Source\PSoC5/USBUART_episr.c **** 
 156:.\Generated_Source\PSoC5/USBUART_episr.c ****         /* `#END` */
 157:.\Generated_Source\PSoC5/USBUART_episr.c **** 
 158:.\Generated_Source\PSoC5/USBUART_episr.c ****         #if (defined(USBUART_ENABLE_MIDI_STREAMING) && !defined(USBUART_MAIN_SERVICE_MIDI_OUT) && \
 159:.\Generated_Source\PSoC5/USBUART_episr.c ****                      USBUART_ISR_SERVICE_MIDI_OUT && CY_PSOC3)
 160:.\Generated_Source\PSoC5/USBUART_episr.c ****             EA = int_en;
 161:.\Generated_Source\PSoC5/USBUART_episr.c ****         #endif /* USBUART_ISR_SERVICE_MIDI_OUT && CY_PSOC3 */
 162:.\Generated_Source\PSoC5/USBUART_episr.c ****     }
 163:.\Generated_Source\PSoC5/USBUART_episr.c **** 
 164:.\Generated_Source\PSoC5/USBUART_episr.c **** #endif   /*  USBUART_EP2_ISR_REMOVE */
 165:.\Generated_Source\PSoC5/USBUART_episr.c **** 
ARM GAS  C:\Users\JohnP\AppData\Local\Temp\ccXVfz0p.s 			page 6


 166:.\Generated_Source\PSoC5/USBUART_episr.c **** 
 167:.\Generated_Source\PSoC5/USBUART_episr.c **** #if(USBUART_EP3_ISR_REMOVE == 0u)
 168:.\Generated_Source\PSoC5/USBUART_episr.c **** 
 169:.\Generated_Source\PSoC5/USBUART_episr.c ****     /*******************************************************************************
 170:.\Generated_Source\PSoC5/USBUART_episr.c ****     * Function Name: USBUART_EP_3_ISR
 171:.\Generated_Source\PSoC5/USBUART_episr.c ****     ********************************************************************************
 172:.\Generated_Source\PSoC5/USBUART_episr.c ****     *
 173:.\Generated_Source\PSoC5/USBUART_episr.c ****     * Summary:
 174:.\Generated_Source\PSoC5/USBUART_episr.c ****     *  Endpoint 3 Interrupt Service Routine
 175:.\Generated_Source\PSoC5/USBUART_episr.c ****     *
 176:.\Generated_Source\PSoC5/USBUART_episr.c ****     * Parameters:
 177:.\Generated_Source\PSoC5/USBUART_episr.c ****     *  None.
 178:.\Generated_Source\PSoC5/USBUART_episr.c ****     *
 179:.\Generated_Source\PSoC5/USBUART_episr.c ****     * Return:
 180:.\Generated_Source\PSoC5/USBUART_episr.c ****     *  None.
 181:.\Generated_Source\PSoC5/USBUART_episr.c ****     *
 182:.\Generated_Source\PSoC5/USBUART_episr.c ****     *******************************************************************************/
 183:.\Generated_Source\PSoC5/USBUART_episr.c ****     CY_ISR(USBUART_EP_3_ISR)
 184:.\Generated_Source\PSoC5/USBUART_episr.c ****     {
 121              		.loc 1 184 0
 122              		.cfi_startproc
 123              		@ args = 0, pretend = 0, frame = 0
 124              		@ frame_needed = 0, uses_anonymous_args = 0
 125              		@ link register save eliminated.
 185:.\Generated_Source\PSoC5/USBUART_episr.c ****         #if (defined(USBUART_ENABLE_MIDI_STREAMING) && !defined(USBUART_MAIN_SERVICE_MIDI_OUT) && \
 186:.\Generated_Source\PSoC5/USBUART_episr.c ****                      USBUART_ISR_SERVICE_MIDI_OUT && CY_PSOC3)
 187:.\Generated_Source\PSoC5/USBUART_episr.c ****             uint8 int_en;
 188:.\Generated_Source\PSoC5/USBUART_episr.c ****         #endif /* USBUART_ISR_SERVICE_MIDI_OUT && CY_PSOC3 */
 189:.\Generated_Source\PSoC5/USBUART_episr.c **** 
 190:.\Generated_Source\PSoC5/USBUART_episr.c ****         /* `#START EP3_USER_CODE` Place your code here */
 191:.\Generated_Source\PSoC5/USBUART_episr.c **** 
 192:.\Generated_Source\PSoC5/USBUART_episr.c ****         /* `#END` */
 193:.\Generated_Source\PSoC5/USBUART_episr.c **** 
 194:.\Generated_Source\PSoC5/USBUART_episr.c ****         #if (defined(USBUART_ENABLE_MIDI_STREAMING) && !defined(USBUART_MAIN_SERVICE_MIDI_OUT) && \
 195:.\Generated_Source\PSoC5/USBUART_episr.c ****                      USBUART_ISR_SERVICE_MIDI_OUT && CY_PSOC3)
 196:.\Generated_Source\PSoC5/USBUART_episr.c ****             int_en = EA;
 197:.\Generated_Source\PSoC5/USBUART_episr.c ****             CyGlobalIntEnable;  /* Make sure nested interrupt is enabled */
 198:.\Generated_Source\PSoC5/USBUART_episr.c ****         #endif /* CY_PSOC3 & USBUART_ISR_SERVICE_MIDI_OUT  */
 199:.\Generated_Source\PSoC5/USBUART_episr.c **** 
 200:.\Generated_Source\PSoC5/USBUART_episr.c ****         CY_GET_REG8(USBUART_SIE_EP3_CR0_PTR); /* Must read the mode reg */
 126              		.loc 1 200 0
 127 0000 0C4B     		ldr	r3, .L11
 128 0002 1B78     		ldrb	r3, [r3]	@ zero_extendqisi2
 201:.\Generated_Source\PSoC5/USBUART_episr.c ****         /* Do not toggle ISOC endpoint */
 202:.\Generated_Source\PSoC5/USBUART_episr.c ****         if((USBUART_EP[USBUART_EP3].attrib & USBUART_EP_TYPE_MASK) !=
 129              		.loc 1 202 0
 130 0004 0C4B     		ldr	r3, .L11+4
 131 0006 93F82430 		ldrb	r3, [r3, #36]	@ zero_extendqisi2
 132 000a 03F00303 		and	r3, r3, #3
 133 000e 012B     		cmp	r3, #1
 134 0010 06D0     		beq	.L10
 203:.\Generated_Source\PSoC5/USBUART_episr.c ****                                                                                     USBUART_EP_TYPE
 204:.\Generated_Source\PSoC5/USBUART_episr.c ****         {
 205:.\Generated_Source\PSoC5/USBUART_episr.c ****             USBUART_EP[USBUART_EP3].epToggle ^= USBUART_EPX_CNT_DATA_TOGGLE;
 135              		.loc 1 205 0
 136 0012 094B     		ldr	r3, .L11+4
 137 0014 93F82720 		ldrb	r2, [r3, #39]	@ zero_extendqisi2
ARM GAS  C:\Users\JohnP\AppData\Local\Temp\ccXVfz0p.s 			page 7


 138 0018 82F08002 		eor	r2, r2, #128
 139 001c 83F82720 		strb	r2, [r3, #39]
 140              	.L10:
 206:.\Generated_Source\PSoC5/USBUART_episr.c ****         }
 207:.\Generated_Source\PSoC5/USBUART_episr.c ****         USBUART_EP[USBUART_EP3].apiEpState = USBUART_EVENT_PENDING;
 141              		.loc 1 207 0
 142 0020 0122     		movs	r2, #1
 143 0022 054B     		ldr	r3, .L11+4
 144 0024 83F82520 		strb	r2, [r3, #37]
 208:.\Generated_Source\PSoC5/USBUART_episr.c ****         CY_SET_REG8(USBUART_SIE_EP_INT_SR_PTR, CY_GET_REG8(USBUART_SIE_EP_INT_SR_PTR)
 145              		.loc 1 208 0
 146 0028 044B     		ldr	r3, .L11+8
 147 002a 1A78     		ldrb	r2, [r3]	@ zero_extendqisi2
 148 002c 02F0FB02 		and	r2, r2, #251
 149 0030 1A70     		strb	r2, [r3]
 150 0032 7047     		bx	lr
 151              	.L12:
 152              		.align	2
 153              	.L11:
 154 0034 2E600040 		.word	1073766446
 155 0038 00000000 		.word	USBUART_EP
 156 003c 0B600040 		.word	1073766411
 157              		.cfi_endproc
 158              	.LFE2:
 159              		.size	USBUART_EP_3_ISR, .-USBUART_EP_3_ISR
 160              		.section	.text.USBUART_SOF_ISR,"ax",%progbits
 161              		.align	2
 162              		.global	USBUART_SOF_ISR
 163              		.thumb
 164              		.thumb_func
 165              		.type	USBUART_SOF_ISR, %function
 166              	USBUART_SOF_ISR:
 167              	.LFB3:
 209:.\Generated_Source\PSoC5/USBUART_episr.c ****                                                                         & (uint8)~USBUART_SIE_EP_IN
 210:.\Generated_Source\PSoC5/USBUART_episr.c **** 
 211:.\Generated_Source\PSoC5/USBUART_episr.c ****         #if (defined(USBUART_ENABLE_MIDI_STREAMING) && !defined(USBUART_MAIN_SERVICE_MIDI_OUT) && \
 212:.\Generated_Source\PSoC5/USBUART_episr.c ****                      USBUART_ISR_SERVICE_MIDI_OUT)
 213:.\Generated_Source\PSoC5/USBUART_episr.c ****             if(USBUART_midi_out_ep == USBUART_EP3)
 214:.\Generated_Source\PSoC5/USBUART_episr.c ****             {
 215:.\Generated_Source\PSoC5/USBUART_episr.c ****                 USBUART_MIDI_OUT_EP_Service();
 216:.\Generated_Source\PSoC5/USBUART_episr.c ****             }
 217:.\Generated_Source\PSoC5/USBUART_episr.c ****         #endif /*  USBUART_ISR_SERVICE_MIDI_OUT */
 218:.\Generated_Source\PSoC5/USBUART_episr.c **** 
 219:.\Generated_Source\PSoC5/USBUART_episr.c ****         /* `#START EP3_END_USER_CODE` Place your code here */
 220:.\Generated_Source\PSoC5/USBUART_episr.c **** 
 221:.\Generated_Source\PSoC5/USBUART_episr.c ****         /* `#END` */
 222:.\Generated_Source\PSoC5/USBUART_episr.c **** 
 223:.\Generated_Source\PSoC5/USBUART_episr.c ****         #if (defined(USBUART_ENABLE_MIDI_STREAMING) && !defined(USBUART_MAIN_SERVICE_MIDI_OUT) && \
 224:.\Generated_Source\PSoC5/USBUART_episr.c ****                      USBUART_ISR_SERVICE_MIDI_OUT && CY_PSOC3)
 225:.\Generated_Source\PSoC5/USBUART_episr.c ****             EA = int_en;
 226:.\Generated_Source\PSoC5/USBUART_episr.c ****         #endif /* CY_PSOC3 & USBUART_ISR_SERVICE_MIDI_OUT  */
 227:.\Generated_Source\PSoC5/USBUART_episr.c ****     }
 228:.\Generated_Source\PSoC5/USBUART_episr.c **** 
 229:.\Generated_Source\PSoC5/USBUART_episr.c **** #endif   /*  USBUART_EP3_ISR_REMOVE */
 230:.\Generated_Source\PSoC5/USBUART_episr.c **** 
 231:.\Generated_Source\PSoC5/USBUART_episr.c **** 
 232:.\Generated_Source\PSoC5/USBUART_episr.c **** #if(USBUART_EP4_ISR_REMOVE == 0u)
ARM GAS  C:\Users\JohnP\AppData\Local\Temp\ccXVfz0p.s 			page 8


 233:.\Generated_Source\PSoC5/USBUART_episr.c **** 
 234:.\Generated_Source\PSoC5/USBUART_episr.c ****     /*******************************************************************************
 235:.\Generated_Source\PSoC5/USBUART_episr.c ****     * Function Name: USBUART_EP_4_ISR
 236:.\Generated_Source\PSoC5/USBUART_episr.c ****     ********************************************************************************
 237:.\Generated_Source\PSoC5/USBUART_episr.c ****     *
 238:.\Generated_Source\PSoC5/USBUART_episr.c ****     * Summary:
 239:.\Generated_Source\PSoC5/USBUART_episr.c ****     *  Endpoint 4 Interrupt Service Routine
 240:.\Generated_Source\PSoC5/USBUART_episr.c ****     *
 241:.\Generated_Source\PSoC5/USBUART_episr.c ****     * Parameters:
 242:.\Generated_Source\PSoC5/USBUART_episr.c ****     *  None.
 243:.\Generated_Source\PSoC5/USBUART_episr.c ****     *
 244:.\Generated_Source\PSoC5/USBUART_episr.c ****     * Return:
 245:.\Generated_Source\PSoC5/USBUART_episr.c ****     *  None.
 246:.\Generated_Source\PSoC5/USBUART_episr.c ****     *
 247:.\Generated_Source\PSoC5/USBUART_episr.c ****     *******************************************************************************/
 248:.\Generated_Source\PSoC5/USBUART_episr.c ****     CY_ISR(USBUART_EP_4_ISR)
 249:.\Generated_Source\PSoC5/USBUART_episr.c ****     {
 250:.\Generated_Source\PSoC5/USBUART_episr.c ****         #if (defined(USBUART_ENABLE_MIDI_STREAMING) && !defined(USBUART_MAIN_SERVICE_MIDI_OUT) && \
 251:.\Generated_Source\PSoC5/USBUART_episr.c ****                      USBUART_ISR_SERVICE_MIDI_OUT && CY_PSOC3)
 252:.\Generated_Source\PSoC5/USBUART_episr.c ****             uint8 int_en;
 253:.\Generated_Source\PSoC5/USBUART_episr.c ****         #endif /* CY_PSOC3 & USBUART_ISR_SERVICE_MIDI_OUT  */
 254:.\Generated_Source\PSoC5/USBUART_episr.c **** 
 255:.\Generated_Source\PSoC5/USBUART_episr.c ****         /* `#START EP4_USER_CODE` Place your code here */
 256:.\Generated_Source\PSoC5/USBUART_episr.c **** 
 257:.\Generated_Source\PSoC5/USBUART_episr.c ****         /* `#END` */
 258:.\Generated_Source\PSoC5/USBUART_episr.c **** 
 259:.\Generated_Source\PSoC5/USBUART_episr.c ****         #if (defined(USBUART_ENABLE_MIDI_STREAMING) && !defined(USBUART_MAIN_SERVICE_MIDI_OUT) && \
 260:.\Generated_Source\PSoC5/USBUART_episr.c ****                      USBUART_ISR_SERVICE_MIDI_OUT && CY_PSOC3)
 261:.\Generated_Source\PSoC5/USBUART_episr.c ****             int_en = EA;
 262:.\Generated_Source\PSoC5/USBUART_episr.c ****             CyGlobalIntEnable;  /* Make sure nested interrupt is enabled */
 263:.\Generated_Source\PSoC5/USBUART_episr.c ****         #endif /* CY_PSOC3 & USBUART_ISR_SERVICE_MIDI_OUT  */
 264:.\Generated_Source\PSoC5/USBUART_episr.c **** 
 265:.\Generated_Source\PSoC5/USBUART_episr.c ****         CY_GET_REG8(USBUART_SIE_EP4_CR0_PTR); /* Must read the mode reg */
 266:.\Generated_Source\PSoC5/USBUART_episr.c ****         /* Do not toggle ISOC endpoint */
 267:.\Generated_Source\PSoC5/USBUART_episr.c ****         if((USBUART_EP[USBUART_EP4].attrib & USBUART_EP_TYPE_MASK) !=
 268:.\Generated_Source\PSoC5/USBUART_episr.c ****                                                                                     USBUART_EP_TYPE
 269:.\Generated_Source\PSoC5/USBUART_episr.c ****         {
 270:.\Generated_Source\PSoC5/USBUART_episr.c ****             USBUART_EP[USBUART_EP4].epToggle ^= USBUART_EPX_CNT_DATA_TOGGLE;
 271:.\Generated_Source\PSoC5/USBUART_episr.c ****         }
 272:.\Generated_Source\PSoC5/USBUART_episr.c ****         USBUART_EP[USBUART_EP4].apiEpState = USBUART_EVENT_PENDING;
 273:.\Generated_Source\PSoC5/USBUART_episr.c ****         CY_SET_REG8(USBUART_SIE_EP_INT_SR_PTR, CY_GET_REG8(USBUART_SIE_EP_INT_SR_PTR)
 274:.\Generated_Source\PSoC5/USBUART_episr.c ****                                                                         & (uint8)~USBUART_SIE_EP_IN
 275:.\Generated_Source\PSoC5/USBUART_episr.c **** 
 276:.\Generated_Source\PSoC5/USBUART_episr.c ****         #if (defined(USBUART_ENABLE_MIDI_STREAMING) && !defined(USBUART_MAIN_SERVICE_MIDI_OUT) && \
 277:.\Generated_Source\PSoC5/USBUART_episr.c ****                      USBUART_ISR_SERVICE_MIDI_OUT)
 278:.\Generated_Source\PSoC5/USBUART_episr.c ****             if(USBUART_midi_out_ep == USBUART_EP4)
 279:.\Generated_Source\PSoC5/USBUART_episr.c ****             {
 280:.\Generated_Source\PSoC5/USBUART_episr.c ****                 USBUART_MIDI_OUT_EP_Service();
 281:.\Generated_Source\PSoC5/USBUART_episr.c ****             }
 282:.\Generated_Source\PSoC5/USBUART_episr.c ****         #endif /*  USBUART_ISR_SERVICE_MIDI_OUT */
 283:.\Generated_Source\PSoC5/USBUART_episr.c **** 
 284:.\Generated_Source\PSoC5/USBUART_episr.c ****         /* `#START EP4_END_USER_CODE` Place your code here */
 285:.\Generated_Source\PSoC5/USBUART_episr.c **** 
 286:.\Generated_Source\PSoC5/USBUART_episr.c ****         /* `#END` */
 287:.\Generated_Source\PSoC5/USBUART_episr.c **** 
 288:.\Generated_Source\PSoC5/USBUART_episr.c ****         #if (defined(USBUART_ENABLE_MIDI_STREAMING) && !defined(USBUART_MAIN_SERVICE_MIDI_OUT) && \
 289:.\Generated_Source\PSoC5/USBUART_episr.c ****                      USBUART_ISR_SERVICE_MIDI_OUT && CY_PSOC3)
ARM GAS  C:\Users\JohnP\AppData\Local\Temp\ccXVfz0p.s 			page 9


 290:.\Generated_Source\PSoC5/USBUART_episr.c ****             EA = int_en;
 291:.\Generated_Source\PSoC5/USBUART_episr.c ****         #endif /* CY_PSOC3 & USBUART_ISR_SERVICE_MIDI_OUT  */
 292:.\Generated_Source\PSoC5/USBUART_episr.c ****     }
 293:.\Generated_Source\PSoC5/USBUART_episr.c **** 
 294:.\Generated_Source\PSoC5/USBUART_episr.c **** #endif   /*  USBUART_EP4_ISR_REMOVE */
 295:.\Generated_Source\PSoC5/USBUART_episr.c **** 
 296:.\Generated_Source\PSoC5/USBUART_episr.c **** 
 297:.\Generated_Source\PSoC5/USBUART_episr.c **** #if(USBUART_EP5_ISR_REMOVE == 0u)
 298:.\Generated_Source\PSoC5/USBUART_episr.c **** 
 299:.\Generated_Source\PSoC5/USBUART_episr.c ****     /*******************************************************************************
 300:.\Generated_Source\PSoC5/USBUART_episr.c ****     * Function Name: USBUART_EP_5_ISR
 301:.\Generated_Source\PSoC5/USBUART_episr.c ****     ********************************************************************************
 302:.\Generated_Source\PSoC5/USBUART_episr.c ****     *
 303:.\Generated_Source\PSoC5/USBUART_episr.c ****     * Summary:
 304:.\Generated_Source\PSoC5/USBUART_episr.c ****     *  Endpoint 5 Interrupt Service Routine
 305:.\Generated_Source\PSoC5/USBUART_episr.c ****     *
 306:.\Generated_Source\PSoC5/USBUART_episr.c ****     * Parameters:
 307:.\Generated_Source\PSoC5/USBUART_episr.c ****     *  None.
 308:.\Generated_Source\PSoC5/USBUART_episr.c ****     *
 309:.\Generated_Source\PSoC5/USBUART_episr.c ****     * Return:
 310:.\Generated_Source\PSoC5/USBUART_episr.c ****     *  None.
 311:.\Generated_Source\PSoC5/USBUART_episr.c ****     *
 312:.\Generated_Source\PSoC5/USBUART_episr.c ****     *******************************************************************************/
 313:.\Generated_Source\PSoC5/USBUART_episr.c ****     CY_ISR(USBUART_EP_5_ISR)
 314:.\Generated_Source\PSoC5/USBUART_episr.c ****     {
 315:.\Generated_Source\PSoC5/USBUART_episr.c ****         #if (defined(USBUART_ENABLE_MIDI_STREAMING) && !defined(USBUART_MAIN_SERVICE_MIDI_OUT) && \
 316:.\Generated_Source\PSoC5/USBUART_episr.c ****                      USBUART_ISR_SERVICE_MIDI_OUT && CY_PSOC3)
 317:.\Generated_Source\PSoC5/USBUART_episr.c ****             uint8 int_en;
 318:.\Generated_Source\PSoC5/USBUART_episr.c ****         #endif /* CY_PSOC3 & USBUART_ISR_SERVICE_MIDI_OUT  */
 319:.\Generated_Source\PSoC5/USBUART_episr.c **** 
 320:.\Generated_Source\PSoC5/USBUART_episr.c ****         /* `#START EP5_USER_CODE` Place your code here */
 321:.\Generated_Source\PSoC5/USBUART_episr.c **** 
 322:.\Generated_Source\PSoC5/USBUART_episr.c ****         /* `#END` */
 323:.\Generated_Source\PSoC5/USBUART_episr.c **** 
 324:.\Generated_Source\PSoC5/USBUART_episr.c ****         #if (defined(USBUART_ENABLE_MIDI_STREAMING) && !defined(USBUART_MAIN_SERVICE_MIDI_OUT) && \
 325:.\Generated_Source\PSoC5/USBUART_episr.c ****                      USBUART_ISR_SERVICE_MIDI_OUT && CY_PSOC3)
 326:.\Generated_Source\PSoC5/USBUART_episr.c ****             int_en = EA;
 327:.\Generated_Source\PSoC5/USBUART_episr.c ****             CyGlobalIntEnable;  /* Make sure nested interrupt is enabled */
 328:.\Generated_Source\PSoC5/USBUART_episr.c ****         #endif /* CY_PSOC3 & USBUART_ISR_SERVICE_MIDI_OUT  */
 329:.\Generated_Source\PSoC5/USBUART_episr.c **** 
 330:.\Generated_Source\PSoC5/USBUART_episr.c ****         CY_GET_REG8(USBUART_SIE_EP5_CR0_PTR); /* Must read the mode reg */
 331:.\Generated_Source\PSoC5/USBUART_episr.c ****         /* Do not toggle ISOC endpoint */
 332:.\Generated_Source\PSoC5/USBUART_episr.c ****         if((USBUART_EP[USBUART_EP5].attrib & USBUART_EP_TYPE_MASK) !=
 333:.\Generated_Source\PSoC5/USBUART_episr.c ****                                                                                     USBUART_EP_TYPE
 334:.\Generated_Source\PSoC5/USBUART_episr.c ****         {
 335:.\Generated_Source\PSoC5/USBUART_episr.c ****             USBUART_EP[USBUART_EP5].epToggle ^= USBUART_EPX_CNT_DATA_TOGGLE;
 336:.\Generated_Source\PSoC5/USBUART_episr.c ****         }
 337:.\Generated_Source\PSoC5/USBUART_episr.c ****         USBUART_EP[USBUART_EP5].apiEpState = USBUART_EVENT_PENDING;
 338:.\Generated_Source\PSoC5/USBUART_episr.c ****         CY_SET_REG8(USBUART_SIE_EP_INT_SR_PTR, CY_GET_REG8(USBUART_SIE_EP_INT_SR_PTR)
 339:.\Generated_Source\PSoC5/USBUART_episr.c ****                                                                         & (uint8)~USBUART_SIE_EP_IN
 340:.\Generated_Source\PSoC5/USBUART_episr.c **** 
 341:.\Generated_Source\PSoC5/USBUART_episr.c ****         #if (defined(USBUART_ENABLE_MIDI_STREAMING) && !defined(USBUART_MAIN_SERVICE_MIDI_OUT) && \
 342:.\Generated_Source\PSoC5/USBUART_episr.c ****                      USBUART_ISR_SERVICE_MIDI_OUT)
 343:.\Generated_Source\PSoC5/USBUART_episr.c ****             if(USBUART_midi_out_ep == USBUART_EP5)
 344:.\Generated_Source\PSoC5/USBUART_episr.c ****             {
 345:.\Generated_Source\PSoC5/USBUART_episr.c ****                 USBUART_MIDI_OUT_EP_Service();
 346:.\Generated_Source\PSoC5/USBUART_episr.c ****             }
ARM GAS  C:\Users\JohnP\AppData\Local\Temp\ccXVfz0p.s 			page 10


 347:.\Generated_Source\PSoC5/USBUART_episr.c ****         #endif /*  USBUART_ISR_SERVICE_MIDI_OUT */
 348:.\Generated_Source\PSoC5/USBUART_episr.c **** 
 349:.\Generated_Source\PSoC5/USBUART_episr.c ****         /* `#START EP5_END_USER_CODE` Place your code here */
 350:.\Generated_Source\PSoC5/USBUART_episr.c **** 
 351:.\Generated_Source\PSoC5/USBUART_episr.c ****         /* `#END` */
 352:.\Generated_Source\PSoC5/USBUART_episr.c **** 
 353:.\Generated_Source\PSoC5/USBUART_episr.c ****         #if (defined(USBUART_ENABLE_MIDI_STREAMING) && !defined(USBUART_MAIN_SERVICE_MIDI_OUT) && \
 354:.\Generated_Source\PSoC5/USBUART_episr.c ****                      USBUART_ISR_SERVICE_MIDI_OUT && CY_PSOC3)
 355:.\Generated_Source\PSoC5/USBUART_episr.c ****             EA = int_en;
 356:.\Generated_Source\PSoC5/USBUART_episr.c ****         #endif /* CY_PSOC3 & USBUART_ISR_SERVICE_MIDI_OUT  */
 357:.\Generated_Source\PSoC5/USBUART_episr.c ****     }
 358:.\Generated_Source\PSoC5/USBUART_episr.c **** #endif   /*  USBUART_EP5_ISR_REMOVE */
 359:.\Generated_Source\PSoC5/USBUART_episr.c **** 
 360:.\Generated_Source\PSoC5/USBUART_episr.c **** 
 361:.\Generated_Source\PSoC5/USBUART_episr.c **** #if(USBUART_EP6_ISR_REMOVE == 0u)
 362:.\Generated_Source\PSoC5/USBUART_episr.c **** 
 363:.\Generated_Source\PSoC5/USBUART_episr.c ****     /*******************************************************************************
 364:.\Generated_Source\PSoC5/USBUART_episr.c ****     * Function Name: USBUART_EP_6_ISR
 365:.\Generated_Source\PSoC5/USBUART_episr.c ****     ********************************************************************************
 366:.\Generated_Source\PSoC5/USBUART_episr.c ****     *
 367:.\Generated_Source\PSoC5/USBUART_episr.c ****     * Summary:
 368:.\Generated_Source\PSoC5/USBUART_episr.c ****     *  Endpoint 6 Interrupt Service Routine
 369:.\Generated_Source\PSoC5/USBUART_episr.c ****     *
 370:.\Generated_Source\PSoC5/USBUART_episr.c ****     * Parameters:
 371:.\Generated_Source\PSoC5/USBUART_episr.c ****     *  None.
 372:.\Generated_Source\PSoC5/USBUART_episr.c ****     *
 373:.\Generated_Source\PSoC5/USBUART_episr.c ****     * Return:
 374:.\Generated_Source\PSoC5/USBUART_episr.c ****     *  None.
 375:.\Generated_Source\PSoC5/USBUART_episr.c ****     *
 376:.\Generated_Source\PSoC5/USBUART_episr.c ****     *******************************************************************************/
 377:.\Generated_Source\PSoC5/USBUART_episr.c ****     CY_ISR(USBUART_EP_6_ISR)
 378:.\Generated_Source\PSoC5/USBUART_episr.c ****     {
 379:.\Generated_Source\PSoC5/USBUART_episr.c ****         #if (defined(USBUART_ENABLE_MIDI_STREAMING) && !defined(USBUART_MAIN_SERVICE_MIDI_OUT) && \
 380:.\Generated_Source\PSoC5/USBUART_episr.c ****                      USBUART_ISR_SERVICE_MIDI_OUT && CY_PSOC3)
 381:.\Generated_Source\PSoC5/USBUART_episr.c ****             uint8 int_en;
 382:.\Generated_Source\PSoC5/USBUART_episr.c ****         #endif /* CY_PSOC3 & USBUART_ISR_SERVICE_MIDI_OUT  */
 383:.\Generated_Source\PSoC5/USBUART_episr.c **** 
 384:.\Generated_Source\PSoC5/USBUART_episr.c ****         /* `#START EP6_USER_CODE` Place your code here */
 385:.\Generated_Source\PSoC5/USBUART_episr.c **** 
 386:.\Generated_Source\PSoC5/USBUART_episr.c ****         /* `#END` */
 387:.\Generated_Source\PSoC5/USBUART_episr.c **** 
 388:.\Generated_Source\PSoC5/USBUART_episr.c ****         #if (defined(USBUART_ENABLE_MIDI_STREAMING) && !defined(USBUART_MAIN_SERVICE_MIDI_OUT) && \
 389:.\Generated_Source\PSoC5/USBUART_episr.c ****                      USBUART_ISR_SERVICE_MIDI_OUT && CY_PSOC3)
 390:.\Generated_Source\PSoC5/USBUART_episr.c ****             int_en = EA;
 391:.\Generated_Source\PSoC5/USBUART_episr.c ****             CyGlobalIntEnable;  /* Make sure nested interrupt is enabled */
 392:.\Generated_Source\PSoC5/USBUART_episr.c ****         #endif /* CY_PSOC3 & USBUART_ISR_SERVICE_MIDI_OUT  */
 393:.\Generated_Source\PSoC5/USBUART_episr.c **** 
 394:.\Generated_Source\PSoC5/USBUART_episr.c ****         CY_GET_REG8(USBUART_SIE_EP6_CR0_PTR); /* Must read the mode reg */
 395:.\Generated_Source\PSoC5/USBUART_episr.c ****         /* Do not toggle ISOC endpoint */
 396:.\Generated_Source\PSoC5/USBUART_episr.c ****         if((USBUART_EP[USBUART_EP6].attrib & USBUART_EP_TYPE_MASK) !=
 397:.\Generated_Source\PSoC5/USBUART_episr.c ****                                                                                     USBUART_EP_TYPE
 398:.\Generated_Source\PSoC5/USBUART_episr.c ****         {
 399:.\Generated_Source\PSoC5/USBUART_episr.c ****             USBUART_EP[USBUART_EP6].epToggle ^= USBUART_EPX_CNT_DATA_TOGGLE;
 400:.\Generated_Source\PSoC5/USBUART_episr.c ****         }
 401:.\Generated_Source\PSoC5/USBUART_episr.c ****         USBUART_EP[USBUART_EP6].apiEpState = USBUART_EVENT_PENDING;
 402:.\Generated_Source\PSoC5/USBUART_episr.c ****         CY_SET_REG8(USBUART_SIE_EP_INT_SR_PTR, CY_GET_REG8(USBUART_SIE_EP_INT_SR_PTR)
 403:.\Generated_Source\PSoC5/USBUART_episr.c ****                                                                         & (uint8)~USBUART_SIE_EP_IN
ARM GAS  C:\Users\JohnP\AppData\Local\Temp\ccXVfz0p.s 			page 11


 404:.\Generated_Source\PSoC5/USBUART_episr.c **** 
 405:.\Generated_Source\PSoC5/USBUART_episr.c ****         #if (defined(USBUART_ENABLE_MIDI_STREAMING) && !defined(USBUART_MAIN_SERVICE_MIDI_OUT) && \
 406:.\Generated_Source\PSoC5/USBUART_episr.c ****                      USBUART_ISR_SERVICE_MIDI_OUT)
 407:.\Generated_Source\PSoC5/USBUART_episr.c ****             if(USBUART_midi_out_ep == USBUART_EP6)
 408:.\Generated_Source\PSoC5/USBUART_episr.c ****             {
 409:.\Generated_Source\PSoC5/USBUART_episr.c ****                 USBUART_MIDI_OUT_EP_Service();
 410:.\Generated_Source\PSoC5/USBUART_episr.c ****             }
 411:.\Generated_Source\PSoC5/USBUART_episr.c ****         #endif /*  USBUART_ISR_SERVICE_MIDI_OUT  */
 412:.\Generated_Source\PSoC5/USBUART_episr.c **** 
 413:.\Generated_Source\PSoC5/USBUART_episr.c ****         /* `#START EP6_END_USER_CODE` Place your code here */
 414:.\Generated_Source\PSoC5/USBUART_episr.c **** 
 415:.\Generated_Source\PSoC5/USBUART_episr.c ****         /* `#END` */
 416:.\Generated_Source\PSoC5/USBUART_episr.c **** 
 417:.\Generated_Source\PSoC5/USBUART_episr.c ****         #if (defined(USBUART_ENABLE_MIDI_STREAMING) && !defined(USBUART_MAIN_SERVICE_MIDI_OUT) && \
 418:.\Generated_Source\PSoC5/USBUART_episr.c ****                      USBUART_ISR_SERVICE_MIDI_OUT && CY_PSOC3)
 419:.\Generated_Source\PSoC5/USBUART_episr.c ****             EA = int_en;
 420:.\Generated_Source\PSoC5/USBUART_episr.c ****         #endif /* CY_PSOC3 & USBUART_ISR_SERVICE_MIDI_OUT  */
 421:.\Generated_Source\PSoC5/USBUART_episr.c ****     }
 422:.\Generated_Source\PSoC5/USBUART_episr.c **** 
 423:.\Generated_Source\PSoC5/USBUART_episr.c **** #endif   /*  USBUART_EP6_ISR_REMOVE */
 424:.\Generated_Source\PSoC5/USBUART_episr.c **** 
 425:.\Generated_Source\PSoC5/USBUART_episr.c **** 
 426:.\Generated_Source\PSoC5/USBUART_episr.c **** #if(USBUART_EP7_ISR_REMOVE == 0u)
 427:.\Generated_Source\PSoC5/USBUART_episr.c **** 
 428:.\Generated_Source\PSoC5/USBUART_episr.c ****     /*******************************************************************************
 429:.\Generated_Source\PSoC5/USBUART_episr.c ****     * Function Name: USBUART_EP_7_ISR
 430:.\Generated_Source\PSoC5/USBUART_episr.c ****     ********************************************************************************
 431:.\Generated_Source\PSoC5/USBUART_episr.c ****     *
 432:.\Generated_Source\PSoC5/USBUART_episr.c ****     * Summary:
 433:.\Generated_Source\PSoC5/USBUART_episr.c ****     *  Endpoint 7 Interrupt Service Routine
 434:.\Generated_Source\PSoC5/USBUART_episr.c ****     *
 435:.\Generated_Source\PSoC5/USBUART_episr.c ****     * Parameters:
 436:.\Generated_Source\PSoC5/USBUART_episr.c ****     *  None.
 437:.\Generated_Source\PSoC5/USBUART_episr.c ****     *
 438:.\Generated_Source\PSoC5/USBUART_episr.c ****     * Return:
 439:.\Generated_Source\PSoC5/USBUART_episr.c ****     *  None.
 440:.\Generated_Source\PSoC5/USBUART_episr.c ****     *
 441:.\Generated_Source\PSoC5/USBUART_episr.c ****     *******************************************************************************/
 442:.\Generated_Source\PSoC5/USBUART_episr.c ****     CY_ISR(USBUART_EP_7_ISR)
 443:.\Generated_Source\PSoC5/USBUART_episr.c ****     {
 444:.\Generated_Source\PSoC5/USBUART_episr.c ****         #if (defined(USBUART_ENABLE_MIDI_STREAMING) && !defined(USBUART_MAIN_SERVICE_MIDI_OUT) && \
 445:.\Generated_Source\PSoC5/USBUART_episr.c ****                      USBUART_ISR_SERVICE_MIDI_OUT && CY_PSOC3)
 446:.\Generated_Source\PSoC5/USBUART_episr.c ****             uint8 int_en;
 447:.\Generated_Source\PSoC5/USBUART_episr.c ****         #endif /* CY_PSOC3 & USBUART_ISR_SERVICE_MIDI_OUT  */
 448:.\Generated_Source\PSoC5/USBUART_episr.c **** 
 449:.\Generated_Source\PSoC5/USBUART_episr.c ****         /* `#START EP7_USER_CODE` Place your code here */
 450:.\Generated_Source\PSoC5/USBUART_episr.c **** 
 451:.\Generated_Source\PSoC5/USBUART_episr.c ****         /* `#END` */
 452:.\Generated_Source\PSoC5/USBUART_episr.c **** 
 453:.\Generated_Source\PSoC5/USBUART_episr.c ****         #if (defined(USBUART_ENABLE_MIDI_STREAMING) && !defined(USBUART_MAIN_SERVICE_MIDI_OUT) && \
 454:.\Generated_Source\PSoC5/USBUART_episr.c ****                      USBUART_ISR_SERVICE_MIDI_OUT && CY_PSOC3)
 455:.\Generated_Source\PSoC5/USBUART_episr.c ****             int_en = EA;
 456:.\Generated_Source\PSoC5/USBUART_episr.c ****             CyGlobalIntEnable;  /* Make sure nested interrupt is enabled */
 457:.\Generated_Source\PSoC5/USBUART_episr.c ****         #endif /* CY_PSOC3 & USBUART_ISR_SERVICE_MIDI_OUT  */
 458:.\Generated_Source\PSoC5/USBUART_episr.c **** 
 459:.\Generated_Source\PSoC5/USBUART_episr.c ****         CY_GET_REG8(USBUART_SIE_EP7_CR0_PTR); /* Must read the mode reg */
 460:.\Generated_Source\PSoC5/USBUART_episr.c ****         /* Do not toggle ISOC endpoint */
ARM GAS  C:\Users\JohnP\AppData\Local\Temp\ccXVfz0p.s 			page 12


 461:.\Generated_Source\PSoC5/USBUART_episr.c ****         if((USBUART_EP[USBUART_EP7].attrib & USBUART_EP_TYPE_MASK) !=
 462:.\Generated_Source\PSoC5/USBUART_episr.c ****                                                                                     USBUART_EP_TYPE
 463:.\Generated_Source\PSoC5/USBUART_episr.c ****         {
 464:.\Generated_Source\PSoC5/USBUART_episr.c ****             USBUART_EP[USBUART_EP7].epToggle ^= USBUART_EPX_CNT_DATA_TOGGLE;
 465:.\Generated_Source\PSoC5/USBUART_episr.c ****         }
 466:.\Generated_Source\PSoC5/USBUART_episr.c ****         USBUART_EP[USBUART_EP7].apiEpState = USBUART_EVENT_PENDING;
 467:.\Generated_Source\PSoC5/USBUART_episr.c ****         CY_SET_REG8(USBUART_SIE_EP_INT_SR_PTR, CY_GET_REG8(USBUART_SIE_EP_INT_SR_PTR)
 468:.\Generated_Source\PSoC5/USBUART_episr.c ****                                                                         & (uint8)~USBUART_SIE_EP_IN
 469:.\Generated_Source\PSoC5/USBUART_episr.c **** 
 470:.\Generated_Source\PSoC5/USBUART_episr.c ****         #if (defined(USBUART_ENABLE_MIDI_STREAMING) && !defined(USBUART_MAIN_SERVICE_MIDI_OUT) && \
 471:.\Generated_Source\PSoC5/USBUART_episr.c ****                      USBUART_ISR_SERVICE_MIDI_OUT)
 472:.\Generated_Source\PSoC5/USBUART_episr.c ****             if(USBUART_midi_out_ep == USBUART_EP7)
 473:.\Generated_Source\PSoC5/USBUART_episr.c ****             {
 474:.\Generated_Source\PSoC5/USBUART_episr.c ****                 USBUART_MIDI_OUT_EP_Service();
 475:.\Generated_Source\PSoC5/USBUART_episr.c ****             }
 476:.\Generated_Source\PSoC5/USBUART_episr.c ****         #endif /*  USBUART_ISR_SERVICE_MIDI_OUT  */
 477:.\Generated_Source\PSoC5/USBUART_episr.c **** 
 478:.\Generated_Source\PSoC5/USBUART_episr.c ****         /* `#START EP7_END_USER_CODE` Place your code here */
 479:.\Generated_Source\PSoC5/USBUART_episr.c **** 
 480:.\Generated_Source\PSoC5/USBUART_episr.c ****         /* `#END` */
 481:.\Generated_Source\PSoC5/USBUART_episr.c **** 
 482:.\Generated_Source\PSoC5/USBUART_episr.c ****         #if (defined(USBUART_ENABLE_MIDI_STREAMING) && !defined(USBUART_MAIN_SERVICE_MIDI_OUT) && \
 483:.\Generated_Source\PSoC5/USBUART_episr.c ****                      USBUART_ISR_SERVICE_MIDI_OUT && CY_PSOC3)
 484:.\Generated_Source\PSoC5/USBUART_episr.c ****             EA = int_en;
 485:.\Generated_Source\PSoC5/USBUART_episr.c ****         #endif /* CY_PSOC3 & USBUART_ISR_SERVICE_MIDI_OUT  */
 486:.\Generated_Source\PSoC5/USBUART_episr.c ****     }
 487:.\Generated_Source\PSoC5/USBUART_episr.c **** 
 488:.\Generated_Source\PSoC5/USBUART_episr.c **** #endif   /*  USBUART_EP7_ISR_REMOVE */
 489:.\Generated_Source\PSoC5/USBUART_episr.c **** 
 490:.\Generated_Source\PSoC5/USBUART_episr.c **** 
 491:.\Generated_Source\PSoC5/USBUART_episr.c **** #if(USBUART_EP8_ISR_REMOVE == 0u)
 492:.\Generated_Source\PSoC5/USBUART_episr.c **** 
 493:.\Generated_Source\PSoC5/USBUART_episr.c ****     /*******************************************************************************
 494:.\Generated_Source\PSoC5/USBUART_episr.c ****     * Function Name: USBUART_EP_8_ISR
 495:.\Generated_Source\PSoC5/USBUART_episr.c ****     ********************************************************************************
 496:.\Generated_Source\PSoC5/USBUART_episr.c ****     *
 497:.\Generated_Source\PSoC5/USBUART_episr.c ****     * Summary:
 498:.\Generated_Source\PSoC5/USBUART_episr.c ****     *  Endpoint 8 Interrupt Service Routine
 499:.\Generated_Source\PSoC5/USBUART_episr.c ****     *
 500:.\Generated_Source\PSoC5/USBUART_episr.c ****     * Parameters:
 501:.\Generated_Source\PSoC5/USBUART_episr.c ****     *  None.
 502:.\Generated_Source\PSoC5/USBUART_episr.c ****     *
 503:.\Generated_Source\PSoC5/USBUART_episr.c ****     * Return:
 504:.\Generated_Source\PSoC5/USBUART_episr.c ****     *  None.
 505:.\Generated_Source\PSoC5/USBUART_episr.c ****     *
 506:.\Generated_Source\PSoC5/USBUART_episr.c ****     *******************************************************************************/
 507:.\Generated_Source\PSoC5/USBUART_episr.c ****     CY_ISR(USBUART_EP_8_ISR)
 508:.\Generated_Source\PSoC5/USBUART_episr.c ****     {
 509:.\Generated_Source\PSoC5/USBUART_episr.c ****         #if (defined(USBUART_ENABLE_MIDI_STREAMING) && !defined(USBUART_MAIN_SERVICE_MIDI_OUT) && \
 510:.\Generated_Source\PSoC5/USBUART_episr.c ****                      USBUART_ISR_SERVICE_MIDI_OUT && CY_PSOC3)
 511:.\Generated_Source\PSoC5/USBUART_episr.c ****             uint8 int_en;
 512:.\Generated_Source\PSoC5/USBUART_episr.c ****         #endif /* CY_PSOC3 & USBUART_ISR_SERVICE_MIDI_OUT  */
 513:.\Generated_Source\PSoC5/USBUART_episr.c **** 
 514:.\Generated_Source\PSoC5/USBUART_episr.c ****         /* `#START EP8_USER_CODE` Place your code here */
 515:.\Generated_Source\PSoC5/USBUART_episr.c **** 
 516:.\Generated_Source\PSoC5/USBUART_episr.c ****         /* `#END` */
 517:.\Generated_Source\PSoC5/USBUART_episr.c **** 
ARM GAS  C:\Users\JohnP\AppData\Local\Temp\ccXVfz0p.s 			page 13


 518:.\Generated_Source\PSoC5/USBUART_episr.c ****         #if (defined(USBUART_ENABLE_MIDI_STREAMING) && !defined(USBUART_MAIN_SERVICE_MIDI_OUT) && \
 519:.\Generated_Source\PSoC5/USBUART_episr.c ****                      USBUART_ISR_SERVICE_MIDI_OUT && CY_PSOC3)
 520:.\Generated_Source\PSoC5/USBUART_episr.c ****             int_en = EA;
 521:.\Generated_Source\PSoC5/USBUART_episr.c ****             CyGlobalIntEnable;  /* Make sure nested interrupt is enabled */
 522:.\Generated_Source\PSoC5/USBUART_episr.c ****         #endif /* CY_PSOC3 & USBUART_ISR_SERVICE_MIDI_OUT  */
 523:.\Generated_Source\PSoC5/USBUART_episr.c **** 
 524:.\Generated_Source\PSoC5/USBUART_episr.c ****         CY_GET_REG8(USBUART_SIE_EP8_CR0_PTR); /* Must read the mode reg */
 525:.\Generated_Source\PSoC5/USBUART_episr.c ****         /* Do not toggle ISOC endpoint */
 526:.\Generated_Source\PSoC5/USBUART_episr.c ****         if((USBUART_EP[USBUART_EP8].attrib & USBUART_EP_TYPE_MASK) !=
 527:.\Generated_Source\PSoC5/USBUART_episr.c ****                                                                                     USBUART_EP_TYPE
 528:.\Generated_Source\PSoC5/USBUART_episr.c ****         {
 529:.\Generated_Source\PSoC5/USBUART_episr.c ****             USBUART_EP[USBUART_EP8].epToggle ^= USBUART_EPX_CNT_DATA_TOGGLE;
 530:.\Generated_Source\PSoC5/USBUART_episr.c ****         }
 531:.\Generated_Source\PSoC5/USBUART_episr.c ****         USBUART_EP[USBUART_EP8].apiEpState = USBUART_EVENT_PENDING;
 532:.\Generated_Source\PSoC5/USBUART_episr.c ****         CY_SET_REG8(USBUART_SIE_EP_INT_SR_PTR, CY_GET_REG8(USBUART_SIE_EP_INT_SR_PTR)
 533:.\Generated_Source\PSoC5/USBUART_episr.c ****                                                                         & (uint8)~USBUART_SIE_EP_IN
 534:.\Generated_Source\PSoC5/USBUART_episr.c **** 
 535:.\Generated_Source\PSoC5/USBUART_episr.c ****         #if (defined(USBUART_ENABLE_MIDI_STREAMING) && !defined(USBUART_MAIN_SERVICE_MIDI_OUT) && \
 536:.\Generated_Source\PSoC5/USBUART_episr.c ****                      USBUART_ISR_SERVICE_MIDI_OUT)
 537:.\Generated_Source\PSoC5/USBUART_episr.c ****             if(USBUART_midi_out_ep == USBUART_EP8)
 538:.\Generated_Source\PSoC5/USBUART_episr.c ****             {
 539:.\Generated_Source\PSoC5/USBUART_episr.c ****                 USBUART_MIDI_OUT_EP_Service();
 540:.\Generated_Source\PSoC5/USBUART_episr.c ****             }
 541:.\Generated_Source\PSoC5/USBUART_episr.c ****         #endif /*  USBUART_ISR_SERVICE_MIDI_OUT */
 542:.\Generated_Source\PSoC5/USBUART_episr.c **** 
 543:.\Generated_Source\PSoC5/USBUART_episr.c ****         /* `#START EP8_END_USER_CODE` Place your code here */
 544:.\Generated_Source\PSoC5/USBUART_episr.c **** 
 545:.\Generated_Source\PSoC5/USBUART_episr.c ****         /* `#END` */
 546:.\Generated_Source\PSoC5/USBUART_episr.c **** 
 547:.\Generated_Source\PSoC5/USBUART_episr.c ****         #if (defined(USBUART_ENABLE_MIDI_STREAMING) && !defined(USBUART_MAIN_SERVICE_MIDI_OUT) && \
 548:.\Generated_Source\PSoC5/USBUART_episr.c ****                      USBUART_ISR_SERVICE_MIDI_OUT && CY_PSOC3)
 549:.\Generated_Source\PSoC5/USBUART_episr.c ****             EA = int_en;
 550:.\Generated_Source\PSoC5/USBUART_episr.c ****         #endif /* CY_PSOC3 & USBUART_ISR_SERVICE_MIDI_OUT  */
 551:.\Generated_Source\PSoC5/USBUART_episr.c ****     }
 552:.\Generated_Source\PSoC5/USBUART_episr.c **** 
 553:.\Generated_Source\PSoC5/USBUART_episr.c **** #endif   /*  USBUART_EP8_ISR_REMOVE */
 554:.\Generated_Source\PSoC5/USBUART_episr.c **** 
 555:.\Generated_Source\PSoC5/USBUART_episr.c **** 
 556:.\Generated_Source\PSoC5/USBUART_episr.c **** /*******************************************************************************
 557:.\Generated_Source\PSoC5/USBUART_episr.c **** * Function Name: USBUART_SOF_ISR
 558:.\Generated_Source\PSoC5/USBUART_episr.c **** ********************************************************************************
 559:.\Generated_Source\PSoC5/USBUART_episr.c **** *
 560:.\Generated_Source\PSoC5/USBUART_episr.c **** * Summary:
 561:.\Generated_Source\PSoC5/USBUART_episr.c **** *  Start of Frame Interrupt Service Routine
 562:.\Generated_Source\PSoC5/USBUART_episr.c **** *
 563:.\Generated_Source\PSoC5/USBUART_episr.c **** * Parameters:
 564:.\Generated_Source\PSoC5/USBUART_episr.c **** *  None.
 565:.\Generated_Source\PSoC5/USBUART_episr.c **** *
 566:.\Generated_Source\PSoC5/USBUART_episr.c **** * Return:
 567:.\Generated_Source\PSoC5/USBUART_episr.c **** *  None.
 568:.\Generated_Source\PSoC5/USBUART_episr.c **** *
 569:.\Generated_Source\PSoC5/USBUART_episr.c **** *******************************************************************************/
 570:.\Generated_Source\PSoC5/USBUART_episr.c **** CY_ISR(USBUART_SOF_ISR)
 571:.\Generated_Source\PSoC5/USBUART_episr.c **** {
 168              		.loc 1 571 0
 169              		.cfi_startproc
 170              		@ args = 0, pretend = 0, frame = 0
ARM GAS  C:\Users\JohnP\AppData\Local\Temp\ccXVfz0p.s 			page 14


 171              		@ frame_needed = 0, uses_anonymous_args = 0
 172              		@ link register save eliminated.
 173 0000 7047     		bx	lr
 174              		.cfi_endproc
 175              	.LFE3:
 176              		.size	USBUART_SOF_ISR, .-USBUART_SOF_ISR
 177 0002 00BF     		.section	.text.USBUART_BUS_RESET_ISR,"ax",%progbits
 178              		.align	2
 179              		.global	USBUART_BUS_RESET_ISR
 180              		.thumb
 181              		.thumb_func
 182              		.type	USBUART_BUS_RESET_ISR, %function
 183              	USBUART_BUS_RESET_ISR:
 184              	.LFB4:
 572:.\Generated_Source\PSoC5/USBUART_episr.c ****     /* `#START SOF_USER_CODE` Place your code here */
 573:.\Generated_Source\PSoC5/USBUART_episr.c **** 
 574:.\Generated_Source\PSoC5/USBUART_episr.c ****     /* `#END` */
 575:.\Generated_Source\PSoC5/USBUART_episr.c **** }
 576:.\Generated_Source\PSoC5/USBUART_episr.c **** 
 577:.\Generated_Source\PSoC5/USBUART_episr.c **** 
 578:.\Generated_Source\PSoC5/USBUART_episr.c **** /*******************************************************************************
 579:.\Generated_Source\PSoC5/USBUART_episr.c **** * Function Name: USBUART_BUS_RESET_ISR
 580:.\Generated_Source\PSoC5/USBUART_episr.c **** ********************************************************************************
 581:.\Generated_Source\PSoC5/USBUART_episr.c **** *
 582:.\Generated_Source\PSoC5/USBUART_episr.c **** * Summary:
 583:.\Generated_Source\PSoC5/USBUART_episr.c **** *  USB Bus Reset Interrupt Service Routine.  Calls _Start with the same
 584:.\Generated_Source\PSoC5/USBUART_episr.c **** *  parameters as the last USER call to _Start
 585:.\Generated_Source\PSoC5/USBUART_episr.c **** *
 586:.\Generated_Source\PSoC5/USBUART_episr.c **** * Parameters:
 587:.\Generated_Source\PSoC5/USBUART_episr.c **** *  None.
 588:.\Generated_Source\PSoC5/USBUART_episr.c **** *
 589:.\Generated_Source\PSoC5/USBUART_episr.c **** * Return:
 590:.\Generated_Source\PSoC5/USBUART_episr.c **** *  None.
 591:.\Generated_Source\PSoC5/USBUART_episr.c **** *
 592:.\Generated_Source\PSoC5/USBUART_episr.c **** *******************************************************************************/
 593:.\Generated_Source\PSoC5/USBUART_episr.c **** CY_ISR(USBUART_BUS_RESET_ISR)
 594:.\Generated_Source\PSoC5/USBUART_episr.c **** {
 185              		.loc 1 594 0
 186              		.cfi_startproc
 187              		@ args = 0, pretend = 0, frame = 0
 188              		@ frame_needed = 0, uses_anonymous_args = 0
 189              		.loc 1 594 0
 190 0000 08B5     		push	{r3, lr}
 191              		.cfi_def_cfa_offset 8
 192              		.cfi_offset 3, -8
 193              		.cfi_offset 14, -4
 595:.\Generated_Source\PSoC5/USBUART_episr.c ****     /* `#START BUS_RESET_USER_CODE` Place your code here */
 596:.\Generated_Source\PSoC5/USBUART_episr.c **** 
 597:.\Generated_Source\PSoC5/USBUART_episr.c ****     /* `#END` */
 598:.\Generated_Source\PSoC5/USBUART_episr.c **** 
 599:.\Generated_Source\PSoC5/USBUART_episr.c ****     USBUART_ReInitComponent();
 194              		.loc 1 599 0
 195 0002 FFF7FEFF 		bl	USBUART_ReInitComponent
 196              	.LVL0:
 197 0006 08BD     		pop	{r3, pc}
 198              		.cfi_endproc
 199              	.LFE4:
ARM GAS  C:\Users\JohnP\AppData\Local\Temp\ccXVfz0p.s 			page 15


 200              		.size	USBUART_BUS_RESET_ISR, .-USBUART_BUS_RESET_ISR
 201              		.text
 202              	.Letext0:
 203              		.file 2 ".\\Generated_Source\\PSoC5\\cytypes.h"
 204              		.file 3 ".\\Generated_Source\\PSoC5\\USBUART.h"
 205              		.file 4 ".\\Generated_Source\\PSoC5\\USBUART_pvt.h"