ARM GAS  C:\Users\JohnP\AppData\Local\Temp\ccu0WgIr.s 			page 1


   1              		.syntax unified
   2              		.cpu cortex-m3
   3              		.fpu softvfp
   4              		.eabi_attribute 20, 1
   5              		.eabi_attribute 21, 1
   6              		.eabi_attribute 23, 3
   7              		.eabi_attribute 24, 1
   8              		.eabi_attribute 25, 1
   9              		.eabi_attribute 26, 1
  10              		.eabi_attribute 30, 1
  11              		.eabi_attribute 34, 1
  12              		.eabi_attribute 18, 4
  13              		.thumb
  14              		.file	"USBUART_Dp.c"
  15              		.text
  16              	.Ltext0:
  17              		.cfi_sections	.debug_frame
  18              		.section	.text.USBUART_Dp_Write,"ax",%progbits
  19              		.align	2
  20              		.global	USBUART_Dp_Write
  21              		.thumb
  22              		.thumb_func
  23              		.type	USBUART_Dp_Write, %function
  24              	USBUART_Dp_Write:
  25              	.LFB0:
  26              		.file 1 ".\\Generated_Source\\PSoC5\\USBUART_Dp.c"
   1:.\Generated_Source\PSoC5/USBUART_Dp.c **** /*******************************************************************************
   2:.\Generated_Source\PSoC5/USBUART_Dp.c **** * File Name: USBUART_Dp.c  
   3:.\Generated_Source\PSoC5/USBUART_Dp.c **** * Version 2.10
   4:.\Generated_Source\PSoC5/USBUART_Dp.c **** *
   5:.\Generated_Source\PSoC5/USBUART_Dp.c **** * Description:
   6:.\Generated_Source\PSoC5/USBUART_Dp.c **** *  This file contains API to enable firmware control of a Pins component.
   7:.\Generated_Source\PSoC5/USBUART_Dp.c **** *
   8:.\Generated_Source\PSoC5/USBUART_Dp.c **** * Note:
   9:.\Generated_Source\PSoC5/USBUART_Dp.c **** *
  10:.\Generated_Source\PSoC5/USBUART_Dp.c **** ********************************************************************************
  11:.\Generated_Source\PSoC5/USBUART_Dp.c **** * Copyright 2008-2014, Cypress Semiconductor Corporation.  All rights reserved.
  12:.\Generated_Source\PSoC5/USBUART_Dp.c **** * You may use this file only in accordance with the license, terms, conditions, 
  13:.\Generated_Source\PSoC5/USBUART_Dp.c **** * disclaimers, and limitations in the end user license agreement accompanying 
  14:.\Generated_Source\PSoC5/USBUART_Dp.c **** * the software package with which this file was provided.
  15:.\Generated_Source\PSoC5/USBUART_Dp.c **** *******************************************************************************/
  16:.\Generated_Source\PSoC5/USBUART_Dp.c **** 
  17:.\Generated_Source\PSoC5/USBUART_Dp.c **** #include "cytypes.h"
  18:.\Generated_Source\PSoC5/USBUART_Dp.c **** #include "USBUART_Dp.h"
  19:.\Generated_Source\PSoC5/USBUART_Dp.c **** 
  20:.\Generated_Source\PSoC5/USBUART_Dp.c **** /* APIs are not generated for P15[7:6] on PSoC 5 */
  21:.\Generated_Source\PSoC5/USBUART_Dp.c **** #if !(CY_PSOC5A &&\
  22:.\Generated_Source\PSoC5/USBUART_Dp.c **** 	 USBUART_Dp__PORT == 15 && ((USBUART_Dp__MASK & 0xC0) != 0))
  23:.\Generated_Source\PSoC5/USBUART_Dp.c **** 
  24:.\Generated_Source\PSoC5/USBUART_Dp.c **** 
  25:.\Generated_Source\PSoC5/USBUART_Dp.c **** /*******************************************************************************
  26:.\Generated_Source\PSoC5/USBUART_Dp.c **** * Function Name: USBUART_Dp_Write
  27:.\Generated_Source\PSoC5/USBUART_Dp.c **** ********************************************************************************
  28:.\Generated_Source\PSoC5/USBUART_Dp.c **** *
  29:.\Generated_Source\PSoC5/USBUART_Dp.c **** * Summary:
  30:.\Generated_Source\PSoC5/USBUART_Dp.c **** *  Assign a new value to the digital port's data output register.  
  31:.\Generated_Source\PSoC5/USBUART_Dp.c **** *
ARM GAS  C:\Users\JohnP\AppData\Local\Temp\ccu0WgIr.s 			page 2


  32:.\Generated_Source\PSoC5/USBUART_Dp.c **** * Parameters:  
  33:.\Generated_Source\PSoC5/USBUART_Dp.c **** *  prtValue:  The value to be assigned to the Digital Port. 
  34:.\Generated_Source\PSoC5/USBUART_Dp.c **** *
  35:.\Generated_Source\PSoC5/USBUART_Dp.c **** * Return: 
  36:.\Generated_Source\PSoC5/USBUART_Dp.c **** *  None
  37:.\Generated_Source\PSoC5/USBUART_Dp.c **** *  
  38:.\Generated_Source\PSoC5/USBUART_Dp.c **** *******************************************************************************/
  39:.\Generated_Source\PSoC5/USBUART_Dp.c **** void USBUART_Dp_Write(uint8 value) 
  40:.\Generated_Source\PSoC5/USBUART_Dp.c **** {
  27              		.loc 1 40 0
  28              		.cfi_startproc
  29              		@ args = 0, pretend = 0, frame = 0
  30              		@ frame_needed = 0, uses_anonymous_args = 0
  31              		@ link register save eliminated.
  32              	.LVL0:
  41:.\Generated_Source\PSoC5/USBUART_Dp.c ****     uint8 staticBits = (USBUART_Dp_DR & (uint8)(~USBUART_Dp_MASK));
  33              		.loc 1 41 0
  34 0000 044B     		ldr	r3, .L2
  35 0002 1A78     		ldrb	r2, [r3]	@ zero_extendqisi2
  36 0004 02F0BF02 		and	r2, r2, #191
  37              	.LVL1:
  42:.\Generated_Source\PSoC5/USBUART_Dp.c ****     USBUART_Dp_DR = staticBits | ((uint8)(value << USBUART_Dp_SHIFT) & USBUART_Dp_MASK);
  38              		.loc 1 42 0
  39 0008 8001     		lsls	r0, r0, #6
  40              	.LVL2:
  41 000a 00F04000 		and	r0, r0, #64
  42 000e 0243     		orrs	r2, r2, r0
  43              	.LVL3:
  44 0010 1A70     		strb	r2, [r3]
  45 0012 7047     		bx	lr
  46              	.L3:
  47              		.align	2
  48              	.L2:
  49 0014 F0510040 		.word	1073762800
  50              		.cfi_endproc
  51              	.LFE0:
  52              		.size	USBUART_Dp_Write, .-USBUART_Dp_Write
  53              		.section	.text.USBUART_Dp_SetDriveMode,"ax",%progbits
  54              		.align	2
  55              		.global	USBUART_Dp_SetDriveMode
  56              		.thumb
  57              		.thumb_func
  58              		.type	USBUART_Dp_SetDriveMode, %function
  59              	USBUART_Dp_SetDriveMode:
  60              	.LFB1:
  43:.\Generated_Source\PSoC5/USBUART_Dp.c **** }
  44:.\Generated_Source\PSoC5/USBUART_Dp.c **** 
  45:.\Generated_Source\PSoC5/USBUART_Dp.c **** 
  46:.\Generated_Source\PSoC5/USBUART_Dp.c **** /*******************************************************************************
  47:.\Generated_Source\PSoC5/USBUART_Dp.c **** * Function Name: USBUART_Dp_SetDriveMode
  48:.\Generated_Source\PSoC5/USBUART_Dp.c **** ********************************************************************************
  49:.\Generated_Source\PSoC5/USBUART_Dp.c **** *
  50:.\Generated_Source\PSoC5/USBUART_Dp.c **** * Summary:
  51:.\Generated_Source\PSoC5/USBUART_Dp.c **** *  Change the drive mode on the pins of the port.
  52:.\Generated_Source\PSoC5/USBUART_Dp.c **** * 
  53:.\Generated_Source\PSoC5/USBUART_Dp.c **** * Parameters:  
  54:.\Generated_Source\PSoC5/USBUART_Dp.c **** *  mode:  Change the pins to one of the following drive modes.
ARM GAS  C:\Users\JohnP\AppData\Local\Temp\ccu0WgIr.s 			page 3


  55:.\Generated_Source\PSoC5/USBUART_Dp.c **** *
  56:.\Generated_Source\PSoC5/USBUART_Dp.c **** *  USBUART_Dp_DM_STRONG     Strong Drive 
  57:.\Generated_Source\PSoC5/USBUART_Dp.c **** *  USBUART_Dp_DM_OD_HI      Open Drain, Drives High 
  58:.\Generated_Source\PSoC5/USBUART_Dp.c **** *  USBUART_Dp_DM_OD_LO      Open Drain, Drives Low 
  59:.\Generated_Source\PSoC5/USBUART_Dp.c **** *  USBUART_Dp_DM_RES_UP     Resistive Pull Up 
  60:.\Generated_Source\PSoC5/USBUART_Dp.c **** *  USBUART_Dp_DM_RES_DWN    Resistive Pull Down 
  61:.\Generated_Source\PSoC5/USBUART_Dp.c **** *  USBUART_Dp_DM_RES_UPDWN  Resistive Pull Up/Down 
  62:.\Generated_Source\PSoC5/USBUART_Dp.c **** *  USBUART_Dp_DM_DIG_HIZ    High Impedance Digital 
  63:.\Generated_Source\PSoC5/USBUART_Dp.c **** *  USBUART_Dp_DM_ALG_HIZ    High Impedance Analog 
  64:.\Generated_Source\PSoC5/USBUART_Dp.c **** *
  65:.\Generated_Source\PSoC5/USBUART_Dp.c **** * Return: 
  66:.\Generated_Source\PSoC5/USBUART_Dp.c **** *  None
  67:.\Generated_Source\PSoC5/USBUART_Dp.c **** *
  68:.\Generated_Source\PSoC5/USBUART_Dp.c **** *******************************************************************************/
  69:.\Generated_Source\PSoC5/USBUART_Dp.c **** void USBUART_Dp_SetDriveMode(uint8 mode) 
  70:.\Generated_Source\PSoC5/USBUART_Dp.c **** {
  61              		.loc 1 70 0
  62              		.cfi_startproc
  63              		@ args = 0, pretend = 0, frame = 0
  64              		@ frame_needed = 0, uses_anonymous_args = 0
  65              		@ link register save eliminated.
  66              	.LVL4:
  71:.\Generated_Source\PSoC5/USBUART_Dp.c **** 	CyPins_SetPinDriveMode(USBUART_Dp_0, mode);
  67              		.loc 1 71 0
  68 0000 044B     		ldr	r3, .L5
  69 0002 1A78     		ldrb	r2, [r3]	@ zero_extendqisi2
  70 0004 02F0F102 		and	r2, r2, #241
  71 0008 00F00E00 		and	r0, r0, #14
  72              	.LVL5:
  73 000c 0243     		orrs	r2, r2, r0
  74 000e 1A70     		strb	r2, [r3]
  75 0010 7047     		bx	lr
  76              	.L6:
  77 0012 00BF     		.align	2
  78              	.L5:
  79 0014 7E500040 		.word	1073762430
  80              		.cfi_endproc
  81              	.LFE1:
  82              		.size	USBUART_Dp_SetDriveMode, .-USBUART_Dp_SetDriveMode
  83              		.section	.text.USBUART_Dp_Read,"ax",%progbits
  84              		.align	2
  85              		.global	USBUART_Dp_Read
  86              		.thumb
  87              		.thumb_func
  88              		.type	USBUART_Dp_Read, %function
  89              	USBUART_Dp_Read:
  90              	.LFB2:
  72:.\Generated_Source\PSoC5/USBUART_Dp.c **** }
  73:.\Generated_Source\PSoC5/USBUART_Dp.c **** 
  74:.\Generated_Source\PSoC5/USBUART_Dp.c **** 
  75:.\Generated_Source\PSoC5/USBUART_Dp.c **** /*******************************************************************************
  76:.\Generated_Source\PSoC5/USBUART_Dp.c **** * Function Name: USBUART_Dp_Read
  77:.\Generated_Source\PSoC5/USBUART_Dp.c **** ********************************************************************************
  78:.\Generated_Source\PSoC5/USBUART_Dp.c **** *
  79:.\Generated_Source\PSoC5/USBUART_Dp.c **** * Summary:
  80:.\Generated_Source\PSoC5/USBUART_Dp.c **** *  Read the current value on the pins of the Digital Port in right justified 
  81:.\Generated_Source\PSoC5/USBUART_Dp.c **** *  form.
ARM GAS  C:\Users\JohnP\AppData\Local\Temp\ccu0WgIr.s 			page 4


  82:.\Generated_Source\PSoC5/USBUART_Dp.c **** *
  83:.\Generated_Source\PSoC5/USBUART_Dp.c **** * Parameters:  
  84:.\Generated_Source\PSoC5/USBUART_Dp.c **** *  None
  85:.\Generated_Source\PSoC5/USBUART_Dp.c **** *
  86:.\Generated_Source\PSoC5/USBUART_Dp.c **** * Return: 
  87:.\Generated_Source\PSoC5/USBUART_Dp.c **** *  Returns the current value of the Digital Port as a right justified number
  88:.\Generated_Source\PSoC5/USBUART_Dp.c **** *  
  89:.\Generated_Source\PSoC5/USBUART_Dp.c **** * Note:
  90:.\Generated_Source\PSoC5/USBUART_Dp.c **** *  Macro USBUART_Dp_ReadPS calls this function. 
  91:.\Generated_Source\PSoC5/USBUART_Dp.c **** *  
  92:.\Generated_Source\PSoC5/USBUART_Dp.c **** *******************************************************************************/
  93:.\Generated_Source\PSoC5/USBUART_Dp.c **** uint8 USBUART_Dp_Read(void) 
  94:.\Generated_Source\PSoC5/USBUART_Dp.c **** {
  91              		.loc 1 94 0
  92              		.cfi_startproc
  93              		@ args = 0, pretend = 0, frame = 0
  94              		@ frame_needed = 0, uses_anonymous_args = 0
  95              		@ link register save eliminated.
  95:.\Generated_Source\PSoC5/USBUART_Dp.c ****     return (USBUART_Dp_PS & USBUART_Dp_MASK) >> USBUART_Dp_SHIFT;
  96              		.loc 1 95 0
  97 0000 024B     		ldr	r3, .L8
  98 0002 1878     		ldrb	r0, [r3]	@ zero_extendqisi2
  96:.\Generated_Source\PSoC5/USBUART_Dp.c **** }
  99              		.loc 1 96 0
 100 0004 C0F38010 		ubfx	r0, r0, #6, #1
 101 0008 7047     		bx	lr
 102              	.L9:
 103 000a 00BF     		.align	2
 104              	.L8:
 105 000c F1510040 		.word	1073762801
 106              		.cfi_endproc
 107              	.LFE2:
 108              		.size	USBUART_Dp_Read, .-USBUART_Dp_Read
 109              		.section	.text.USBUART_Dp_ReadDataReg,"ax",%progbits
 110              		.align	2
 111              		.global	USBUART_Dp_ReadDataReg
 112              		.thumb
 113              		.thumb_func
 114              		.type	USBUART_Dp_ReadDataReg, %function
 115              	USBUART_Dp_ReadDataReg:
 116              	.LFB3:
  97:.\Generated_Source\PSoC5/USBUART_Dp.c **** 
  98:.\Generated_Source\PSoC5/USBUART_Dp.c **** 
  99:.\Generated_Source\PSoC5/USBUART_Dp.c **** /*******************************************************************************
 100:.\Generated_Source\PSoC5/USBUART_Dp.c **** * Function Name: USBUART_Dp_ReadDataReg
 101:.\Generated_Source\PSoC5/USBUART_Dp.c **** ********************************************************************************
 102:.\Generated_Source\PSoC5/USBUART_Dp.c **** *
 103:.\Generated_Source\PSoC5/USBUART_Dp.c **** * Summary:
 104:.\Generated_Source\PSoC5/USBUART_Dp.c **** *  Read the current value assigned to a Digital Port's data output register
 105:.\Generated_Source\PSoC5/USBUART_Dp.c **** *
 106:.\Generated_Source\PSoC5/USBUART_Dp.c **** * Parameters:  
 107:.\Generated_Source\PSoC5/USBUART_Dp.c **** *  None 
 108:.\Generated_Source\PSoC5/USBUART_Dp.c **** *
 109:.\Generated_Source\PSoC5/USBUART_Dp.c **** * Return: 
 110:.\Generated_Source\PSoC5/USBUART_Dp.c **** *  Returns the current value assigned to the Digital Port's data output register
 111:.\Generated_Source\PSoC5/USBUART_Dp.c **** *  
 112:.\Generated_Source\PSoC5/USBUART_Dp.c **** *******************************************************************************/
ARM GAS  C:\Users\JohnP\AppData\Local\Temp\ccu0WgIr.s 			page 5


 113:.\Generated_Source\PSoC5/USBUART_Dp.c **** uint8 USBUART_Dp_ReadDataReg(void) 
 114:.\Generated_Source\PSoC5/USBUART_Dp.c **** {
 117              		.loc 1 114 0
 118              		.cfi_startproc
 119              		@ args = 0, pretend = 0, frame = 0
 120              		@ frame_needed = 0, uses_anonymous_args = 0
 121              		@ link register save eliminated.
 115:.\Generated_Source\PSoC5/USBUART_Dp.c ****     return (USBUART_Dp_DR & USBUART_Dp_MASK) >> USBUART_Dp_SHIFT;
 122              		.loc 1 115 0
 123 0000 024B     		ldr	r3, .L11
 124 0002 1878     		ldrb	r0, [r3]	@ zero_extendqisi2
 116:.\Generated_Source\PSoC5/USBUART_Dp.c **** }
 125              		.loc 1 116 0
 126 0004 C0F38010 		ubfx	r0, r0, #6, #1
 127 0008 7047     		bx	lr
 128              	.L12:
 129 000a 00BF     		.align	2
 130              	.L11:
 131 000c F0510040 		.word	1073762800
 132              		.cfi_endproc
 133              	.LFE3:
 134              		.size	USBUART_Dp_ReadDataReg, .-USBUART_Dp_ReadDataReg
 135              		.section	.text.USBUART_Dp_ClearInterrupt,"ax",%progbits
 136              		.align	2
 137              		.global	USBUART_Dp_ClearInterrupt
 138              		.thumb
 139              		.thumb_func
 140              		.type	USBUART_Dp_ClearInterrupt, %function
 141              	USBUART_Dp_ClearInterrupt:
 142              	.LFB4:
 117:.\Generated_Source\PSoC5/USBUART_Dp.c **** 
 118:.\Generated_Source\PSoC5/USBUART_Dp.c **** 
 119:.\Generated_Source\PSoC5/USBUART_Dp.c **** /* If Interrupts Are Enabled for this Pins component */ 
 120:.\Generated_Source\PSoC5/USBUART_Dp.c **** #if defined(USBUART_Dp_INTSTAT) 
 121:.\Generated_Source\PSoC5/USBUART_Dp.c **** 
 122:.\Generated_Source\PSoC5/USBUART_Dp.c ****     /*******************************************************************************
 123:.\Generated_Source\PSoC5/USBUART_Dp.c ****     * Function Name: USBUART_Dp_ClearInterrupt
 124:.\Generated_Source\PSoC5/USBUART_Dp.c ****     ********************************************************************************
 125:.\Generated_Source\PSoC5/USBUART_Dp.c ****     * Summary:
 126:.\Generated_Source\PSoC5/USBUART_Dp.c ****     *  Clears any active interrupts attached to port and returns the value of the 
 127:.\Generated_Source\PSoC5/USBUART_Dp.c ****     *  interrupt status register.
 128:.\Generated_Source\PSoC5/USBUART_Dp.c ****     *
 129:.\Generated_Source\PSoC5/USBUART_Dp.c ****     * Parameters:  
 130:.\Generated_Source\PSoC5/USBUART_Dp.c ****     *  None 
 131:.\Generated_Source\PSoC5/USBUART_Dp.c ****     *
 132:.\Generated_Source\PSoC5/USBUART_Dp.c ****     * Return: 
 133:.\Generated_Source\PSoC5/USBUART_Dp.c ****     *  Returns the value of the interrupt status register
 134:.\Generated_Source\PSoC5/USBUART_Dp.c ****     *  
 135:.\Generated_Source\PSoC5/USBUART_Dp.c ****     *******************************************************************************/
 136:.\Generated_Source\PSoC5/USBUART_Dp.c ****     uint8 USBUART_Dp_ClearInterrupt(void) 
 137:.\Generated_Source\PSoC5/USBUART_Dp.c ****     {
 143              		.loc 1 137 0
 144              		.cfi_startproc
 145              		@ args = 0, pretend = 0, frame = 0
 146              		@ frame_needed = 0, uses_anonymous_args = 0
 147              		@ link register save eliminated.
 138:.\Generated_Source\PSoC5/USBUART_Dp.c ****         return (USBUART_Dp_INTSTAT & USBUART_Dp_MASK) >> USBUART_Dp_SHIFT;
ARM GAS  C:\Users\JohnP\AppData\Local\Temp\ccu0WgIr.s 			page 6


 148              		.loc 1 138 0
 149 0000 024B     		ldr	r3, .L14
 150 0002 1878     		ldrb	r0, [r3]	@ zero_extendqisi2
 139:.\Generated_Source\PSoC5/USBUART_Dp.c ****     }
 151              		.loc 1 139 0
 152 0004 C0F38010 		ubfx	r0, r0, #6, #1
 153 0008 7047     		bx	lr
 154              	.L15:
 155 000a 00BF     		.align	2
 156              	.L14:
 157 000c 8F450040 		.word	1073759631
 158              		.cfi_endproc
 159              	.LFE4:
 160              		.size	USBUART_Dp_ClearInterrupt, .-USBUART_Dp_ClearInterrupt
 161              		.text
 162              	.Letext0:
 163              		.file 2 ".\\Generated_Source\\PSoC5\\cytypes.h"