ARM GAS  C:\Users\JohnP\AppData\Local\Temp\ccVO50AY.s 			page 1


   1              		.syntax unified
   2              		.cpu cortex-m3
   3              		.fpu softvfp
   4              		.eabi_attribute 20, 1
   5              		.eabi_attribute 21, 1
   6              		.eabi_attribute 23, 3
   7              		.eabi_attribute 24, 1
   8              		.eabi_attribute 25, 1
   9              		.eabi_attribute 26, 1
  10              		.eabi_attribute 30, 1
  11              		.eabi_attribute 34, 1
  12              		.eabi_attribute 18, 4
  13              		.thumb
  14              		.file	"motor.c"
  15              		.text
  16              	.Ltext0:
  17              		.cfi_sections	.debug_frame
  18              		.section	.text.Start_motor,"ax",%progbits
  19              		.align	2
  20              		.global	Start_motor
  21              		.thumb
  22              		.thumb_func
  23              		.type	Start_motor, %function
  24              	Start_motor:
  25              	.LFB0:
  26              		.file 1 ".\\motor.c"
   1:.\motor.c     **** /* ========================================
   2:.\motor.c     ****  *
   3:.\motor.c     ****  * Copyright YOUR COMPANY, THE YEAR
   4:.\motor.c     ****  * All Rights Reserved
   5:.\motor.c     ****  * UNPUBLISHED, LICENSED SOFTWARE.
   6:.\motor.c     ****  *
   7:.\motor.c     ****  * CONFIDENTIAL AND PROPRIETARY INFORMATION
   8:.\motor.c     ****  * WHICH IS THE PROPERTY OF your company.
   9:.\motor.c     ****  *
  10:.\motor.c     ****  * ========================================
  11:.\motor.c     **** */
  12:.\motor.c     **** 
  13:.\motor.c     **** #include "motor.h"
  14:.\motor.c     **** 
  15:.\motor.c     **** void Start_motor(){
  27              		.loc 1 15 0
  28              		.cfi_startproc
  29              		@ args = 0, pretend = 0, frame = 0
  30              		@ frame_needed = 0, uses_anonymous_args = 0
  31 0000 08B5     		push	{r3, lr}
  32              		.cfi_def_cfa_offset 8
  33              		.cfi_offset 3, -8
  34              		.cfi_offset 14, -4
  16:.\motor.c     ****     PWM_Start();
  35              		.loc 1 16 0
  36 0002 FFF7FEFF 		bl	PWM_Start
  37              	.LVL0:
  38 0006 08BD     		pop	{r3, pc}
  39              		.cfi_endproc
  40              	.LFE0:
  41              		.size	Start_motor, .-Start_motor
ARM GAS  C:\Users\JohnP\AppData\Local\Temp\ccVO50AY.s 			page 2


  42              		.section	.text.Move_motor,"ax",%progbits
  43              		.align	2
  44              		.global	Move_motor
  45              		.thumb
  46              		.thumb_func
  47              		.type	Move_motor, %function
  48              	Move_motor:
  49              	.LFB3:
  17:.\motor.c     **** }
  18:.\motor.c     **** 
  19:.\motor.c     **** void Motor_rampUp(int topSpeed){
  20:.\motor.c     ****     int i;
  21:.\motor.c     ****     if (speed < topSpeed){
  22:.\motor.c     ****         for(i=speed; i<topSpeed; i++){
  23:.\motor.c     ****             Move_motor(i);
  24:.\motor.c     ****             CyDelay(10);
  25:.\motor.c     ****         }
  26:.\motor.c     ****     } else {
  27:.\motor.c     ****         for(i=speed; i>topSpeed; i--){
  28:.\motor.c     ****             Move_motor(i);
  29:.\motor.c     ****             CyDelay(10);
  30:.\motor.c     ****         }   
  31:.\motor.c     ****     }
  32:.\motor.c     **** }
  33:.\motor.c     **** 
  34:.\motor.c     **** /*
  35:.\motor.c     ****     stops motor over 2 seconds
  36:.\motor.c     **** */
  37:.\motor.c     **** void Motor_stop(){    
  38:.\motor.c     ****     int delay = 100;        // 100ms delay between each decrement
  39:.\motor.c     ****     int time = 2000;        // 2 seconds total motor stop time
  40:.\motor.c     ****     int decrementer = speed/(time/delay);
  41:.\motor.c     ****     int i;
  42:.\motor.c     ****     for (i=speed; i>0; (i-=decrementer)){
  43:.\motor.c     ****         Move_motor(i);
  44:.\motor.c     ****         CyDelay(delay);
  45:.\motor.c     ****     }
  46:.\motor.c     ****     Move_motor(0);          // just to ensure it's stopped
  47:.\motor.c     **** }
  48:.\motor.c     **** 
  49:.\motor.c     **** void Move_motor(int motorSpeed){
  50              		.loc 1 49 0
  51              		.cfi_startproc
  52              		@ args = 0, pretend = 0, frame = 0
  53              		@ frame_needed = 0, uses_anonymous_args = 0
  54              	.LVL1:
  55 0000 08B5     		push	{r3, lr}
  56              		.cfi_def_cfa_offset 8
  57              		.cfi_offset 3, -8
  58              		.cfi_offset 14, -4
  50:.\motor.c     ****     speed = motorSpeed;
  59              		.loc 1 50 0
  60 0002 034B     		ldr	r3, .L3
  61 0004 1860     		str	r0, [r3]
  51:.\motor.c     ****     PWM_WriteCompare(motorSpeed);
  62              		.loc 1 51 0
  63 0006 80B2     		uxth	r0, r0
ARM GAS  C:\Users\JohnP\AppData\Local\Temp\ccVO50AY.s 			page 3


  64              	.LVL2:
  65 0008 FFF7FEFF 		bl	PWM_WriteCompare
  66              	.LVL3:
  67 000c 08BD     		pop	{r3, pc}
  68              	.L4:
  69 000e 00BF     		.align	2
  70              	.L3:
  71 0010 00000000 		.word	speed
  72              		.cfi_endproc
  73              	.LFE3:
  74              		.size	Move_motor, .-Move_motor
  75              		.section	.text.Motor_rampUp,"ax",%progbits
  76              		.align	2
  77              		.global	Motor_rampUp
  78              		.thumb
  79              		.thumb_func
  80              		.type	Motor_rampUp, %function
  81              	Motor_rampUp:
  82              	.LFB1:
  19:.\motor.c     **** void Motor_rampUp(int topSpeed){
  83              		.loc 1 19 0
  84              		.cfi_startproc
  85              		@ args = 0, pretend = 0, frame = 0
  86              		@ frame_needed = 0, uses_anonymous_args = 0
  87              	.LVL4:
  88 0000 70B5     		push	{r4, r5, r6, lr}
  89              		.cfi_def_cfa_offset 16
  90              		.cfi_offset 4, -16
  91              		.cfi_offset 5, -12
  92              		.cfi_offset 6, -8
  93              		.cfi_offset 14, -4
  94 0002 0546     		mov	r5, r0
  21:.\motor.c     ****     if (speed < topSpeed){
  95              		.loc 1 21 0
  96 0004 0E4B     		ldr	r3, .L14
  97 0006 1C68     		ldr	r4, [r3]
  98 0008 8442     		cmp	r4, r0
  99 000a 08DB     		blt	.L6
 100 000c 13E0     		b	.L11
 101              	.LVL5:
 102              	.L8:
  23:.\motor.c     ****             Move_motor(i);
 103              		.loc 1 23 0 discriminator 2
 104 000e 2046     		mov	r0, r4
 105 0010 FFF7FEFF 		bl	Move_motor
 106              	.LVL6:
  24:.\motor.c     ****             CyDelay(10);
 107              		.loc 1 24 0 discriminator 2
 108 0014 3046     		mov	r0, r6
 109 0016 FFF7FEFF 		bl	CyDelay
 110              	.LVL7:
  22:.\motor.c     ****         for(i=speed; i<topSpeed; i++){
 111              		.loc 1 22 0 discriminator 2
 112 001a 0134     		adds	r4, r4, #1
 113              	.LVL8:
 114 001c 00E0     		b	.L12
 115              	.LVL9:
ARM GAS  C:\Users\JohnP\AppData\Local\Temp\ccVO50AY.s 			page 4


 116              	.L6:
  24:.\motor.c     ****             CyDelay(10);
 117              		.loc 1 24 0 discriminator 1
 118 001e 0A26     		movs	r6, #10
 119              	.LVL10:
 120              	.L12:
  22:.\motor.c     ****         for(i=speed; i<topSpeed; i++){
 121              		.loc 1 22 0 discriminator 1
 122 0020 AC42     		cmp	r4, r5
 123 0022 F4DB     		blt	.L8
 124 0024 70BD     		pop	{r4, r5, r6, pc}
 125              	.LVL11:
 126              	.L10:
  28:.\motor.c     ****             Move_motor(i);
 127              		.loc 1 28 0 discriminator 2
 128 0026 2046     		mov	r0, r4
 129 0028 FFF7FEFF 		bl	Move_motor
 130              	.LVL12:
  29:.\motor.c     ****             CyDelay(10);
 131              		.loc 1 29 0 discriminator 2
 132 002c 3046     		mov	r0, r6
 133 002e FFF7FEFF 		bl	CyDelay
 134              	.LVL13:
  27:.\motor.c     ****         for(i=speed; i>topSpeed; i--){
 135              		.loc 1 27 0 discriminator 2
 136 0032 013C     		subs	r4, r4, #1
 137              	.LVL14:
 138 0034 00E0     		b	.L13
 139              	.LVL15:
 140              	.L11:
  29:.\motor.c     ****             CyDelay(10);
 141              		.loc 1 29 0 discriminator 1
 142 0036 0A26     		movs	r6, #10
 143              	.LVL16:
 144              	.L13:
  27:.\motor.c     ****         for(i=speed; i>topSpeed; i--){
 145              		.loc 1 27 0 discriminator 1
 146 0038 AC42     		cmp	r4, r5
 147 003a F4DC     		bgt	.L10
 148 003c 70BD     		pop	{r4, r5, r6, pc}
 149              	.LVL17:
 150              	.L15:
 151 003e 00BF     		.align	2
 152              	.L14:
 153 0040 00000000 		.word	speed
 154              		.cfi_endproc
 155              	.LFE1:
 156              		.size	Motor_rampUp, .-Motor_rampUp
 157              		.section	.text.Motor_stop,"ax",%progbits
 158              		.align	2
 159              		.global	Motor_stop
 160              		.thumb
 161              		.thumb_func
 162              		.type	Motor_stop, %function
 163              	Motor_stop:
 164              	.LFB2:
  37:.\motor.c     **** void Motor_stop(){    
ARM GAS  C:\Users\JohnP\AppData\Local\Temp\ccVO50AY.s 			page 5


 165              		.loc 1 37 0
 166              		.cfi_startproc
 167              		@ args = 0, pretend = 0, frame = 0
 168              		@ frame_needed = 0, uses_anonymous_args = 0
 169 0000 70B5     		push	{r4, r5, r6, lr}
 170              		.cfi_def_cfa_offset 16
 171              		.cfi_offset 4, -16
 172              		.cfi_offset 5, -12
 173              		.cfi_offset 6, -8
 174              		.cfi_offset 14, -4
 175              	.LVL18:
  40:.\motor.c     ****     int decrementer = speed/(time/delay);
 176              		.loc 1 40 0
 177 0002 0B4B     		ldr	r3, .L19
 178 0004 1C68     		ldr	r4, [r3]
 179 0006 0B4E     		ldr	r6, .L19+4
 180 0008 86FB0436 		smull	r3, r6, r6, r4
 181 000c E317     		asrs	r3, r4, #31
 182 000e C3EBE606 		rsb	r6, r3, r6, asr #3
 183              	.LVL19:
  44:.\motor.c     ****         CyDelay(delay);
 184              		.loc 1 44 0
 185 0012 6425     		movs	r5, #100
  42:.\motor.c     ****     for (i=speed; i>0; (i-=decrementer)){
 186              		.loc 1 42 0
 187 0014 06E0     		b	.L17
 188              	.L18:
  43:.\motor.c     ****         Move_motor(i);
 189              		.loc 1 43 0 discriminator 2
 190 0016 2046     		mov	r0, r4
 191 0018 FFF7FEFF 		bl	Move_motor
 192              	.LVL20:
  44:.\motor.c     ****         CyDelay(delay);
 193              		.loc 1 44 0 discriminator 2
 194 001c 2846     		mov	r0, r5
 195 001e FFF7FEFF 		bl	CyDelay
 196              	.LVL21:
  42:.\motor.c     ****     for (i=speed; i>0; (i-=decrementer)){
 197              		.loc 1 42 0 discriminator 2
 198 0022 A41B     		subs	r4, r4, r6
 199              	.LVL22:
 200              	.L17:
  42:.\motor.c     ****     for (i=speed; i>0; (i-=decrementer)){
 201              		.loc 1 42 0 is_stmt 0 discriminator 1
 202 0024 002C     		cmp	r4, #0
 203 0026 F6DC     		bgt	.L18
  46:.\motor.c     ****     Move_motor(0);          // just to ensure it's stopped
 204              		.loc 1 46 0 is_stmt 1
 205 0028 0020     		movs	r0, #0
 206 002a FFF7FEFF 		bl	Move_motor
 207              	.LVL23:
 208 002e 70BD     		pop	{r4, r5, r6, pc}
 209              	.LVL24:
 210              	.L20:
 211              		.align	2
 212              	.L19:
 213 0030 00000000 		.word	speed
ARM GAS  C:\Users\JohnP\AppData\Local\Temp\ccVO50AY.s 			page 6


 214 0034 67666666 		.word	1717986919
 215              		.cfi_endproc
 216              	.LFE2:
 217              		.size	Motor_stop, .-Motor_stop
 218              		.comm	speed,4,4
 219              		.comm	timer_value,4,4
 220              		.comm	timer_status,4,4
 221              		.comm	heartbeatCounter,4,4
 222              		.comm	heartrate,4,4
 223              		.comm	Prev_state,4,4
 224              		.comm	currentState,4,4
 225              		.comm	RESET_CAUSE,4,4
 226              		.comm	PROFILE,4,4
 227              		.comm	increasingHr,4,4
 228              		.comm	average,4,4
 229              		.text
 230              	.Letext0:
 231              		.file 2 "Generated_Source\\PSoC5/cytypes.h"
 232              		.file 3 ".\\states.h"
 233              		.file 4 ".\\heartrate.h"
 234              		.file 5 ".\\motor.h"
 235              		.file 6 "Generated_Source\\PSoC5/PWM.h"
 236              		.file 7 "Generated_Source\\PSoC5/CyLib.h"