ARM GAS  C:\Users\JohnP\AppData\Local\Temp\cc4GrDuO.s 			page 1


   1              		.syntax unified
   2              		.cpu cortex-m3
   3              		.fpu softvfp
   4              		.eabi_attribute 20, 1
   5              		.eabi_attribute 21, 1
   6              		.eabi_attribute 23, 3
   7              		.eabi_attribute 24, 1
   8              		.eabi_attribute 25, 1
   9              		.eabi_attribute 26, 1
  10              		.eabi_attribute 30, 1
  11              		.eabi_attribute 34, 1
  12              		.eabi_attribute 18, 4
  13              		.thumb
  14              		.file	"CapSense_CSHL.c"
  15              		.text
  16              	.Ltext0:
  17              		.cfi_sections	.debug_frame
  18              		.section	.text.CapSense_BaseInit,"ax",%progbits
  19              		.align	2
  20              		.global	CapSense_BaseInit
  21              		.thumb
  22              		.thumb_func
  23              		.type	CapSense_BaseInit, %function
  24              	CapSense_BaseInit:
  25              	.LFB0:
  26              		.file 1 ".\\Generated_Source\\PSoC5\\CapSense_CSHL.c"
   1:.\Generated_Source\PSoC5/CapSense_CSHL.c **** /*******************************************************************************
   2:.\Generated_Source\PSoC5/CapSense_CSHL.c **** * File Name: CapSense_CSHL.c
   3:.\Generated_Source\PSoC5/CapSense_CSHL.c **** * Version 3.50
   4:.\Generated_Source\PSoC5/CapSense_CSHL.c **** *
   5:.\Generated_Source\PSoC5/CapSense_CSHL.c **** * Description:
   6:.\Generated_Source\PSoC5/CapSense_CSHL.c **** *  This file provides the source code to the High Level APIs for the CapSesne
   7:.\Generated_Source\PSoC5/CapSense_CSHL.c **** *  CSD component.
   8:.\Generated_Source\PSoC5/CapSense_CSHL.c **** *
   9:.\Generated_Source\PSoC5/CapSense_CSHL.c **** * Note:
  10:.\Generated_Source\PSoC5/CapSense_CSHL.c **** *
  11:.\Generated_Source\PSoC5/CapSense_CSHL.c **** ********************************************************************************
  12:.\Generated_Source\PSoC5/CapSense_CSHL.c **** * Copyright 2008-2013, Cypress Semiconductor Corporation.  All rights reserved.
  13:.\Generated_Source\PSoC5/CapSense_CSHL.c **** * You may use this file only in accordance with the license, terms, conditions,
  14:.\Generated_Source\PSoC5/CapSense_CSHL.c **** * disclaimers, and limitations in the end user license agreement accompanying
  15:.\Generated_Source\PSoC5/CapSense_CSHL.c **** * the software package with which this file was provided.
  16:.\Generated_Source\PSoC5/CapSense_CSHL.c **** *******************************************************************************/
  17:.\Generated_Source\PSoC5/CapSense_CSHL.c **** 
  18:.\Generated_Source\PSoC5/CapSense_CSHL.c **** #include "CapSense_CSHL.h"
  19:.\Generated_Source\PSoC5/CapSense_CSHL.c **** 
  20:.\Generated_Source\PSoC5/CapSense_CSHL.c **** /* Storage of filters data */
  21:.\Generated_Source\PSoC5/CapSense_CSHL.c **** #if ( (CapSense_RAW_FILTER_MASK & CapSense_MEDIAN_FILTER) | \
  22:.\Generated_Source\PSoC5/CapSense_CSHL.c ****       (CapSense_RAW_FILTER_MASK & CapSense_AVERAGING_FILTER) )
  23:.\Generated_Source\PSoC5/CapSense_CSHL.c **** 
  24:.\Generated_Source\PSoC5/CapSense_CSHL.c ****     uint16 CapSense_rawFilterData1[CapSense_TOTAL_SENSOR_COUNT];
  25:.\Generated_Source\PSoC5/CapSense_CSHL.c ****     uint16 CapSense_rawFilterData2[CapSense_TOTAL_SENSOR_COUNT];
  26:.\Generated_Source\PSoC5/CapSense_CSHL.c **** 
  27:.\Generated_Source\PSoC5/CapSense_CSHL.c **** #elif ( (CapSense_RAW_FILTER_MASK & CapSense_IIR2_FILTER)   | \
  28:.\Generated_Source\PSoC5/CapSense_CSHL.c ****         (CapSense_RAW_FILTER_MASK & CapSense_IIR4_FILTER)   | \
  29:.\Generated_Source\PSoC5/CapSense_CSHL.c ****         (CapSense_RAW_FILTER_MASK & CapSense_JITTER_FILTER) | \
  30:.\Generated_Source\PSoC5/CapSense_CSHL.c ****         (CapSense_RAW_FILTER_MASK & CapSense_IIR8_FILTER)   | \
  31:.\Generated_Source\PSoC5/CapSense_CSHL.c ****         (CapSense_RAW_FILTER_MASK & CapSense_IIR16_FILTER) )
ARM GAS  C:\Users\JohnP\AppData\Local\Temp\cc4GrDuO.s 			page 2


  32:.\Generated_Source\PSoC5/CapSense_CSHL.c ****         
  33:.\Generated_Source\PSoC5/CapSense_CSHL.c ****     uint16 CapSense_rawFilterData1[CapSense_TOTAL_SENSOR_COUNT];
  34:.\Generated_Source\PSoC5/CapSense_CSHL.c **** 
  35:.\Generated_Source\PSoC5/CapSense_CSHL.c **** #else
  36:.\Generated_Source\PSoC5/CapSense_CSHL.c ****     /* No Raw filters */
  37:.\Generated_Source\PSoC5/CapSense_CSHL.c **** #endif  /* ( (CapSense_RAW_FILTER_MASK & CapSense_MEDIAN_FILTER) || \
  38:.\Generated_Source\PSoC5/CapSense_CSHL.c ****         *    (CapSense_RAW_FILTER_MASK & CapSense_AVERAGING_FILTER) )
  39:.\Generated_Source\PSoC5/CapSense_CSHL.c ****         */
  40:.\Generated_Source\PSoC5/CapSense_CSHL.c **** 
  41:.\Generated_Source\PSoC5/CapSense_CSHL.c **** uint16 CapSense_sensorBaseline[CapSense_TOTAL_SENSOR_COUNT];
  42:.\Generated_Source\PSoC5/CapSense_CSHL.c **** uint8 CapSense_sensorBaselineLow[CapSense_TOTAL_SENSOR_COUNT];
  43:.\Generated_Source\PSoC5/CapSense_CSHL.c **** uint8 CapSense_sensorSignal[CapSense_TOTAL_SENSOR_COUNT];
  44:.\Generated_Source\PSoC5/CapSense_CSHL.c **** uint8 CapSense_sensorOnMask[(((CapSense_TOTAL_SENSOR_COUNT - 1u) / 8u) + 1u)];
  45:.\Generated_Source\PSoC5/CapSense_CSHL.c **** 
  46:.\Generated_Source\PSoC5/CapSense_CSHL.c **** uint8 CapSense_lowBaselineResetCnt[CapSense_TOTAL_SENSOR_COUNT];
  47:.\Generated_Source\PSoC5/CapSense_CSHL.c **** 
  48:.\Generated_Source\PSoC5/CapSense_CSHL.c **** uint8 CapSense_fingerThreshold[] = {
  49:.\Generated_Source\PSoC5/CapSense_CSHL.c ****     100u, 100u, 100u, 
  50:.\Generated_Source\PSoC5/CapSense_CSHL.c **** };
  51:.\Generated_Source\PSoC5/CapSense_CSHL.c **** 
  52:.\Generated_Source\PSoC5/CapSense_CSHL.c **** uint8 CapSense_noiseThreshold[] = {
  53:.\Generated_Source\PSoC5/CapSense_CSHL.c ****     20u, 20u, 20u, 
  54:.\Generated_Source\PSoC5/CapSense_CSHL.c **** };
  55:.\Generated_Source\PSoC5/CapSense_CSHL.c **** 
  56:.\Generated_Source\PSoC5/CapSense_CSHL.c **** uint8 CapSense_hysteresis[] = {
  57:.\Generated_Source\PSoC5/CapSense_CSHL.c ****     0u, 10u, 10u, 
  58:.\Generated_Source\PSoC5/CapSense_CSHL.c **** };
  59:.\Generated_Source\PSoC5/CapSense_CSHL.c **** 
  60:.\Generated_Source\PSoC5/CapSense_CSHL.c **** uint8 CapSense_debounce[] = {
  61:.\Generated_Source\PSoC5/CapSense_CSHL.c ****     1u, 1u, 1u, 
  62:.\Generated_Source\PSoC5/CapSense_CSHL.c **** };
  63:.\Generated_Source\PSoC5/CapSense_CSHL.c **** 
  64:.\Generated_Source\PSoC5/CapSense_CSHL.c **** uint8 CapSense_debounceCounter[] = {
  65:.\Generated_Source\PSoC5/CapSense_CSHL.c ****     0u, 0u, 0u, 
  66:.\Generated_Source\PSoC5/CapSense_CSHL.c **** };
  67:.\Generated_Source\PSoC5/CapSense_CSHL.c **** 
  68:.\Generated_Source\PSoC5/CapSense_CSHL.c **** const uint8 CYCODE CapSense_rawDataIndex[] = {
  69:.\Generated_Source\PSoC5/CapSense_CSHL.c ****     2u, /* LinearSlider0__LS */
  70:.\Generated_Source\PSoC5/CapSense_CSHL.c ****     0u, /* Button0__BTN */
  71:.\Generated_Source\PSoC5/CapSense_CSHL.c ****     1u, /* Button1__BTN */
  72:.\Generated_Source\PSoC5/CapSense_CSHL.c **** 
  73:.\Generated_Source\PSoC5/CapSense_CSHL.c **** };
  74:.\Generated_Source\PSoC5/CapSense_CSHL.c **** 
  75:.\Generated_Source\PSoC5/CapSense_CSHL.c **** const uint8 CYCODE CapSense_numberOfSensors[] = {
  76:.\Generated_Source\PSoC5/CapSense_CSHL.c ****     5u, /* LinearSlider0__LS */
  77:.\Generated_Source\PSoC5/CapSense_CSHL.c ****     1u, /* Button0__BTN */
  78:.\Generated_Source\PSoC5/CapSense_CSHL.c ****     1u, /* Button1__BTN */
  79:.\Generated_Source\PSoC5/CapSense_CSHL.c **** 
  80:.\Generated_Source\PSoC5/CapSense_CSHL.c **** };
  81:.\Generated_Source\PSoC5/CapSense_CSHL.c **** 
  82:.\Generated_Source\PSoC5/CapSense_CSHL.c **** const uint16 CYCODE CapSense_centroidMult[] = {
  83:.\Generated_Source\PSoC5/CapSense_CSHL.c ****     6400u, 
  84:.\Generated_Source\PSoC5/CapSense_CSHL.c **** };
  85:.\Generated_Source\PSoC5/CapSense_CSHL.c **** 
  86:.\Generated_Source\PSoC5/CapSense_CSHL.c **** const uint8 CYCODE CapSense_posFiltersMask[] = {
  87:.\Generated_Source\PSoC5/CapSense_CSHL.c ****     0x8u, 
  88:.\Generated_Source\PSoC5/CapSense_CSHL.c **** };
ARM GAS  C:\Users\JohnP\AppData\Local\Temp\cc4GrDuO.s 			page 3


  89:.\Generated_Source\PSoC5/CapSense_CSHL.c **** 
  90:.\Generated_Source\PSoC5/CapSense_CSHL.c **** uint8 CapSense_posFiltersData[] = {
  91:.\Generated_Source\PSoC5/CapSense_CSHL.c ****     1u, 0u, 0u, 
  92:.\Generated_Source\PSoC5/CapSense_CSHL.c **** };
  93:.\Generated_Source\PSoC5/CapSense_CSHL.c **** 
  94:.\Generated_Source\PSoC5/CapSense_CSHL.c **** 
  95:.\Generated_Source\PSoC5/CapSense_CSHL.c **** 
  96:.\Generated_Source\PSoC5/CapSense_CSHL.c **** 
  97:.\Generated_Source\PSoC5/CapSense_CSHL.c **** /*******************************************************************************
  98:.\Generated_Source\PSoC5/CapSense_CSHL.c **** * Function Name: CapSense_BaseInit
  99:.\Generated_Source\PSoC5/CapSense_CSHL.c **** ********************************************************************************
 100:.\Generated_Source\PSoC5/CapSense_CSHL.c **** *
 101:.\Generated_Source\PSoC5/CapSense_CSHL.c **** * Summary:
 102:.\Generated_Source\PSoC5/CapSense_CSHL.c **** *  Loads the CapSense_sensorBaseline[sensor] array element with an 
 103:.\Generated_Source\PSoC5/CapSense_CSHL.c **** *  initial value which is equal to raw count value. 
 104:.\Generated_Source\PSoC5/CapSense_CSHL.c **** *  Resets to zero CapSense_sensorBaselineLow[sensor] and 
 105:.\Generated_Source\PSoC5/CapSense_CSHL.c **** *  CapSense_sensorSignal[sensor] array element.
 106:.\Generated_Source\PSoC5/CapSense_CSHL.c **** *  Loads CapSense_debounceCounter[sensor] array element with initial 
 107:.\Generated_Source\PSoC5/CapSense_CSHL.c **** *  value equal CapSense_debounce[].
 108:.\Generated_Source\PSoC5/CapSense_CSHL.c **** *  Loads the CapSense_rawFilterData2[sensor] and 
 109:.\Generated_Source\PSoC5/CapSense_CSHL.c **** *  CapSense_rawFilterData2[sensor] array element with an 
 110:.\Generated_Source\PSoC5/CapSense_CSHL.c **** *  initial value which is equal raw count value if raw data filter is enabled.
 111:.\Generated_Source\PSoC5/CapSense_CSHL.c **** *
 112:.\Generated_Source\PSoC5/CapSense_CSHL.c **** * Parameters:
 113:.\Generated_Source\PSoC5/CapSense_CSHL.c **** *  sensor:  Sensor number.
 114:.\Generated_Source\PSoC5/CapSense_CSHL.c **** *
 115:.\Generated_Source\PSoC5/CapSense_CSHL.c **** * Return:
 116:.\Generated_Source\PSoC5/CapSense_CSHL.c **** *  None
 117:.\Generated_Source\PSoC5/CapSense_CSHL.c **** *
 118:.\Generated_Source\PSoC5/CapSense_CSHL.c **** * Global Variables:
 119:.\Generated_Source\PSoC5/CapSense_CSHL.c **** *  CapSense_sensorBaseline[]    - used to store baseline value.
 120:.\Generated_Source\PSoC5/CapSense_CSHL.c **** *  CapSense_sensorBaselineLow[] - used to store fraction byte of 
 121:.\Generated_Source\PSoC5/CapSense_CSHL.c **** *  baseline value.
 122:.\Generated_Source\PSoC5/CapSense_CSHL.c **** *  CapSense_sensorSignal[]      - used to store diffence between 
 123:.\Generated_Source\PSoC5/CapSense_CSHL.c **** *  current value of raw data and previous value of baseline.
 124:.\Generated_Source\PSoC5/CapSense_CSHL.c **** *  CapSense_debounceCounter[]   - used to store current debounce 
 125:.\Generated_Source\PSoC5/CapSense_CSHL.c **** *  counter of sensor. Widget which has this parameter are buttons, matrix 
 126:.\Generated_Source\PSoC5/CapSense_CSHL.c **** *  buttons, proximity, guard. All other widgets haven't debounce parameter
 127:.\Generated_Source\PSoC5/CapSense_CSHL.c **** *  and use the last element of this array with value 0 (it means no debounce).
 128:.\Generated_Source\PSoC5/CapSense_CSHL.c **** *  CapSense_rawFilterData1[]    - used to store previous sample of 
 129:.\Generated_Source\PSoC5/CapSense_CSHL.c **** *  any enabled raw data filter.
 130:.\Generated_Source\PSoC5/CapSense_CSHL.c **** *  CapSense_rawFilterData2[]    - used to store before previous sample
 131:.\Generated_Source\PSoC5/CapSense_CSHL.c **** *  of enabled raw data filter. Only required for median or average filters.
 132:.\Generated_Source\PSoC5/CapSense_CSHL.c **** *
 133:.\Generated_Source\PSoC5/CapSense_CSHL.c **** * Reentrant:
 134:.\Generated_Source\PSoC5/CapSense_CSHL.c **** *  No
 135:.\Generated_Source\PSoC5/CapSense_CSHL.c **** *
 136:.\Generated_Source\PSoC5/CapSense_CSHL.c **** *******************************************************************************/
 137:.\Generated_Source\PSoC5/CapSense_CSHL.c **** void CapSense_BaseInit(uint8 sensor) 
 138:.\Generated_Source\PSoC5/CapSense_CSHL.c **** {
  27              		.loc 1 138 0
  28              		.cfi_startproc
  29              		@ args = 0, pretend = 0, frame = 0
  30              		@ frame_needed = 0, uses_anonymous_args = 0
  31              		@ link register save eliminated.
  32              	.LVL0:
 139:.\Generated_Source\PSoC5/CapSense_CSHL.c ****     #if ((CapSense_TOTAL_BUTTONS_COUNT) || (CapSense_TOTAL_MATRIX_BUTTONS_COUNT) || \
ARM GAS  C:\Users\JohnP\AppData\Local\Temp\cc4GrDuO.s 			page 4


 140:.\Generated_Source\PSoC5/CapSense_CSHL.c ****          (CapSense_TOTAL_GENERICS_COUNT))
 141:.\Generated_Source\PSoC5/CapSense_CSHL.c ****         uint8 widget = CapSense_widgetNumber[sensor];
  33              		.loc 1 141 0
  34 0000 094B     		ldr	r3, .L3
  35 0002 1B5C     		ldrb	r3, [r3, r0]	@ zero_extendqisi2
  36              	.LVL1:
 142:.\Generated_Source\PSoC5/CapSense_CSHL.c ****     #endif /* ((CapSense_TOTAL_MATRIX_BUTTONS_COUNT) || (CapSense_TOTAL_MATRIX_BUTTONS_COUNT)) */
 143:.\Generated_Source\PSoC5/CapSense_CSHL.c ****     
 144:.\Generated_Source\PSoC5/CapSense_CSHL.c ****     #if (CapSense_TOTAL_MATRIX_BUTTONS_COUNT)
 145:.\Generated_Source\PSoC5/CapSense_CSHL.c ****         uint8 debounceIndex;
 146:.\Generated_Source\PSoC5/CapSense_CSHL.c ****     #endif  /* (CapSense_TOTAL_MATRIX_BUTTONS_COUNT) */
 147:.\Generated_Source\PSoC5/CapSense_CSHL.c ****     
 148:.\Generated_Source\PSoC5/CapSense_CSHL.c ****     #if (CapSense_TOTAL_GENERICS_COUNT)
 149:.\Generated_Source\PSoC5/CapSense_CSHL.c ****         /* Exclude generic widget */
 150:.\Generated_Source\PSoC5/CapSense_CSHL.c ****         if(widget < CapSense_END_OF_WIDGETS_INDEX)
 151:.\Generated_Source\PSoC5/CapSense_CSHL.c ****         {
 152:.\Generated_Source\PSoC5/CapSense_CSHL.c ****     #endif  /* CapSense_TOTAL_GENERICS_COUNT */
 153:.\Generated_Source\PSoC5/CapSense_CSHL.c ****     
 154:.\Generated_Source\PSoC5/CapSense_CSHL.c ****     /* Initialize Baseline */
 155:.\Generated_Source\PSoC5/CapSense_CSHL.c ****     CapSense_sensorBaseline[sensor] = CapSense_sensorRaw[sensor];
  37              		.loc 1 155 0
  38 0004 094A     		ldr	r2, .L3+4
  39 0006 32F81010 		ldrh	r1, [r2, r0, lsl #1]
  40 000a 094A     		ldr	r2, .L3+8
  41 000c 22F81010 		strh	r1, [r2, r0, lsl #1]	@ movhi
 156:.\Generated_Source\PSoC5/CapSense_CSHL.c ****     CapSense_sensorBaselineLow[sensor] = 0u;
  42              		.loc 1 156 0
  43 0010 0022     		movs	r2, #0
  44 0012 0849     		ldr	r1, .L3+12
  45 0014 0A54     		strb	r2, [r1, r0]
 157:.\Generated_Source\PSoC5/CapSense_CSHL.c ****     CapSense_sensorSignal[sensor] = 0u;
  46              		.loc 1 157 0
  47 0016 0849     		ldr	r1, .L3+16
  48 0018 0A54     		strb	r2, [r1, r0]
 158:.\Generated_Source\PSoC5/CapSense_CSHL.c ****         
 159:.\Generated_Source\PSoC5/CapSense_CSHL.c ****     if(widget > CapSense_END_OF_TOUCH_PAD_INDEX)
  49              		.loc 1 159 0
  50 001a 23B1     		cbz	r3, .L1
 160:.\Generated_Source\PSoC5/CapSense_CSHL.c ****     {
 161:.\Generated_Source\PSoC5/CapSense_CSHL.c ****         CapSense_debounceCounter[widget - (CapSense_END_OF_TOUCH_PAD_INDEX + 1)] =  CapSense_deboun
  51              		.loc 1 161 0
  52 001c 5A1E     		subs	r2, r3, #1
  53 001e 0749     		ldr	r1, .L3+20
  54 0020 C95C     		ldrb	r1, [r1, r3]	@ zero_extendqisi2
  55 0022 074B     		ldr	r3, .L3+24
  56 0024 9954     		strb	r1, [r3, r2]
  57              	.L1:
  58 0026 7047     		bx	lr
  59              	.L4:
  60              		.align	2
  61              	.L3:
  62 0028 00000000 		.word	CapSense_widgetNumber
  63 002c 00000000 		.word	CapSense_sensorRaw
  64 0030 00000000 		.word	CapSense_sensorBaseline
  65 0034 00000000 		.word	CapSense_sensorBaselineLow
  66 0038 00000000 		.word	CapSense_sensorSignal
  67 003c 00000000 		.word	.LANCHOR0
ARM GAS  C:\Users\JohnP\AppData\Local\Temp\cc4GrDuO.s 			page 5


  68 0040 00000000 		.word	.LANCHOR1
  69              		.cfi_endproc
  70              	.LFE0:
  71              		.size	CapSense_BaseInit, .-CapSense_BaseInit
  72              		.section	.text.CapSense_InitializeSensorBaseline,"ax",%progbits
  73              		.align	2
  74              		.global	CapSense_InitializeSensorBaseline
  75              		.thumb
  76              		.thumb_func
  77              		.type	CapSense_InitializeSensorBaseline, %function
  78              	CapSense_InitializeSensorBaseline:
  79              	.LFB1:
 162:.\Generated_Source\PSoC5/CapSense_CSHL.c ****     }
 163:.\Generated_Source\PSoC5/CapSense_CSHL.c **** 
 164:.\Generated_Source\PSoC5/CapSense_CSHL.c ****     
 165:.\Generated_Source\PSoC5/CapSense_CSHL.c ****     #if ((CapSense_RAW_FILTER_MASK & CapSense_MEDIAN_FILTER) |\
 166:.\Generated_Source\PSoC5/CapSense_CSHL.c ****          (CapSense_RAW_FILTER_MASK & CapSense_AVERAGING_FILTER))
 167:.\Generated_Source\PSoC5/CapSense_CSHL.c **** 
 168:.\Generated_Source\PSoC5/CapSense_CSHL.c ****         CapSense_rawFilterData1[sensor] = CapSense_sensorRaw[sensor];
 169:.\Generated_Source\PSoC5/CapSense_CSHL.c ****         CapSense_rawFilterData2[sensor] = CapSense_sensorRaw[sensor];
 170:.\Generated_Source\PSoC5/CapSense_CSHL.c ****     
 171:.\Generated_Source\PSoC5/CapSense_CSHL.c ****     #elif ((CapSense_RAW_FILTER_MASK & CapSense_IIR2_FILTER) |\
 172:.\Generated_Source\PSoC5/CapSense_CSHL.c ****            (CapSense_RAW_FILTER_MASK & CapSense_IIR4_FILTER) |\
 173:.\Generated_Source\PSoC5/CapSense_CSHL.c ****            (CapSense_RAW_FILTER_MASK & CapSense_JITTER_FILTER) |\
 174:.\Generated_Source\PSoC5/CapSense_CSHL.c ****            (CapSense_RAW_FILTER_MASK & CapSense_IIR8_FILTER) |\
 175:.\Generated_Source\PSoC5/CapSense_CSHL.c ****            (CapSense_RAW_FILTER_MASK & CapSense_IIR16_FILTER))
 176:.\Generated_Source\PSoC5/CapSense_CSHL.c ****             
 177:.\Generated_Source\PSoC5/CapSense_CSHL.c ****         CapSense_rawFilterData1[sensor] = CapSense_sensorRaw[sensor];
 178:.\Generated_Source\PSoC5/CapSense_CSHL.c ****     
 179:.\Generated_Source\PSoC5/CapSense_CSHL.c ****     #else
 180:.\Generated_Source\PSoC5/CapSense_CSHL.c ****         /* No Raw filters */
 181:.\Generated_Source\PSoC5/CapSense_CSHL.c ****     #endif  /* ((CapSense_RAW_FILTER_MASK & CapSense_MEDIAN_FILTER) | \
 182:.\Generated_Source\PSoC5/CapSense_CSHL.c ****             *   (CapSense_RAW_FILTER_MASK & CapSense_AVERAGING_FILTER))
 183:.\Generated_Source\PSoC5/CapSense_CSHL.c ****             */
 184:.\Generated_Source\PSoC5/CapSense_CSHL.c ****     
 185:.\Generated_Source\PSoC5/CapSense_CSHL.c ****     #if (CapSense_TOTAL_GENERICS_COUNT)
 186:.\Generated_Source\PSoC5/CapSense_CSHL.c ****         /* Exclude generic widget */
 187:.\Generated_Source\PSoC5/CapSense_CSHL.c ****         }
 188:.\Generated_Source\PSoC5/CapSense_CSHL.c ****     #endif  /* CapSense_TOTAL_GENERICS_COUNT */
 189:.\Generated_Source\PSoC5/CapSense_CSHL.c **** }
 190:.\Generated_Source\PSoC5/CapSense_CSHL.c **** 
 191:.\Generated_Source\PSoC5/CapSense_CSHL.c **** 
 192:.\Generated_Source\PSoC5/CapSense_CSHL.c **** /*******************************************************************************
 193:.\Generated_Source\PSoC5/CapSense_CSHL.c **** * Function Name: CapSense_InitializeSensorBaseline
 194:.\Generated_Source\PSoC5/CapSense_CSHL.c **** ********************************************************************************
 195:.\Generated_Source\PSoC5/CapSense_CSHL.c **** *
 196:.\Generated_Source\PSoC5/CapSense_CSHL.c **** * Summary:
 197:.\Generated_Source\PSoC5/CapSense_CSHL.c **** *  Loads the CapSense_sensorBaseline[sensor] array element with an 
 198:.\Generated_Source\PSoC5/CapSense_CSHL.c **** *  initial value by scanning the selected sensor (one channel design) or pair 
 199:.\Generated_Source\PSoC5/CapSense_CSHL.c **** *  of sensors (two channels designs). The raw count value is copied into the 
 200:.\Generated_Source\PSoC5/CapSense_CSHL.c **** *  baseline array for each sensor. The raw data filters are initialized if 
 201:.\Generated_Source\PSoC5/CapSense_CSHL.c **** *  enabled.
 202:.\Generated_Source\PSoC5/CapSense_CSHL.c **** *
 203:.\Generated_Source\PSoC5/CapSense_CSHL.c **** * Parameters:
 204:.\Generated_Source\PSoC5/CapSense_CSHL.c **** *  sensor:  Sensor number.
 205:.\Generated_Source\PSoC5/CapSense_CSHL.c **** *
 206:.\Generated_Source\PSoC5/CapSense_CSHL.c **** * Return:
ARM GAS  C:\Users\JohnP\AppData\Local\Temp\cc4GrDuO.s 			page 6


 207:.\Generated_Source\PSoC5/CapSense_CSHL.c **** *  None
 208:.\Generated_Source\PSoC5/CapSense_CSHL.c **** *
 209:.\Generated_Source\PSoC5/CapSense_CSHL.c **** * Reentrant:
 210:.\Generated_Source\PSoC5/CapSense_CSHL.c **** *  No
 211:.\Generated_Source\PSoC5/CapSense_CSHL.c **** *
 212:.\Generated_Source\PSoC5/CapSense_CSHL.c **** *******************************************************************************/
 213:.\Generated_Source\PSoC5/CapSense_CSHL.c **** void CapSense_InitializeSensorBaseline(uint8 sensor)
 214:.\Generated_Source\PSoC5/CapSense_CSHL.c ****                           
 215:.\Generated_Source\PSoC5/CapSense_CSHL.c **** {
  80              		.loc 1 215 0
  81              		.cfi_startproc
  82              		@ args = 0, pretend = 0, frame = 0
  83              		@ frame_needed = 0, uses_anonymous_args = 0
  84              	.LVL2:
  85 0000 10B5     		push	{r4, lr}
  86              		.cfi_def_cfa_offset 8
  87              		.cfi_offset 4, -8
  88              		.cfi_offset 14, -4
  89 0002 0446     		mov	r4, r0
 216:.\Generated_Source\PSoC5/CapSense_CSHL.c ****     /* Scan sensor */
 217:.\Generated_Source\PSoC5/CapSense_CSHL.c ****     CapSense_ScanSensor(sensor);
  90              		.loc 1 217 0
  91 0004 FFF7FEFF 		bl	CapSense_ScanSensor
  92              	.LVL3:
  93              	.L6:
 218:.\Generated_Source\PSoC5/CapSense_CSHL.c ****     while(CapSense_IsBusy() != 0u)
  94              		.loc 1 218 0 discriminator 1
  95 0008 FFF7FEFF 		bl	CapSense_IsBusy
  96              	.LVL4:
  97 000c 0028     		cmp	r0, #0
  98 000e FBD1     		bne	.L6
 219:.\Generated_Source\PSoC5/CapSense_CSHL.c ****     {
 220:.\Generated_Source\PSoC5/CapSense_CSHL.c ****         /* Wait while busy */
 221:.\Generated_Source\PSoC5/CapSense_CSHL.c ****     }
 222:.\Generated_Source\PSoC5/CapSense_CSHL.c ****     
 223:.\Generated_Source\PSoC5/CapSense_CSHL.c ****     #if (CapSense_DESIGN_TYPE == CapSense_ONE_CHANNEL_DESIGN)
 224:.\Generated_Source\PSoC5/CapSense_CSHL.c ****         /* Initialize Baseline, Signal and debounce counters */       
 225:.\Generated_Source\PSoC5/CapSense_CSHL.c ****         CapSense_BaseInit(sensor);
  99              		.loc 1 225 0
 100 0010 2046     		mov	r0, r4
 101 0012 FFF7FEFF 		bl	CapSense_BaseInit
 102              	.LVL5:
 103 0016 10BD     		pop	{r4, pc}
 104              		.cfi_endproc
 105              	.LFE1:
 106              		.size	CapSense_InitializeSensorBaseline, .-CapSense_InitializeSensorBaseline
 107              		.section	.text.CapSense_InitializeAllBaselines,"ax",%progbits
 108              		.align	2
 109              		.global	CapSense_InitializeAllBaselines
 110              		.thumb
 111              		.thumb_func
 112              		.type	CapSense_InitializeAllBaselines, %function
 113              	CapSense_InitializeAllBaselines:
 114              	.LFB2:
 226:.\Generated_Source\PSoC5/CapSense_CSHL.c ****         
 227:.\Generated_Source\PSoC5/CapSense_CSHL.c ****     #else
 228:.\Generated_Source\PSoC5/CapSense_CSHL.c ****     
ARM GAS  C:\Users\JohnP\AppData\Local\Temp\cc4GrDuO.s 			page 7


 229:.\Generated_Source\PSoC5/CapSense_CSHL.c ****         if(sensor < CapSense_TOTAL_SENSOR_COUNT__CH0)
 230:.\Generated_Source\PSoC5/CapSense_CSHL.c ****         {
 231:.\Generated_Source\PSoC5/CapSense_CSHL.c ****             /* Initialize Baseline, Signal and debounce counters */ 
 232:.\Generated_Source\PSoC5/CapSense_CSHL.c ****             CapSense_BaseInit(sensor);
 233:.\Generated_Source\PSoC5/CapSense_CSHL.c ****         }
 234:.\Generated_Source\PSoC5/CapSense_CSHL.c ****         
 235:.\Generated_Source\PSoC5/CapSense_CSHL.c ****         if(sensor < CapSense_TOTAL_SENSOR_COUNT__CH1)
 236:.\Generated_Source\PSoC5/CapSense_CSHL.c ****         {
 237:.\Generated_Source\PSoC5/CapSense_CSHL.c ****             /* Initialize Baseline, Signal and debounce counters */
 238:.\Generated_Source\PSoC5/CapSense_CSHL.c ****             CapSense_BaseInit(sensor + CapSense_TOTAL_SENSOR_COUNT__CH0);
 239:.\Generated_Source\PSoC5/CapSense_CSHL.c ****         }
 240:.\Generated_Source\PSoC5/CapSense_CSHL.c ****     
 241:.\Generated_Source\PSoC5/CapSense_CSHL.c ****     #endif  /* (CapSense_DESIGN_TYPE == CapSense_ONE_CHANNEL_DESIGN) */
 242:.\Generated_Source\PSoC5/CapSense_CSHL.c **** }
 243:.\Generated_Source\PSoC5/CapSense_CSHL.c **** 
 244:.\Generated_Source\PSoC5/CapSense_CSHL.c **** 
 245:.\Generated_Source\PSoC5/CapSense_CSHL.c **** /*******************************************************************************
 246:.\Generated_Source\PSoC5/CapSense_CSHL.c **** * Function Name: CapSense_InitializeAllBaselines
 247:.\Generated_Source\PSoC5/CapSense_CSHL.c **** ********************************************************************************
 248:.\Generated_Source\PSoC5/CapSense_CSHL.c **** *
 249:.\Generated_Source\PSoC5/CapSense_CSHL.c **** * Summary:
 250:.\Generated_Source\PSoC5/CapSense_CSHL.c **** *  Uses the CapSense_InitializeSensorBaseline function to loads the 
 251:.\Generated_Source\PSoC5/CapSense_CSHL.c **** *  CapSense_sensorBaseline[] array with an initial values by scanning 
 252:.\Generated_Source\PSoC5/CapSense_CSHL.c **** *  all sensors. The raw count values are copied into the baseline array for 
 253:.\Generated_Source\PSoC5/CapSense_CSHL.c **** *  all sensors. The raw data filters are initialized if enabled.
 254:.\Generated_Source\PSoC5/CapSense_CSHL.c **** *
 255:.\Generated_Source\PSoC5/CapSense_CSHL.c **** * Parameters:
 256:.\Generated_Source\PSoC5/CapSense_CSHL.c **** *  None
 257:.\Generated_Source\PSoC5/CapSense_CSHL.c **** *
 258:.\Generated_Source\PSoC5/CapSense_CSHL.c **** * Return:
 259:.\Generated_Source\PSoC5/CapSense_CSHL.c **** *  None
 260:.\Generated_Source\PSoC5/CapSense_CSHL.c **** *
 261:.\Generated_Source\PSoC5/CapSense_CSHL.c **** * Reentrant:
 262:.\Generated_Source\PSoC5/CapSense_CSHL.c **** *  No
 263:.\Generated_Source\PSoC5/CapSense_CSHL.c **** *
 264:.\Generated_Source\PSoC5/CapSense_CSHL.c **** *******************************************************************************/
 265:.\Generated_Source\PSoC5/CapSense_CSHL.c **** void CapSense_InitializeAllBaselines(void)
 266:.\Generated_Source\PSoC5/CapSense_CSHL.c ****                           
 267:.\Generated_Source\PSoC5/CapSense_CSHL.c **** {
 115              		.loc 1 267 0
 116              		.cfi_startproc
 117              		@ args = 0, pretend = 0, frame = 0
 118              		@ frame_needed = 0, uses_anonymous_args = 0
 119 0000 10B5     		push	{r4, lr}
 120              		.cfi_def_cfa_offset 8
 121              		.cfi_offset 4, -8
 122              		.cfi_offset 14, -4
 123              	.LVL6:
 268:.\Generated_Source\PSoC5/CapSense_CSHL.c ****     uint8 i;
 269:.\Generated_Source\PSoC5/CapSense_CSHL.c ****     
 270:.\Generated_Source\PSoC5/CapSense_CSHL.c ****     /* The baseline initialize by sensor of sensor pair */
 271:.\Generated_Source\PSoC5/CapSense_CSHL.c ****     for(i = 0u; i < CapSense_TOTAL_SCANSLOT_COUNT; i++)
 124              		.loc 1 271 0
 125 0002 0024     		movs	r4, #0
 126 0004 04E0     		b	.L9
 127              	.LVL7:
 128              	.L10:
ARM GAS  C:\Users\JohnP\AppData\Local\Temp\cc4GrDuO.s 			page 8


 272:.\Generated_Source\PSoC5/CapSense_CSHL.c ****     {
 273:.\Generated_Source\PSoC5/CapSense_CSHL.c ****         CapSense_InitializeSensorBaseline(i);
 129              		.loc 1 273 0 discriminator 2
 130 0006 2046     		mov	r0, r4
 131 0008 FFF7FEFF 		bl	CapSense_InitializeSensorBaseline
 132              	.LVL8:
 271:.\Generated_Source\PSoC5/CapSense_CSHL.c ****     for(i = 0u; i < CapSense_TOTAL_SCANSLOT_COUNT; i++)
 133              		.loc 1 271 0 discriminator 2
 134 000c 0134     		adds	r4, r4, #1
 135              	.LVL9:
 136 000e E4B2     		uxtb	r4, r4
 137              	.LVL10:
 138              	.L9:
 271:.\Generated_Source\PSoC5/CapSense_CSHL.c ****     for(i = 0u; i < CapSense_TOTAL_SCANSLOT_COUNT; i++)
 139              		.loc 1 271 0 is_stmt 0 discriminator 1
 140 0010 062C     		cmp	r4, #6
 141 0012 F8D9     		bls	.L10
 274:.\Generated_Source\PSoC5/CapSense_CSHL.c ****     }
 275:.\Generated_Source\PSoC5/CapSense_CSHL.c **** }
 142              		.loc 1 275 0 is_stmt 1
 143 0014 10BD     		pop	{r4, pc}
 144              		.cfi_endproc
 145              	.LFE2:
 146              		.size	CapSense_InitializeAllBaselines, .-CapSense_InitializeAllBaselines
 147 0016 00BF     		.section	.text.CapSense_InitializeEnabledBaselines,"ax",%progbits
 148              		.align	2
 149              		.global	CapSense_InitializeEnabledBaselines
 150              		.thumb
 151              		.thumb_func
 152              		.type	CapSense_InitializeEnabledBaselines, %function
 153              	CapSense_InitializeEnabledBaselines:
 154              	.LFB3:
 276:.\Generated_Source\PSoC5/CapSense_CSHL.c **** 
 277:.\Generated_Source\PSoC5/CapSense_CSHL.c **** 
 278:.\Generated_Source\PSoC5/CapSense_CSHL.c **** /*******************************************************************************
 279:.\Generated_Source\PSoC5/CapSense_CSHL.c **** * Function Name: CapSense_InitializeEnabledBaselines
 280:.\Generated_Source\PSoC5/CapSense_CSHL.c **** ********************************************************************************
 281:.\Generated_Source\PSoC5/CapSense_CSHL.c **** *
 282:.\Generated_Source\PSoC5/CapSense_CSHL.c **** * Summary:
 283:.\Generated_Source\PSoC5/CapSense_CSHL.c **** *  Scans all enabled widgets and the raw count values are copied into the 
 284:.\Generated_Source\PSoC5/CapSense_CSHL.c **** *  baseline array for all sensors enabled in scanning process. Baselines 
 285:.\Generated_Source\PSoC5/CapSense_CSHL.c **** *  initialize with zero values for sensors disabled from scanning process. 
 286:.\Generated_Source\PSoC5/CapSense_CSHL.c **** *  The raw data filters are initialized if enabled.
 287:.\Generated_Source\PSoC5/CapSense_CSHL.c **** *
 288:.\Generated_Source\PSoC5/CapSense_CSHL.c **** * Parameters:
 289:.\Generated_Source\PSoC5/CapSense_CSHL.c **** *  None
 290:.\Generated_Source\PSoC5/CapSense_CSHL.c **** *
 291:.\Generated_Source\PSoC5/CapSense_CSHL.c **** * Return:
 292:.\Generated_Source\PSoC5/CapSense_CSHL.c **** *  None
 293:.\Generated_Source\PSoC5/CapSense_CSHL.c **** *
 294:.\Generated_Source\PSoC5/CapSense_CSHL.c **** * Reentrant:
 295:.\Generated_Source\PSoC5/CapSense_CSHL.c **** *  No
 296:.\Generated_Source\PSoC5/CapSense_CSHL.c **** *
 297:.\Generated_Source\PSoC5/CapSense_CSHL.c **** *******************************************************************************/
 298:.\Generated_Source\PSoC5/CapSense_CSHL.c **** void CapSense_InitializeEnabledBaselines(void)
 299:.\Generated_Source\PSoC5/CapSense_CSHL.c ****                              
 300:.\Generated_Source\PSoC5/CapSense_CSHL.c **** {
ARM GAS  C:\Users\JohnP\AppData\Local\Temp\cc4GrDuO.s 			page 9


 155              		.loc 1 300 0
 156              		.cfi_startproc
 157              		@ args = 0, pretend = 0, frame = 0
 158              		@ frame_needed = 0, uses_anonymous_args = 0
 159 0000 F8B5     		push	{r3, r4, r5, r6, r7, lr}
 160              		.cfi_def_cfa_offset 24
 161              		.cfi_offset 3, -24
 162              		.cfi_offset 4, -20
 163              		.cfi_offset 5, -16
 164              		.cfi_offset 6, -12
 165              		.cfi_offset 7, -8
 166              		.cfi_offset 14, -4
 301:.\Generated_Source\PSoC5/CapSense_CSHL.c ****     uint8 i;
 302:.\Generated_Source\PSoC5/CapSense_CSHL.c ****     uint8 pos;
 303:.\Generated_Source\PSoC5/CapSense_CSHL.c ****     uint8 enMask;
 304:.\Generated_Source\PSoC5/CapSense_CSHL.c ****     
 305:.\Generated_Source\PSoC5/CapSense_CSHL.c ****     CapSense_ScanEnabledWidgets();
 167              		.loc 1 305 0
 168 0002 FFF7FEFF 		bl	CapSense_ScanEnabledWidgets
 169              	.LVL11:
 170              	.L12:
 306:.\Generated_Source\PSoC5/CapSense_CSHL.c ****     while(CapSense_IsBusy() != 0u)
 171              		.loc 1 306 0 discriminator 1
 172 0006 FFF7FEFF 		bl	CapSense_IsBusy
 173              	.LVL12:
 174 000a 0028     		cmp	r0, #0
 175 000c FBD1     		bne	.L12
 176 000e 0024     		movs	r4, #0
 307:.\Generated_Source\PSoC5/CapSense_CSHL.c ****     {
 308:.\Generated_Source\PSoC5/CapSense_CSHL.c ****         /* Wait while busy */
 309:.\Generated_Source\PSoC5/CapSense_CSHL.c ****     }
 310:.\Generated_Source\PSoC5/CapSense_CSHL.c ****     
 311:.\Generated_Source\PSoC5/CapSense_CSHL.c ****     for(i = 0u; i < CapSense_TOTAL_SENSOR_COUNT; i++)
 312:.\Generated_Source\PSoC5/CapSense_CSHL.c ****     {
 313:.\Generated_Source\PSoC5/CapSense_CSHL.c ****         pos = (i >> 3u);
 314:.\Generated_Source\PSoC5/CapSense_CSHL.c ****         enMask = 0x01u << (i & 0x07u);
 177              		.loc 1 314 0
 178 0010 0126     		movs	r6, #1
 315:.\Generated_Source\PSoC5/CapSense_CSHL.c ****         
 316:.\Generated_Source\PSoC5/CapSense_CSHL.c ****         /* Clear raw data if sensor is disabled from scanning process */
 317:.\Generated_Source\PSoC5/CapSense_CSHL.c ****         if((CapSense_sensorEnableMask[pos] & enMask) == 0u)
 179              		.loc 1 317 0
 180 0012 0B4D     		ldr	r5, .L17
 318:.\Generated_Source\PSoC5/CapSense_CSHL.c ****         {
 319:.\Generated_Source\PSoC5/CapSense_CSHL.c ****             CapSense_sensorRaw[i] = 0u;
 181              		.loc 1 319 0
 182 0014 0B4F     		ldr	r7, .L17+4
 183 0016 0FE0     		b	.L13
 184              	.LVL13:
 185              	.L15:
 313:.\Generated_Source\PSoC5/CapSense_CSHL.c ****         pos = (i >> 3u);
 186              		.loc 1 313 0
 187 0018 E308     		lsrs	r3, r4, #3
 314:.\Generated_Source\PSoC5/CapSense_CSHL.c ****         enMask = 0x01u << (i & 0x07u);
 188              		.loc 1 314 0
 189 001a 04F00702 		and	r2, r4, #7
 190 001e 06FA02F2 		lsl	r2, r6, r2
ARM GAS  C:\Users\JohnP\AppData\Local\Temp\cc4GrDuO.s 			page 10


 191              	.LVL14:
 317:.\Generated_Source\PSoC5/CapSense_CSHL.c ****         if((CapSense_sensorEnableMask[pos] & enMask) == 0u)
 192              		.loc 1 317 0
 193 0022 EB5C     		ldrb	r3, [r5, r3]	@ zero_extendqisi2
 194 0024 1A42     		tst	r2, r3
 195 0026 02D1     		bne	.L14
 196              		.loc 1 319 0
 197 0028 0023     		movs	r3, #0
 198 002a 27F81430 		strh	r3, [r7, r4, lsl #1]	@ movhi
 199              	.L14:
 320:.\Generated_Source\PSoC5/CapSense_CSHL.c ****         }
 321:.\Generated_Source\PSoC5/CapSense_CSHL.c ****         
 322:.\Generated_Source\PSoC5/CapSense_CSHL.c ****         /* Initialize baselines */
 323:.\Generated_Source\PSoC5/CapSense_CSHL.c ****         CapSense_BaseInit(i);
 200              		.loc 1 323 0
 201 002e 2046     		mov	r0, r4
 202 0030 FFF7FEFF 		bl	CapSense_BaseInit
 203              	.LVL15:
 311:.\Generated_Source\PSoC5/CapSense_CSHL.c ****     for(i = 0u; i < CapSense_TOTAL_SENSOR_COUNT; i++)
 204              		.loc 1 311 0
 205 0034 0134     		adds	r4, r4, #1
 206              	.LVL16:
 207 0036 E4B2     		uxtb	r4, r4
 208              	.LVL17:
 209              	.L13:
 311:.\Generated_Source\PSoC5/CapSense_CSHL.c ****     for(i = 0u; i < CapSense_TOTAL_SENSOR_COUNT; i++)
 210              		.loc 1 311 0 is_stmt 0 discriminator 1
 211 0038 062C     		cmp	r4, #6
 212 003a EDD9     		bls	.L15
 324:.\Generated_Source\PSoC5/CapSense_CSHL.c ****     }
 325:.\Generated_Source\PSoC5/CapSense_CSHL.c **** }  
 213              		.loc 1 325 0 is_stmt 1
 214 003c F8BD     		pop	{r3, r4, r5, r6, r7, pc}
 215              	.LVL18:
 216              	.L18:
 217 003e 00BF     		.align	2
 218              	.L17:
 219 0040 00000000 		.word	CapSense_sensorEnableMask
 220 0044 00000000 		.word	CapSense_sensorRaw
 221              		.cfi_endproc
 222              	.LFE3:
 223              		.size	CapSense_InitializeEnabledBaselines, .-CapSense_InitializeEnabledBaselines
 224              		.section	.text.CapSense_UpdateSensorBaseline,"ax",%progbits
 225              		.align	2
 226              		.global	CapSense_UpdateSensorBaseline
 227              		.thumb
 228              		.thumb_func
 229              		.type	CapSense_UpdateSensorBaseline, %function
 230              	CapSense_UpdateSensorBaseline:
 231              	.LFB4:
 326:.\Generated_Source\PSoC5/CapSense_CSHL.c **** 
 327:.\Generated_Source\PSoC5/CapSense_CSHL.c **** 
 328:.\Generated_Source\PSoC5/CapSense_CSHL.c **** /*******************************************************************************
 329:.\Generated_Source\PSoC5/CapSense_CSHL.c **** * Function Name: CapSense_UpdateSensorBaseline
 330:.\Generated_Source\PSoC5/CapSense_CSHL.c **** ********************************************************************************
 331:.\Generated_Source\PSoC5/CapSense_CSHL.c **** *
 332:.\Generated_Source\PSoC5/CapSense_CSHL.c **** * Summary:
ARM GAS  C:\Users\JohnP\AppData\Local\Temp\cc4GrDuO.s 			page 11


 333:.\Generated_Source\PSoC5/CapSense_CSHL.c **** *  Updates the CapSense_sensorBaseline[sensor] array element using the 
 334:.\Generated_Source\PSoC5/CapSense_CSHL.c **** *  LP filter with k = 256. The signal calculates the difference of count by 
 335:.\Generated_Source\PSoC5/CapSense_CSHL.c **** *  subtracting the previous baseline from the current raw count value and stores
 336:.\Generated_Source\PSoC5/CapSense_CSHL.c **** *  it in CapSense_SensorSignal[sensor]. 
 337:.\Generated_Source\PSoC5/CapSense_CSHL.c **** *  If auto reset option is enabled the baseline updated regards noise threshold. 
 338:.\Generated_Source\PSoC5/CapSense_CSHL.c **** *  If auto reset option is disabled the baseline stops updating if signal is 
 339:.\Generated_Source\PSoC5/CapSense_CSHL.c **** *  greater that zero and baseline loads with raw count value if signal is less 
 340:.\Generated_Source\PSoC5/CapSense_CSHL.c **** *  that noise threshold.
 341:.\Generated_Source\PSoC5/CapSense_CSHL.c **** *  Raw data filters are applied to the values if enabled before baseline 
 342:.\Generated_Source\PSoC5/CapSense_CSHL.c **** *  calculation.
 343:.\Generated_Source\PSoC5/CapSense_CSHL.c **** *
 344:.\Generated_Source\PSoC5/CapSense_CSHL.c **** * Parameters:
 345:.\Generated_Source\PSoC5/CapSense_CSHL.c **** *  sensor:  Sensor number.
 346:.\Generated_Source\PSoC5/CapSense_CSHL.c **** *
 347:.\Generated_Source\PSoC5/CapSense_CSHL.c **** * Return:
 348:.\Generated_Source\PSoC5/CapSense_CSHL.c **** *  None
 349:.\Generated_Source\PSoC5/CapSense_CSHL.c **** *
 350:.\Generated_Source\PSoC5/CapSense_CSHL.c **** * Global Variables:
 351:.\Generated_Source\PSoC5/CapSense_CSHL.c **** *  CapSense_sensorBaseline[]    - used to store baseline value.
 352:.\Generated_Source\PSoC5/CapSense_CSHL.c **** *  CapSense_sensorBaselineLow[] - used to store fraction byte of 
 353:.\Generated_Source\PSoC5/CapSense_CSHL.c **** *  baseline value.
 354:.\Generated_Source\PSoC5/CapSense_CSHL.c **** *  CapSense_sensorSignal[]      - used to store diffence between 
 355:.\Generated_Source\PSoC5/CapSense_CSHL.c **** *  current value of raw data and previous value of baseline.
 356:.\Generated_Source\PSoC5/CapSense_CSHL.c **** *  CapSense_rawFilterData1[]    - used to store previous sample of 
 357:.\Generated_Source\PSoC5/CapSense_CSHL.c **** *  any enabled raw data filter.
 358:.\Generated_Source\PSoC5/CapSense_CSHL.c **** *  CapSense_rawFilterData2[]    - used to store before previous sample
 359:.\Generated_Source\PSoC5/CapSense_CSHL.c **** *  of enabled raw data filter. Only required for median or average filters.
 360:.\Generated_Source\PSoC5/CapSense_CSHL.c **** *
 361:.\Generated_Source\PSoC5/CapSense_CSHL.c **** * Reentrant:
 362:.\Generated_Source\PSoC5/CapSense_CSHL.c **** *  No
 363:.\Generated_Source\PSoC5/CapSense_CSHL.c **** *
 364:.\Generated_Source\PSoC5/CapSense_CSHL.c **** *******************************************************************************/
 365:.\Generated_Source\PSoC5/CapSense_CSHL.c ****  void CapSense_UpdateSensorBaseline(uint8 sensor)
 366:.\Generated_Source\PSoC5/CapSense_CSHL.c ****                                  
 367:.\Generated_Source\PSoC5/CapSense_CSHL.c **** {
 232              		.loc 1 367 0
 233              		.cfi_startproc
 234              		@ args = 0, pretend = 0, frame = 0
 235              		@ frame_needed = 0, uses_anonymous_args = 0
 236              	.LVL19:
 237 0000 2DE9F041 		push	{r4, r5, r6, r7, r8, lr}
 238              		.cfi_def_cfa_offset 24
 239              		.cfi_offset 4, -24
 240              		.cfi_offset 5, -20
 241              		.cfi_offset 6, -16
 242              		.cfi_offset 7, -12
 243              		.cfi_offset 8, -8
 244              		.cfi_offset 14, -4
 245 0004 0446     		mov	r4, r0
 368:.\Generated_Source\PSoC5/CapSense_CSHL.c ****     uint32 calc;
 369:.\Generated_Source\PSoC5/CapSense_CSHL.c ****     uint16 tempRaw;
 370:.\Generated_Source\PSoC5/CapSense_CSHL.c ****     uint16 filteredRawData;
 371:.\Generated_Source\PSoC5/CapSense_CSHL.c ****     uint8 widget = CapSense_widgetNumber[sensor];
 246              		.loc 1 371 0
 247 0006 2B4B     		ldr	r3, .L29
 248 0008 1B5C     		ldrb	r3, [r3, r0]	@ zero_extendqisi2
 249              	.LVL20:
ARM GAS  C:\Users\JohnP\AppData\Local\Temp\cc4GrDuO.s 			page 12


 372:.\Generated_Source\PSoC5/CapSense_CSHL.c ****     uint8 noiseThreshold = CapSense_noiseThreshold[widget];
 250              		.loc 1 372 0
 251 000a 2B4A     		ldr	r2, .L29+4
 252 000c 1344     		add	r3, r3, r2
 253 000e 1F79     		ldrb	r7, [r3, #4]	@ zero_extendqisi2
 254              	.LVL21:
 373:.\Generated_Source\PSoC5/CapSense_CSHL.c ****     
 374:.\Generated_Source\PSoC5/CapSense_CSHL.c ****     #if (CapSense_TOTAL_GENERICS_COUNT)
 375:.\Generated_Source\PSoC5/CapSense_CSHL.c ****         /* Exclude generic widget */
 376:.\Generated_Source\PSoC5/CapSense_CSHL.c ****         if(widget < CapSense_END_OF_WIDGETS_INDEX)
 377:.\Generated_Source\PSoC5/CapSense_CSHL.c ****         {
 378:.\Generated_Source\PSoC5/CapSense_CSHL.c ****     #endif  /* CapSense_TOTAL_GENERICS_COUNT */
 379:.\Generated_Source\PSoC5/CapSense_CSHL.c ****     
 380:.\Generated_Source\PSoC5/CapSense_CSHL.c ****     filteredRawData = CapSense_sensorRaw[sensor];
 255              		.loc 1 380 0
 256 0010 2A4B     		ldr	r3, .L29+8
 257              	.LVL22:
 258 0012 33F81060 		ldrh	r6, [r3, r0, lsl #1]
 259              	.LVL23:
 381:.\Generated_Source\PSoC5/CapSense_CSHL.c ****     
 382:.\Generated_Source\PSoC5/CapSense_CSHL.c ****     #if (CapSense_RAW_FILTER_MASK & CapSense_MEDIAN_FILTER)
 383:.\Generated_Source\PSoC5/CapSense_CSHL.c ****         tempRaw = filteredRawData;
 384:.\Generated_Source\PSoC5/CapSense_CSHL.c ****         filteredRawData = CapSense_MedianFilter(filteredRawData, CapSense_rawFilterData1[sensor], 
 385:.\Generated_Source\PSoC5/CapSense_CSHL.c ****                                                         CapSense_rawFilterData2[sensor]);
 386:.\Generated_Source\PSoC5/CapSense_CSHL.c ****         CapSense_rawFilterData2[sensor] = CapSense_rawFilterData1[sensor];
 387:.\Generated_Source\PSoC5/CapSense_CSHL.c ****         CapSense_rawFilterData1[sensor] = tempRaw;
 388:.\Generated_Source\PSoC5/CapSense_CSHL.c ****         
 389:.\Generated_Source\PSoC5/CapSense_CSHL.c ****     #elif (CapSense_RAW_FILTER_MASK & CapSense_AVERAGING_FILTER)
 390:.\Generated_Source\PSoC5/CapSense_CSHL.c ****         tempRaw = filteredRawData;
 391:.\Generated_Source\PSoC5/CapSense_CSHL.c ****         filteredRawData = CapSense_AveragingFilter(filteredRawData, CapSense_rawFilterData1[sensor]
 392:.\Generated_Source\PSoC5/CapSense_CSHL.c ****                                                            CapSense_rawFilterData2[sensor]);
 393:.\Generated_Source\PSoC5/CapSense_CSHL.c ****         CapSense_rawFilterData2[sensor] = CapSense_rawFilterData1[sensor];
 394:.\Generated_Source\PSoC5/CapSense_CSHL.c ****         CapSense_rawFilterData1[sensor] = tempRaw;
 395:.\Generated_Source\PSoC5/CapSense_CSHL.c ****         
 396:.\Generated_Source\PSoC5/CapSense_CSHL.c ****     #elif (CapSense_RAW_FILTER_MASK & CapSense_IIR2_FILTER)
 397:.\Generated_Source\PSoC5/CapSense_CSHL.c ****         filteredRawData = CapSense_IIR2Filter(filteredRawData, CapSense_rawFilterData1[sensor]);
 398:.\Generated_Source\PSoC5/CapSense_CSHL.c ****         CapSense_rawFilterData1[sensor] = filteredRawData;
 399:.\Generated_Source\PSoC5/CapSense_CSHL.c ****         
 400:.\Generated_Source\PSoC5/CapSense_CSHL.c ****     #elif (CapSense_RAW_FILTER_MASK & CapSense_IIR4_FILTER)
 401:.\Generated_Source\PSoC5/CapSense_CSHL.c ****         filteredRawData = CapSense_IIR4Filter(filteredRawData, CapSense_rawFilterData1[sensor]);
 402:.\Generated_Source\PSoC5/CapSense_CSHL.c ****         CapSense_rawFilterData1[sensor] = filteredRawData;
 403:.\Generated_Source\PSoC5/CapSense_CSHL.c ****             
 404:.\Generated_Source\PSoC5/CapSense_CSHL.c ****     #elif (CapSense_RAW_FILTER_MASK & CapSense_JITTER_FILTER)
 405:.\Generated_Source\PSoC5/CapSense_CSHL.c ****         filteredRawData = CapSense_JitterFilter(filteredRawData, CapSense_rawFilterData1[sensor]);
 406:.\Generated_Source\PSoC5/CapSense_CSHL.c ****         CapSense_rawFilterData1[sensor] = filteredRawData;
 407:.\Generated_Source\PSoC5/CapSense_CSHL.c ****         
 408:.\Generated_Source\PSoC5/CapSense_CSHL.c ****     #elif (CapSense_RAW_FILTER_MASK & CapSense_IIR8_FILTER)
 409:.\Generated_Source\PSoC5/CapSense_CSHL.c ****         filteredRawData = CapSense_IIR8Filter(filteredRawData, CapSense_rawFilterData1[sensor]);
 410:.\Generated_Source\PSoC5/CapSense_CSHL.c ****         CapSense_rawFilterData1[sensor] = filteredRawData;
 411:.\Generated_Source\PSoC5/CapSense_CSHL.c ****         
 412:.\Generated_Source\PSoC5/CapSense_CSHL.c ****     #elif (CapSense_RAW_FILTER_MASK & CapSense_IIR16_FILTER)
 413:.\Generated_Source\PSoC5/CapSense_CSHL.c ****         filteredRawData = CapSense_IIR16Filter(filteredRawData, CapSense_rawFilterData1[sensor]);
 414:.\Generated_Source\PSoC5/CapSense_CSHL.c ****         CapSense_rawFilterData1[sensor] = filteredRawData;
 415:.\Generated_Source\PSoC5/CapSense_CSHL.c ****         
 416:.\Generated_Source\PSoC5/CapSense_CSHL.c ****     #else
 417:.\Generated_Source\PSoC5/CapSense_CSHL.c ****         /* No Raw filters */
 418:.\Generated_Source\PSoC5/CapSense_CSHL.c ****     #endif  /* (CapSense_RAW_FILTER_MASK & CapSense_MEDIAN_FILTER) */
ARM GAS  C:\Users\JohnP\AppData\Local\Temp\cc4GrDuO.s 			page 13


 419:.\Generated_Source\PSoC5/CapSense_CSHL.c ****     
 420:.\Generated_Source\PSoC5/CapSense_CSHL.c ****     #if (CapSense_TUNING_METHOD == CapSense_AUTO_TUNING)
 421:.\Generated_Source\PSoC5/CapSense_CSHL.c ****         CapSense_CalculateThresholds(sensor);
 260              		.loc 1 421 0
 261 0016 FFF7FEFF 		bl	CapSense_CalculateThresholds
 262              	.LVL24:
 422:.\Generated_Source\PSoC5/CapSense_CSHL.c ****     #endif /* (CapSense_TUNING_METHOD == CapSense_AUTO_TUNING) */
 423:.\Generated_Source\PSoC5/CapSense_CSHL.c **** 
 424:.\Generated_Source\PSoC5/CapSense_CSHL.c **** 
 425:.\Generated_Source\PSoC5/CapSense_CSHL.c ****     /* Baseline calculation */
 426:.\Generated_Source\PSoC5/CapSense_CSHL.c ****     /* Calculate difference RawData[cur] - Baseline[prev] */
 427:.\Generated_Source\PSoC5/CapSense_CSHL.c ****     if(filteredRawData >= CapSense_sensorBaseline[sensor])
 263              		.loc 1 427 0
 264 001a 294B     		ldr	r3, .L29+12
 265 001c 33F81430 		ldrh	r3, [r3, r4, lsl #1]
 266 0020 B342     		cmp	r3, r6
 267 0022 04D8     		bhi	.L20
 428:.\Generated_Source\PSoC5/CapSense_CSHL.c ****     {
 429:.\Generated_Source\PSoC5/CapSense_CSHL.c ****         tempRaw = filteredRawData - CapSense_sensorBaseline[sensor];
 268              		.loc 1 429 0
 269 0024 F51A     		subs	r5, r6, r3
 270 0026 ADB2     		uxth	r5, r5
 271              	.LVL25:
 430:.\Generated_Source\PSoC5/CapSense_CSHL.c ****         widget = 1u;    /* Positive difference - Calculate the Signal */
 272              		.loc 1 430 0
 273 0028 4FF00108 		mov	r8, #1
 274 002c 03E0     		b	.L21
 275              	.LVL26:
 276              	.L20:
 431:.\Generated_Source\PSoC5/CapSense_CSHL.c ****     }
 432:.\Generated_Source\PSoC5/CapSense_CSHL.c ****     else
 433:.\Generated_Source\PSoC5/CapSense_CSHL.c ****     {
 434:.\Generated_Source\PSoC5/CapSense_CSHL.c ****         tempRaw = CapSense_sensorBaseline[sensor] - filteredRawData;
 277              		.loc 1 434 0
 278 002e 9D1B     		subs	r5, r3, r6
 279 0030 ADB2     		uxth	r5, r5
 280              	.LVL27:
 435:.\Generated_Source\PSoC5/CapSense_CSHL.c ****         widget = 0u;    /* Negative difference - Do NOT calculate the Signal */
 281              		.loc 1 435 0
 282 0032 4FF00008 		mov	r8, #0
 283              	.LVL28:
 284              	.L21:
 436:.\Generated_Source\PSoC5/CapSense_CSHL.c ****     }
 437:.\Generated_Source\PSoC5/CapSense_CSHL.c **** 
 438:.\Generated_Source\PSoC5/CapSense_CSHL.c ****     if((widget == 0u) && (tempRaw > (uint16) CapSense_NEGATIVE_NOISE_THRESHOLD))
 285              		.loc 1 438 0
 286 0036 B8F1000F 		cmp	r8, #0
 287 003a 10D1     		bne	.L22
 288              		.loc 1 438 0 is_stmt 0 discriminator 1
 289 003c 142D     		cmp	r5, #20
 290 003e 0ED9     		bls	.L22
 439:.\Generated_Source\PSoC5/CapSense_CSHL.c ****     {
 440:.\Generated_Source\PSoC5/CapSense_CSHL.c ****         if(CapSense_lowBaselineResetCnt[sensor] >= CapSense_LOW_BASELINE_RESET)
 291              		.loc 1 440 0 is_stmt 1
 292 0040 204B     		ldr	r3, .L29+16
 293 0042 1B5D     		ldrb	r3, [r3, r4]	@ zero_extendqisi2
 294 0044 042B     		cmp	r3, #4
ARM GAS  C:\Users\JohnP\AppData\Local\Temp\cc4GrDuO.s 			page 14


 295 0046 06D9     		bls	.L23
 441:.\Generated_Source\PSoC5/CapSense_CSHL.c ****         {
 442:.\Generated_Source\PSoC5/CapSense_CSHL.c ****             CapSense_BaseInit(sensor);
 296              		.loc 1 442 0
 297 0048 2046     		mov	r0, r4
 298 004a FFF7FEFF 		bl	CapSense_BaseInit
 299              	.LVL29:
 443:.\Generated_Source\PSoC5/CapSense_CSHL.c ****             CapSense_lowBaselineResetCnt[sensor] = 0u;
 300              		.loc 1 443 0
 301 004e 0022     		movs	r2, #0
 302 0050 1C4B     		ldr	r3, .L29+16
 303 0052 1A55     		strb	r2, [r3, r4]
 304 0054 19E0     		b	.L24
 305              	.L23:
 444:.\Generated_Source\PSoC5/CapSense_CSHL.c ****         }
 445:.\Generated_Source\PSoC5/CapSense_CSHL.c ****         else
 446:.\Generated_Source\PSoC5/CapSense_CSHL.c ****         {
 447:.\Generated_Source\PSoC5/CapSense_CSHL.c ****             CapSense_lowBaselineResetCnt[sensor]++;
 306              		.loc 1 447 0
 307 0056 0133     		adds	r3, r3, #1
 308 0058 1A4A     		ldr	r2, .L29+16
 309 005a 1355     		strb	r3, [r2, r4]
 310 005c 15E0     		b	.L24
 311              	.L22:
 448:.\Generated_Source\PSoC5/CapSense_CSHL.c ****         }
 449:.\Generated_Source\PSoC5/CapSense_CSHL.c ****     }
 450:.\Generated_Source\PSoC5/CapSense_CSHL.c ****     else
 451:.\Generated_Source\PSoC5/CapSense_CSHL.c ****     {
 452:.\Generated_Source\PSoC5/CapSense_CSHL.c ****         #if (CapSense_AUTO_RESET == CapSense_AUTO_RESET_DISABLE)
 453:.\Generated_Source\PSoC5/CapSense_CSHL.c ****             /* Update Baseline if lower that noiseThreshold */
 454:.\Generated_Source\PSoC5/CapSense_CSHL.c ****             if ( (tempRaw <= (uint16) noiseThreshold) || 
 312              		.loc 1 454 0
 313 005e AF42     		cmp	r7, r5
 314 0060 04D2     		bcs	.L25
 315              		.loc 1 454 0 is_stmt 0 discriminator 1
 316 0062 132D     		cmp	r5, #19
 317 0064 11D8     		bhi	.L24
 455:.\Generated_Source\PSoC5/CapSense_CSHL.c ****                  ((tempRaw < (uint16) CapSense_NEGATIVE_NOISE_THRESHOLD)
 456:.\Generated_Source\PSoC5/CapSense_CSHL.c ****                    && (widget == 0u)))
 318              		.loc 1 456 0 is_stmt 1
 319 0066 B8F1000F 		cmp	r8, #0
 320 006a 0ED1     		bne	.L24
 321              	.L25:
 322              	.LVL30:
 457:.\Generated_Source\PSoC5/CapSense_CSHL.c ****             {
 458:.\Generated_Source\PSoC5/CapSense_CSHL.c ****         #endif /* (CapSense_AUTO_RESET == CapSense_AUTO_RESET_DISABLE) */
 459:.\Generated_Source\PSoC5/CapSense_CSHL.c ****                 /* Make full Baseline 23 bits */
 460:.\Generated_Source\PSoC5/CapSense_CSHL.c ****                 calc = (uint32) CapSense_sensorBaseline[sensor] << 8u;
 461:.\Generated_Source\PSoC5/CapSense_CSHL.c ****                 calc |= (uint32) CapSense_sensorBaselineLow[sensor];
 323              		.loc 1 461 0
 324 006c 164A     		ldr	r2, .L29+20
 325 006e 115D     		ldrb	r1, [r2, r4]	@ zero_extendqisi2
 326 0070 41EA0321 		orr	r1, r1, r3, lsl #8
 327              	.LVL31:
 462:.\Generated_Source\PSoC5/CapSense_CSHL.c **** 
 463:.\Generated_Source\PSoC5/CapSense_CSHL.c ****                 /* Add Raw Data to Baseline */
 464:.\Generated_Source\PSoC5/CapSense_CSHL.c ****                 calc += filteredRawData;
ARM GAS  C:\Users\JohnP\AppData\Local\Temp\cc4GrDuO.s 			page 15


 328              		.loc 1 464 0
 329 0074 0E44     		add	r6, r6, r1
 330              	.LVL32:
 465:.\Generated_Source\PSoC5/CapSense_CSHL.c **** 
 466:.\Generated_Source\PSoC5/CapSense_CSHL.c ****                 /* Sub the high Baseline */
 467:.\Generated_Source\PSoC5/CapSense_CSHL.c ****                 calc -= CapSense_sensorBaseline[sensor];
 331              		.loc 1 467 0
 332 0076 F31A     		subs	r3, r6, r3
 333              	.LVL33:
 468:.\Generated_Source\PSoC5/CapSense_CSHL.c **** 
 469:.\Generated_Source\PSoC5/CapSense_CSHL.c ****                 /* Put Baseline and BaselineLow */
 470:.\Generated_Source\PSoC5/CapSense_CSHL.c ****                 CapSense_sensorBaseline[sensor] = ((uint16) (calc >> 8u));
 334              		.loc 1 470 0
 335 0078 C3F30F20 		ubfx	r0, r3, #8, #16
 336 007c 1049     		ldr	r1, .L29+12
 337 007e 21F81400 		strh	r0, [r1, r4, lsl #1]	@ movhi
 471:.\Generated_Source\PSoC5/CapSense_CSHL.c ****                 CapSense_sensorBaselineLow[sensor] = ((uint8) calc);
 338              		.loc 1 471 0
 339 0082 1355     		strb	r3, [r2, r4]
 472:.\Generated_Source\PSoC5/CapSense_CSHL.c **** 
 473:.\Generated_Source\PSoC5/CapSense_CSHL.c ****                 CapSense_lowBaselineResetCnt[sensor] = 0u;
 340              		.loc 1 473 0
 341 0084 0022     		movs	r2, #0
 342 0086 0F4B     		ldr	r3, .L29+16
 343              	.LVL34:
 344 0088 1A55     		strb	r2, [r3, r4]
 345              	.L24:
 474:.\Generated_Source\PSoC5/CapSense_CSHL.c ****         #if (CapSense_AUTO_RESET == CapSense_AUTO_RESET_DISABLE)
 475:.\Generated_Source\PSoC5/CapSense_CSHL.c ****             }
 476:.\Generated_Source\PSoC5/CapSense_CSHL.c ****         #endif /* (CapSense_AUTO_RESET == CapSense_AUTO_RESET_DISABLE) */
 477:.\Generated_Source\PSoC5/CapSense_CSHL.c ****     }
 478:.\Generated_Source\PSoC5/CapSense_CSHL.c **** 
 479:.\Generated_Source\PSoC5/CapSense_CSHL.c ****     /* Calculate Signal if possitive difference > noiseThreshold */
 480:.\Generated_Source\PSoC5/CapSense_CSHL.c ****     if((tempRaw > (uint16) noiseThreshold) && (widget != 0u))
 346              		.loc 1 480 0
 347 008a AF42     		cmp	r7, r5
 348 008c 0DD2     		bcs	.L26
 349              		.loc 1 480 0 is_stmt 0 discriminator 1
 350 008e B8F1000F 		cmp	r8, #0
 351 0092 0AD0     		beq	.L26
 481:.\Generated_Source\PSoC5/CapSense_CSHL.c ****     {
 482:.\Generated_Source\PSoC5/CapSense_CSHL.c ****         #if (CapSense_SIGNAL_SIZE == CapSense_SIGNAL_SIZE_UINT8)
 483:.\Generated_Source\PSoC5/CapSense_CSHL.c ****             /* Over flow defence for uint8 */
 484:.\Generated_Source\PSoC5/CapSense_CSHL.c ****             if (tempRaw > 0xFFu)
 352              		.loc 1 484 0 is_stmt 1
 353 0094 FF2D     		cmp	r5, #255
 354 0096 04D9     		bls	.L27
 485:.\Generated_Source\PSoC5/CapSense_CSHL.c ****             {
 486:.\Generated_Source\PSoC5/CapSense_CSHL.c ****                 CapSense_sensorSignal[sensor] = 0xFFu;
 355              		.loc 1 486 0
 356 0098 FF22     		movs	r2, #255
 357 009a 0C4B     		ldr	r3, .L29+24
 358 009c 1A55     		strb	r2, [r3, r4]
 359 009e BDE8F081 		pop	{r4, r5, r6, r7, r8, pc}
 360              	.LVL35:
 361              	.L27:
 487:.\Generated_Source\PSoC5/CapSense_CSHL.c ****             }    
ARM GAS  C:\Users\JohnP\AppData\Local\Temp\cc4GrDuO.s 			page 16


 488:.\Generated_Source\PSoC5/CapSense_CSHL.c ****             else 
 489:.\Generated_Source\PSoC5/CapSense_CSHL.c ****             {
 490:.\Generated_Source\PSoC5/CapSense_CSHL.c ****                 CapSense_sensorSignal[sensor] = ((uint8) tempRaw);
 362              		.loc 1 490 0
 363 00a2 0A4B     		ldr	r3, .L29+24
 364 00a4 1D55     		strb	r5, [r3, r4]
 365 00a6 BDE8F081 		pop	{r4, r5, r6, r7, r8, pc}
 366              	.LVL36:
 367              	.L26:
 491:.\Generated_Source\PSoC5/CapSense_CSHL.c ****             }
 492:.\Generated_Source\PSoC5/CapSense_CSHL.c ****         #else
 493:.\Generated_Source\PSoC5/CapSense_CSHL.c ****             CapSense_sensorSignal[sensor] = ((uint16) tempRaw);
 494:.\Generated_Source\PSoC5/CapSense_CSHL.c ****         #endif  /* (CapSense_SIGNAL_SIZE == CapSense_SIGNAL_SIZE_UINT8) */
 495:.\Generated_Source\PSoC5/CapSense_CSHL.c ****     }
 496:.\Generated_Source\PSoC5/CapSense_CSHL.c ****     else
 497:.\Generated_Source\PSoC5/CapSense_CSHL.c ****     {
 498:.\Generated_Source\PSoC5/CapSense_CSHL.c ****         /* Signal is zero */
 499:.\Generated_Source\PSoC5/CapSense_CSHL.c ****         CapSense_sensorSignal[sensor] = 0u;
 368              		.loc 1 499 0
 369 00aa 0022     		movs	r2, #0
 370 00ac 074B     		ldr	r3, .L29+24
 371 00ae 1A55     		strb	r2, [r3, r4]
 372 00b0 BDE8F081 		pop	{r4, r5, r6, r7, r8, pc}
 373              	.LVL37:
 374              	.L30:
 375              		.align	2
 376              	.L29:
 377 00b4 00000000 		.word	CapSense_widgetNumber
 378 00b8 00000000 		.word	.LANCHOR0
 379 00bc 00000000 		.word	CapSense_sensorRaw
 380 00c0 00000000 		.word	CapSense_sensorBaseline
 381 00c4 00000000 		.word	CapSense_lowBaselineResetCnt
 382 00c8 00000000 		.word	CapSense_sensorBaselineLow
 383 00cc 00000000 		.word	CapSense_sensorSignal
 384              		.cfi_endproc
 385              	.LFE4:
 386              		.size	CapSense_UpdateSensorBaseline, .-CapSense_UpdateSensorBaseline
 387              		.section	.text.CapSense_UpdateEnabledBaselines,"ax",%progbits
 388              		.align	2
 389              		.global	CapSense_UpdateEnabledBaselines
 390              		.thumb
 391              		.thumb_func
 392              		.type	CapSense_UpdateEnabledBaselines, %function
 393              	CapSense_UpdateEnabledBaselines:
 394              	.LFB5:
 500:.\Generated_Source\PSoC5/CapSense_CSHL.c ****     }
 501:.\Generated_Source\PSoC5/CapSense_CSHL.c **** 
 502:.\Generated_Source\PSoC5/CapSense_CSHL.c ****     #if (CapSense_TOTAL_GENERICS_COUNT)
 503:.\Generated_Source\PSoC5/CapSense_CSHL.c ****         /* Exclude generic widget */
 504:.\Generated_Source\PSoC5/CapSense_CSHL.c ****         }
 505:.\Generated_Source\PSoC5/CapSense_CSHL.c ****     #endif  /* CapSense_TOTAL_GENERICS_COUNT */
 506:.\Generated_Source\PSoC5/CapSense_CSHL.c **** }
 507:.\Generated_Source\PSoC5/CapSense_CSHL.c **** 
 508:.\Generated_Source\PSoC5/CapSense_CSHL.c **** 
 509:.\Generated_Source\PSoC5/CapSense_CSHL.c **** /*******************************************************************************
 510:.\Generated_Source\PSoC5/CapSense_CSHL.c **** * Function Name: CapSense_UpdateEnabledBaselines
 511:.\Generated_Source\PSoC5/CapSense_CSHL.c **** ********************************************************************************
ARM GAS  C:\Users\JohnP\AppData\Local\Temp\cc4GrDuO.s 			page 17


 512:.\Generated_Source\PSoC5/CapSense_CSHL.c **** *
 513:.\Generated_Source\PSoC5/CapSense_CSHL.c **** * Summary:
 514:.\Generated_Source\PSoC5/CapSense_CSHL.c **** *  Checks CapSense_sensorEnableMask[] array and calls the 
 515:.\Generated_Source\PSoC5/CapSense_CSHL.c **** *  CapSense_UpdateSensorBaseline function to update the baselines 
 516:.\Generated_Source\PSoC5/CapSense_CSHL.c **** *  for enabled sensors.
 517:.\Generated_Source\PSoC5/CapSense_CSHL.c **** *
 518:.\Generated_Source\PSoC5/CapSense_CSHL.c **** * Parameters:
 519:.\Generated_Source\PSoC5/CapSense_CSHL.c **** *  None
 520:.\Generated_Source\PSoC5/CapSense_CSHL.c **** *
 521:.\Generated_Source\PSoC5/CapSense_CSHL.c **** * Return:
 522:.\Generated_Source\PSoC5/CapSense_CSHL.c **** *  None
 523:.\Generated_Source\PSoC5/CapSense_CSHL.c **** *
 524:.\Generated_Source\PSoC5/CapSense_CSHL.c **** * Global Variables:
 525:.\Generated_Source\PSoC5/CapSense_CSHL.c **** *  CapSense_sensorEnableMask[] - used to store the sensor scanning 
 526:.\Generated_Source\PSoC5/CapSense_CSHL.c **** *  state.
 527:.\Generated_Source\PSoC5/CapSense_CSHL.c **** *  CapSense_sensorEnableMask[0] contains the masked bits for sensors 
 528:.\Generated_Source\PSoC5/CapSense_CSHL.c **** *   0 through 7 (sensor 0 is bit 0, sensor 1 is bit 1).
 529:.\Generated_Source\PSoC5/CapSense_CSHL.c **** *  CapSense_sensorEnableMask[1] contains the masked bits for 
 530:.\Generated_Source\PSoC5/CapSense_CSHL.c **** *  sensors 8 through 15 (if needed), and so on.
 531:.\Generated_Source\PSoC5/CapSense_CSHL.c **** *  0 - sensor doesn't scan by CapSense_ScanEnabledWidgets().
 532:.\Generated_Source\PSoC5/CapSense_CSHL.c **** *  1 - sensor scans by CapSense_ScanEnabledWidgets().
 533:.\Generated_Source\PSoC5/CapSense_CSHL.c **** *
 534:.\Generated_Source\PSoC5/CapSense_CSHL.c **** * Reentrant:
 535:.\Generated_Source\PSoC5/CapSense_CSHL.c **** *  No
 536:.\Generated_Source\PSoC5/CapSense_CSHL.c **** *
 537:.\Generated_Source\PSoC5/CapSense_CSHL.c **** *******************************************************************************/
 538:.\Generated_Source\PSoC5/CapSense_CSHL.c ****  void CapSense_UpdateEnabledBaselines(void)
 539:.\Generated_Source\PSoC5/CapSense_CSHL.c ****                                  
 540:.\Generated_Source\PSoC5/CapSense_CSHL.c **** {
 395              		.loc 1 540 0
 396              		.cfi_startproc
 397              		@ args = 0, pretend = 0, frame = 0
 398              		@ frame_needed = 0, uses_anonymous_args = 0
 399 0000 70B5     		push	{r4, r5, r6, lr}
 400              		.cfi_def_cfa_offset 16
 401              		.cfi_offset 4, -16
 402              		.cfi_offset 5, -12
 403              		.cfi_offset 6, -8
 404              		.cfi_offset 14, -4
 405              	.LVL38:
 541:.\Generated_Source\PSoC5/CapSense_CSHL.c ****     uint8 i;
 542:.\Generated_Source\PSoC5/CapSense_CSHL.c ****     uint8 pos;
 543:.\Generated_Source\PSoC5/CapSense_CSHL.c ****     uint8 enMask;
 544:.\Generated_Source\PSoC5/CapSense_CSHL.c ****     
 545:.\Generated_Source\PSoC5/CapSense_CSHL.c ****     for(i = 0u; i < CapSense_TOTAL_SENSOR_COUNT; i++)
 406              		.loc 1 545 0
 407 0002 0024     		movs	r4, #0
 546:.\Generated_Source\PSoC5/CapSense_CSHL.c ****     {
 547:.\Generated_Source\PSoC5/CapSense_CSHL.c ****         pos = (i >> 3u);
 548:.\Generated_Source\PSoC5/CapSense_CSHL.c ****         enMask = (uint8)(0x01u << (i & 0x07u));
 408              		.loc 1 548 0
 409 0004 0126     		movs	r6, #1
 549:.\Generated_Source\PSoC5/CapSense_CSHL.c ****         if((CapSense_sensorEnableMask[pos] & enMask) != 0u)
 410              		.loc 1 549 0
 411 0006 094D     		ldr	r5, .L35
 545:.\Generated_Source\PSoC5/CapSense_CSHL.c ****     for(i = 0u; i < CapSense_TOTAL_SENSOR_COUNT; i++)
 412              		.loc 1 545 0
ARM GAS  C:\Users\JohnP\AppData\Local\Temp\cc4GrDuO.s 			page 18


 413 0008 0CE0     		b	.L32
 414              	.LVL39:
 415              	.L34:
 547:.\Generated_Source\PSoC5/CapSense_CSHL.c ****         pos = (i >> 3u);
 416              		.loc 1 547 0
 417 000a E308     		lsrs	r3, r4, #3
 548:.\Generated_Source\PSoC5/CapSense_CSHL.c ****         enMask = (uint8)(0x01u << (i & 0x07u));
 418              		.loc 1 548 0
 419 000c 04F00702 		and	r2, r4, #7
 420 0010 06FA02F2 		lsl	r2, r6, r2
 421              	.LVL40:
 422              		.loc 1 549 0
 423 0014 EB5C     		ldrb	r3, [r5, r3]	@ zero_extendqisi2
 424 0016 1A42     		tst	r2, r3
 425 0018 02D0     		beq	.L33
 550:.\Generated_Source\PSoC5/CapSense_CSHL.c ****         {
 551:.\Generated_Source\PSoC5/CapSense_CSHL.c ****             CapSense_UpdateSensorBaseline(i);
 426              		.loc 1 551 0
 427 001a 2046     		mov	r0, r4
 428 001c FFF7FEFF 		bl	CapSense_UpdateSensorBaseline
 429              	.LVL41:
 430              	.L33:
 545:.\Generated_Source\PSoC5/CapSense_CSHL.c ****     for(i = 0u; i < CapSense_TOTAL_SENSOR_COUNT; i++)
 431              		.loc 1 545 0
 432 0020 0134     		adds	r4, r4, #1
 433              	.LVL42:
 434 0022 E4B2     		uxtb	r4, r4
 435              	.LVL43:
 436              	.L32:
 545:.\Generated_Source\PSoC5/CapSense_CSHL.c ****     for(i = 0u; i < CapSense_TOTAL_SENSOR_COUNT; i++)
 437              		.loc 1 545 0 is_stmt 0 discriminator 1
 438 0024 062C     		cmp	r4, #6
 439 0026 F0D9     		bls	.L34
 552:.\Generated_Source\PSoC5/CapSense_CSHL.c ****         }
 553:.\Generated_Source\PSoC5/CapSense_CSHL.c ****     }
 554:.\Generated_Source\PSoC5/CapSense_CSHL.c **** }
 440              		.loc 1 554 0 is_stmt 1
 441 0028 70BD     		pop	{r4, r5, r6, pc}
 442              	.LVL44:
 443              	.L36:
 444 002a 00BF     		.align	2
 445              	.L35:
 446 002c 00000000 		.word	CapSense_sensorEnableMask
 447              		.cfi_endproc
 448              	.LFE5:
 449              		.size	CapSense_UpdateEnabledBaselines, .-CapSense_UpdateEnabledBaselines
 450              		.section	.text.CapSense_CheckIsSensorActive,"ax",%progbits
 451              		.align	2
 452              		.global	CapSense_CheckIsSensorActive
 453              		.thumb
 454              		.thumb_func
 455              		.type	CapSense_CheckIsSensorActive, %function
 456              	CapSense_CheckIsSensorActive:
 457              	.LFB6:
 555:.\Generated_Source\PSoC5/CapSense_CSHL.c **** 
 556:.\Generated_Source\PSoC5/CapSense_CSHL.c **** 
 557:.\Generated_Source\PSoC5/CapSense_CSHL.c **** /*******************************************************************************
ARM GAS  C:\Users\JohnP\AppData\Local\Temp\cc4GrDuO.s 			page 19


 558:.\Generated_Source\PSoC5/CapSense_CSHL.c **** * Function Name: CapSense_CheckIsSensorActive
 559:.\Generated_Source\PSoC5/CapSense_CSHL.c **** ********************************************************************************
 560:.\Generated_Source\PSoC5/CapSense_CSHL.c **** *
 561:.\Generated_Source\PSoC5/CapSense_CSHL.c **** * Summary:
 562:.\Generated_Source\PSoC5/CapSense_CSHL.c **** *  Compares the CapSense_SensorSignal[sensor] array element to finger
 563:.\Generated_Source\PSoC5/CapSense_CSHL.c **** *  threshold of widget it belongs to. The hysteresis and debounce are taken into 
 564:.\Generated_Source\PSoC5/CapSense_CSHL.c **** *  account. The hysteresis is added or subtracted from the finger threshold 
 565:.\Generated_Source\PSoC5/CapSense_CSHL.c **** *  based on whether the sensor is currently active. 
 566:.\Generated_Source\PSoC5/CapSense_CSHL.c **** *  If the sensor is active, the threshold is lowered by the hysteresis amount.
 567:.\Generated_Source\PSoC5/CapSense_CSHL.c **** *  If the sensor is inactive, the threshold is raised by the hysteresis amount.
 568:.\Generated_Source\PSoC5/CapSense_CSHL.c **** *  The debounce counter added to the sensor active transition.
 569:.\Generated_Source\PSoC5/CapSense_CSHL.c **** *  This function updates CapSense_SensorOnMask[] array element.
 570:.\Generated_Source\PSoC5/CapSense_CSHL.c **** *
 571:.\Generated_Source\PSoC5/CapSense_CSHL.c **** * Parameters:
 572:.\Generated_Source\PSoC5/CapSense_CSHL.c **** *  sensor:  Sensor number.
 573:.\Generated_Source\PSoC5/CapSense_CSHL.c **** *
 574:.\Generated_Source\PSoC5/CapSense_CSHL.c **** * Return:
 575:.\Generated_Source\PSoC5/CapSense_CSHL.c **** *  Returns sensor state 1 if active, 0 if not active.
 576:.\Generated_Source\PSoC5/CapSense_CSHL.c **** *
 577:.\Generated_Source\PSoC5/CapSense_CSHL.c **** * Global Variables:
 578:.\Generated_Source\PSoC5/CapSense_CSHL.c **** *  CapSense_sensorSignal[]      - used to store diffence between 
 579:.\Generated_Source\PSoC5/CapSense_CSHL.c **** *  current value of raw data and previous value of baseline.
 580:.\Generated_Source\PSoC5/CapSense_CSHL.c **** *  CapSense_debounceCounter[]   - used to store current debounce 
 581:.\Generated_Source\PSoC5/CapSense_CSHL.c **** *  counter of sensor. Widget which has this parameter are buttons, matrix 
 582:.\Generated_Source\PSoC5/CapSense_CSHL.c **** *  buttons, proximity, guard. All other widgets haven't debounce parameter
 583:.\Generated_Source\PSoC5/CapSense_CSHL.c **** *  and use the last element of this array with value 0 (it means no debounce).
 584:.\Generated_Source\PSoC5/CapSense_CSHL.c **** *  CapSense_sensorOnMask[] - used to store sensors on/off state.
 585:.\Generated_Source\PSoC5/CapSense_CSHL.c **** *  CapSense_sensorOnMask[0] contains the masked bits for sensors 
 586:.\Generated_Source\PSoC5/CapSense_CSHL.c **** *   0 through 7 (sensor 0 is bit 0, sensor 1 is bit 1).
 587:.\Generated_Source\PSoC5/CapSense_CSHL.c **** *  CapSense_sensorEnableMask[1] contains the masked bits for 
 588:.\Generated_Source\PSoC5/CapSense_CSHL.c **** *  sensors 8 through 15 (if needed), and so on.
 589:.\Generated_Source\PSoC5/CapSense_CSHL.c **** *  0 - sensor is inactive.
 590:.\Generated_Source\PSoC5/CapSense_CSHL.c **** *  1 - sensor is active.
 591:.\Generated_Source\PSoC5/CapSense_CSHL.c **** *
 592:.\Generated_Source\PSoC5/CapSense_CSHL.c **** * Reentrant:
 593:.\Generated_Source\PSoC5/CapSense_CSHL.c **** *  No
 594:.\Generated_Source\PSoC5/CapSense_CSHL.c **** *
 595:.\Generated_Source\PSoC5/CapSense_CSHL.c **** *******************************************************************************/
 596:.\Generated_Source\PSoC5/CapSense_CSHL.c **** uint8 CapSense_CheckIsSensorActive(uint8 sensor)
 597:.\Generated_Source\PSoC5/CapSense_CSHL.c ****                                   
 598:.\Generated_Source\PSoC5/CapSense_CSHL.c **** {
 458              		.loc 1 598 0
 459              		.cfi_startproc
 460              		@ args = 0, pretend = 0, frame = 0
 461              		@ frame_needed = 0, uses_anonymous_args = 0
 462              		@ link register save eliminated.
 463              	.LVL45:
 464 0000 F0B4     		push	{r4, r5, r6, r7}
 465              		.cfi_def_cfa_offset 16
 466              		.cfi_offset 4, -16
 467              		.cfi_offset 5, -12
 468              		.cfi_offset 6, -8
 469              		.cfi_offset 7, -4
 599:.\Generated_Source\PSoC5/CapSense_CSHL.c ****     uint8 debounceIndex;
 600:.\Generated_Source\PSoC5/CapSense_CSHL.c ****     /* Get On/Off mask */
 601:.\Generated_Source\PSoC5/CapSense_CSHL.c ****     uint8 pos = (sensor >> 3u);
 470              		.loc 1 601 0
ARM GAS  C:\Users\JohnP\AppData\Local\Temp\cc4GrDuO.s 			page 20


 471 0002 C108     		lsrs	r1, r0, #3
 472              	.LVL46:
 602:.\Generated_Source\PSoC5/CapSense_CSHL.c ****     uint8 onMask = 0x01u << (sensor & 0x07u);
 473              		.loc 1 602 0
 474 0004 00F00703 		and	r3, r0, #7
 475 0008 0122     		movs	r2, #1
 476 000a 9A40     		lsls	r2, r2, r3
 477 000c D2B2     		uxtb	r2, r2
 478              	.LVL47:
 603:.\Generated_Source\PSoC5/CapSense_CSHL.c ****     /* Prepare to find debounce counter index */
 604:.\Generated_Source\PSoC5/CapSense_CSHL.c ****     uint8 widget = CapSense_widgetNumber[sensor];
 479              		.loc 1 604 0
 480 000e 1F4B     		ldr	r3, .L46
 481 0010 1B5C     		ldrb	r3, [r3, r0]	@ zero_extendqisi2
 482              	.LVL48:
 605:.\Generated_Source\PSoC5/CapSense_CSHL.c ****     uint8 fingerThreshold = CapSense_fingerThreshold[widget];
 483              		.loc 1 605 0
 484 0012 1F4C     		ldr	r4, .L46+4
 485 0014 E518     		adds	r5, r4, r3
 486 0016 2E7A     		ldrb	r6, [r5, #8]	@ zero_extendqisi2
 487              	.LVL49:
 606:.\Generated_Source\PSoC5/CapSense_CSHL.c ****     uint8 hysteresis = CapSense_hysteresis[widget];
 488              		.loc 1 606 0
 489 0018 2D7B     		ldrb	r5, [r5, #12]	@ zero_extendqisi2
 490              	.LVL50:
 607:.\Generated_Source\PSoC5/CapSense_CSHL.c ****     uint8 debounce = CapSense_debounce[widget];
 491              		.loc 1 607 0
 492 001a E75C     		ldrb	r7, [r4, r3]	@ zero_extendqisi2
 493              	.LVL51:
 608:.\Generated_Source\PSoC5/CapSense_CSHL.c ****     
 609:.\Generated_Source\PSoC5/CapSense_CSHL.c ****     if (widget < CapSense_TOTAL_CENTROIDS_COUNT)
 494              		.loc 1 609 0
 495 001c 23B9     		cbnz	r3, .L38
 496              	.LVL52:
 610:.\Generated_Source\PSoC5/CapSense_CSHL.c ****     {
 611:.\Generated_Source\PSoC5/CapSense_CSHL.c ****         debounceIndex = CapSense_UNUSED_DEBOUNCE_COUNTER_INDEX;
 612:.\Generated_Source\PSoC5/CapSense_CSHL.c ****         CapSense_debounceCounter[debounceIndex] = 1u;
 497              		.loc 1 612 0
 498 001e 0124     		movs	r4, #1
 499              	.LVL53:
 500 0020 1C4B     		ldr	r3, .L46+8
 501              	.LVL54:
 502 0022 9C70     		strb	r4, [r3, #2]
 611:.\Generated_Source\PSoC5/CapSense_CSHL.c ****         debounceIndex = CapSense_UNUSED_DEBOUNCE_COUNTER_INDEX;
 503              		.loc 1 611 0
 504 0024 0223     		movs	r3, #2
 505 0026 01E0     		b	.L39
 506              	.LVL55:
 507              	.L38:
 613:.\Generated_Source\PSoC5/CapSense_CSHL.c ****     }
 614:.\Generated_Source\PSoC5/CapSense_CSHL.c ****     else
 615:.\Generated_Source\PSoC5/CapSense_CSHL.c ****     {
 616:.\Generated_Source\PSoC5/CapSense_CSHL.c ****         debounceIndex = widget - (CapSense_END_OF_TOUCH_PAD_INDEX + 1);
 508              		.loc 1 616 0
 509 0028 013B     		subs	r3, r3, #1
 510              	.LVL56:
 511 002a DBB2     		uxtb	r3, r3
ARM GAS  C:\Users\JohnP\AppData\Local\Temp\cc4GrDuO.s 			page 21


 512              	.LVL57:
 513              	.L39:
 617:.\Generated_Source\PSoC5/CapSense_CSHL.c ****     }
 618:.\Generated_Source\PSoC5/CapSense_CSHL.c **** 
 619:.\Generated_Source\PSoC5/CapSense_CSHL.c ****     
 620:.\Generated_Source\PSoC5/CapSense_CSHL.c ****     /* Was on */
 621:.\Generated_Source\PSoC5/CapSense_CSHL.c ****     if (0u != (CapSense_sensorOnMask[pos] & onMask))
 514              		.loc 1 621 0
 515 002c 1A4C     		ldr	r4, .L46+12
 516 002e 645C     		ldrb	r4, [r4, r1]	@ zero_extendqisi2
 517 0030 1442     		tst	r4, r2
 518 0032 0DD0     		beq	.L40
 622:.\Generated_Source\PSoC5/CapSense_CSHL.c ****     {
 623:.\Generated_Source\PSoC5/CapSense_CSHL.c ****         /* Hysteresis minus */
 624:.\Generated_Source\PSoC5/CapSense_CSHL.c ****         if (CapSense_sensorSignal[sensor] < (fingerThreshold - hysteresis))
 519              		.loc 1 624 0
 520 0034 DFF864C0 		ldr	ip, .L46+16
 521 0038 1CF80000 		ldrb	r0, [ip, r0]	@ zero_extendqisi2
 522              	.LVL58:
 523 003c 751B     		subs	r5, r6, r5
 524              	.LVL59:
 525 003e A842     		cmp	r0, r5
 526 0040 1BDA     		bge	.L41
 625:.\Generated_Source\PSoC5/CapSense_CSHL.c ****         {
 626:.\Generated_Source\PSoC5/CapSense_CSHL.c ****             CapSense_sensorOnMask[pos] &= (uint8)~onMask;
 527              		.loc 1 626 0
 528 0042 24EA0204 		bic	r4, r4, r2
 529 0046 1448     		ldr	r0, .L46+12
 530 0048 4454     		strb	r4, [r0, r1]
 627:.\Generated_Source\PSoC5/CapSense_CSHL.c ****             CapSense_debounceCounter[debounceIndex] = debounce; 
 531              		.loc 1 627 0
 532 004a 1248     		ldr	r0, .L46+8
 533 004c C754     		strb	r7, [r0, r3]
 534 004e 14E0     		b	.L41
 535              	.LVL60:
 536              	.L40:
 628:.\Generated_Source\PSoC5/CapSense_CSHL.c ****         }
 629:.\Generated_Source\PSoC5/CapSense_CSHL.c ****     }
 630:.\Generated_Source\PSoC5/CapSense_CSHL.c ****     else    /* Was off */
 631:.\Generated_Source\PSoC5/CapSense_CSHL.c ****     {
 632:.\Generated_Source\PSoC5/CapSense_CSHL.c ****         /* Hysteresis plus */
 633:.\Generated_Source\PSoC5/CapSense_CSHL.c ****         if (CapSense_sensorSignal[sensor] > (fingerThreshold + hysteresis))
 537              		.loc 1 633 0
 538 0050 DFF848C0 		ldr	ip, .L46+16
 539 0054 1CF80000 		ldrb	r0, [ip, r0]	@ zero_extendqisi2
 540              	.LVL61:
 541 0058 3544     		add	r5, r5, r6
 542              	.LVL62:
 543 005a A842     		cmp	r0, r5
 544 005c 0BDD     		ble	.L42
 634:.\Generated_Source\PSoC5/CapSense_CSHL.c ****         {
 635:.\Generated_Source\PSoC5/CapSense_CSHL.c ****             /* Sensor active, decrement debounce counter */
 636:.\Generated_Source\PSoC5/CapSense_CSHL.c ****             if (CapSense_debounceCounter[debounceIndex] <= 1u)
 545              		.loc 1 636 0
 546 005e 1846     		mov	r0, r3
 547 0060 0C4D     		ldr	r5, .L46+8
 548 0062 EB5C     		ldrb	r3, [r5, r3]	@ zero_extendqisi2
ARM GAS  C:\Users\JohnP\AppData\Local\Temp\cc4GrDuO.s 			page 22


 549              	.LVL63:
 550 0064 012B     		cmp	r3, #1
 551 0066 02D8     		bhi	.L43
 637:.\Generated_Source\PSoC5/CapSense_CSHL.c ****             {
 638:.\Generated_Source\PSoC5/CapSense_CSHL.c ****                 CapSense_sensorOnMask[pos] |= onMask; 
 552              		.loc 1 638 0
 553 0068 1443     		orrs	r4, r4, r2
 554 006a 0B4D     		ldr	r5, .L46+12
 555 006c 6C54     		strb	r4, [r5, r1]
 556              	.L43:
 639:.\Generated_Source\PSoC5/CapSense_CSHL.c ****             }
 640:.\Generated_Source\PSoC5/CapSense_CSHL.c ****             CapSense_debounceCounter[debounceIndex]--;
 557              		.loc 1 640 0
 558 006e 013B     		subs	r3, r3, #1
 559 0070 084C     		ldr	r4, .L46+8
 560 0072 2354     		strb	r3, [r4, r0]
 561 0074 01E0     		b	.L41
 562              	.LVL64:
 563              	.L42:
 641:.\Generated_Source\PSoC5/CapSense_CSHL.c ****         }
 642:.\Generated_Source\PSoC5/CapSense_CSHL.c ****         else
 643:.\Generated_Source\PSoC5/CapSense_CSHL.c ****         {
 644:.\Generated_Source\PSoC5/CapSense_CSHL.c ****             /* Sensor inactive - reset Debounce counter */
 645:.\Generated_Source\PSoC5/CapSense_CSHL.c ****             CapSense_debounceCounter[debounceIndex] = debounce;
 564              		.loc 1 645 0
 565 0076 0748     		ldr	r0, .L46+8
 566 0078 C754     		strb	r7, [r0, r3]
 567              	.LVL65:
 568              	.L41:
 646:.\Generated_Source\PSoC5/CapSense_CSHL.c ****         }
 647:.\Generated_Source\PSoC5/CapSense_CSHL.c ****     }
 648:.\Generated_Source\PSoC5/CapSense_CSHL.c ****     
 649:.\Generated_Source\PSoC5/CapSense_CSHL.c ****     return (((CapSense_sensorOnMask[pos] & onMask) != 0u) ? 1u : 0u);
 569              		.loc 1 649 0
 570 007a 074B     		ldr	r3, .L46+12
 571 007c 5B5C     		ldrb	r3, [r3, r1]	@ zero_extendqisi2
 572 007e 1342     		tst	r3, r2
 573 0080 01D0     		beq	.L45
 574 0082 0120     		movs	r0, #1
 575 0084 00E0     		b	.L44
 576              	.L45:
 577 0086 0020     		movs	r0, #0
 578              	.L44:
 650:.\Generated_Source\PSoC5/CapSense_CSHL.c **** }
 579              		.loc 1 650 0 discriminator 3
 580 0088 F0BC     		pop	{r4, r5, r6, r7}
 581              	.LVL66:
 582 008a 7047     		bx	lr
 583              	.L47:
 584              		.align	2
 585              	.L46:
 586 008c 00000000 		.word	CapSense_widgetNumber
 587 0090 00000000 		.word	.LANCHOR0
 588 0094 00000000 		.word	.LANCHOR1
 589 0098 00000000 		.word	CapSense_sensorOnMask
 590 009c 00000000 		.word	CapSense_sensorSignal
 591              		.cfi_endproc
ARM GAS  C:\Users\JohnP\AppData\Local\Temp\cc4GrDuO.s 			page 23


 592              	.LFE6:
 593              		.size	CapSense_CheckIsSensorActive, .-CapSense_CheckIsSensorActive
 594              		.section	.text.CapSense_CheckIsWidgetActive,"ax",%progbits
 595              		.align	2
 596              		.global	CapSense_CheckIsWidgetActive
 597              		.thumb
 598              		.thumb_func
 599              		.type	CapSense_CheckIsWidgetActive, %function
 600              	CapSense_CheckIsWidgetActive:
 601              	.LFB7:
 651:.\Generated_Source\PSoC5/CapSense_CSHL.c **** 
 652:.\Generated_Source\PSoC5/CapSense_CSHL.c **** 
 653:.\Generated_Source\PSoC5/CapSense_CSHL.c **** /*******************************************************************************
 654:.\Generated_Source\PSoC5/CapSense_CSHL.c **** * Function Name: CapSense_CheckIsWidgetActive
 655:.\Generated_Source\PSoC5/CapSense_CSHL.c **** ********************************************************************************
 656:.\Generated_Source\PSoC5/CapSense_CSHL.c **** *
 657:.\Generated_Source\PSoC5/CapSense_CSHL.c **** * Summary:
 658:.\Generated_Source\PSoC5/CapSense_CSHL.c **** *  Use function CapSense_CheckIsSensorActive() to update 
 659:.\Generated_Source\PSoC5/CapSense_CSHL.c **** *  CapSense_sensorOnMask[] for all sensors within the widget.
 660:.\Generated_Source\PSoC5/CapSense_CSHL.c **** *  If one of sensors within widget is active the function return that widget is 
 661:.\Generated_Source\PSoC5/CapSense_CSHL.c **** *  active.
 662:.\Generated_Source\PSoC5/CapSense_CSHL.c **** *  The touch pad and matrix buttons widgets need to have active sensor within 
 663:.\Generated_Source\PSoC5/CapSense_CSHL.c **** *  col and row to return widget active status.
 664:.\Generated_Source\PSoC5/CapSense_CSHL.c **** *
 665:.\Generated_Source\PSoC5/CapSense_CSHL.c **** * Parameters:
 666:.\Generated_Source\PSoC5/CapSense_CSHL.c **** *  widget:  widget number.
 667:.\Generated_Source\PSoC5/CapSense_CSHL.c **** *
 668:.\Generated_Source\PSoC5/CapSense_CSHL.c **** * Return:
 669:.\Generated_Source\PSoC5/CapSense_CSHL.c **** *  Returns widget sensor state 1 if one or more sensors within widget is/are 
 670:.\Generated_Source\PSoC5/CapSense_CSHL.c **** *  active, 0 if all sensors within widget are inactive.
 671:.\Generated_Source\PSoC5/CapSense_CSHL.c **** *
 672:.\Generated_Source\PSoC5/CapSense_CSHL.c **** * Reentrant:
 673:.\Generated_Source\PSoC5/CapSense_CSHL.c **** *  No
 674:.\Generated_Source\PSoC5/CapSense_CSHL.c **** *
 675:.\Generated_Source\PSoC5/CapSense_CSHL.c **** *******************************************************************************/
 676:.\Generated_Source\PSoC5/CapSense_CSHL.c **** uint8 CapSense_CheckIsWidgetActive(uint8 widget)
 677:.\Generated_Source\PSoC5/CapSense_CSHL.c ****                                  
 678:.\Generated_Source\PSoC5/CapSense_CSHL.c **** {
 602              		.loc 1 678 0
 603              		.cfi_startproc
 604              		@ args = 0, pretend = 0, frame = 0
 605              		@ frame_needed = 0, uses_anonymous_args = 0
 606              	.LVL67:
 607 0000 F8B5     		push	{r3, r4, r5, r6, r7, lr}
 608              		.cfi_def_cfa_offset 24
 609              		.cfi_offset 3, -24
 610              		.cfi_offset 4, -20
 611              		.cfi_offset 5, -16
 612              		.cfi_offset 6, -12
 613              		.cfi_offset 7, -8
 614              		.cfi_offset 14, -4
 679:.\Generated_Source\PSoC5/CapSense_CSHL.c ****     uint8 rawIndex = CapSense_rawDataIndex[widget];
 615              		.loc 1 679 0
 616 0002 094B     		ldr	r3, .L53
 617 0004 1C5C     		ldrb	r4, [r3, r0]	@ zero_extendqisi2
 618              	.LVL68:
 680:.\Generated_Source\PSoC5/CapSense_CSHL.c ****     uint8 numberOfSensors = CapSense_numberOfSensors[widget] + rawIndex;
ARM GAS  C:\Users\JohnP\AppData\Local\Temp\cc4GrDuO.s 			page 24


 619              		.loc 1 680 0
 620 0006 1844     		add	r0, r0, r3
 621              	.LVL69:
 622 0008 0579     		ldrb	r5, [r0, #4]	@ zero_extendqisi2
 623 000a 2544     		add	r5, r5, r4
 624 000c EDB2     		uxtb	r5, r5
 625              	.LVL70:
 681:.\Generated_Source\PSoC5/CapSense_CSHL.c ****     uint8 state = 0u;
 626              		.loc 1 681 0
 627 000e 0026     		movs	r6, #0
 682:.\Generated_Source\PSoC5/CapSense_CSHL.c **** 
 683:.\Generated_Source\PSoC5/CapSense_CSHL.c ****     /* Check all sensors of the widget */
 684:.\Generated_Source\PSoC5/CapSense_CSHL.c ****     do
 685:.\Generated_Source\PSoC5/CapSense_CSHL.c ****     {
 686:.\Generated_Source\PSoC5/CapSense_CSHL.c ****         if(CapSense_CheckIsSensorActive(rawIndex) != 0u)
 687:.\Generated_Source\PSoC5/CapSense_CSHL.c ****         {
 688:.\Generated_Source\PSoC5/CapSense_CSHL.c ****             state = CapSense_SENSOR_1_IS_ACTIVE;
 628              		.loc 1 688 0
 629 0010 0127     		movs	r7, #1
 630              	.LVL71:
 631              	.L50:
 686:.\Generated_Source\PSoC5/CapSense_CSHL.c ****         if(CapSense_CheckIsSensorActive(rawIndex) != 0u)
 632              		.loc 1 686 0
 633 0012 2046     		mov	r0, r4
 634 0014 FFF7FEFF 		bl	CapSense_CheckIsSensorActive
 635              	.LVL72:
 636 0018 00B1     		cbz	r0, .L49
 637              		.loc 1 688 0
 638 001a 3E46     		mov	r6, r7
 639              	.L49:
 689:.\Generated_Source\PSoC5/CapSense_CSHL.c ****         }
 690:.\Generated_Source\PSoC5/CapSense_CSHL.c ****         rawIndex++;
 640              		.loc 1 690 0
 641 001c 0134     		adds	r4, r4, #1
 642              	.LVL73:
 643 001e E4B2     		uxtb	r4, r4
 644              	.LVL74:
 691:.\Generated_Source\PSoC5/CapSense_CSHL.c ****     }
 692:.\Generated_Source\PSoC5/CapSense_CSHL.c ****     while(rawIndex < numberOfSensors);
 645              		.loc 1 692 0
 646 0020 AC42     		cmp	r4, r5
 647 0022 F6D3     		bcc	.L50
 693:.\Generated_Source\PSoC5/CapSense_CSHL.c ****     
 694:.\Generated_Source\PSoC5/CapSense_CSHL.c **** 
 695:.\Generated_Source\PSoC5/CapSense_CSHL.c ****     
 696:.\Generated_Source\PSoC5/CapSense_CSHL.c ****     return (state);
 697:.\Generated_Source\PSoC5/CapSense_CSHL.c **** }
 648              		.loc 1 697 0
 649 0024 3046     		mov	r0, r6
 650 0026 F8BD     		pop	{r3, r4, r5, r6, r7, pc}
 651              	.LVL75:
 652              	.L54:
 653              		.align	2
 654              	.L53:
 655 0028 00000000 		.word	.LANCHOR2
 656              		.cfi_endproc
 657              	.LFE7:
ARM GAS  C:\Users\JohnP\AppData\Local\Temp\cc4GrDuO.s 			page 25


 658              		.size	CapSense_CheckIsWidgetActive, .-CapSense_CheckIsWidgetActive
 659              		.section	.text.CapSense_CheckIsAnyWidgetActive,"ax",%progbits
 660              		.align	2
 661              		.global	CapSense_CheckIsAnyWidgetActive
 662              		.thumb
 663              		.thumb_func
 664              		.type	CapSense_CheckIsAnyWidgetActive, %function
 665              	CapSense_CheckIsAnyWidgetActive:
 666              	.LFB8:
 698:.\Generated_Source\PSoC5/CapSense_CSHL.c **** 
 699:.\Generated_Source\PSoC5/CapSense_CSHL.c **** 
 700:.\Generated_Source\PSoC5/CapSense_CSHL.c **** /*******************************************************************************
 701:.\Generated_Source\PSoC5/CapSense_CSHL.c **** * Function Name: CapSense_CheckIsAnyWidgetActive
 702:.\Generated_Source\PSoC5/CapSense_CSHL.c **** ********************************************************************************
 703:.\Generated_Source\PSoC5/CapSense_CSHL.c **** *
 704:.\Generated_Source\PSoC5/CapSense_CSHL.c **** * Summary:
 705:.\Generated_Source\PSoC5/CapSense_CSHL.c **** *  Compares all sensors of the CapSense_signal[] array to their finger 
 706:.\Generated_Source\PSoC5/CapSense_CSHL.c **** *  threshold. Calls CapSense_CheckIsWidgetActive() for each widget so 
 707:.\Generated_Source\PSoC5/CapSense_CSHL.c **** *  the CapSense_SensorOnMask[] array is up to date after calling this 
 708:.\Generated_Source\PSoC5/CapSense_CSHL.c **** *  function.
 709:.\Generated_Source\PSoC5/CapSense_CSHL.c **** *
 710:.\Generated_Source\PSoC5/CapSense_CSHL.c **** * Parameters:
 711:.\Generated_Source\PSoC5/CapSense_CSHL.c **** *  widget:  widget number.
 712:.\Generated_Source\PSoC5/CapSense_CSHL.c **** *
 713:.\Generated_Source\PSoC5/CapSense_CSHL.c **** * Return:
 714:.\Generated_Source\PSoC5/CapSense_CSHL.c **** *  Returns 1 if any widget is active, 0 none of widgets are active.
 715:.\Generated_Source\PSoC5/CapSense_CSHL.c **** *
 716:.\Generated_Source\PSoC5/CapSense_CSHL.c **** * Reentrant:
 717:.\Generated_Source\PSoC5/CapSense_CSHL.c **** *  No
 718:.\Generated_Source\PSoC5/CapSense_CSHL.c **** *
 719:.\Generated_Source\PSoC5/CapSense_CSHL.c **** *******************************************************************************/
 720:.\Generated_Source\PSoC5/CapSense_CSHL.c **** uint8 CapSense_CheckIsAnyWidgetActive(void)
 721:.\Generated_Source\PSoC5/CapSense_CSHL.c ****                                  
 722:.\Generated_Source\PSoC5/CapSense_CSHL.c **** {
 667              		.loc 1 722 0
 668              		.cfi_startproc
 669              		@ args = 0, pretend = 0, frame = 0
 670              		@ frame_needed = 0, uses_anonymous_args = 0
 671 0000 70B5     		push	{r4, r5, r6, lr}
 672              		.cfi_def_cfa_offset 16
 673              		.cfi_offset 4, -16
 674              		.cfi_offset 5, -12
 675              		.cfi_offset 6, -8
 676              		.cfi_offset 14, -4
 677              	.LVL76:
 723:.\Generated_Source\PSoC5/CapSense_CSHL.c ****     uint8 i;
 724:.\Generated_Source\PSoC5/CapSense_CSHL.c ****     uint8 state = 0u;
 678              		.loc 1 724 0
 679 0002 0025     		movs	r5, #0
 725:.\Generated_Source\PSoC5/CapSense_CSHL.c ****     
 726:.\Generated_Source\PSoC5/CapSense_CSHL.c ****     for(i = 0u; i < CapSense_TOTAL_WIDGET_COUNT; i++)
 680              		.loc 1 726 0
 681 0004 2C46     		mov	r4, r5
 727:.\Generated_Source\PSoC5/CapSense_CSHL.c ****     {
 728:.\Generated_Source\PSoC5/CapSense_CSHL.c ****         if (CapSense_CheckIsWidgetActive(i) != 0u)
 729:.\Generated_Source\PSoC5/CapSense_CSHL.c ****         {
 730:.\Generated_Source\PSoC5/CapSense_CSHL.c ****             state = CapSense_WIDGET_IS_ACTIVE;
ARM GAS  C:\Users\JohnP\AppData\Local\Temp\cc4GrDuO.s 			page 26


 682              		.loc 1 730 0
 683 0006 0126     		movs	r6, #1
 726:.\Generated_Source\PSoC5/CapSense_CSHL.c ****     for(i = 0u; i < CapSense_TOTAL_WIDGET_COUNT; i++)
 684              		.loc 1 726 0
 685 0008 06E0     		b	.L56
 686              	.LVL77:
 687              	.L58:
 728:.\Generated_Source\PSoC5/CapSense_CSHL.c ****         if (CapSense_CheckIsWidgetActive(i) != 0u)
 688              		.loc 1 728 0
 689 000a 2046     		mov	r0, r4
 690 000c FFF7FEFF 		bl	CapSense_CheckIsWidgetActive
 691              	.LVL78:
 692 0010 00B1     		cbz	r0, .L57
 693              		.loc 1 730 0
 694 0012 3546     		mov	r5, r6
 695              	.L57:
 726:.\Generated_Source\PSoC5/CapSense_CSHL.c ****     for(i = 0u; i < CapSense_TOTAL_WIDGET_COUNT; i++)
 696              		.loc 1 726 0
 697 0014 0134     		adds	r4, r4, #1
 698              	.LVL79:
 699 0016 E4B2     		uxtb	r4, r4
 700              	.LVL80:
 701              	.L56:
 726:.\Generated_Source\PSoC5/CapSense_CSHL.c ****     for(i = 0u; i < CapSense_TOTAL_WIDGET_COUNT; i++)
 702              		.loc 1 726 0 is_stmt 0 discriminator 1
 703 0018 022C     		cmp	r4, #2
 704 001a F6D9     		bls	.L58
 731:.\Generated_Source\PSoC5/CapSense_CSHL.c ****         }
 732:.\Generated_Source\PSoC5/CapSense_CSHL.c ****     }
 733:.\Generated_Source\PSoC5/CapSense_CSHL.c ****     
 734:.\Generated_Source\PSoC5/CapSense_CSHL.c **** 
 735:.\Generated_Source\PSoC5/CapSense_CSHL.c ****     return (state);
 736:.\Generated_Source\PSoC5/CapSense_CSHL.c **** }
 705              		.loc 1 736 0 is_stmt 1
 706 001c 2846     		mov	r0, r5
 707 001e 70BD     		pop	{r4, r5, r6, pc}
 708              		.cfi_endproc
 709              	.LFE8:
 710              		.size	CapSense_CheckIsAnyWidgetActive, .-CapSense_CheckIsAnyWidgetActive
 711              		.section	.text.CapSense_EnableWidget,"ax",%progbits
 712              		.align	2
 713              		.global	CapSense_EnableWidget
 714              		.thumb
 715              		.thumb_func
 716              		.type	CapSense_EnableWidget, %function
 717              	CapSense_EnableWidget:
 718              	.LFB9:
 737:.\Generated_Source\PSoC5/CapSense_CSHL.c **** 
 738:.\Generated_Source\PSoC5/CapSense_CSHL.c **** 
 739:.\Generated_Source\PSoC5/CapSense_CSHL.c **** /*******************************************************************************
 740:.\Generated_Source\PSoC5/CapSense_CSHL.c **** * Function Name: CapSense_EnableWidget
 741:.\Generated_Source\PSoC5/CapSense_CSHL.c **** ********************************************************************************
 742:.\Generated_Source\PSoC5/CapSense_CSHL.c **** *
 743:.\Generated_Source\PSoC5/CapSense_CSHL.c **** * Summary:
 744:.\Generated_Source\PSoC5/CapSense_CSHL.c **** *  Enable all widget elements (sensors) to scanning process.
 745:.\Generated_Source\PSoC5/CapSense_CSHL.c **** *
 746:.\Generated_Source\PSoC5/CapSense_CSHL.c **** * Parameters:
ARM GAS  C:\Users\JohnP\AppData\Local\Temp\cc4GrDuO.s 			page 27


 747:.\Generated_Source\PSoC5/CapSense_CSHL.c **** *  widget:  widget number.
 748:.\Generated_Source\PSoC5/CapSense_CSHL.c **** *
 749:.\Generated_Source\PSoC5/CapSense_CSHL.c **** * Return:
 750:.\Generated_Source\PSoC5/CapSense_CSHL.c **** *  None
 751:.\Generated_Source\PSoC5/CapSense_CSHL.c **** *
 752:.\Generated_Source\PSoC5/CapSense_CSHL.c **** * Global Variables:
 753:.\Generated_Source\PSoC5/CapSense_CSHL.c **** *  CapSense_sensorEnableMask[] - used to store the sensor scanning 
 754:.\Generated_Source\PSoC5/CapSense_CSHL.c **** *  state.
 755:.\Generated_Source\PSoC5/CapSense_CSHL.c **** *  CapSense_sensorEnableMask[0] contains the masked bits for sensors 
 756:.\Generated_Source\PSoC5/CapSense_CSHL.c **** *  0 through 7 (sensor 0 is bit 0, sensor 1 is bit 1).
 757:.\Generated_Source\PSoC5/CapSense_CSHL.c **** *  CapSense_sensorEnableMask[1] contains the masked bits for 
 758:.\Generated_Source\PSoC5/CapSense_CSHL.c **** *  sensors 8 through 15 (if needed), and so on.
 759:.\Generated_Source\PSoC5/CapSense_CSHL.c **** *  0 - sensor doesn't scan by CapSense_ScanEnabledWidgets().
 760:.\Generated_Source\PSoC5/CapSense_CSHL.c **** *  1 - sensor scans by CapSense_ScanEnabledWidgets().
 761:.\Generated_Source\PSoC5/CapSense_CSHL.c **** *
 762:.\Generated_Source\PSoC5/CapSense_CSHL.c **** * Reentrant:
 763:.\Generated_Source\PSoC5/CapSense_CSHL.c **** *  No
 764:.\Generated_Source\PSoC5/CapSense_CSHL.c **** *
 765:.\Generated_Source\PSoC5/CapSense_CSHL.c **** *******************************************************************************/
 766:.\Generated_Source\PSoC5/CapSense_CSHL.c **** void CapSense_EnableWidget(uint8 widget)
 767:.\Generated_Source\PSoC5/CapSense_CSHL.c ****                                    
 768:.\Generated_Source\PSoC5/CapSense_CSHL.c **** {
 719              		.loc 1 768 0
 720              		.cfi_startproc
 721              		@ args = 0, pretend = 0, frame = 0
 722              		@ frame_needed = 0, uses_anonymous_args = 0
 723              		@ link register save eliminated.
 724              	.LVL81:
 725 0000 70B4     		push	{r4, r5, r6}
 726              		.cfi_def_cfa_offset 12
 727              		.cfi_offset 4, -12
 728              		.cfi_offset 5, -8
 729              		.cfi_offset 6, -4
 769:.\Generated_Source\PSoC5/CapSense_CSHL.c ****     uint8 pos;
 770:.\Generated_Source\PSoC5/CapSense_CSHL.c ****     uint8 enMask;
 771:.\Generated_Source\PSoC5/CapSense_CSHL.c ****     uint8 rawIndex = CapSense_rawDataIndex[widget];
 730              		.loc 1 771 0
 731 0002 0B4A     		ldr	r2, .L63
 732 0004 135C     		ldrb	r3, [r2, r0]	@ zero_extendqisi2
 733              	.LVL82:
 772:.\Generated_Source\PSoC5/CapSense_CSHL.c ****     uint8 numberOfSensors = CapSense_numberOfSensors[widget] + rawIndex;
 734              		.loc 1 772 0
 735 0006 1044     		add	r0, r0, r2
 736              	.LVL83:
 737 0008 0679     		ldrb	r6, [r0, #4]	@ zero_extendqisi2
 738 000a 1E44     		add	r6, r6, r3
 739 000c F6B2     		uxtb	r6, r6
 740              	.LVL84:
 773:.\Generated_Source\PSoC5/CapSense_CSHL.c ****     
 774:.\Generated_Source\PSoC5/CapSense_CSHL.c ****     /* Enable all sensors of the widget */
 775:.\Generated_Source\PSoC5/CapSense_CSHL.c ****     do
 776:.\Generated_Source\PSoC5/CapSense_CSHL.c ****     {
 777:.\Generated_Source\PSoC5/CapSense_CSHL.c ****         pos = (rawIndex >> 3u);
 778:.\Generated_Source\PSoC5/CapSense_CSHL.c ****         enMask = 0x01u << (rawIndex & 0x07u);
 741              		.loc 1 778 0
 742 000e 0125     		movs	r5, #1
 779:.\Generated_Source\PSoC5/CapSense_CSHL.c ****         
ARM GAS  C:\Users\JohnP\AppData\Local\Temp\cc4GrDuO.s 			page 28


 780:.\Generated_Source\PSoC5/CapSense_CSHL.c ****         CapSense_sensorEnableMask[pos] |= enMask;
 743              		.loc 1 780 0
 744 0010 0849     		ldr	r1, .L63+4
 745              	.LVL85:
 746              	.L61:
 777:.\Generated_Source\PSoC5/CapSense_CSHL.c ****         pos = (rawIndex >> 3u);
 747              		.loc 1 777 0 discriminator 1
 748 0012 DA08     		lsrs	r2, r3, #3
 749              	.LVL86:
 778:.\Generated_Source\PSoC5/CapSense_CSHL.c ****         enMask = 0x01u << (rawIndex & 0x07u);
 750              		.loc 1 778 0 discriminator 1
 751 0014 03F00700 		and	r0, r3, #7
 752 0018 05FA00F0 		lsl	r0, r5, r0
 753              	.LVL87:
 754              		.loc 1 780 0 discriminator 1
 755 001c 8C5C     		ldrb	r4, [r1, r2]	@ zero_extendqisi2
 756 001e 2043     		orrs	r0, r0, r4
 757              	.LVL88:
 758 0020 8854     		strb	r0, [r1, r2]
 781:.\Generated_Source\PSoC5/CapSense_CSHL.c ****         rawIndex++;
 759              		.loc 1 781 0 discriminator 1
 760 0022 0133     		adds	r3, r3, #1
 761              	.LVL89:
 762 0024 DBB2     		uxtb	r3, r3
 763              	.LVL90:
 782:.\Generated_Source\PSoC5/CapSense_CSHL.c ****     }
 783:.\Generated_Source\PSoC5/CapSense_CSHL.c ****     while(rawIndex < numberOfSensors);
 764              		.loc 1 783 0 discriminator 1
 765 0026 B342     		cmp	r3, r6
 766 0028 F3D3     		bcc	.L61
 784:.\Generated_Source\PSoC5/CapSense_CSHL.c ****     
 785:.\Generated_Source\PSoC5/CapSense_CSHL.c **** 
 786:.\Generated_Source\PSoC5/CapSense_CSHL.c **** }
 767              		.loc 1 786 0
 768 002a 70BC     		pop	{r4, r5, r6}
 769              	.LVL91:
 770 002c 7047     		bx	lr
 771              	.L64:
 772 002e 00BF     		.align	2
 773              	.L63:
 774 0030 00000000 		.word	.LANCHOR2
 775 0034 00000000 		.word	CapSense_sensorEnableMask
 776              		.cfi_endproc
 777              	.LFE9:
 778              		.size	CapSense_EnableWidget, .-CapSense_EnableWidget
 779              		.section	.text.CapSense_DisableWidget,"ax",%progbits
 780              		.align	2
 781              		.global	CapSense_DisableWidget
 782              		.thumb
 783              		.thumb_func
 784              		.type	CapSense_DisableWidget, %function
 785              	CapSense_DisableWidget:
 786              	.LFB10:
 787:.\Generated_Source\PSoC5/CapSense_CSHL.c **** 
 788:.\Generated_Source\PSoC5/CapSense_CSHL.c **** 
 789:.\Generated_Source\PSoC5/CapSense_CSHL.c **** /*******************************************************************************
 790:.\Generated_Source\PSoC5/CapSense_CSHL.c **** * Function Name: CapSense_DisableWidget
ARM GAS  C:\Users\JohnP\AppData\Local\Temp\cc4GrDuO.s 			page 29


 791:.\Generated_Source\PSoC5/CapSense_CSHL.c **** ********************************************************************************
 792:.\Generated_Source\PSoC5/CapSense_CSHL.c **** *
 793:.\Generated_Source\PSoC5/CapSense_CSHL.c **** * Summary:
 794:.\Generated_Source\PSoC5/CapSense_CSHL.c **** *  Disable all widget elements (sensors) from scanning process.
 795:.\Generated_Source\PSoC5/CapSense_CSHL.c **** *
 796:.\Generated_Source\PSoC5/CapSense_CSHL.c **** * Parameters:
 797:.\Generated_Source\PSoC5/CapSense_CSHL.c **** *  widget:  widget number.
 798:.\Generated_Source\PSoC5/CapSense_CSHL.c **** *
 799:.\Generated_Source\PSoC5/CapSense_CSHL.c **** * Return:
 800:.\Generated_Source\PSoC5/CapSense_CSHL.c **** *  None
 801:.\Generated_Source\PSoC5/CapSense_CSHL.c **** *
 802:.\Generated_Source\PSoC5/CapSense_CSHL.c **** * Global Variables:
 803:.\Generated_Source\PSoC5/CapSense_CSHL.c **** *  CapSense_sensorEnableMask[] - used to store the sensor scanning 
 804:.\Generated_Source\PSoC5/CapSense_CSHL.c **** *  state.
 805:.\Generated_Source\PSoC5/CapSense_CSHL.c **** *  CapSense_sensorEnableMask[0] contains the masked bits for sensors 
 806:.\Generated_Source\PSoC5/CapSense_CSHL.c **** *  0 through 7 (sensor 0 is bit 0, sensor 1 is bit 1).
 807:.\Generated_Source\PSoC5/CapSense_CSHL.c **** *  CapSense_sensorEnableMask[1] contains the masked bits for 
 808:.\Generated_Source\PSoC5/CapSense_CSHL.c **** *  sensors 8 through 15 (if needed), and so on.
 809:.\Generated_Source\PSoC5/CapSense_CSHL.c **** *  0 - sensor doesn't scan by CapSense_ScanEnabledWidgets().
 810:.\Generated_Source\PSoC5/CapSense_CSHL.c **** *  1 - sensor scans by CapSense_ScanEnabledWidgets().
 811:.\Generated_Source\PSoC5/CapSense_CSHL.c **** *
 812:.\Generated_Source\PSoC5/CapSense_CSHL.c **** * Reentrant:
 813:.\Generated_Source\PSoC5/CapSense_CSHL.c **** *  No
 814:.\Generated_Source\PSoC5/CapSense_CSHL.c **** *
 815:.\Generated_Source\PSoC5/CapSense_CSHL.c **** *******************************************************************************/
 816:.\Generated_Source\PSoC5/CapSense_CSHL.c **** void CapSense_DisableWidget(uint8 widget)
 817:.\Generated_Source\PSoC5/CapSense_CSHL.c ****                                     
 818:.\Generated_Source\PSoC5/CapSense_CSHL.c **** {
 787              		.loc 1 818 0
 788              		.cfi_startproc
 789              		@ args = 0, pretend = 0, frame = 0
 790              		@ frame_needed = 0, uses_anonymous_args = 0
 791              		@ link register save eliminated.
 792              	.LVL92:
 793 0000 70B4     		push	{r4, r5, r6}
 794              		.cfi_def_cfa_offset 12
 795              		.cfi_offset 4, -12
 796              		.cfi_offset 5, -8
 797              		.cfi_offset 6, -4
 819:.\Generated_Source\PSoC5/CapSense_CSHL.c ****     uint8 pos;
 820:.\Generated_Source\PSoC5/CapSense_CSHL.c ****     uint8 enMask;
 821:.\Generated_Source\PSoC5/CapSense_CSHL.c ****     uint8 rawIndex = CapSense_rawDataIndex[widget];
 798              		.loc 1 821 0
 799 0002 0B4A     		ldr	r2, .L68
 800 0004 135C     		ldrb	r3, [r2, r0]	@ zero_extendqisi2
 801              	.LVL93:
 822:.\Generated_Source\PSoC5/CapSense_CSHL.c ****     uint8 numberOfSensors = CapSense_numberOfSensors[widget] + rawIndex;
 802              		.loc 1 822 0
 803 0006 1044     		add	r0, r0, r2
 804              	.LVL94:
 805 0008 0679     		ldrb	r6, [r0, #4]	@ zero_extendqisi2
 806 000a 1E44     		add	r6, r6, r3
 807 000c F6B2     		uxtb	r6, r6
 808              	.LVL95:
 823:.\Generated_Source\PSoC5/CapSense_CSHL.c ****    
 824:.\Generated_Source\PSoC5/CapSense_CSHL.c ****     /* Disable all sensors of the widget */
 825:.\Generated_Source\PSoC5/CapSense_CSHL.c ****     do
ARM GAS  C:\Users\JohnP\AppData\Local\Temp\cc4GrDuO.s 			page 30


 826:.\Generated_Source\PSoC5/CapSense_CSHL.c ****     {
 827:.\Generated_Source\PSoC5/CapSense_CSHL.c ****         pos = (rawIndex >> 3u);
 828:.\Generated_Source\PSoC5/CapSense_CSHL.c ****         enMask = 0x01u << (rawIndex & 0x07u);
 809              		.loc 1 828 0
 810 000e 0125     		movs	r5, #1
 829:.\Generated_Source\PSoC5/CapSense_CSHL.c ****         
 830:.\Generated_Source\PSoC5/CapSense_CSHL.c ****         CapSense_sensorEnableMask[pos] &= (uint8)~enMask;
 811              		.loc 1 830 0
 812 0010 0849     		ldr	r1, .L68+4
 813              	.LVL96:
 814              	.L66:
 827:.\Generated_Source\PSoC5/CapSense_CSHL.c ****         pos = (rawIndex >> 3u);
 815              		.loc 1 827 0 discriminator 1
 816 0012 DA08     		lsrs	r2, r3, #3
 817              	.LVL97:
 828:.\Generated_Source\PSoC5/CapSense_CSHL.c ****         enMask = 0x01u << (rawIndex & 0x07u);
 818              		.loc 1 828 0 discriminator 1
 819 0014 03F00700 		and	r0, r3, #7
 820 0018 05FA00F0 		lsl	r0, r5, r0
 821              	.LVL98:
 822              		.loc 1 830 0 discriminator 1
 823 001c 8C5C     		ldrb	r4, [r1, r2]	@ zero_extendqisi2
 824 001e 24EA0000 		bic	r0, r4, r0
 825              	.LVL99:
 826 0022 8854     		strb	r0, [r1, r2]
 831:.\Generated_Source\PSoC5/CapSense_CSHL.c ****         rawIndex++;
 827              		.loc 1 831 0 discriminator 1
 828 0024 0133     		adds	r3, r3, #1
 829              	.LVL100:
 830 0026 DBB2     		uxtb	r3, r3
 831              	.LVL101:
 832:.\Generated_Source\PSoC5/CapSense_CSHL.c ****     }
 833:.\Generated_Source\PSoC5/CapSense_CSHL.c ****     while(rawIndex < numberOfSensors);
 832              		.loc 1 833 0 discriminator 1
 833 0028 B342     		cmp	r3, r6
 834 002a F2D3     		bcc	.L66
 834:.\Generated_Source\PSoC5/CapSense_CSHL.c ****     
 835:.\Generated_Source\PSoC5/CapSense_CSHL.c **** 
 836:.\Generated_Source\PSoC5/CapSense_CSHL.c **** }
 835              		.loc 1 836 0
 836 002c 70BC     		pop	{r4, r5, r6}
 837              	.LVL102:
 838 002e 7047     		bx	lr
 839              	.L69:
 840              		.align	2
 841              	.L68:
 842 0030 00000000 		.word	.LANCHOR2
 843 0034 00000000 		.word	CapSense_sensorEnableMask
 844              		.cfi_endproc
 845              	.LFE10:
 846              		.size	CapSense_DisableWidget, .-CapSense_DisableWidget
 847              		.section	.text.CapSense_FindMaximum,"ax",%progbits
 848              		.align	2
 849              		.global	CapSense_FindMaximum
 850              		.thumb
 851              		.thumb_func
 852              		.type	CapSense_FindMaximum, %function
ARM GAS  C:\Users\JohnP\AppData\Local\Temp\cc4GrDuO.s 			page 31


 853              	CapSense_FindMaximum:
 854              	.LFB11:
 837:.\Generated_Source\PSoC5/CapSense_CSHL.c **** #if(CapSense_TOTAL_CENTROIDS_COUNT)
 838:.\Generated_Source\PSoC5/CapSense_CSHL.c ****     /*******************************************************************************
 839:.\Generated_Source\PSoC5/CapSense_CSHL.c ****     * Function Name: CapSense_FindMaximum
 840:.\Generated_Source\PSoC5/CapSense_CSHL.c ****     ********************************************************************************
 841:.\Generated_Source\PSoC5/CapSense_CSHL.c ****     *
 842:.\Generated_Source\PSoC5/CapSense_CSHL.c ****     * Summary:
 843:.\Generated_Source\PSoC5/CapSense_CSHL.c ****     *  Finds index of maximum element within defined centroid. Checks 
 844:.\Generated_Source\PSoC5/CapSense_CSHL.c ****     *  CapSense_SensorSignal[] within defined cenrtoid and 
 845:.\Generated_Source\PSoC5/CapSense_CSHL.c ****     *  returns index of maximum element. The values below finger threshold are 
 846:.\Generated_Source\PSoC5/CapSense_CSHL.c ****     *  ignored.
 847:.\Generated_Source\PSoC5/CapSense_CSHL.c ****     *  The centrod defines by offset of first element and number of elements - count.
 848:.\Generated_Source\PSoC5/CapSense_CSHL.c ****     *  The diplexed centroid requires at least consecutive two elements above
 849:.\Generated_Source\PSoC5/CapSense_CSHL.c ****     *  FingerThreshold to find index of maximum element.
 850:.\Generated_Source\PSoC5/CapSense_CSHL.c ****     * 
 851:.\Generated_Source\PSoC5/CapSense_CSHL.c ****     * Parameters:
 852:.\Generated_Source\PSoC5/CapSense_CSHL.c ****     *  offset:  Start index of cetroid in CapSense_sensorSignal[] array.
 853:.\Generated_Source\PSoC5/CapSense_CSHL.c ****     *  count:   number of elements within centroid.
 854:.\Generated_Source\PSoC5/CapSense_CSHL.c ****     *  fingerThreshold:  Finger threshould.
 855:.\Generated_Source\PSoC5/CapSense_CSHL.c ****     *  diplex:   pointer to diplex table.
 856:.\Generated_Source\PSoC5/CapSense_CSHL.c ****     * 
 857:.\Generated_Source\PSoC5/CapSense_CSHL.c ****     * Return:
 858:.\Generated_Source\PSoC5/CapSense_CSHL.c ****     *  Returns index of maximum element within defined centroid.
 859:.\Generated_Source\PSoC5/CapSense_CSHL.c ****     *  If index of maximum element doesn't find the 0xFF returns.
 860:.\Generated_Source\PSoC5/CapSense_CSHL.c ****     * 
 861:.\Generated_Source\PSoC5/CapSense_CSHL.c ****     *******************************************************************************/
 862:.\Generated_Source\PSoC5/CapSense_CSHL.c ****     #if (CapSense_IS_DIPLEX_SLIDER)
 863:.\Generated_Source\PSoC5/CapSense_CSHL.c ****         uint8 CapSense_FindMaximum(uint8 offset, uint8 count, uint8 fingerThreshold, const uint8 CY
 864:.\Generated_Source\PSoC5/CapSense_CSHL.c **** 	                                       
 865:.\Generated_Source\PSoC5/CapSense_CSHL.c ****     #else 
 866:.\Generated_Source\PSoC5/CapSense_CSHL.c ****         uint8 CapSense_FindMaximum(uint8 offset, uint8 count, uint8 fingerThreshold)
 867:.\Generated_Source\PSoC5/CapSense_CSHL.c **** 	                                       
 868:.\Generated_Source\PSoC5/CapSense_CSHL.c ****     #endif /* (CapSense_IS_DIPLEX_SLIDER) */
 869:.\Generated_Source\PSoC5/CapSense_CSHL.c ****     {
 855              		.loc 1 869 0
 856              		.cfi_startproc
 857              		@ args = 0, pretend = 0, frame = 0
 858              		@ frame_needed = 0, uses_anonymous_args = 0
 859              		@ link register save eliminated.
 860              	.LVL103:
 861 0000 70B4     		push	{r4, r5, r6}
 862              		.cfi_def_cfa_offset 12
 863              		.cfi_offset 4, -12
 864              		.cfi_offset 5, -8
 865              		.cfi_offset 6, -4
 866              	.LVL104:
 870:.\Generated_Source\PSoC5/CapSense_CSHL.c ****         uint8 i;
 871:.\Generated_Source\PSoC5/CapSense_CSHL.c ****         #if (CapSense_IS_DIPLEX_SLIDER)        
 872:.\Generated_Source\PSoC5/CapSense_CSHL.c ****             uint8 curPos = 0u;
 873:.\Generated_Source\PSoC5/CapSense_CSHL.c ****             /* No centroid at the Start */
 874:.\Generated_Source\PSoC5/CapSense_CSHL.c ****             uint8 curCntrdSize = 0u;
 875:.\Generated_Source\PSoC5/CapSense_CSHL.c ****             uint8 curCtrdStartPos = 0xFFu;
 876:.\Generated_Source\PSoC5/CapSense_CSHL.c ****             /* The biggset centroid is zero */
 877:.\Generated_Source\PSoC5/CapSense_CSHL.c ****             uint8 biggestCtrdSize = 0u;
 878:.\Generated_Source\PSoC5/CapSense_CSHL.c ****             uint8 biggestCtrdStartPos = 0u;
 879:.\Generated_Source\PSoC5/CapSense_CSHL.c ****         #endif /* (CapSense_IS_DIPLEX_SLIDER) */
ARM GAS  C:\Users\JohnP\AppData\Local\Temp\cc4GrDuO.s 			page 32


 880:.\Generated_Source\PSoC5/CapSense_CSHL.c ****         uint8 maximum = 0xFFu;
 881:.\Generated_Source\PSoC5/CapSense_CSHL.c ****         uint8 temp = 0u;
 882:.\Generated_Source\PSoC5/CapSense_CSHL.c ****         uint8 *startOfSlider = &CapSense_sensorSignal[offset]; 
 867              		.loc 1 882 0
 868 0002 094D     		ldr	r5, .L75
 869 0004 0544     		add	r5, r5, r0
 870              	.LVL105:
 881:.\Generated_Source\PSoC5/CapSense_CSHL.c ****         uint8 temp = 0u;
 871              		.loc 1 881 0
 872 0006 0026     		movs	r6, #0
 880:.\Generated_Source\PSoC5/CapSense_CSHL.c ****         uint8 maximum = 0xFFu;
 873              		.loc 1 880 0
 874 0008 FF20     		movs	r0, #255
 875              	.LVL106:
 883:.\Generated_Source\PSoC5/CapSense_CSHL.c **** 
 884:.\Generated_Source\PSoC5/CapSense_CSHL.c ****         #if (CapSense_IS_DIPLEX_SLIDER)        
 885:.\Generated_Source\PSoC5/CapSense_CSHL.c ****             if(diplex != 0u)
 886:.\Generated_Source\PSoC5/CapSense_CSHL.c ****             {
 887:.\Generated_Source\PSoC5/CapSense_CSHL.c ****                 /* Initialize */
 888:.\Generated_Source\PSoC5/CapSense_CSHL.c ****                 i = 0u;
 889:.\Generated_Source\PSoC5/CapSense_CSHL.c ****                 
 890:.\Generated_Source\PSoC5/CapSense_CSHL.c ****                 /* Make slider x2 as Diplexed */
 891:.\Generated_Source\PSoC5/CapSense_CSHL.c ****                 count <<= 1u;
 892:.\Generated_Source\PSoC5/CapSense_CSHL.c ****                 while(1u)
 893:.\Generated_Source\PSoC5/CapSense_CSHL.c ****                 { 
 894:.\Generated_Source\PSoC5/CapSense_CSHL.c ****                     if (startOfSlider[curPos] > 0u)    /* Looking for centroids */
 895:.\Generated_Source\PSoC5/CapSense_CSHL.c ****                     {
 896:.\Generated_Source\PSoC5/CapSense_CSHL.c ****                         if (curCtrdStartPos == 0xFFu)
 897:.\Generated_Source\PSoC5/CapSense_CSHL.c ****                         {
 898:.\Generated_Source\PSoC5/CapSense_CSHL.c ****                             /* Start of centroid */
 899:.\Generated_Source\PSoC5/CapSense_CSHL.c ****                             curCtrdStartPos = i;
 900:.\Generated_Source\PSoC5/CapSense_CSHL.c ****                             curCntrdSize++;
 901:.\Generated_Source\PSoC5/CapSense_CSHL.c ****                         }
 902:.\Generated_Source\PSoC5/CapSense_CSHL.c ****                         else
 903:.\Generated_Source\PSoC5/CapSense_CSHL.c ****                         {
 904:.\Generated_Source\PSoC5/CapSense_CSHL.c ****                             curCntrdSize++;
 905:.\Generated_Source\PSoC5/CapSense_CSHL.c ****                         }
 906:.\Generated_Source\PSoC5/CapSense_CSHL.c ****                     }
 907:.\Generated_Source\PSoC5/CapSense_CSHL.c ****                     else   /* Select the bigest and indicate zero start */
 908:.\Generated_Source\PSoC5/CapSense_CSHL.c ****                     {          
 909:.\Generated_Source\PSoC5/CapSense_CSHL.c ****                         if(curCntrdSize > 0u)
 910:.\Generated_Source\PSoC5/CapSense_CSHL.c ****                         {
 911:.\Generated_Source\PSoC5/CapSense_CSHL.c ****                             /* We are in the end of current */
 912:.\Generated_Source\PSoC5/CapSense_CSHL.c ****                             if(curCntrdSize > biggestCtrdSize)
 913:.\Generated_Source\PSoC5/CapSense_CSHL.c ****                             {
 914:.\Generated_Source\PSoC5/CapSense_CSHL.c ****                                 biggestCtrdSize = curCntrdSize;
 915:.\Generated_Source\PSoC5/CapSense_CSHL.c ****                                 biggestCtrdStartPos = curCtrdStartPos;
 916:.\Generated_Source\PSoC5/CapSense_CSHL.c ****                             }
 917:.\Generated_Source\PSoC5/CapSense_CSHL.c ****                             
 918:.\Generated_Source\PSoC5/CapSense_CSHL.c ****                             curCntrdSize = 0u;
 919:.\Generated_Source\PSoC5/CapSense_CSHL.c ****                             curCtrdStartPos = 0xFFu;
 920:.\Generated_Source\PSoC5/CapSense_CSHL.c ****                         }
 921:.\Generated_Source\PSoC5/CapSense_CSHL.c ****                     }
 922:.\Generated_Source\PSoC5/CapSense_CSHL.c ****                     
 923:.\Generated_Source\PSoC5/CapSense_CSHL.c ****                     i++; 
 924:.\Generated_Source\PSoC5/CapSense_CSHL.c ****                     curPos = diplex[i];
 925:.\Generated_Source\PSoC5/CapSense_CSHL.c ****                     if(i == count)
ARM GAS  C:\Users\JohnP\AppData\Local\Temp\cc4GrDuO.s 			page 33


 926:.\Generated_Source\PSoC5/CapSense_CSHL.c ****                     {
 927:.\Generated_Source\PSoC5/CapSense_CSHL.c ****                         break;
 928:.\Generated_Source\PSoC5/CapSense_CSHL.c ****                     }            
 929:.\Generated_Source\PSoC5/CapSense_CSHL.c ****                 }
 930:.\Generated_Source\PSoC5/CapSense_CSHL.c ****                     
 931:.\Generated_Source\PSoC5/CapSense_CSHL.c ****                     /* Find the biggest centroid if two are the same size, last one wins
 932:.\Generated_Source\PSoC5/CapSense_CSHL.c ****                        We are in the end of current */
 933:.\Generated_Source\PSoC5/CapSense_CSHL.c ****                 if (curCntrdSize >= biggestCtrdSize) 
 934:.\Generated_Source\PSoC5/CapSense_CSHL.c ****                 {
 935:.\Generated_Source\PSoC5/CapSense_CSHL.c ****                     biggestCtrdSize = curCntrdSize;
 936:.\Generated_Source\PSoC5/CapSense_CSHL.c ****                     biggestCtrdStartPos = curCtrdStartPos;
 937:.\Generated_Source\PSoC5/CapSense_CSHL.c ****                 }
 938:.\Generated_Source\PSoC5/CapSense_CSHL.c ****             }
 939:.\Generated_Source\PSoC5/CapSense_CSHL.c ****             else
 940:.\Generated_Source\PSoC5/CapSense_CSHL.c ****             {
 941:.\Generated_Source\PSoC5/CapSense_CSHL.c ****                 /* Without diplexing */ 
 942:.\Generated_Source\PSoC5/CapSense_CSHL.c ****                 biggestCtrdSize = count;
 943:.\Generated_Source\PSoC5/CapSense_CSHL.c ****             }
 944:.\Generated_Source\PSoC5/CapSense_CSHL.c ****                         
 945:.\Generated_Source\PSoC5/CapSense_CSHL.c **** 
 946:.\Generated_Source\PSoC5/CapSense_CSHL.c ****             /* Check centroid size */
 947:.\Generated_Source\PSoC5/CapSense_CSHL.c ****             #if (CapSense_IS_NON_DIPLEX_SLIDER)
 948:.\Generated_Source\PSoC5/CapSense_CSHL.c ****                 if((biggestCtrdSize >= 2u) || ((biggestCtrdSize == 1u) && (diplex == 0u)))
 949:.\Generated_Source\PSoC5/CapSense_CSHL.c ****             #else                    
 950:.\Generated_Source\PSoC5/CapSense_CSHL.c ****                 if(biggestCtrdSize >= 2u)
 951:.\Generated_Source\PSoC5/CapSense_CSHL.c ****             #endif /* (CapSense_IS_NON_DIPLEX_SLIDER) */
 952:.\Generated_Source\PSoC5/CapSense_CSHL.c ****                 {
 953:.\Generated_Source\PSoC5/CapSense_CSHL.c ****                     for (i = biggestCtrdStartPos; i < (biggestCtrdStartPos + biggestCtrdSize); i++)
 954:.\Generated_Source\PSoC5/CapSense_CSHL.c ****                     {
 955:.\Generated_Source\PSoC5/CapSense_CSHL.c ****                         #if (CapSense_IS_DIPLEX_SLIDER && CapSense_IS_NON_DIPLEX_SLIDER)
 956:.\Generated_Source\PSoC5/CapSense_CSHL.c ****                             if (diplex == 0u)
 957:.\Generated_Source\PSoC5/CapSense_CSHL.c ****                             {
 958:.\Generated_Source\PSoC5/CapSense_CSHL.c ****                                 curPos = i;
 959:.\Generated_Source\PSoC5/CapSense_CSHL.c ****                             }
 960:.\Generated_Source\PSoC5/CapSense_CSHL.c ****                             else
 961:.\Generated_Source\PSoC5/CapSense_CSHL.c ****                             {
 962:.\Generated_Source\PSoC5/CapSense_CSHL.c ****                                 curPos = diplex[i];
 963:.\Generated_Source\PSoC5/CapSense_CSHL.c ****                             }                    
 964:.\Generated_Source\PSoC5/CapSense_CSHL.c ****                         #elif (CapSense_IS_DIPLEX_SLIDER)                    
 965:.\Generated_Source\PSoC5/CapSense_CSHL.c ****                             curPos = diplex[i];                    
 966:.\Generated_Source\PSoC5/CapSense_CSHL.c ****                         #endif /* (CapSense_IS_DIPLEX_SLIDER && CapSense_IS_NON_DIPLEX_SLIDER) */
 967:.\Generated_Source\PSoC5/CapSense_CSHL.c ****                         /* Looking for the grater element within centroid */
 968:.\Generated_Source\PSoC5/CapSense_CSHL.c ****                         if(startOfSlider[curPos] > fingerThreshold)
 969:.\Generated_Source\PSoC5/CapSense_CSHL.c ****                         {
 970:.\Generated_Source\PSoC5/CapSense_CSHL.c ****                             if(startOfSlider[curPos] > temp)
 971:.\Generated_Source\PSoC5/CapSense_CSHL.c ****                             {
 972:.\Generated_Source\PSoC5/CapSense_CSHL.c ****                                 maximum = i;
 973:.\Generated_Source\PSoC5/CapSense_CSHL.c ****                                 temp = startOfSlider[curPos];
 974:.\Generated_Source\PSoC5/CapSense_CSHL.c ****                             }
 975:.\Generated_Source\PSoC5/CapSense_CSHL.c ****                         }
 976:.\Generated_Source\PSoC5/CapSense_CSHL.c ****                     }
 977:.\Generated_Source\PSoC5/CapSense_CSHL.c ****                 } 
 978:.\Generated_Source\PSoC5/CapSense_CSHL.c ****         #else
 979:.\Generated_Source\PSoC5/CapSense_CSHL.c ****             for (i = 0u; i < count; i++)
 876              		.loc 1 979 0
 877 000a 3346     		mov	r3, r6
 878 000c 08E0     		b	.L71
ARM GAS  C:\Users\JohnP\AppData\Local\Temp\cc4GrDuO.s 			page 34


 879              	.LVL107:
 880              	.L73:
 980:.\Generated_Source\PSoC5/CapSense_CSHL.c ****             {                      
 981:.\Generated_Source\PSoC5/CapSense_CSHL.c ****                 /* Looking for the grater element within centroid */
 982:.\Generated_Source\PSoC5/CapSense_CSHL.c ****                 if(startOfSlider[i] > fingerThreshold)
 881              		.loc 1 982 0
 882 000e EC5C     		ldrb	r4, [r5, r3]	@ zero_extendqisi2
 883 0010 9442     		cmp	r4, r2
 884 0012 03D9     		bls	.L72
 983:.\Generated_Source\PSoC5/CapSense_CSHL.c ****                 {
 984:.\Generated_Source\PSoC5/CapSense_CSHL.c ****                     if(startOfSlider[i] > temp)
 885              		.loc 1 984 0
 886 0014 A642     		cmp	r6, r4
 887 0016 01D2     		bcs	.L72
 985:.\Generated_Source\PSoC5/CapSense_CSHL.c ****                     {
 986:.\Generated_Source\PSoC5/CapSense_CSHL.c ****                         maximum = i;
 987:.\Generated_Source\PSoC5/CapSense_CSHL.c ****                         temp = startOfSlider[i];
 888              		.loc 1 987 0
 889 0018 2646     		mov	r6, r4
 890              	.LVL108:
 986:.\Generated_Source\PSoC5/CapSense_CSHL.c ****                         maximum = i;
 891              		.loc 1 986 0
 892 001a 1846     		mov	r0, r3
 893              	.L72:
 894              	.LVL109:
 979:.\Generated_Source\PSoC5/CapSense_CSHL.c ****             for (i = 0u; i < count; i++)
 895              		.loc 1 979 0
 896 001c 0133     		adds	r3, r3, #1
 897              	.LVL110:
 898 001e DBB2     		uxtb	r3, r3
 899              	.LVL111:
 900              	.L71:
 979:.\Generated_Source\PSoC5/CapSense_CSHL.c ****             for (i = 0u; i < count; i++)
 901              		.loc 1 979 0 is_stmt 0 discriminator 1
 902 0020 8B42     		cmp	r3, r1
 903 0022 F4D3     		bcc	.L73
 988:.\Generated_Source\PSoC5/CapSense_CSHL.c ****                     }
 989:.\Generated_Source\PSoC5/CapSense_CSHL.c ****                 }
 990:.\Generated_Source\PSoC5/CapSense_CSHL.c ****             }    
 991:.\Generated_Source\PSoC5/CapSense_CSHL.c ****         #endif /* (CapSense_IS_DIPLEX_SLIDER) */
 992:.\Generated_Source\PSoC5/CapSense_CSHL.c ****         return (maximum);
 993:.\Generated_Source\PSoC5/CapSense_CSHL.c ****     }
 904              		.loc 1 993 0 is_stmt 1
 905 0024 70BC     		pop	{r4, r5, r6}
 906              	.LVL112:
 907 0026 7047     		bx	lr
 908              	.L76:
 909              		.align	2
 910              	.L75:
 911 0028 00000000 		.word	CapSense_sensorSignal
 912              		.cfi_endproc
 913              	.LFE11:
 914              		.size	CapSense_FindMaximum, .-CapSense_FindMaximum
 915              		.section	.text.CapSense_CalcCentroid,"ax",%progbits
 916              		.align	2
 917              		.global	CapSense_CalcCentroid
 918              		.thumb
ARM GAS  C:\Users\JohnP\AppData\Local\Temp\cc4GrDuO.s 			page 35


 919              		.thumb_func
 920              		.type	CapSense_CalcCentroid, %function
 921              	CapSense_CalcCentroid:
 922              	.LFB12:
 994:.\Generated_Source\PSoC5/CapSense_CSHL.c ****     
 995:.\Generated_Source\PSoC5/CapSense_CSHL.c ****     
 996:.\Generated_Source\PSoC5/CapSense_CSHL.c ****     /*******************************************************************************
 997:.\Generated_Source\PSoC5/CapSense_CSHL.c ****     * Function Name: CapSense_CalcCentroid
 998:.\Generated_Source\PSoC5/CapSense_CSHL.c ****     ********************************************************************************
 999:.\Generated_Source\PSoC5/CapSense_CSHL.c ****     *
1000:.\Generated_Source\PSoC5/CapSense_CSHL.c ****     * Summary:
1001:.\Generated_Source\PSoC5/CapSense_CSHL.c ****     *  Returns position value calculated accoring index of maximum element and API
1002:.\Generated_Source\PSoC5/CapSense_CSHL.c ****     *  resolution.
1003:.\Generated_Source\PSoC5/CapSense_CSHL.c ****     *
1004:.\Generated_Source\PSoC5/CapSense_CSHL.c ****     * Parameters:
1005:.\Generated_Source\PSoC5/CapSense_CSHL.c ****     *  type:  widget type.
1006:.\Generated_Source\PSoC5/CapSense_CSHL.c ****     *  diplex:  pointer to diplex table.
1007:.\Generated_Source\PSoC5/CapSense_CSHL.c ****     *  maximum:  Index of maximum element within centroid.
1008:.\Generated_Source\PSoC5/CapSense_CSHL.c ****     *  offset:   Start index of cetroid in CapSense_SensorSignal[] array.
1009:.\Generated_Source\PSoC5/CapSense_CSHL.c ****     *  count:    Number of elements within centroid.
1010:.\Generated_Source\PSoC5/CapSense_CSHL.c ****     *  resolution:  multiplicator calculated according to centroid type and
1011:.\Generated_Source\PSoC5/CapSense_CSHL.c ****     *  API resolution.
1012:.\Generated_Source\PSoC5/CapSense_CSHL.c ****     *  noiseThreshold:  Noise threshould.
1013:.\Generated_Source\PSoC5/CapSense_CSHL.c ****     * 
1014:.\Generated_Source\PSoC5/CapSense_CSHL.c ****     * Return:
1015:.\Generated_Source\PSoC5/CapSense_CSHL.c ****     *  Returns position value of the slider.
1016:.\Generated_Source\PSoC5/CapSense_CSHL.c ****     * 
1017:.\Generated_Source\PSoC5/CapSense_CSHL.c ****     *
1018:.\Generated_Source\PSoC5/CapSense_CSHL.c ****     * Reentrant:
1019:.\Generated_Source\PSoC5/CapSense_CSHL.c ****     *  No.
1020:.\Generated_Source\PSoC5/CapSense_CSHL.c ****     *
1021:.\Generated_Source\PSoC5/CapSense_CSHL.c ****     *******************************************************************************/
1022:.\Generated_Source\PSoC5/CapSense_CSHL.c ****     uint8 CapSense_CalcCentroid(uint8 maximum, uint8 offset, 
1023:.\Generated_Source\PSoC5/CapSense_CSHL.c ****                                         uint8 count, uint16 resolution, uint8 noiseThreshold)
1024:.\Generated_Source\PSoC5/CapSense_CSHL.c **** 	                                    
1025:.\Generated_Source\PSoC5/CapSense_CSHL.c ****     {
 923              		.loc 1 1025 0
 924              		.cfi_startproc
 925              		@ args = 4, pretend = 0, frame = 0
 926              		@ frame_needed = 0, uses_anonymous_args = 0
 927              		@ link register save eliminated.
 928              	.LVL113:
 929 0000 F0B4     		push	{r4, r5, r6, r7}
 930              		.cfi_def_cfa_offset 16
 931              		.cfi_offset 4, -16
 932              		.cfi_offset 5, -12
 933              		.cfi_offset 6, -8
 934              		.cfi_offset 7, -4
 935 0002 9DF81050 		ldrb	r5, [sp, #16]	@ zero_extendqisi2
 936              	.LVL114:
1026:.\Generated_Source\PSoC5/CapSense_CSHL.c ****         #if ((CapSense_TOTAL_LINEAR_SLIDERS_COUNT > 0u) || (CapSense_TOTAL_TOUCH_PADS_COUNT > 0u))
1027:.\Generated_Source\PSoC5/CapSense_CSHL.c ****             uint8 posPrev = 0u;
1028:.\Generated_Source\PSoC5/CapSense_CSHL.c ****             uint8 posNext = 0u;
1029:.\Generated_Source\PSoC5/CapSense_CSHL.c ****         #endif /* ((CapSense_TOTAL_LINEAR_SLIDERS_COUNT>0u) || (CapSense_TOTAL_TOUCH_PADS_COUNT>0u)
1030:.\Generated_Source\PSoC5/CapSense_CSHL.c ****                
1031:.\Generated_Source\PSoC5/CapSense_CSHL.c ****         #if (CapSense_IS_DIPLEX_SLIDER)                
1032:.\Generated_Source\PSoC5/CapSense_CSHL.c ****             uint8 pos;
ARM GAS  C:\Users\JohnP\AppData\Local\Temp\cc4GrDuO.s 			page 36


1033:.\Generated_Source\PSoC5/CapSense_CSHL.c ****         #endif /* (CapSense_IS_DIPLEX_SLIDER) */
1034:.\Generated_Source\PSoC5/CapSense_CSHL.c ****         
1035:.\Generated_Source\PSoC5/CapSense_CSHL.c ****         /* Helps while centroid calulation */
1036:.\Generated_Source\PSoC5/CapSense_CSHL.c ****         static uint8 CapSense_centroid[3u];
1037:.\Generated_Source\PSoC5/CapSense_CSHL.c **** 
1038:.\Generated_Source\PSoC5/CapSense_CSHL.c ****         uint8 position;
1039:.\Generated_Source\PSoC5/CapSense_CSHL.c ****         uint32 numerator;
1040:.\Generated_Source\PSoC5/CapSense_CSHL.c ****         int32 denominator;
1041:.\Generated_Source\PSoC5/CapSense_CSHL.c ****         uint8 *startOfSlider = &CapSense_sensorSignal[offset];
 937              		.loc 1 1041 0
 938 0006 2A4C     		ldr	r4, .L87
 939 0008 2144     		add	r1, r1, r4
 940              	.LVL115:
1042:.\Generated_Source\PSoC5/CapSense_CSHL.c ****                     
1043:.\Generated_Source\PSoC5/CapSense_CSHL.c ****         #if (CapSense_ADD_SLIDER_TYPE)
1044:.\Generated_Source\PSoC5/CapSense_CSHL.c ****             if(type == CapSense_TYPE_RADIAL_SLIDER)
1045:.\Generated_Source\PSoC5/CapSense_CSHL.c ****             {
1046:.\Generated_Source\PSoC5/CapSense_CSHL.c ****         #endif /* (CapSense_ADD_SLIDER_TYPE) */
1047:.\Generated_Source\PSoC5/CapSense_CSHL.c **** 
1048:.\Generated_Source\PSoC5/CapSense_CSHL.c ****             #if (CapSense_TOTAL_RADIAL_SLIDERS_COUNT > 0u)                
1049:.\Generated_Source\PSoC5/CapSense_CSHL.c ****                 /* Copy Signal for found centriod */
1050:.\Generated_Source\PSoC5/CapSense_CSHL.c ****                 CapSense_centroid[CapSense_POS] = startOfSlider[maximum];
1051:.\Generated_Source\PSoC5/CapSense_CSHL.c ****                  
1052:.\Generated_Source\PSoC5/CapSense_CSHL.c ****                 /* Check borders for ROTARY Slider */
1053:.\Generated_Source\PSoC5/CapSense_CSHL.c ****                 if (maximum == 0u)                   /* Start of centroid */
1054:.\Generated_Source\PSoC5/CapSense_CSHL.c ****                 { 
1055:.\Generated_Source\PSoC5/CapSense_CSHL.c ****                     CapSense_centroid[CapSense_POS_PREV] = startOfSlider[count - 1u];
1056:.\Generated_Source\PSoC5/CapSense_CSHL.c ****                     CapSense_centroid[CapSense_POS_NEXT] = startOfSlider[1u];
1057:.\Generated_Source\PSoC5/CapSense_CSHL.c ****                 }
1058:.\Generated_Source\PSoC5/CapSense_CSHL.c ****                 else if (maximum == (count - 1u))    /* End of centroid */
1059:.\Generated_Source\PSoC5/CapSense_CSHL.c ****                 {
1060:.\Generated_Source\PSoC5/CapSense_CSHL.c ****                     CapSense_centroid[CapSense_POS_PREV] = startOfSlider[maximum - 1u];
1061:.\Generated_Source\PSoC5/CapSense_CSHL.c ****                     CapSense_centroid[CapSense_POS_NEXT] = startOfSlider[0u];
1062:.\Generated_Source\PSoC5/CapSense_CSHL.c ****                 }
1063:.\Generated_Source\PSoC5/CapSense_CSHL.c ****                 else                                /* Not first Not last */
1064:.\Generated_Source\PSoC5/CapSense_CSHL.c ****                 {
1065:.\Generated_Source\PSoC5/CapSense_CSHL.c ****                     CapSense_centroid[CapSense_POS_PREV] = startOfSlider[maximum - 1u];
1066:.\Generated_Source\PSoC5/CapSense_CSHL.c ****                     CapSense_centroid[CapSense_POS_NEXT] = startOfSlider[maximum + 1u];
1067:.\Generated_Source\PSoC5/CapSense_CSHL.c ****                 }
1068:.\Generated_Source\PSoC5/CapSense_CSHL.c ****             #endif /* (CapSense_TOTAL_RADIAL_SLIDERS_COUNT > 0u) */
1069:.\Generated_Source\PSoC5/CapSense_CSHL.c **** 
1070:.\Generated_Source\PSoC5/CapSense_CSHL.c ****         #if (CapSense_ADD_SLIDER_TYPE)
1071:.\Generated_Source\PSoC5/CapSense_CSHL.c ****             }
1072:.\Generated_Source\PSoC5/CapSense_CSHL.c ****             else
1073:.\Generated_Source\PSoC5/CapSense_CSHL.c ****             {
1074:.\Generated_Source\PSoC5/CapSense_CSHL.c ****         #endif /* (CapSense_ADD_SLIDER_TYPE) */
1075:.\Generated_Source\PSoC5/CapSense_CSHL.c **** 
1076:.\Generated_Source\PSoC5/CapSense_CSHL.c ****             #if ((CapSense_TOTAL_LINEAR_SLIDERS_COUNT > 0u) || (CapSense_TOTAL_TOUCH_PADS_COUNT > 0
1077:.\Generated_Source\PSoC5/CapSense_CSHL.c ****                 #if (CapSense_IS_DIPLEX_SLIDER && CapSense_IS_NON_DIPLEX_SLIDER)                   
1078:.\Generated_Source\PSoC5/CapSense_CSHL.c ****                     /* Calculate next and previous near to maximum */
1079:.\Generated_Source\PSoC5/CapSense_CSHL.c ****                     if(diplex == 0u)
1080:.\Generated_Source\PSoC5/CapSense_CSHL.c ****                     {
1081:.\Generated_Source\PSoC5/CapSense_CSHL.c ****                         pos     = maximum;
1082:.\Generated_Source\PSoC5/CapSense_CSHL.c ****                         posPrev = maximum - 1u;
1083:.\Generated_Source\PSoC5/CapSense_CSHL.c ****                         posNext = maximum + 1u; 
1084:.\Generated_Source\PSoC5/CapSense_CSHL.c ****                     }
1085:.\Generated_Source\PSoC5/CapSense_CSHL.c ****                     else
ARM GAS  C:\Users\JohnP\AppData\Local\Temp\cc4GrDuO.s 			page 37


1086:.\Generated_Source\PSoC5/CapSense_CSHL.c ****                     {
1087:.\Generated_Source\PSoC5/CapSense_CSHL.c ****                         pos     = diplex[maximum];
1088:.\Generated_Source\PSoC5/CapSense_CSHL.c ****                         posPrev = diplex[maximum - 1u];
1089:.\Generated_Source\PSoC5/CapSense_CSHL.c ****                         posNext = diplex[maximum + 1u];
1090:.\Generated_Source\PSoC5/CapSense_CSHL.c ****                         count <<= 1u;
1091:.\Generated_Source\PSoC5/CapSense_CSHL.c ****                     }                    
1092:.\Generated_Source\PSoC5/CapSense_CSHL.c ****                 #elif (CapSense_IS_DIPLEX_SLIDER)
1093:.\Generated_Source\PSoC5/CapSense_CSHL.c ****                     /* Calculate next and previous near to maximum */
1094:.\Generated_Source\PSoC5/CapSense_CSHL.c ****                     pos     = diplex[maximum];
1095:.\Generated_Source\PSoC5/CapSense_CSHL.c ****                     posPrev = diplex[maximum - 1u];
1096:.\Generated_Source\PSoC5/CapSense_CSHL.c ****                     posNext = diplex[maximum + 1u];
1097:.\Generated_Source\PSoC5/CapSense_CSHL.c ****                     count <<= 1u;                    
1098:.\Generated_Source\PSoC5/CapSense_CSHL.c ****                 #else                    
1099:.\Generated_Source\PSoC5/CapSense_CSHL.c ****                     /* Calculate next and previous near to maximum */
1100:.\Generated_Source\PSoC5/CapSense_CSHL.c ****                     if (maximum >= 1u)
 941              		.loc 1 1100 0
 942 000a 0446     		mov	r4, r0
 943 000c 20B1     		cbz	r0, .L86
1101:.\Generated_Source\PSoC5/CapSense_CSHL.c ****                     {
1102:.\Generated_Source\PSoC5/CapSense_CSHL.c ****                         posPrev = maximum - 1u;
 944              		.loc 1 1102 0
 945 000e 00F1FF3C 		add	ip, r0, #-1
 946 0012 5FFA8CFC 		uxtb	ip, ip
 947              	.LVL116:
 948 0016 01E0     		b	.L78
 949              	.LVL117:
 950              	.L86:
1027:.\Generated_Source\PSoC5/CapSense_CSHL.c ****             uint8 posPrev = 0u;
 951              		.loc 1 1027 0
 952 0018 4FF0000C 		mov	ip, #0
 953              	.LVL118:
 954              	.L78:
1103:.\Generated_Source\PSoC5/CapSense_CSHL.c ****                     }
1104:.\Generated_Source\PSoC5/CapSense_CSHL.c ****                     posNext = maximum + 1u; 
 955              		.loc 1 1104 0
 956 001c 601C     		adds	r0, r4, #1
 957              	.LVL119:
 958 001e C7B2     		uxtb	r7, r0
 959              	.LVL120:
1105:.\Generated_Source\PSoC5/CapSense_CSHL.c ****                 #endif /* (CapSense_IS_DIPLEX_SLIDER && CapSense_IS_NON_DIPLEX_SLIDER) */
1106:.\Generated_Source\PSoC5/CapSense_CSHL.c ****                         
1107:.\Generated_Source\PSoC5/CapSense_CSHL.c ****                 /* Copy Signal for found centriod */
1108:.\Generated_Source\PSoC5/CapSense_CSHL.c ****                 #if (CapSense_IS_DIPLEX_SLIDER)
1109:.\Generated_Source\PSoC5/CapSense_CSHL.c ****                     CapSense_centroid[CapSense_POS] = startOfSlider[pos];
1110:.\Generated_Source\PSoC5/CapSense_CSHL.c ****                 #else
1111:.\Generated_Source\PSoC5/CapSense_CSHL.c ****                     CapSense_centroid[CapSense_POS] = startOfSlider[maximum];
 960              		.loc 1 1111 0
 961 0020 0E5D     		ldrb	r6, [r1, r4]	@ zero_extendqisi2
 962 0022 2448     		ldr	r0, .L87+4
 963              	.LVL121:
 964 0024 4671     		strb	r6, [r0, #5]
1112:.\Generated_Source\PSoC5/CapSense_CSHL.c ****                 #endif /* (CapSense_IS_DIPLEX_SLIDER) */
1113:.\Generated_Source\PSoC5/CapSense_CSHL.c ****                     
1114:.\Generated_Source\PSoC5/CapSense_CSHL.c ****                 /* Check borders for LINEAR Slider */
1115:.\Generated_Source\PSoC5/CapSense_CSHL.c ****                 if (maximum == 0u)                   /* Start of centroid */
 965              		.loc 1 1115 0
 966 0026 2CB9     		cbnz	r4, .L79
ARM GAS  C:\Users\JohnP\AppData\Local\Temp\cc4GrDuO.s 			page 38


1116:.\Generated_Source\PSoC5/CapSense_CSHL.c ****                 { 
1117:.\Generated_Source\PSoC5/CapSense_CSHL.c ****                     CapSense_centroid[CapSense_POS_PREV] = 0u;
 967              		.loc 1 1117 0
 968 0028 0246     		mov	r2, r0
 969              	.LVL122:
 970 002a 0020     		movs	r0, #0
 971 002c 1071     		strb	r0, [r2, #4]
1118:.\Generated_Source\PSoC5/CapSense_CSHL.c ****                     CapSense_centroid[CapSense_POS_NEXT] = startOfSlider[posNext];
 972              		.loc 1 1118 0
 973 002e C95D     		ldrb	r1, [r1, r7]	@ zero_extendqisi2
 974              	.LVL123:
 975 0030 9171     		strb	r1, [r2, #6]
 976 0032 0FE0     		b	.L80
 977              	.LVL124:
 978              	.L79:
1119:.\Generated_Source\PSoC5/CapSense_CSHL.c ****                 }
1120:.\Generated_Source\PSoC5/CapSense_CSHL.c ****                 else if (maximum == ((count) - 1u)) /* End of centroid */
 979              		.loc 1 1120 0
 980 0034 013A     		subs	r2, r2, #1
 981              	.LVL125:
 982 0036 9442     		cmp	r4, r2
 983 0038 06D1     		bne	.L81
1121:.\Generated_Source\PSoC5/CapSense_CSHL.c ****                 {
1122:.\Generated_Source\PSoC5/CapSense_CSHL.c ****                     CapSense_centroid[CapSense_POS_PREV] = startOfSlider[posPrev];
 984              		.loc 1 1122 0
 985 003a 11F80C10 		ldrb	r1, [r1, ip]	@ zero_extendqisi2
 986              	.LVL126:
 987 003e 1D4A     		ldr	r2, .L87+4
 988 0040 1171     		strb	r1, [r2, #4]
1123:.\Generated_Source\PSoC5/CapSense_CSHL.c ****                     CapSense_centroid[CapSense_POS_NEXT] = 0u;
 989              		.loc 1 1123 0
 990 0042 0021     		movs	r1, #0
 991 0044 9171     		strb	r1, [r2, #6]
 992 0046 05E0     		b	.L80
 993              	.LVL127:
 994              	.L81:
1124:.\Generated_Source\PSoC5/CapSense_CSHL.c ****                 }
1125:.\Generated_Source\PSoC5/CapSense_CSHL.c ****                 else                                /* Not first Not last */
1126:.\Generated_Source\PSoC5/CapSense_CSHL.c ****                 {
1127:.\Generated_Source\PSoC5/CapSense_CSHL.c ****                     CapSense_centroid[CapSense_POS_PREV] = startOfSlider[posPrev];
 995              		.loc 1 1127 0
 996 0048 11F80C00 		ldrb	r0, [r1, ip]	@ zero_extendqisi2
 997 004c 194A     		ldr	r2, .L87+4
 998 004e 1071     		strb	r0, [r2, #4]
1128:.\Generated_Source\PSoC5/CapSense_CSHL.c ****                     CapSense_centroid[CapSense_POS_NEXT] = startOfSlider[posNext];
 999              		.loc 1 1128 0
 1000 0050 C95D     		ldrb	r1, [r1, r7]	@ zero_extendqisi2
 1001              	.LVL128:
 1002 0052 9171     		strb	r1, [r2, #6]
 1003              	.L80:
1129:.\Generated_Source\PSoC5/CapSense_CSHL.c ****                 }
1130:.\Generated_Source\PSoC5/CapSense_CSHL.c ****             #endif /* ((CapSense_TOTAL_LINEAR_SLIDERS_COUNT>0u)||(CapSense_TOTAL_TOUCH_PADS_COUNT>0
1131:.\Generated_Source\PSoC5/CapSense_CSHL.c **** 
1132:.\Generated_Source\PSoC5/CapSense_CSHL.c ****         #if (CapSense_ADD_SLIDER_TYPE)
1133:.\Generated_Source\PSoC5/CapSense_CSHL.c ****             }
1134:.\Generated_Source\PSoC5/CapSense_CSHL.c ****         #endif /* (CapSense_ADD_SLIDER_TYPE) */
1135:.\Generated_Source\PSoC5/CapSense_CSHL.c ****     
ARM GAS  C:\Users\JohnP\AppData\Local\Temp\cc4GrDuO.s 			page 39


1136:.\Generated_Source\PSoC5/CapSense_CSHL.c ****         /* Subtract noiseThreshold */
1137:.\Generated_Source\PSoC5/CapSense_CSHL.c ****         if(CapSense_centroid[CapSense_POS_PREV] > noiseThreshold)
 1004              		.loc 1 1137 0
 1005 0054 174A     		ldr	r2, .L87+4
 1006 0056 1279     		ldrb	r2, [r2, #4]	@ zero_extendqisi2
 1007 0058 AA42     		cmp	r2, r5
 1008 005a 03D9     		bls	.L82
1138:.\Generated_Source\PSoC5/CapSense_CSHL.c ****         {
1139:.\Generated_Source\PSoC5/CapSense_CSHL.c ****             CapSense_centroid[CapSense_POS_PREV] -= noiseThreshold;
 1009              		.loc 1 1139 0
 1010 005c 521B     		subs	r2, r2, r5
 1011 005e 1549     		ldr	r1, .L87+4
 1012 0060 0A71     		strb	r2, [r1, #4]
 1013 0062 02E0     		b	.L83
 1014              	.L82:
1140:.\Generated_Source\PSoC5/CapSense_CSHL.c ****         }
1141:.\Generated_Source\PSoC5/CapSense_CSHL.c ****         else
1142:.\Generated_Source\PSoC5/CapSense_CSHL.c ****         {
1143:.\Generated_Source\PSoC5/CapSense_CSHL.c ****             CapSense_centroid[CapSense_POS_PREV] = 0u;
 1015              		.loc 1 1143 0
 1016 0064 0021     		movs	r1, #0
 1017 0066 134A     		ldr	r2, .L87+4
 1018 0068 1171     		strb	r1, [r2, #4]
 1019              	.L83:
1144:.\Generated_Source\PSoC5/CapSense_CSHL.c ****         }
1145:.\Generated_Source\PSoC5/CapSense_CSHL.c ****         
1146:.\Generated_Source\PSoC5/CapSense_CSHL.c ****         /* Maximum always grater than fingerThreshold, so grate than noiseThreshold */
1147:.\Generated_Source\PSoC5/CapSense_CSHL.c ****         CapSense_centroid[CapSense_POS] -= noiseThreshold;
 1020              		.loc 1 1147 0
 1021 006a 124A     		ldr	r2, .L87+4
 1022 006c 5179     		ldrb	r1, [r2, #5]	@ zero_extendqisi2
 1023 006e 491B     		subs	r1, r1, r5
 1024 0070 C9B2     		uxtb	r1, r1
 1025 0072 5171     		strb	r1, [r2, #5]
1148:.\Generated_Source\PSoC5/CapSense_CSHL.c ****         
1149:.\Generated_Source\PSoC5/CapSense_CSHL.c ****         /* Subtract noiseThreshold */
1150:.\Generated_Source\PSoC5/CapSense_CSHL.c ****         if(CapSense_centroid[CapSense_POS_NEXT] > noiseThreshold)
 1026              		.loc 1 1150 0
 1027 0074 9279     		ldrb	r2, [r2, #6]	@ zero_extendqisi2
 1028 0076 AA42     		cmp	r2, r5
 1029 0078 03D9     		bls	.L84
1151:.\Generated_Source\PSoC5/CapSense_CSHL.c ****         {
1152:.\Generated_Source\PSoC5/CapSense_CSHL.c ****             CapSense_centroid[CapSense_POS_NEXT] -= noiseThreshold;
 1030              		.loc 1 1152 0
 1031 007a 551B     		subs	r5, r2, r5
 1032 007c 0D48     		ldr	r0, .L87+4
 1033 007e 8571     		strb	r5, [r0, #6]
 1034 0080 02E0     		b	.L85
 1035              	.L84:
1153:.\Generated_Source\PSoC5/CapSense_CSHL.c ****         }
1154:.\Generated_Source\PSoC5/CapSense_CSHL.c ****         else
1155:.\Generated_Source\PSoC5/CapSense_CSHL.c ****         {
1156:.\Generated_Source\PSoC5/CapSense_CSHL.c ****             CapSense_centroid[CapSense_POS_NEXT] = 0u;
 1036              		.loc 1 1156 0
 1037 0082 0020     		movs	r0, #0
 1038 0084 0B4A     		ldr	r2, .L87+4
 1039 0086 9071     		strb	r0, [r2, #6]
ARM GAS  C:\Users\JohnP\AppData\Local\Temp\cc4GrDuO.s 			page 40


 1040              	.L85:
1157:.\Generated_Source\PSoC5/CapSense_CSHL.c ****         }
1158:.\Generated_Source\PSoC5/CapSense_CSHL.c ****         
1159:.\Generated_Source\PSoC5/CapSense_CSHL.c ****         
1160:.\Generated_Source\PSoC5/CapSense_CSHL.c ****         /* Si+1 - Si-1 */
1161:.\Generated_Source\PSoC5/CapSense_CSHL.c ****         numerator = (uint32) CapSense_centroid[CapSense_POS_NEXT] -
 1041              		.loc 1 1161 0
 1042 0088 0A48     		ldr	r0, .L87+4
 1043 008a 8279     		ldrb	r2, [r0, #6]	@ zero_extendqisi2
1162:.\Generated_Source\PSoC5/CapSense_CSHL.c ****                     (uint32) CapSense_centroid[CapSense_POS_PREV];
 1044              		.loc 1 1162 0
 1045 008c 0079     		ldrb	r0, [r0, #4]	@ zero_extendqisi2
1161:.\Generated_Source\PSoC5/CapSense_CSHL.c ****         numerator = (uint32) CapSense_centroid[CapSense_POS_NEXT] -
 1046              		.loc 1 1161 0
 1047 008e 151A     		subs	r5, r2, r0
 1048              	.LVL129:
1163:.\Generated_Source\PSoC5/CapSense_CSHL.c **** 
1164:.\Generated_Source\PSoC5/CapSense_CSHL.c ****         /* Si+1 + Si + Si-1 */
1165:.\Generated_Source\PSoC5/CapSense_CSHL.c ****         denominator = (int32) CapSense_centroid[CapSense_POS_PREV] + 
 1049              		.loc 1 1165 0
 1050 0090 0844     		add	r0, r0, r1
 1051 0092 0244     		add	r2, r2, r0
 1052              	.LVL130:
1166:.\Generated_Source\PSoC5/CapSense_CSHL.c ****                       (int32) CapSense_centroid[CapSense_POS] + 
1167:.\Generated_Source\PSoC5/CapSense_CSHL.c ****                       (int32) CapSense_centroid[CapSense_POS_NEXT];
1168:.\Generated_Source\PSoC5/CapSense_CSHL.c ****         
1169:.\Generated_Source\PSoC5/CapSense_CSHL.c ****         /* (numerator/denominator) + maximum */
1170:.\Generated_Source\PSoC5/CapSense_CSHL.c ****         denominator = (((int32)(uint32)((uint32)numerator << 8u)/denominator) + (int32)(uint32)((ui
 1053              		.loc 1 1170 0
 1054 0094 2802     		lsls	r0, r5, #8
 1055 0096 90FBF2F0 		sdiv	r0, r0, r2
 1056 009a 00EB0420 		add	r0, r0, r4, lsl #8
 1057              	.LVL131:
1171:.\Generated_Source\PSoC5/CapSense_CSHL.c **** 
1172:.\Generated_Source\PSoC5/CapSense_CSHL.c ****         #if(CapSense_TOTAL_RADIAL_SLIDERS_COUNT > 0u)
1173:.\Generated_Source\PSoC5/CapSense_CSHL.c ****             /* Only required for RADIAL Slider */
1174:.\Generated_Source\PSoC5/CapSense_CSHL.c ****             if(denominator < 0)
1175:.\Generated_Source\PSoC5/CapSense_CSHL.c ****             {
1176:.\Generated_Source\PSoC5/CapSense_CSHL.c ****                 denominator += (int32)((uint16)((uint16) count << 8u));
1177:.\Generated_Source\PSoC5/CapSense_CSHL.c ****             }
1178:.\Generated_Source\PSoC5/CapSense_CSHL.c ****         #endif /* (CapSense_TOTAL_RADIAL_SLIDERS_COUNT > 0u) */
1179:.\Generated_Source\PSoC5/CapSense_CSHL.c **** 
1180:.\Generated_Source\PSoC5/CapSense_CSHL.c ****         denominator *= (int16)resolution;
 1058              		.loc 1 1180 0
 1059 009e 1BB2     		sxth	r3, r3
 1060 00a0 00FB03F0 		mul	r0, r0, r3
 1061              	.LVL132:
1181:.\Generated_Source\PSoC5/CapSense_CSHL.c **** 
1182:.\Generated_Source\PSoC5/CapSense_CSHL.c ****         /* Round the relust and put it to uint8 */
1183:.\Generated_Source\PSoC5/CapSense_CSHL.c ****         position = ((uint8) HI16((uint32)denominator + CapSense_CENTROID_ROUND_VALUE));
 1062              		.loc 1 1183 0
 1063 00a4 00F5FE40 		add	r0, r0, #32512
 1064              	.LVL133:
1184:.\Generated_Source\PSoC5/CapSense_CSHL.c **** 
1185:.\Generated_Source\PSoC5/CapSense_CSHL.c ****         return (position);
1186:.\Generated_Source\PSoC5/CapSense_CSHL.c ****     }    
 1065              		.loc 1 1186 0
ARM GAS  C:\Users\JohnP\AppData\Local\Temp\cc4GrDuO.s 			page 41


 1066 00a8 C0F30740 		ubfx	r0, r0, #16, #8
 1067              	.LVL134:
 1068 00ac F0BC     		pop	{r4, r5, r6, r7}
 1069              	.LVL135:
 1070 00ae 7047     		bx	lr
 1071              	.L88:
 1072              		.align	2
 1073              	.L87:
 1074 00b0 00000000 		.word	CapSense_sensorSignal
 1075 00b4 00000000 		.word	.LANCHOR1
 1076              		.cfi_endproc
 1077              	.LFE12:
 1078              		.size	CapSense_CalcCentroid, .-CapSense_CalcCentroid
 1079              		.section	.text.CapSense_IIR4Filter,"ax",%progbits
 1080              		.align	2
 1081              		.global	CapSense_IIR4Filter
 1082              		.thumb
 1083              		.thumb_func
 1084              		.type	CapSense_IIR4Filter, %function
 1085              	CapSense_IIR4Filter:
 1086              	.LFB14:
1187:.\Generated_Source\PSoC5/CapSense_CSHL.c **** #endif /* (CapSense_TOTAL_CENTROIDS_COUNT) */
1188:.\Generated_Source\PSoC5/CapSense_CSHL.c **** 
1189:.\Generated_Source\PSoC5/CapSense_CSHL.c **** 
1190:.\Generated_Source\PSoC5/CapSense_CSHL.c **** #if(CapSense_TOTAL_LINEAR_SLIDERS_COUNT > 0u)
1191:.\Generated_Source\PSoC5/CapSense_CSHL.c ****     /*******************************************************************************
1192:.\Generated_Source\PSoC5/CapSense_CSHL.c ****     * Function Name: CapSense_GetCentroidPos
1193:.\Generated_Source\PSoC5/CapSense_CSHL.c ****     ********************************************************************************
1194:.\Generated_Source\PSoC5/CapSense_CSHL.c ****     *
1195:.\Generated_Source\PSoC5/CapSense_CSHL.c ****     * Summary:
1196:.\Generated_Source\PSoC5/CapSense_CSHL.c ****     *  Checks the CapSense_Signal[ ] array for a centroid within
1197:.\Generated_Source\PSoC5/CapSense_CSHL.c ****     *  slider specified range. The centroid position is calculated to the resolution
1198:.\Generated_Source\PSoC5/CapSense_CSHL.c ****     *  specified in the CapSense customizer. The position filters are applied to the
1199:.\Generated_Source\PSoC5/CapSense_CSHL.c ****     *  result if enabled.
1200:.\Generated_Source\PSoC5/CapSense_CSHL.c ****     *
1201:.\Generated_Source\PSoC5/CapSense_CSHL.c ****     * Parameters:
1202:.\Generated_Source\PSoC5/CapSense_CSHL.c ****     *  widget:  Widget number.
1203:.\Generated_Source\PSoC5/CapSense_CSHL.c ****     *  For every linear slider widget there are defines in this format:
1204:.\Generated_Source\PSoC5/CapSense_CSHL.c ****     *  #define CapSense_LS__"widget_name"            5
1205:.\Generated_Source\PSoC5/CapSense_CSHL.c ****     * 
1206:.\Generated_Source\PSoC5/CapSense_CSHL.c ****     * Return:
1207:.\Generated_Source\PSoC5/CapSense_CSHL.c ****     *  Returns position value of the linear slider.
1208:.\Generated_Source\PSoC5/CapSense_CSHL.c ****     *
1209:.\Generated_Source\PSoC5/CapSense_CSHL.c ****     * Side Effects:
1210:.\Generated_Source\PSoC5/CapSense_CSHL.c ****     *  If any sensor within the slider widget is active, the function returns values
1211:.\Generated_Source\PSoC5/CapSense_CSHL.c ****     *  from zero to the API resolution value set in the CapSense customizer. If no
1212:.\Generated_Source\PSoC5/CapSense_CSHL.c ****     *  sensors are active, the function returns 0xFFFF. If an error occurs during
1213:.\Generated_Source\PSoC5/CapSense_CSHL.c ****     *  execution of the centroid/diplexing algorithm, the function returns 0xFFFF.
1214:.\Generated_Source\PSoC5/CapSense_CSHL.c ****     *  There are no checks of widget type argument provided to this function.
1215:.\Generated_Source\PSoC5/CapSense_CSHL.c ****     *  The unproper widget type provided will cause unexpected position calculations.
1216:.\Generated_Source\PSoC5/CapSense_CSHL.c ****     *
1217:.\Generated_Source\PSoC5/CapSense_CSHL.c ****     * Note:
1218:.\Generated_Source\PSoC5/CapSense_CSHL.c ****     *  If noise counts on the slider segments are greater than the noise
1219:.\Generated_Source\PSoC5/CapSense_CSHL.c ****     *  threshold, this subroutine may generate a false centroid result. The noise
1220:.\Generated_Source\PSoC5/CapSense_CSHL.c ****     *  threshold should be set carefully (high enough above the noise level) so
1221:.\Generated_Source\PSoC5/CapSense_CSHL.c ****     *  that noise will not generate a false centroid.
1222:.\Generated_Source\PSoC5/CapSense_CSHL.c ****     *
ARM GAS  C:\Users\JohnP\AppData\Local\Temp\cc4GrDuO.s 			page 42


1223:.\Generated_Source\PSoC5/CapSense_CSHL.c ****     * Reentrant:
1224:.\Generated_Source\PSoC5/CapSense_CSHL.c ****     *  No.
1225:.\Generated_Source\PSoC5/CapSense_CSHL.c ****     *
1226:.\Generated_Source\PSoC5/CapSense_CSHL.c ****     *******************************************************************************/
1227:.\Generated_Source\PSoC5/CapSense_CSHL.c ****     uint16 CapSense_GetCentroidPos(uint8 widget) 
1228:.\Generated_Source\PSoC5/CapSense_CSHL.c ****     {
1229:.\Generated_Source\PSoC5/CapSense_CSHL.c ****         #if (CapSense_IS_DIPLEX_SLIDER)
1230:.\Generated_Source\PSoC5/CapSense_CSHL.c ****             const uint8 CYCODE *diplex;
1231:.\Generated_Source\PSoC5/CapSense_CSHL.c ****         #endif /* (CapSense_IS_DIPLEX_SLIDER) */
1232:.\Generated_Source\PSoC5/CapSense_CSHL.c ****                 
1233:.\Generated_Source\PSoC5/CapSense_CSHL.c ****         #if (0u != CapSense_LINEAR_SLIDERS_POS_FILTERS_MASK)
1234:.\Generated_Source\PSoC5/CapSense_CSHL.c ****             uint8 posIndex;
1235:.\Generated_Source\PSoC5/CapSense_CSHL.c ****             uint8 firstTimeIndex = CapSense_posFiltersData[widget];
1236:.\Generated_Source\PSoC5/CapSense_CSHL.c ****             uint8 posFiltersMask = CapSense_posFiltersMask[widget];  
1237:.\Generated_Source\PSoC5/CapSense_CSHL.c ****         #endif /* (0u != CapSense_LINEAR_SLIDERS_POS_FILTERS_MASK) */
1238:.\Generated_Source\PSoC5/CapSense_CSHL.c **** 
1239:.\Generated_Source\PSoC5/CapSense_CSHL.c ****         #if ((0u != (CapSense_MEDIAN_FILTER & CapSense_LINEAR_SLIDERS_POS_FILTERS_MASK)) || \
1240:.\Generated_Source\PSoC5/CapSense_CSHL.c ****              (0u != (CapSense_AVERAGING_FILTER & CapSense_LINEAR_SLIDERS_POS_FILTERS_MASK)))
1241:.\Generated_Source\PSoC5/CapSense_CSHL.c ****             uint8 tempPos;
1242:.\Generated_Source\PSoC5/CapSense_CSHL.c ****         #endif /* ((0u != (CapSense_MEDIAN_FILTER & CapSense_LINEAR_SLIDERS_POS_FILTERS_MASK)) || \
1243:.\Generated_Source\PSoC5/CapSense_CSHL.c ****                *   (0u != (CapSense_AVERAGING_FILTER & CapSense_LINEAR_SLIDERS_POS_FILTERS_MASK)))
1244:.\Generated_Source\PSoC5/CapSense_CSHL.c ****                */
1245:.\Generated_Source\PSoC5/CapSense_CSHL.c **** 
1246:.\Generated_Source\PSoC5/CapSense_CSHL.c ****         uint8 maximum;
1247:.\Generated_Source\PSoC5/CapSense_CSHL.c ****         uint16 position;
1248:.\Generated_Source\PSoC5/CapSense_CSHL.c ****         uint8 offset = CapSense_rawDataIndex[widget];
1249:.\Generated_Source\PSoC5/CapSense_CSHL.c ****         uint8 count = CapSense_numberOfSensors[widget];
1250:.\Generated_Source\PSoC5/CapSense_CSHL.c ****                         
1251:.\Generated_Source\PSoC5/CapSense_CSHL.c ****         #if (CapSense_IS_DIPLEX_SLIDER)
1252:.\Generated_Source\PSoC5/CapSense_CSHL.c ****             if(widget < CapSense_TOTAL_DIPLEXED_SLIDERS_COUNT)
1253:.\Generated_Source\PSoC5/CapSense_CSHL.c ****             {
1254:.\Generated_Source\PSoC5/CapSense_CSHL.c ****                 maximum = CapSense_diplexTable[widget];
1255:.\Generated_Source\PSoC5/CapSense_CSHL.c ****                 diplex = &CapSense_diplexTable[maximum];
1256:.\Generated_Source\PSoC5/CapSense_CSHL.c ****             }
1257:.\Generated_Source\PSoC5/CapSense_CSHL.c ****             else
1258:.\Generated_Source\PSoC5/CapSense_CSHL.c ****             {
1259:.\Generated_Source\PSoC5/CapSense_CSHL.c ****                 diplex = 0u;
1260:.\Generated_Source\PSoC5/CapSense_CSHL.c ****             }
1261:.\Generated_Source\PSoC5/CapSense_CSHL.c ****         #endif /* (CapSense_IS_DIPLEX_SLIDER) */
1262:.\Generated_Source\PSoC5/CapSense_CSHL.c **** 
1263:.\Generated_Source\PSoC5/CapSense_CSHL.c ****         /* Find Maximum within centroid */      
1264:.\Generated_Source\PSoC5/CapSense_CSHL.c ****         #if (CapSense_IS_DIPLEX_SLIDER)        
1265:.\Generated_Source\PSoC5/CapSense_CSHL.c ****             maximum = CapSense_FindMaximum(offset, count, CapSense_fingerThreshold[widget], diplex)
1266:.\Generated_Source\PSoC5/CapSense_CSHL.c ****         #else
1267:.\Generated_Source\PSoC5/CapSense_CSHL.c ****             maximum = CapSense_FindMaximum(offset, count, CapSense_fingerThreshold[widget]);
1268:.\Generated_Source\PSoC5/CapSense_CSHL.c ****         #endif /* (CapSense_IS_DIPLEX_SLIDER) */
1269:.\Generated_Source\PSoC5/CapSense_CSHL.c **** 
1270:.\Generated_Source\PSoC5/CapSense_CSHL.c ****         if (maximum != 0xFFu)
1271:.\Generated_Source\PSoC5/CapSense_CSHL.c ****         {
1272:.\Generated_Source\PSoC5/CapSense_CSHL.c ****             /* Calculate centroid */
1273:.\Generated_Source\PSoC5/CapSense_CSHL.c ****             position = (uint16) CapSense_CalcCentroid(maximum, 
1274:.\Generated_Source\PSoC5/CapSense_CSHL.c ****                          offset, count, CapSense_centroidMult[widget], CapSense_noiseThreshold[widg
1275:.\Generated_Source\PSoC5/CapSense_CSHL.c **** 
1276:.\Generated_Source\PSoC5/CapSense_CSHL.c ****             #if (0u != CapSense_LINEAR_SLIDERS_POS_FILTERS_MASK)
1277:.\Generated_Source\PSoC5/CapSense_CSHL.c ****                 /* Check if this linear slider has enabled filters */
1278:.\Generated_Source\PSoC5/CapSense_CSHL.c ****                 if (0u != (posFiltersMask & CapSense_ANY_POS_FILTER))
1279:.\Generated_Source\PSoC5/CapSense_CSHL.c ****                 {
ARM GAS  C:\Users\JohnP\AppData\Local\Temp\cc4GrDuO.s 			page 43


1280:.\Generated_Source\PSoC5/CapSense_CSHL.c ****                     /* Caluclate position to store filters data */
1281:.\Generated_Source\PSoC5/CapSense_CSHL.c ****                     posIndex  = firstTimeIndex + 1u;
1282:.\Generated_Source\PSoC5/CapSense_CSHL.c ****                     
1283:.\Generated_Source\PSoC5/CapSense_CSHL.c ****                     if (0u == CapSense_posFiltersData[firstTimeIndex])
1284:.\Generated_Source\PSoC5/CapSense_CSHL.c ****                     {
1285:.\Generated_Source\PSoC5/CapSense_CSHL.c ****                         /* Init filters */
1286:.\Generated_Source\PSoC5/CapSense_CSHL.c ****                         CapSense_posFiltersData[posIndex] = (uint8) position;
1287:.\Generated_Source\PSoC5/CapSense_CSHL.c ****                         #if ((0u != (CapSense_MEDIAN_FILTER & \
1288:.\Generated_Source\PSoC5/CapSense_CSHL.c ****                                      CapSense_LINEAR_SLIDERS_POS_FILTERS_MASK)) || \
1289:.\Generated_Source\PSoC5/CapSense_CSHL.c ****                              (0u != (CapSense_AVERAGING_FILTER & \
1290:.\Generated_Source\PSoC5/CapSense_CSHL.c ****                                      CapSense_LINEAR_SLIDERS_POS_FILTERS_MASK)))
1291:.\Generated_Source\PSoC5/CapSense_CSHL.c **** 
1292:.\Generated_Source\PSoC5/CapSense_CSHL.c ****                             if ( (0u != (posFiltersMask & CapSense_MEDIAN_FILTER)) || 
1293:.\Generated_Source\PSoC5/CapSense_CSHL.c ****                                  (0u != (posFiltersMask & CapSense_AVERAGING_FILTER)) )
1294:.\Generated_Source\PSoC5/CapSense_CSHL.c ****                             {
1295:.\Generated_Source\PSoC5/CapSense_CSHL.c ****                                 CapSense_posFiltersData[posIndex + 1u] = (uint8) position;
1296:.\Generated_Source\PSoC5/CapSense_CSHL.c ****                             }
1297:.\Generated_Source\PSoC5/CapSense_CSHL.c ****                         #endif /* ((0u != (CapSense_MEDIAN_FILTER & \
1298:.\Generated_Source\PSoC5/CapSense_CSHL.c ****                                *           CapSense_LINEAR_SLIDERS_POS_FILTERS_MASK)) || \
1299:.\Generated_Source\PSoC5/CapSense_CSHL.c ****                                *   (0u != (CapSense_AVERAGING_FILTER & \
1300:.\Generated_Source\PSoC5/CapSense_CSHL.c ****                                *           CapSense_LINEAR_SLIDERS_POS_FILTERS_MASK)))
1301:.\Generated_Source\PSoC5/CapSense_CSHL.c ****                                */
1302:.\Generated_Source\PSoC5/CapSense_CSHL.c ****                         
1303:.\Generated_Source\PSoC5/CapSense_CSHL.c ****                         CapSense_posFiltersData[firstTimeIndex] = 1u;
1304:.\Generated_Source\PSoC5/CapSense_CSHL.c ****                     }
1305:.\Generated_Source\PSoC5/CapSense_CSHL.c ****                     else
1306:.\Generated_Source\PSoC5/CapSense_CSHL.c ****                     {
1307:.\Generated_Source\PSoC5/CapSense_CSHL.c ****                         /* Do filtering */
1308:.\Generated_Source\PSoC5/CapSense_CSHL.c ****                         #if (0u != (CapSense_MEDIAN_FILTER & CapSense_LINEAR_SLIDERS_POS_FILTERS_MA
1309:.\Generated_Source\PSoC5/CapSense_CSHL.c ****                             if (0u != (posFiltersMask & CapSense_MEDIAN_FILTER))
1310:.\Generated_Source\PSoC5/CapSense_CSHL.c ****                             {
1311:.\Generated_Source\PSoC5/CapSense_CSHL.c ****                                 tempPos = (uint8) position;
1312:.\Generated_Source\PSoC5/CapSense_CSHL.c ****                                 position = CapSense_MedianFilter(position,
1313:.\Generated_Source\PSoC5/CapSense_CSHL.c ****                                                                 (uint16)CapSense_posFiltersData[pos
1314:.\Generated_Source\PSoC5/CapSense_CSHL.c ****                                                                 (uint16)CapSense_posFiltersData[pos
1315:.\Generated_Source\PSoC5/CapSense_CSHL.c ****                                 CapSense_posFiltersData[posIndex + 1u] =
1316:.\Generated_Source\PSoC5/CapSense_CSHL.c ****                                                                              CapSense_posFiltersDat
1317:.\Generated_Source\PSoC5/CapSense_CSHL.c ****                                 CapSense_posFiltersData[posIndex] = tempPos;
1318:.\Generated_Source\PSoC5/CapSense_CSHL.c ****                             }
1319:.\Generated_Source\PSoC5/CapSense_CSHL.c ****                         #endif /*(0u != (CapSense_MEDIAN_FILTER &
1320:.\Generated_Source\PSoC5/CapSense_CSHL.c ****                                *         CapSense_LINEAR_SLIDERS_POS_FILTERS_MASK))
1321:.\Generated_Source\PSoC5/CapSense_CSHL.c ****                                */
1322:.\Generated_Source\PSoC5/CapSense_CSHL.c **** 
1323:.\Generated_Source\PSoC5/CapSense_CSHL.c ****                         #if(0u!=(CapSense_AVERAGING_FILTER & CapSense_LINEAR_SLIDERS_POS_FILTERS_MA
1324:.\Generated_Source\PSoC5/CapSense_CSHL.c ****                             if (0u != (posFiltersMask & CapSense_AVERAGING_FILTER)) 
1325:.\Generated_Source\PSoC5/CapSense_CSHL.c ****                             {
1326:.\Generated_Source\PSoC5/CapSense_CSHL.c ****                                 tempPos = (uint8) position;
1327:.\Generated_Source\PSoC5/CapSense_CSHL.c ****                                 position = CapSense_AveragingFilter(position,
1328:.\Generated_Source\PSoC5/CapSense_CSHL.c ****                                                                 (uint16)CapSense_posFiltersData[pos
1329:.\Generated_Source\PSoC5/CapSense_CSHL.c ****                                                                 (uint16)CapSense_posFiltersData[pos
1330:.\Generated_Source\PSoC5/CapSense_CSHL.c ****                                 CapSense_posFiltersData[posIndex+1u]=CapSense_posFiltersData[posInd
1331:.\Generated_Source\PSoC5/CapSense_CSHL.c ****                                 CapSense_posFiltersData[posIndex] = tempPos;
1332:.\Generated_Source\PSoC5/CapSense_CSHL.c ****                             }
1333:.\Generated_Source\PSoC5/CapSense_CSHL.c ****                         #endif /* (0u != (CapSense_AVERAGING_FILTER & \
1334:.\Generated_Source\PSoC5/CapSense_CSHL.c ****                                *           CapSense_LINEAR_SLIDERS_POS_FILTERS_MASK))
1335:.\Generated_Source\PSoC5/CapSense_CSHL.c ****                                */
1336:.\Generated_Source\PSoC5/CapSense_CSHL.c **** 
ARM GAS  C:\Users\JohnP\AppData\Local\Temp\cc4GrDuO.s 			page 44


1337:.\Generated_Source\PSoC5/CapSense_CSHL.c ****                         #if (0u != (CapSense_IIR2_FILTER & CapSense_LINEAR_SLIDERS_POS_FILTERS_MASK
1338:.\Generated_Source\PSoC5/CapSense_CSHL.c ****                             if (0u != (posFiltersMask & CapSense_IIR2_FILTER)) 
1339:.\Generated_Source\PSoC5/CapSense_CSHL.c ****                             {
1340:.\Generated_Source\PSoC5/CapSense_CSHL.c ****                                 position = CapSense_IIR2Filter(position,
1341:.\Generated_Source\PSoC5/CapSense_CSHL.c ****                                                                     (uint16)CapSense_posFiltersData
1342:.\Generated_Source\PSoC5/CapSense_CSHL.c ****                                 CapSense_posFiltersData[posIndex] = (uint8) position;
1343:.\Generated_Source\PSoC5/CapSense_CSHL.c ****                             }
1344:.\Generated_Source\PSoC5/CapSense_CSHL.c ****                         #endif /* (0u != (CapSense_IIR2_FILTER & \
1345:.\Generated_Source\PSoC5/CapSense_CSHL.c ****                                *          CapSense_LINEAR_SLIDERS_POS_FILTERS_MASK))
1346:.\Generated_Source\PSoC5/CapSense_CSHL.c ****                                */
1347:.\Generated_Source\PSoC5/CapSense_CSHL.c **** 
1348:.\Generated_Source\PSoC5/CapSense_CSHL.c ****                         #if (0u != (CapSense_IIR4_FILTER & CapSense_LINEAR_SLIDERS_POS_FILTERS_MASK
1349:.\Generated_Source\PSoC5/CapSense_CSHL.c ****                             if (0u != (posFiltersMask & CapSense_IIR4_FILTER))
1350:.\Generated_Source\PSoC5/CapSense_CSHL.c ****                             {
1351:.\Generated_Source\PSoC5/CapSense_CSHL.c ****                                 position = CapSense_IIR4Filter(position,
1352:.\Generated_Source\PSoC5/CapSense_CSHL.c ****                                                                     (uint16)CapSense_posFiltersData
1353:.\Generated_Source\PSoC5/CapSense_CSHL.c ****                                 CapSense_posFiltersData[posIndex] = (uint8) position;
1354:.\Generated_Source\PSoC5/CapSense_CSHL.c ****                             }                                
1355:.\Generated_Source\PSoC5/CapSense_CSHL.c ****                         #endif /* (0u != (CapSense_IIR4_FILTER & \
1356:.\Generated_Source\PSoC5/CapSense_CSHL.c ****                                *          CapSense_LINEAR_SLIDERS_POS_FILTERS_MASK))
1357:.\Generated_Source\PSoC5/CapSense_CSHL.c ****                                */
1358:.\Generated_Source\PSoC5/CapSense_CSHL.c **** 
1359:.\Generated_Source\PSoC5/CapSense_CSHL.c ****                         #if (0u != (CapSense_JITTER_FILTER & CapSense_LINEAR_SLIDERS_POS_FILTERS_MA
1360:.\Generated_Source\PSoC5/CapSense_CSHL.c ****                             if (0u != (posFiltersMask & CapSense_JITTER_FILTER))
1361:.\Generated_Source\PSoC5/CapSense_CSHL.c ****                             {
1362:.\Generated_Source\PSoC5/CapSense_CSHL.c ****                                 position = CapSense_JitterFilter(position,
1363:.\Generated_Source\PSoC5/CapSense_CSHL.c ****                                                                     (uint16)CapSense_posFiltersData
1364:.\Generated_Source\PSoC5/CapSense_CSHL.c ****                                 CapSense_posFiltersData[posIndex] = (uint8) position;
1365:.\Generated_Source\PSoC5/CapSense_CSHL.c ****                             }
1366:.\Generated_Source\PSoC5/CapSense_CSHL.c ****                         #endif /* (0u != (CapSense_JITTER_FILTER & \
1367:.\Generated_Source\PSoC5/CapSense_CSHL.c ****                                *           CapSense_LINEAR_SLIDERS_POS_FILTERS_MASK))
1368:.\Generated_Source\PSoC5/CapSense_CSHL.c ****                                */
1369:.\Generated_Source\PSoC5/CapSense_CSHL.c ****                     }
1370:.\Generated_Source\PSoC5/CapSense_CSHL.c ****                 }
1371:.\Generated_Source\PSoC5/CapSense_CSHL.c ****             #endif /* (0u != CapSense_LINEAR_SLIDERS_POS_FILTERS_MASK) */
1372:.\Generated_Source\PSoC5/CapSense_CSHL.c **** 
1373:.\Generated_Source\PSoC5/CapSense_CSHL.c ****         }
1374:.\Generated_Source\PSoC5/CapSense_CSHL.c ****         else
1375:.\Generated_Source\PSoC5/CapSense_CSHL.c ****         {
1376:.\Generated_Source\PSoC5/CapSense_CSHL.c ****             /* The maximum wasn't found */
1377:.\Generated_Source\PSoC5/CapSense_CSHL.c ****             position = 0xFFFFu;
1378:.\Generated_Source\PSoC5/CapSense_CSHL.c **** 
1379:.\Generated_Source\PSoC5/CapSense_CSHL.c ****             #if(0u != CapSense_LINEAR_SLIDERS_POS_FILTERS_MASK)
1380:.\Generated_Source\PSoC5/CapSense_CSHL.c ****                 /* Reset the filters */
1381:.\Generated_Source\PSoC5/CapSense_CSHL.c ****                 if(0u != (posFiltersMask & CapSense_ANY_POS_FILTER))
1382:.\Generated_Source\PSoC5/CapSense_CSHL.c ****                 {
1383:.\Generated_Source\PSoC5/CapSense_CSHL.c ****                     CapSense_posFiltersData[firstTimeIndex] = 0u;
1384:.\Generated_Source\PSoC5/CapSense_CSHL.c ****                 }
1385:.\Generated_Source\PSoC5/CapSense_CSHL.c ****             #endif /* (0u != CapSense_LINEAR_SLIDERS_POS_FILTERS_MASK) */
1386:.\Generated_Source\PSoC5/CapSense_CSHL.c ****         }
1387:.\Generated_Source\PSoC5/CapSense_CSHL.c **** 
1388:.\Generated_Source\PSoC5/CapSense_CSHL.c ****         
1389:.\Generated_Source\PSoC5/CapSense_CSHL.c ****         return (position);
1390:.\Generated_Source\PSoC5/CapSense_CSHL.c ****     }
1391:.\Generated_Source\PSoC5/CapSense_CSHL.c **** #endif /* (CapSense_TOTAL_LINEAR_SLIDERS_COUNT > 0u) */
1392:.\Generated_Source\PSoC5/CapSense_CSHL.c **** 
1393:.\Generated_Source\PSoC5/CapSense_CSHL.c **** 
ARM GAS  C:\Users\JohnP\AppData\Local\Temp\cc4GrDuO.s 			page 45


1394:.\Generated_Source\PSoC5/CapSense_CSHL.c **** #if(CapSense_TOTAL_RADIAL_SLIDERS_COUNT > 0u)
1395:.\Generated_Source\PSoC5/CapSense_CSHL.c ****     /*******************************************************************************
1396:.\Generated_Source\PSoC5/CapSense_CSHL.c ****     * Function Name: CapSense_GetRadialCentroidPos
1397:.\Generated_Source\PSoC5/CapSense_CSHL.c ****     ********************************************************************************
1398:.\Generated_Source\PSoC5/CapSense_CSHL.c ****     *
1399:.\Generated_Source\PSoC5/CapSense_CSHL.c ****     * Summary:
1400:.\Generated_Source\PSoC5/CapSense_CSHL.c ****     *  Checks the CapSense_Signal[ ] array for a centroid within
1401:.\Generated_Source\PSoC5/CapSense_CSHL.c ****     *  slider specified range. The centroid position is calculated to the resolution
1402:.\Generated_Source\PSoC5/CapSense_CSHL.c ****     *  specified in the CapSense customizer. The position filters are applied to the
1403:.\Generated_Source\PSoC5/CapSense_CSHL.c ****     *  result if enabled.
1404:.\Generated_Source\PSoC5/CapSense_CSHL.c ****     *
1405:.\Generated_Source\PSoC5/CapSense_CSHL.c ****     * Parameters:
1406:.\Generated_Source\PSoC5/CapSense_CSHL.c ****     *  widget:  Widget number.
1407:.\Generated_Source\PSoC5/CapSense_CSHL.c ****     *  For every radial slider widget there are defines in this format:
1408:.\Generated_Source\PSoC5/CapSense_CSHL.c ****     *  #define CapSense_RS_"widget_name"            5
1409:.\Generated_Source\PSoC5/CapSense_CSHL.c ****     * 
1410:.\Generated_Source\PSoC5/CapSense_CSHL.c ****     * Return:
1411:.\Generated_Source\PSoC5/CapSense_CSHL.c ****     *  Returns position value of the radial slider.
1412:.\Generated_Source\PSoC5/CapSense_CSHL.c ****     *
1413:.\Generated_Source\PSoC5/CapSense_CSHL.c ****     * Side Effects:
1414:.\Generated_Source\PSoC5/CapSense_CSHL.c ****     *  If any sensor within the slider widget is active, the function returns values
1415:.\Generated_Source\PSoC5/CapSense_CSHL.c ****     *  from zero to the API resolution value set in the CapSense customizer. If no
1416:.\Generated_Source\PSoC5/CapSense_CSHL.c ****     *  sensors are active, the function returns 0xFFFF.
1417:.\Generated_Source\PSoC5/CapSense_CSHL.c ****     *  There are no checks of widget type argument provided to this function.
1418:.\Generated_Source\PSoC5/CapSense_CSHL.c ****     *  The unproper widget type provided will cause unexpected position calculations.
1419:.\Generated_Source\PSoC5/CapSense_CSHL.c ****     *
1420:.\Generated_Source\PSoC5/CapSense_CSHL.c ****     * Note:
1421:.\Generated_Source\PSoC5/CapSense_CSHL.c ****     *  If noise counts on the slider segments are greater than the noise
1422:.\Generated_Source\PSoC5/CapSense_CSHL.c ****     *  threshold, this subroutine may generate a false centroid result. The noise
1423:.\Generated_Source\PSoC5/CapSense_CSHL.c ****     *  threshold should be set carefully (high enough above the noise level) so 
1424:.\Generated_Source\PSoC5/CapSense_CSHL.c ****     *  that noise will not generate a false centroid.
1425:.\Generated_Source\PSoC5/CapSense_CSHL.c ****     *
1426:.\Generated_Source\PSoC5/CapSense_CSHL.c ****     *
1427:.\Generated_Source\PSoC5/CapSense_CSHL.c ****     * Reentrant:
1428:.\Generated_Source\PSoC5/CapSense_CSHL.c ****     *  No.
1429:.\Generated_Source\PSoC5/CapSense_CSHL.c ****     *
1430:.\Generated_Source\PSoC5/CapSense_CSHL.c ****     *******************************************************************************/
1431:.\Generated_Source\PSoC5/CapSense_CSHL.c ****      uint16 CapSense_GetRadialCentroidPos(uint8 widget)
1432:.\Generated_Source\PSoC5/CapSense_CSHL.c **** 	                                       
1433:.\Generated_Source\PSoC5/CapSense_CSHL.c ****     {
1434:.\Generated_Source\PSoC5/CapSense_CSHL.c ****         #if (0u != CapSense_RADIAL_SLIDERS_POS_FILTERS_MASK)
1435:.\Generated_Source\PSoC5/CapSense_CSHL.c ****             uint8 posIndex;
1436:.\Generated_Source\PSoC5/CapSense_CSHL.c ****             uint8 firstTimeIndex = CapSense_posFiltersData[widget];
1437:.\Generated_Source\PSoC5/CapSense_CSHL.c ****             uint8 posFiltersMask = CapSense_posFiltersMask[widget]; 
1438:.\Generated_Source\PSoC5/CapSense_CSHL.c ****         #endif /* (0u != CapSense_RADIAL_SLIDERS_POS_FILTERS_MASK) */
1439:.\Generated_Source\PSoC5/CapSense_CSHL.c **** 
1440:.\Generated_Source\PSoC5/CapSense_CSHL.c ****         #if ((0u != (CapSense_MEDIAN_FILTER & CapSense_RADIAL_SLIDERS_POS_FILTERS_MASK)) || \
1441:.\Generated_Source\PSoC5/CapSense_CSHL.c ****              (0u != (CapSense_AVERAGING_FILTER & CapSense_RADIAL_SLIDERS_POS_FILTERS_MASK)))
1442:.\Generated_Source\PSoC5/CapSense_CSHL.c ****             uint8 tempPos;
1443:.\Generated_Source\PSoC5/CapSense_CSHL.c ****         #endif /* ((0u != (CapSense_MEDIAN_FILTER & CapSense_RADIAL_SLIDERS_POS_FILTERS_MASK)) || \
1444:.\Generated_Source\PSoC5/CapSense_CSHL.c ****                *   (0u != (CapSense_AVERAGING_FILTER & CapSense_RADIAL_SLIDERS_POS_FILTERS_MASK)))
1445:.\Generated_Source\PSoC5/CapSense_CSHL.c ****                */
1446:.\Generated_Source\PSoC5/CapSense_CSHL.c **** 
1447:.\Generated_Source\PSoC5/CapSense_CSHL.c ****         uint8 maximum;
1448:.\Generated_Source\PSoC5/CapSense_CSHL.c ****         uint16 position;
1449:.\Generated_Source\PSoC5/CapSense_CSHL.c ****         uint8 offset = CapSense_rawDataIndex[widget];
1450:.\Generated_Source\PSoC5/CapSense_CSHL.c ****         uint8 count = CapSense_numberOfSensors[widget];
ARM GAS  C:\Users\JohnP\AppData\Local\Temp\cc4GrDuO.s 			page 46


1451:.\Generated_Source\PSoC5/CapSense_CSHL.c ****         
1452:.\Generated_Source\PSoC5/CapSense_CSHL.c ****         /* Find Maximum within centroid */        
1453:.\Generated_Source\PSoC5/CapSense_CSHL.c ****         #if (CapSense_IS_DIPLEX_SLIDER)
1454:.\Generated_Source\PSoC5/CapSense_CSHL.c ****             maximum = CapSense_FindMaximum(offset, count, CapSense_fingerThreshold[widget], 0u);
1455:.\Generated_Source\PSoC5/CapSense_CSHL.c ****         #else
1456:.\Generated_Source\PSoC5/CapSense_CSHL.c ****             maximum = CapSense_FindMaximum(offset, count, CapSense_fingerThreshold[widget]);
1457:.\Generated_Source\PSoC5/CapSense_CSHL.c ****         #endif /* (CapSense_IS_DIPLEX_SLIDER) */
1458:.\Generated_Source\PSoC5/CapSense_CSHL.c ****         
1459:.\Generated_Source\PSoC5/CapSense_CSHL.c ****         if (maximum != 0xFFu)
1460:.\Generated_Source\PSoC5/CapSense_CSHL.c ****         {
1461:.\Generated_Source\PSoC5/CapSense_CSHL.c ****             /* Calculate centroid */
1462:.\Generated_Source\PSoC5/CapSense_CSHL.c ****             position = (uint16) CapSense_CalcCentroid(maximum, 
1463:.\Generated_Source\PSoC5/CapSense_CSHL.c ****                          offset, count, CapSense_centroidMult[widget], CapSense_noiseThreshold[widg
1464:.\Generated_Source\PSoC5/CapSense_CSHL.c **** 
1465:.\Generated_Source\PSoC5/CapSense_CSHL.c ****             #if (0u != CapSense_RADIAL_SLIDERS_POS_FILTERS_MASK)
1466:.\Generated_Source\PSoC5/CapSense_CSHL.c ****                 /* Check if this Radial slider has enabled filters */
1467:.\Generated_Source\PSoC5/CapSense_CSHL.c ****                 if (0u != (posFiltersMask & CapSense_ANY_POS_FILTER))
1468:.\Generated_Source\PSoC5/CapSense_CSHL.c ****                 {
1469:.\Generated_Source\PSoC5/CapSense_CSHL.c ****                     /* Caluclate position to store filters data */
1470:.\Generated_Source\PSoC5/CapSense_CSHL.c ****                     posIndex  = firstTimeIndex + 1u;
1471:.\Generated_Source\PSoC5/CapSense_CSHL.c ****                     
1472:.\Generated_Source\PSoC5/CapSense_CSHL.c ****                     if (0u == CapSense_posFiltersData[firstTimeIndex])
1473:.\Generated_Source\PSoC5/CapSense_CSHL.c ****                     {
1474:.\Generated_Source\PSoC5/CapSense_CSHL.c ****                         /* Init filters */
1475:.\Generated_Source\PSoC5/CapSense_CSHL.c ****                         CapSense_posFiltersData[posIndex] = (uint8) position;
1476:.\Generated_Source\PSoC5/CapSense_CSHL.c ****                         #if ((0u != (CapSense_MEDIAN_FILTER & \
1477:.\Generated_Source\PSoC5/CapSense_CSHL.c ****                                      CapSense_RADIAL_SLIDERS_POS_FILTERS_MASK)) || \
1478:.\Generated_Source\PSoC5/CapSense_CSHL.c ****                              (0u != (CapSense_AVERAGING_FILTER & \
1479:.\Generated_Source\PSoC5/CapSense_CSHL.c ****                                      CapSense_RADIAL_SLIDERS_POS_FILTERS_MASK)))
1480:.\Generated_Source\PSoC5/CapSense_CSHL.c **** 
1481:.\Generated_Source\PSoC5/CapSense_CSHL.c ****                             if ( (0u != (posFiltersMask & CapSense_MEDIAN_FILTER))  || 
1482:.\Generated_Source\PSoC5/CapSense_CSHL.c ****                                  (0u != (posFiltersMask & CapSense_AVERAGING_FILTER)) )
1483:.\Generated_Source\PSoC5/CapSense_CSHL.c ****                             {
1484:.\Generated_Source\PSoC5/CapSense_CSHL.c ****                                 CapSense_posFiltersData[posIndex + 1u] = (uint8) position;
1485:.\Generated_Source\PSoC5/CapSense_CSHL.c ****                             }
1486:.\Generated_Source\PSoC5/CapSense_CSHL.c ****                         #endif /* ((0u != (CapSense_MEDIAN_FILTER & \
1487:.\Generated_Source\PSoC5/CapSense_CSHL.c ****                                *           CapSense_RADIAL_SLIDERS_POS_FILTERS_MASK)) || \
1488:.\Generated_Source\PSoC5/CapSense_CSHL.c ****                                *   (0u != (CapSense_AVERAGING_FILTER & \
1489:.\Generated_Source\PSoC5/CapSense_CSHL.c ****                                *           CapSense_RADIAL_SLIDERS_POS_FILTERS_MASK)))
1490:.\Generated_Source\PSoC5/CapSense_CSHL.c ****                                */
1491:.\Generated_Source\PSoC5/CapSense_CSHL.c ****                         
1492:.\Generated_Source\PSoC5/CapSense_CSHL.c ****                         CapSense_posFiltersData[firstTimeIndex] = 1u;
1493:.\Generated_Source\PSoC5/CapSense_CSHL.c ****                     }
1494:.\Generated_Source\PSoC5/CapSense_CSHL.c ****                     else
1495:.\Generated_Source\PSoC5/CapSense_CSHL.c ****                     {
1496:.\Generated_Source\PSoC5/CapSense_CSHL.c ****                         /* Do filtering */
1497:.\Generated_Source\PSoC5/CapSense_CSHL.c ****                         #if (0u != (CapSense_MEDIAN_FILTER & CapSense_RADIAL_SLIDERS_POS_FILTERS_MA
1498:.\Generated_Source\PSoC5/CapSense_CSHL.c ****                             if (0u != (posFiltersMask & CapSense_MEDIAN_FILTER))
1499:.\Generated_Source\PSoC5/CapSense_CSHL.c ****                             {
1500:.\Generated_Source\PSoC5/CapSense_CSHL.c ****                                 tempPos = (uint8) position;
1501:.\Generated_Source\PSoC5/CapSense_CSHL.c ****                                 position = CapSense_MedianFilter(position,
1502:.\Generated_Source\PSoC5/CapSense_CSHL.c ****                                                                         CapSense_posFiltersData[pos
1503:.\Generated_Source\PSoC5/CapSense_CSHL.c ****                                                                         CapSense_posFiltersData[pos
1504:.\Generated_Source\PSoC5/CapSense_CSHL.c ****                                 CapSense_posFiltersData[posIndex + 1u] = 
1505:.\Generated_Source\PSoC5/CapSense_CSHL.c ****                                                                               CapSense_posFiltersDa
1506:.\Generated_Source\PSoC5/CapSense_CSHL.c ****                                 CapSense_posFiltersData[posIndex] = tempPos;
1507:.\Generated_Source\PSoC5/CapSense_CSHL.c ****                             }
ARM GAS  C:\Users\JohnP\AppData\Local\Temp\cc4GrDuO.s 			page 47


1508:.\Generated_Source\PSoC5/CapSense_CSHL.c ****                         #endif /* (0u != (CapSense_MEDIAN_FILTER & 
1509:.\Generated_Source\PSoC5/CapSense_CSHL.c ****                                *          CapSense_RADIAL_SLIDERS_POS_FILTERS_MASK))
1510:.\Generated_Source\PSoC5/CapSense_CSHL.c ****                                */
1511:.\Generated_Source\PSoC5/CapSense_CSHL.c **** 
1512:.\Generated_Source\PSoC5/CapSense_CSHL.c ****                         #if (0u != (CapSense_AVERAGING_FILTER & \
1513:.\Generated_Source\PSoC5/CapSense_CSHL.c ****                                     CapSense_RADIAL_SLIDERS_POS_FILTERS_MASK))
1514:.\Generated_Source\PSoC5/CapSense_CSHL.c ****                             if (0u != (posFiltersMask & CapSense_AVERAGING_FILTER))
1515:.\Generated_Source\PSoC5/CapSense_CSHL.c ****                             {
1516:.\Generated_Source\PSoC5/CapSense_CSHL.c ****                                 tempPos = (uint8) position;
1517:.\Generated_Source\PSoC5/CapSense_CSHL.c ****                                 position = CapSense_AveragingFilter(position, 
1518:.\Generated_Source\PSoC5/CapSense_CSHL.c ****                                                                        CapSense_posFiltersData[posI
1519:.\Generated_Source\PSoC5/CapSense_CSHL.c ****                                                                        CapSense_posFiltersData[posI
1520:.\Generated_Source\PSoC5/CapSense_CSHL.c ****                                 CapSense_posFiltersData[posIndex+1u]= CapSense_posFiltersData[posIn
1521:.\Generated_Source\PSoC5/CapSense_CSHL.c ****                                 CapSense_posFiltersData[posIndex] = tempPos;
1522:.\Generated_Source\PSoC5/CapSense_CSHL.c ****                             }
1523:.\Generated_Source\PSoC5/CapSense_CSHL.c ****                         #endif /* (0u != (CapSense_AVERAGING_FILTER & \
1524:.\Generated_Source\PSoC5/CapSense_CSHL.c ****                                *          CapSense_RADIAL_SLIDERS_POS_FILTERS_MASK))
1525:.\Generated_Source\PSoC5/CapSense_CSHL.c ****                                */
1526:.\Generated_Source\PSoC5/CapSense_CSHL.c **** 
1527:.\Generated_Source\PSoC5/CapSense_CSHL.c ****                         #if (0u != (CapSense_IIR2_FILTER & CapSense_RADIAL_SLIDERS_POS_FILTERS_MASK
1528:.\Generated_Source\PSoC5/CapSense_CSHL.c ****                             if (0u != (posFiltersMask & CapSense_IIR2_FILTER))
1529:.\Generated_Source\PSoC5/CapSense_CSHL.c ****                             {
1530:.\Generated_Source\PSoC5/CapSense_CSHL.c ****                                 position = CapSense_IIR2Filter(position,
1531:.\Generated_Source\PSoC5/CapSense_CSHL.c ****                                                                     (uint16)CapSense_posFiltersData
1532:.\Generated_Source\PSoC5/CapSense_CSHL.c ****                                 CapSense_posFiltersData[posIndex] = (uint8) position;
1533:.\Generated_Source\PSoC5/CapSense_CSHL.c ****                             }
1534:.\Generated_Source\PSoC5/CapSense_CSHL.c ****                         #endif /* (0u != (CapSense_IIR2_FILTER & 
1535:.\Generated_Source\PSoC5/CapSense_CSHL.c ****                                *          CapSense_RADIAL_SLIDERS_POS_FILTERS_MASK))
1536:.\Generated_Source\PSoC5/CapSense_CSHL.c ****                                */
1537:.\Generated_Source\PSoC5/CapSense_CSHL.c **** 
1538:.\Generated_Source\PSoC5/CapSense_CSHL.c ****                         #if (0u != (CapSense_IIR4_FILTER & CapSense_RADIAL_SLIDERS_POS_FILTERS_MASK
1539:.\Generated_Source\PSoC5/CapSense_CSHL.c ****                             if (0u != (posFiltersMask & CapSense_IIR4_FILTER))
1540:.\Generated_Source\PSoC5/CapSense_CSHL.c ****                             {
1541:.\Generated_Source\PSoC5/CapSense_CSHL.c ****                                 position = CapSense_IIR4Filter(position,
1542:.\Generated_Source\PSoC5/CapSense_CSHL.c ****                                                                     (uint16)CapSense_posFiltersData
1543:.\Generated_Source\PSoC5/CapSense_CSHL.c ****                                 CapSense_posFiltersData[posIndex] = (uint8) position;
1544:.\Generated_Source\PSoC5/CapSense_CSHL.c ****                             }
1545:.\Generated_Source\PSoC5/CapSense_CSHL.c ****                         #endif /* (0u != (CapSense_IIR4_FILTER & 
1546:.\Generated_Source\PSoC5/CapSense_CSHL.c ****                                *          CapSense_RADIAL_SLIDERS_POS_FILTERS_MASK))
1547:.\Generated_Source\PSoC5/CapSense_CSHL.c ****                                */
1548:.\Generated_Source\PSoC5/CapSense_CSHL.c **** 
1549:.\Generated_Source\PSoC5/CapSense_CSHL.c ****                         #if (0u != (CapSense_JITTER_FILTER & CapSense_RADIAL_SLIDERS_POS_FILTERS_MA
1550:.\Generated_Source\PSoC5/CapSense_CSHL.c ****                             if (0u != (posFiltersMask & CapSense_JITTER_FILTER))
1551:.\Generated_Source\PSoC5/CapSense_CSHL.c ****                             {
1552:.\Generated_Source\PSoC5/CapSense_CSHL.c ****                                 position = CapSense_JitterFilter(position, 
1553:.\Generated_Source\PSoC5/CapSense_CSHL.c ****                                                                          CapSense_posFiltersData[po
1554:.\Generated_Source\PSoC5/CapSense_CSHL.c ****                                 CapSense_posFiltersData[posIndex] = (uint8) position;
1555:.\Generated_Source\PSoC5/CapSense_CSHL.c ****                             }
1556:.\Generated_Source\PSoC5/CapSense_CSHL.c ****                         #endif /* (0u != (CapSense_JITTER_FILTER &
1557:.\Generated_Source\PSoC5/CapSense_CSHL.c ****                                *           CapSense_RADIAL_SLIDERS_POS_FILTERS_MASK))
1558:.\Generated_Source\PSoC5/CapSense_CSHL.c ****                                */
1559:.\Generated_Source\PSoC5/CapSense_CSHL.c ****                     }
1560:.\Generated_Source\PSoC5/CapSense_CSHL.c ****                 }
1561:.\Generated_Source\PSoC5/CapSense_CSHL.c ****             #endif /* (0u != CapSense_RADIAL_SLIDERS_POS_FILTERS_MASK) */
1562:.\Generated_Source\PSoC5/CapSense_CSHL.c **** 
1563:.\Generated_Source\PSoC5/CapSense_CSHL.c ****         }
1564:.\Generated_Source\PSoC5/CapSense_CSHL.c ****         else
ARM GAS  C:\Users\JohnP\AppData\Local\Temp\cc4GrDuO.s 			page 48


1565:.\Generated_Source\PSoC5/CapSense_CSHL.c ****         {
1566:.\Generated_Source\PSoC5/CapSense_CSHL.c ****             /* The maximum didn't find */
1567:.\Generated_Source\PSoC5/CapSense_CSHL.c ****             position = 0xFFFFu;
1568:.\Generated_Source\PSoC5/CapSense_CSHL.c **** 
1569:.\Generated_Source\PSoC5/CapSense_CSHL.c ****             #if (0u != CapSense_RADIAL_SLIDERS_POS_FILTERS_MASK)
1570:.\Generated_Source\PSoC5/CapSense_CSHL.c ****                 /* Reset the filters */
1571:.\Generated_Source\PSoC5/CapSense_CSHL.c ****                 if((posFiltersMask & CapSense_ANY_POS_FILTER) != 0u)
1572:.\Generated_Source\PSoC5/CapSense_CSHL.c ****                 {
1573:.\Generated_Source\PSoC5/CapSense_CSHL.c ****                     CapSense_posFiltersData[firstTimeIndex] = 0u;
1574:.\Generated_Source\PSoC5/CapSense_CSHL.c ****                 }
1575:.\Generated_Source\PSoC5/CapSense_CSHL.c ****             #endif /* (0u != CapSense_RADIAL_SLIDERS_POS_FILTERS_MASK) */
1576:.\Generated_Source\PSoC5/CapSense_CSHL.c ****         }
1577:.\Generated_Source\PSoC5/CapSense_CSHL.c ****         
1578:.\Generated_Source\PSoC5/CapSense_CSHL.c ****         return (position);
1579:.\Generated_Source\PSoC5/CapSense_CSHL.c ****     }
1580:.\Generated_Source\PSoC5/CapSense_CSHL.c **** #endif
1581:.\Generated_Source\PSoC5/CapSense_CSHL.c **** 
1582:.\Generated_Source\PSoC5/CapSense_CSHL.c **** 
1583:.\Generated_Source\PSoC5/CapSense_CSHL.c **** #if(CapSense_TOTAL_TOUCH_PADS_COUNT > 0u)
1584:.\Generated_Source\PSoC5/CapSense_CSHL.c ****     /*******************************************************************************
1585:.\Generated_Source\PSoC5/CapSense_CSHL.c ****     * Function Name: CapSense_GetTouchCentroidPos
1586:.\Generated_Source\PSoC5/CapSense_CSHL.c ****     ********************************************************************************
1587:.\Generated_Source\PSoC5/CapSense_CSHL.c ****     *
1588:.\Generated_Source\PSoC5/CapSense_CSHL.c ****     * Summary:
1589:.\Generated_Source\PSoC5/CapSense_CSHL.c ****     *  If a finger is present on touch pad, this function calculates the X and Y
1590:.\Generated_Source\PSoC5/CapSense_CSHL.c ****     *  position of the finger by calculating the centroids within touch pad specified
1591:.\Generated_Source\PSoC5/CapSense_CSHL.c ****     *  range. The X and Y positions are calculated to the API resolutions set in the
1592:.\Generated_Source\PSoC5/CapSense_CSHL.c ****     *  CapSense customizer. Returns a 1 if a finger is on the touchpad.
1593:.\Generated_Source\PSoC5/CapSense_CSHL.c ****     *  The position filter is applied to the result if enabled.
1594:.\Generated_Source\PSoC5/CapSense_CSHL.c ****     *  This function is available only if a touch pad is defined by the CapSense
1595:.\Generated_Source\PSoC5/CapSense_CSHL.c ****     *  customizer.
1596:.\Generated_Source\PSoC5/CapSense_CSHL.c ****     *
1597:.\Generated_Source\PSoC5/CapSense_CSHL.c ****     * Parameters:
1598:.\Generated_Source\PSoC5/CapSense_CSHL.c ****     *  widget:  Widget number. 
1599:.\Generated_Source\PSoC5/CapSense_CSHL.c ****     *  For every touchpad widget there are defines in this format:
1600:.\Generated_Source\PSoC5/CapSense_CSHL.c ****     *  #define CapSense_TP_"widget_name"            5
1601:.\Generated_Source\PSoC5/CapSense_CSHL.c ****     *
1602:.\Generated_Source\PSoC5/CapSense_CSHL.c ****     *  pos:     Pointer to the array of two uint16 elements, where result
1603:.\Generated_Source\PSoC5/CapSense_CSHL.c ****     *  result of calculation of X and Y position are stored.
1604:.\Generated_Source\PSoC5/CapSense_CSHL.c ****     *  pos[0u]  - position of X
1605:.\Generated_Source\PSoC5/CapSense_CSHL.c ****     *  pos[1u]  - position of Y
1606:.\Generated_Source\PSoC5/CapSense_CSHL.c ****     *
1607:.\Generated_Source\PSoC5/CapSense_CSHL.c ****     * Return:
1608:.\Generated_Source\PSoC5/CapSense_CSHL.c ****     *  Returns a 1 if a finger is on the touch pad, 0 - if not.
1609:.\Generated_Source\PSoC5/CapSense_CSHL.c ****     *
1610:.\Generated_Source\PSoC5/CapSense_CSHL.c ****     * Side Effects:
1611:.\Generated_Source\PSoC5/CapSense_CSHL.c ****     *   There are no checks of widget type argument provided to this function.
1612:.\Generated_Source\PSoC5/CapSense_CSHL.c ****     *   The unproper widget type provided will cause unexpected position
1613:.\Generated_Source\PSoC5/CapSense_CSHL.c ****     *   calculations.
1614:.\Generated_Source\PSoC5/CapSense_CSHL.c ****     *
1615:.\Generated_Source\PSoC5/CapSense_CSHL.c ****     * Reentrant:
1616:.\Generated_Source\PSoC5/CapSense_CSHL.c ****     *  No.
1617:.\Generated_Source\PSoC5/CapSense_CSHL.c ****     *
1618:.\Generated_Source\PSoC5/CapSense_CSHL.c ****     *******************************************************************************/
1619:.\Generated_Source\PSoC5/CapSense_CSHL.c ****     uint8 CapSense_GetTouchCentroidPos(uint8 widget, uint16* pos)
1620:.\Generated_Source\PSoC5/CapSense_CSHL.c **** 	                                    
1621:.\Generated_Source\PSoC5/CapSense_CSHL.c ****     {
ARM GAS  C:\Users\JohnP\AppData\Local\Temp\cc4GrDuO.s 			page 49


1622:.\Generated_Source\PSoC5/CapSense_CSHL.c ****         #if (0u != CapSense_TOUCH_PADS_POS_FILTERS_MASK)
1623:.\Generated_Source\PSoC5/CapSense_CSHL.c ****             uint8 posXIndex;
1624:.\Generated_Source\PSoC5/CapSense_CSHL.c ****             uint8 posYIndex;
1625:.\Generated_Source\PSoC5/CapSense_CSHL.c ****             uint8 firstTimeIndex = CapSense_posFiltersData[widget];
1626:.\Generated_Source\PSoC5/CapSense_CSHL.c ****             uint8 posFiltersMask = CapSense_posFiltersMask[widget];
1627:.\Generated_Source\PSoC5/CapSense_CSHL.c ****         #endif /* (0u != CapSense_TOUCH_PADS_POS_FILTERS_MASK) */
1628:.\Generated_Source\PSoC5/CapSense_CSHL.c **** 
1629:.\Generated_Source\PSoC5/CapSense_CSHL.c ****         #if ((0u != (CapSense_MEDIAN_FILTER & CapSense_TOUCH_PADS_POS_FILTERS_MASK)) || \
1630:.\Generated_Source\PSoC5/CapSense_CSHL.c ****              (0u != (CapSense_AVERAGING_FILTER & CapSense_TOUCH_PADS_POS_FILTERS_MASK)))
1631:.\Generated_Source\PSoC5/CapSense_CSHL.c ****             uint16 tempPos;
1632:.\Generated_Source\PSoC5/CapSense_CSHL.c ****         #endif /* ((0u != (CapSense_MEDIAN_FILTER & CapSense_TOUCH_PADS_POS_FILTERS_MASK)) || \
1633:.\Generated_Source\PSoC5/CapSense_CSHL.c ****                *   (0u != (CapSense_AVERAGING_FILTER & CapSense_TOUCH_PADS_POS_FILTERS_MASK)))
1634:.\Generated_Source\PSoC5/CapSense_CSHL.c ****                */
1635:.\Generated_Source\PSoC5/CapSense_CSHL.c **** 
1636:.\Generated_Source\PSoC5/CapSense_CSHL.c ****         uint8 maxX;
1637:.\Generated_Source\PSoC5/CapSense_CSHL.c ****         uint8 maxY;
1638:.\Generated_Source\PSoC5/CapSense_CSHL.c ****         uint8 posX;
1639:.\Generated_Source\PSoC5/CapSense_CSHL.c ****         uint8 posY;
1640:.\Generated_Source\PSoC5/CapSense_CSHL.c ****         uint8 touch = 0u;
1641:.\Generated_Source\PSoC5/CapSense_CSHL.c ****         uint8 offset = CapSense_rawDataIndex[widget];
1642:.\Generated_Source\PSoC5/CapSense_CSHL.c ****         uint8 count = CapSense_numberOfSensors[widget];
1643:.\Generated_Source\PSoC5/CapSense_CSHL.c ****         
1644:.\Generated_Source\PSoC5/CapSense_CSHL.c ****         /* Find Maximum within X centroid */
1645:.\Generated_Source\PSoC5/CapSense_CSHL.c ****         #if (CapSense_IS_DIPLEX_SLIDER)
1646:.\Generated_Source\PSoC5/CapSense_CSHL.c ****             maxX = CapSense_FindMaximum(offset, count, CapSense_fingerThreshold[widget], 0u);
1647:.\Generated_Source\PSoC5/CapSense_CSHL.c ****         #else
1648:.\Generated_Source\PSoC5/CapSense_CSHL.c ****             maxX = CapSense_FindMaximum(offset, count, CapSense_fingerThreshold[widget]);
1649:.\Generated_Source\PSoC5/CapSense_CSHL.c ****         #endif /* (CapSense_IS_DIPLEX_SLIDER) */
1650:.\Generated_Source\PSoC5/CapSense_CSHL.c **** 
1651:.\Generated_Source\PSoC5/CapSense_CSHL.c ****         if (maxX != 0xFFu)
1652:.\Generated_Source\PSoC5/CapSense_CSHL.c ****         {
1653:.\Generated_Source\PSoC5/CapSense_CSHL.c ****             offset = CapSense_rawDataIndex[widget + 1u];
1654:.\Generated_Source\PSoC5/CapSense_CSHL.c ****             count = CapSense_numberOfSensors[widget + 1u];
1655:.\Generated_Source\PSoC5/CapSense_CSHL.c **** 
1656:.\Generated_Source\PSoC5/CapSense_CSHL.c ****             /* Find Maximum within Y centroid */
1657:.\Generated_Source\PSoC5/CapSense_CSHL.c ****             #if (CapSense_IS_DIPLEX_SLIDER)
1658:.\Generated_Source\PSoC5/CapSense_CSHL.c ****                 maxY = CapSense_FindMaximum(offset, count, CapSense_fingerThreshold[widget + 1u], 0
1659:.\Generated_Source\PSoC5/CapSense_CSHL.c ****             #else
1660:.\Generated_Source\PSoC5/CapSense_CSHL.c ****                 maxY = CapSense_FindMaximum(offset, count, CapSense_fingerThreshold[widget + 1u]);
1661:.\Generated_Source\PSoC5/CapSense_CSHL.c ****             #endif /* (CapSense_IS_DIPLEX_SLIDER) */
1662:.\Generated_Source\PSoC5/CapSense_CSHL.c **** 
1663:.\Generated_Source\PSoC5/CapSense_CSHL.c ****             if (maxY != 0xFFu)
1664:.\Generated_Source\PSoC5/CapSense_CSHL.c ****             {
1665:.\Generated_Source\PSoC5/CapSense_CSHL.c ****                 /* X and Y maximums are found = true touch */
1666:.\Generated_Source\PSoC5/CapSense_CSHL.c ****                 touch = 1u;
1667:.\Generated_Source\PSoC5/CapSense_CSHL.c ****                 
1668:.\Generated_Source\PSoC5/CapSense_CSHL.c ****                 /* Calculate Y centroid */
1669:.\Generated_Source\PSoC5/CapSense_CSHL.c ****                 posY = CapSense_CalcCentroid(maxY, offset, count, 
1670:.\Generated_Source\PSoC5/CapSense_CSHL.c ****                             CapSense_centroidMult[widget + 1u], CapSense_noiseThreshold[widget + 1u
1671:.\Generated_Source\PSoC5/CapSense_CSHL.c ****                 
1672:.\Generated_Source\PSoC5/CapSense_CSHL.c ****                 /* Calculate X centroid */
1673:.\Generated_Source\PSoC5/CapSense_CSHL.c ****                 offset = CapSense_rawDataIndex[widget];
1674:.\Generated_Source\PSoC5/CapSense_CSHL.c ****                 count = CapSense_numberOfSensors[widget];
1675:.\Generated_Source\PSoC5/CapSense_CSHL.c ****                 
1676:.\Generated_Source\PSoC5/CapSense_CSHL.c ****                 posX = CapSense_CalcCentroid(maxX, offset, count, 
1677:.\Generated_Source\PSoC5/CapSense_CSHL.c ****                             CapSense_centroidMult[widget],CapSense_noiseThreshold[widget]);
1678:.\Generated_Source\PSoC5/CapSense_CSHL.c ****     
ARM GAS  C:\Users\JohnP\AppData\Local\Temp\cc4GrDuO.s 			page 50


1679:.\Generated_Source\PSoC5/CapSense_CSHL.c ****                 #if (0u != CapSense_TOUCH_PADS_POS_FILTERS_MASK)
1680:.\Generated_Source\PSoC5/CapSense_CSHL.c ****                     /* Check if this TP has enabled filters */
1681:.\Generated_Source\PSoC5/CapSense_CSHL.c ****                     if (0u != (posFiltersMask & CapSense_ANY_POS_FILTER))
1682:.\Generated_Source\PSoC5/CapSense_CSHL.c ****                     {
1683:.\Generated_Source\PSoC5/CapSense_CSHL.c ****                         /* Caluclate position to store filters data */
1684:.\Generated_Source\PSoC5/CapSense_CSHL.c ****                         posXIndex  = firstTimeIndex + 1u;
1685:.\Generated_Source\PSoC5/CapSense_CSHL.c ****                         posYIndex  = CapSense_posFiltersData[widget + 1u];
1686:.\Generated_Source\PSoC5/CapSense_CSHL.c ****                         
1687:.\Generated_Source\PSoC5/CapSense_CSHL.c ****                         if (0u == CapSense_posFiltersData[firstTimeIndex])
1688:.\Generated_Source\PSoC5/CapSense_CSHL.c ****                         {
1689:.\Generated_Source\PSoC5/CapSense_CSHL.c ****                             /* Init filters */
1690:.\Generated_Source\PSoC5/CapSense_CSHL.c ****                             CapSense_posFiltersData[posXIndex] = posX;
1691:.\Generated_Source\PSoC5/CapSense_CSHL.c ****                             CapSense_posFiltersData[posYIndex] = posY;
1692:.\Generated_Source\PSoC5/CapSense_CSHL.c **** 
1693:.\Generated_Source\PSoC5/CapSense_CSHL.c ****                             #if((0u != (CapSense_MEDIAN_FILTER & \
1694:.\Generated_Source\PSoC5/CapSense_CSHL.c ****                                         CapSense_TOUCH_PADS_POS_FILTERS_MASK))|| \
1695:.\Generated_Source\PSoC5/CapSense_CSHL.c ****                                 (0u != (CapSense_AVERAGING_FILTER & \
1696:.\Generated_Source\PSoC5/CapSense_CSHL.c ****                                         CapSense_TOUCH_PADS_POS_FILTERS_MASK)))
1697:.\Generated_Source\PSoC5/CapSense_CSHL.c **** 
1698:.\Generated_Source\PSoC5/CapSense_CSHL.c ****                                 if ( (0u != (posFiltersMask & CapSense_MEDIAN_FILTER)) || 
1699:.\Generated_Source\PSoC5/CapSense_CSHL.c ****                                      (0u != (posFiltersMask & CapSense_AVERAGING_FILTER)) )
1700:.\Generated_Source\PSoC5/CapSense_CSHL.c ****                                 {
1701:.\Generated_Source\PSoC5/CapSense_CSHL.c ****                                     CapSense_posFiltersData[posXIndex + 1u] = posX;
1702:.\Generated_Source\PSoC5/CapSense_CSHL.c ****                                     CapSense_posFiltersData[posYIndex + 1u] = posY;
1703:.\Generated_Source\PSoC5/CapSense_CSHL.c ****                                 }
1704:.\Generated_Source\PSoC5/CapSense_CSHL.c ****                             #endif /* ((0u != (CapSense_MEDIAN_FILTER & \
1705:.\Generated_Source\PSoC5/CapSense_CSHL.c ****                                    *           CapSense_TOUCH_PADS_POS_FILTERS_MASK)) || \
1706:.\Generated_Source\PSoC5/CapSense_CSHL.c ****                                    *    (0u != (CapSense_AVERAGING_FILTER & \
1707:.\Generated_Source\PSoC5/CapSense_CSHL.c ****                                    *            CapSense_TOUCH_PADS_POS_FILTERS_MASK)))
1708:.\Generated_Source\PSoC5/CapSense_CSHL.c ****                                    */
1709:.\Generated_Source\PSoC5/CapSense_CSHL.c ****                             
1710:.\Generated_Source\PSoC5/CapSense_CSHL.c ****                             CapSense_posFiltersData[firstTimeIndex] = 1u;
1711:.\Generated_Source\PSoC5/CapSense_CSHL.c ****                         }
1712:.\Generated_Source\PSoC5/CapSense_CSHL.c ****                         else
1713:.\Generated_Source\PSoC5/CapSense_CSHL.c ****                         {
1714:.\Generated_Source\PSoC5/CapSense_CSHL.c ****                             /* Do filtering */
1715:.\Generated_Source\PSoC5/CapSense_CSHL.c ****                             #if (0u != (CapSense_MEDIAN_FILTER & CapSense_TOUCH_PADS_POS_FILTERS_MA
1716:.\Generated_Source\PSoC5/CapSense_CSHL.c ****                                 if (0u != (posFiltersMask & CapSense_MEDIAN_FILTER))
1717:.\Generated_Source\PSoC5/CapSense_CSHL.c ****                                 {
1718:.\Generated_Source\PSoC5/CapSense_CSHL.c ****                                     tempPos = posX;
1719:.\Generated_Source\PSoC5/CapSense_CSHL.c ****                                     posX = (uint8) CapSense_MedianFilter(posX,
1720:.\Generated_Source\PSoC5/CapSense_CSHL.c ****                                                                       CapSense_posFiltersData[posXI
1721:.\Generated_Source\PSoC5/CapSense_CSHL.c ****                                                                       CapSense_posFiltersData[posXI
1722:.\Generated_Source\PSoC5/CapSense_CSHL.c ****                                     CapSense_posFiltersData[posXIndex + 1u] = 
1723:.\Generated_Source\PSoC5/CapSense_CSHL.c ****                                                                              CapSense_posFiltersDat
1724:.\Generated_Source\PSoC5/CapSense_CSHL.c ****                                     CapSense_posFiltersData[posXIndex] = tempPos;
1725:.\Generated_Source\PSoC5/CapSense_CSHL.c ****                                     
1726:.\Generated_Source\PSoC5/CapSense_CSHL.c ****                                     tempPos = posY;
1727:.\Generated_Source\PSoC5/CapSense_CSHL.c ****                                     posY = (uint8) CapSense_MedianFilter(posY,
1728:.\Generated_Source\PSoC5/CapSense_CSHL.c ****                                                                        CapSense_posFiltersData[posY
1729:.\Generated_Source\PSoC5/CapSense_CSHL.c ****                                                                        CapSense_posFiltersData[posY
1730:.\Generated_Source\PSoC5/CapSense_CSHL.c ****                                     CapSense_posFiltersData[posYIndex + 1u] = 
1731:.\Generated_Source\PSoC5/CapSense_CSHL.c ****                                                                              CapSense_posFiltersDat
1732:.\Generated_Source\PSoC5/CapSense_CSHL.c ****                                     CapSense_posFiltersData[posYIndex] = tempPos;
1733:.\Generated_Source\PSoC5/CapSense_CSHL.c ****                                 }
1734:.\Generated_Source\PSoC5/CapSense_CSHL.c ****                                 
1735:.\Generated_Source\PSoC5/CapSense_CSHL.c ****                             #endif /* (0u != (CapSense_MEDIAN_FILTER & \
ARM GAS  C:\Users\JohnP\AppData\Local\Temp\cc4GrDuO.s 			page 51


1736:.\Generated_Source\PSoC5/CapSense_CSHL.c ****                                    *          CapSense_TOUCH_PADS_POS_FILTERS_MASK))
1737:.\Generated_Source\PSoC5/CapSense_CSHL.c ****                                    */
1738:.\Generated_Source\PSoC5/CapSense_CSHL.c **** 
1739:.\Generated_Source\PSoC5/CapSense_CSHL.c ****                             #if(0u !=(CapSense_AVERAGING_FILTER & CapSense_TOUCH_PADS_POS_FILTERS_M
1740:.\Generated_Source\PSoC5/CapSense_CSHL.c ****                                 if (0u != (posFiltersMask & CapSense_AVERAGING_FILTER))
1741:.\Generated_Source\PSoC5/CapSense_CSHL.c ****                                 {
1742:.\Generated_Source\PSoC5/CapSense_CSHL.c ****                                     tempPos = posX;
1743:.\Generated_Source\PSoC5/CapSense_CSHL.c ****                                     posX = (uint8) CapSense_AveragingFilter(posX,
1744:.\Generated_Source\PSoC5/CapSense_CSHL.c ****                                                                        CapSense_posFiltersData[posX
1745:.\Generated_Source\PSoC5/CapSense_CSHL.c ****                                                                        CapSense_posFiltersData[posX
1746:.\Generated_Source\PSoC5/CapSense_CSHL.c ****                                     CapSense_posFiltersData[posXIndex + 1u] = 
1747:.\Generated_Source\PSoC5/CapSense_CSHL.c ****                                                                              CapSense_posFiltersDat
1748:.\Generated_Source\PSoC5/CapSense_CSHL.c ****                                     CapSense_posFiltersData[posXIndex] = tempPos;
1749:.\Generated_Source\PSoC5/CapSense_CSHL.c ****                                     
1750:.\Generated_Source\PSoC5/CapSense_CSHL.c ****                                     tempPos = posY;
1751:.\Generated_Source\PSoC5/CapSense_CSHL.c ****                                     posY = (uint8) CapSense_AveragingFilter(posY, 
1752:.\Generated_Source\PSoC5/CapSense_CSHL.c ****                                                                       CapSense_posFiltersData[posYI
1753:.\Generated_Source\PSoC5/CapSense_CSHL.c ****                                                                       CapSense_posFiltersData[posYI
1754:.\Generated_Source\PSoC5/CapSense_CSHL.c ****                                     CapSense_posFiltersData[posYIndex + 1u] = 
1755:.\Generated_Source\PSoC5/CapSense_CSHL.c ****                                                                             CapSense_posFiltersData
1756:.\Generated_Source\PSoC5/CapSense_CSHL.c ****                                     CapSense_posFiltersData[posYIndex] = tempPos;
1757:.\Generated_Source\PSoC5/CapSense_CSHL.c ****                                 }
1758:.\Generated_Source\PSoC5/CapSense_CSHL.c **** 
1759:.\Generated_Source\PSoC5/CapSense_CSHL.c ****                             #endif /* (0u != (CapSense_AVERAGING_FILTER & \
1760:.\Generated_Source\PSoC5/CapSense_CSHL.c ****                                    *           CapSense_TOUCH_PADS_POS_FILTERS_MASK))
1761:.\Generated_Source\PSoC5/CapSense_CSHL.c ****                                    */
1762:.\Generated_Source\PSoC5/CapSense_CSHL.c **** 
1763:.\Generated_Source\PSoC5/CapSense_CSHL.c ****                             #if (0u != (CapSense_IIR2_FILTER & CapSense_TOUCH_PADS_POS_FILTERS_MASK
1764:.\Generated_Source\PSoC5/CapSense_CSHL.c ****                                 if (0u != (posFiltersMask & CapSense_IIR2_FILTER))
1765:.\Generated_Source\PSoC5/CapSense_CSHL.c ****                                 {
1766:.\Generated_Source\PSoC5/CapSense_CSHL.c ****                                     posX = (uint8) CapSense_IIR2Filter(posX, 
1767:.\Generated_Source\PSoC5/CapSense_CSHL.c ****                                                                            CapSense_posFiltersData[
1768:.\Generated_Source\PSoC5/CapSense_CSHL.c ****                                     CapSense_posFiltersData[posXIndex] = posX;
1769:.\Generated_Source\PSoC5/CapSense_CSHL.c ****                                     
1770:.\Generated_Source\PSoC5/CapSense_CSHL.c ****                                     posY = (uint8) CapSense_IIR2Filter(posY, 
1771:.\Generated_Source\PSoC5/CapSense_CSHL.c ****                                                                             CapSense_posFiltersData
1772:.\Generated_Source\PSoC5/CapSense_CSHL.c ****                                     CapSense_posFiltersData[posYIndex] = posY;
1773:.\Generated_Source\PSoC5/CapSense_CSHL.c ****                                 }
1774:.\Generated_Source\PSoC5/CapSense_CSHL.c ****                                 
1775:.\Generated_Source\PSoC5/CapSense_CSHL.c ****                             #endif /* (0u != (CapSense_IIR2_FILTER & \
1776:.\Generated_Source\PSoC5/CapSense_CSHL.c ****                                    *          CapSense_TOUCH_PADS_POS_FILTERS_MASK))
1777:.\Generated_Source\PSoC5/CapSense_CSHL.c ****                                    */
1778:.\Generated_Source\PSoC5/CapSense_CSHL.c **** 
1779:.\Generated_Source\PSoC5/CapSense_CSHL.c ****                             #if (0u != (CapSense_IIR4_FILTER & CapSense_TOUCH_PADS_POS_FILTERS_MASK
1780:.\Generated_Source\PSoC5/CapSense_CSHL.c ****                                 if (0u != (posFiltersMask & CapSense_IIR4_FILTER))
1781:.\Generated_Source\PSoC5/CapSense_CSHL.c ****                                 {
1782:.\Generated_Source\PSoC5/CapSense_CSHL.c ****                                     posX = (uint8) CapSense_IIR4Filter((uint16)posX,
1783:.\Generated_Source\PSoC5/CapSense_CSHL.c ****                                                                     (uint16)CapSense_posFiltersData
1784:.\Generated_Source\PSoC5/CapSense_CSHL.c ****                                     CapSense_posFiltersData[posXIndex] = posX;
1785:.\Generated_Source\PSoC5/CapSense_CSHL.c **** 
1786:.\Generated_Source\PSoC5/CapSense_CSHL.c ****                                     posY = (uint8) CapSense_IIR4Filter((uint16)posY,
1787:.\Generated_Source\PSoC5/CapSense_CSHL.c ****                                                                     (uint16)CapSense_posFiltersData
1788:.\Generated_Source\PSoC5/CapSense_CSHL.c ****                                     CapSense_posFiltersData[posYIndex] = posY;
1789:.\Generated_Source\PSoC5/CapSense_CSHL.c ****                                 }
1790:.\Generated_Source\PSoC5/CapSense_CSHL.c ****                                 
1791:.\Generated_Source\PSoC5/CapSense_CSHL.c ****                             #endif /* (0u != (CapSense_IIR4_FILTER & \
1792:.\Generated_Source\PSoC5/CapSense_CSHL.c ****                                    *           CapSense_TOUCH_PADS_POS_FILTERS_MASK))
ARM GAS  C:\Users\JohnP\AppData\Local\Temp\cc4GrDuO.s 			page 52


1793:.\Generated_Source\PSoC5/CapSense_CSHL.c ****                                    */
1794:.\Generated_Source\PSoC5/CapSense_CSHL.c **** 
1795:.\Generated_Source\PSoC5/CapSense_CSHL.c ****                             #if (0u != (CapSense_JITTER_FILTER & CapSense_TOUCH_PADS_POS_FILTERS_MA
1796:.\Generated_Source\PSoC5/CapSense_CSHL.c ****                                 if (0u != (posFiltersMask & CapSense_JITTER_FILTER))
1797:.\Generated_Source\PSoC5/CapSense_CSHL.c ****                                     {
1798:.\Generated_Source\PSoC5/CapSense_CSHL.c ****                                         posX = (uint8) CapSense_JitterFilter(posX, 
1799:.\Generated_Source\PSoC5/CapSense_CSHL.c ****                                                                             CapSense_posFiltersData
1800:.\Generated_Source\PSoC5/CapSense_CSHL.c ****                                         CapSense_posFiltersData[posXIndex] = posX;
1801:.\Generated_Source\PSoC5/CapSense_CSHL.c ****                                         
1802:.\Generated_Source\PSoC5/CapSense_CSHL.c ****                                         posY = (uint8) CapSense_JitterFilter(posY, 
1803:.\Generated_Source\PSoC5/CapSense_CSHL.c ****                                                                             CapSense_posFiltersData
1804:.\Generated_Source\PSoC5/CapSense_CSHL.c ****                                         CapSense_posFiltersData[posYIndex] = posY;
1805:.\Generated_Source\PSoC5/CapSense_CSHL.c ****                                     }
1806:.\Generated_Source\PSoC5/CapSense_CSHL.c ****                             #endif /* (0u != (CapSense_JITTER_FILTER & \
1807:.\Generated_Source\PSoC5/CapSense_CSHL.c ****                                    *           CapSense_TOUCH_PADS_POS_FILTERS_MASK))
1808:.\Generated_Source\PSoC5/CapSense_CSHL.c ****                                    */
1809:.\Generated_Source\PSoC5/CapSense_CSHL.c ****                         }
1810:.\Generated_Source\PSoC5/CapSense_CSHL.c ****                     }
1811:.\Generated_Source\PSoC5/CapSense_CSHL.c ****                 #endif /* (0u != CapSense_TOUCH_PADS_POS_FILTERS_MASK) */
1812:.\Generated_Source\PSoC5/CapSense_CSHL.c **** 
1813:.\Generated_Source\PSoC5/CapSense_CSHL.c ****                 /* Save positions */
1814:.\Generated_Source\PSoC5/CapSense_CSHL.c ****                 pos[0u] = posX;
1815:.\Generated_Source\PSoC5/CapSense_CSHL.c ****                 pos[1u] = posY;
1816:.\Generated_Source\PSoC5/CapSense_CSHL.c ****             }
1817:.\Generated_Source\PSoC5/CapSense_CSHL.c ****         }
1818:.\Generated_Source\PSoC5/CapSense_CSHL.c **** 
1819:.\Generated_Source\PSoC5/CapSense_CSHL.c ****         #if (0u != CapSense_TOUCH_PADS_POS_FILTERS_MASK)
1820:.\Generated_Source\PSoC5/CapSense_CSHL.c ****             if(touch == 0u)
1821:.\Generated_Source\PSoC5/CapSense_CSHL.c ****             {
1822:.\Generated_Source\PSoC5/CapSense_CSHL.c ****                 /* Reset the filters */
1823:.\Generated_Source\PSoC5/CapSense_CSHL.c ****                 if ((posFiltersMask & CapSense_ANY_POS_FILTER) != 0u)
1824:.\Generated_Source\PSoC5/CapSense_CSHL.c ****                 {
1825:.\Generated_Source\PSoC5/CapSense_CSHL.c ****                     CapSense_posFiltersData[firstTimeIndex] = 0u;
1826:.\Generated_Source\PSoC5/CapSense_CSHL.c ****                 }
1827:.\Generated_Source\PSoC5/CapSense_CSHL.c ****             }
1828:.\Generated_Source\PSoC5/CapSense_CSHL.c ****         #endif /* (0u != CapSense_TOUCH_PADS_POS_FILTERS_MASK) */
1829:.\Generated_Source\PSoC5/CapSense_CSHL.c ****         
1830:.\Generated_Source\PSoC5/CapSense_CSHL.c ****         return (touch);
1831:.\Generated_Source\PSoC5/CapSense_CSHL.c ****     }
1832:.\Generated_Source\PSoC5/CapSense_CSHL.c **** #endif /* (CapSense_TOTAL_TOUCH_PADS_COUNT > 0u) */
1833:.\Generated_Source\PSoC5/CapSense_CSHL.c **** 
1834:.\Generated_Source\PSoC5/CapSense_CSHL.c **** 
1835:.\Generated_Source\PSoC5/CapSense_CSHL.c **** #if ( (CapSense_RAW_FILTER_MASK & CapSense_MEDIAN_FILTER) | \
1836:.\Generated_Source\PSoC5/CapSense_CSHL.c ****       (CapSense_POS_FILTERS_MASK & CapSense_MEDIAN_FILTER) )
1837:.\Generated_Source\PSoC5/CapSense_CSHL.c ****     /*******************************************************************************
1838:.\Generated_Source\PSoC5/CapSense_CSHL.c ****     * Function Name: CapSense_MedianFilter
1839:.\Generated_Source\PSoC5/CapSense_CSHL.c ****     ********************************************************************************
1840:.\Generated_Source\PSoC5/CapSense_CSHL.c ****     *
1841:.\Generated_Source\PSoC5/CapSense_CSHL.c ****     * Summary:
1842:.\Generated_Source\PSoC5/CapSense_CSHL.c ****     *  Median filter function. 
1843:.\Generated_Source\PSoC5/CapSense_CSHL.c ****     *  The median filter looks at the three most recent samples and reports the 
1844:.\Generated_Source\PSoC5/CapSense_CSHL.c ****     *  median value.
1845:.\Generated_Source\PSoC5/CapSense_CSHL.c ****     *
1846:.\Generated_Source\PSoC5/CapSense_CSHL.c ****     * Parameters:
1847:.\Generated_Source\PSoC5/CapSense_CSHL.c ****     *  x1:  Current value.
1848:.\Generated_Source\PSoC5/CapSense_CSHL.c ****     *  x2:  Previous value.
1849:.\Generated_Source\PSoC5/CapSense_CSHL.c ****     *  x3:  Before previous value.
ARM GAS  C:\Users\JohnP\AppData\Local\Temp\cc4GrDuO.s 			page 53


1850:.\Generated_Source\PSoC5/CapSense_CSHL.c ****     *
1851:.\Generated_Source\PSoC5/CapSense_CSHL.c ****     * Return:
1852:.\Generated_Source\PSoC5/CapSense_CSHL.c ****     *  Returns filtered value.
1853:.\Generated_Source\PSoC5/CapSense_CSHL.c ****     *
1854:.\Generated_Source\PSoC5/CapSense_CSHL.c ****     *******************************************************************************/
1855:.\Generated_Source\PSoC5/CapSense_CSHL.c ****     uint16 CapSense_MedianFilter(uint16 x1, uint16 x2, uint16 x3)
1856:.\Generated_Source\PSoC5/CapSense_CSHL.c ****                                          
1857:.\Generated_Source\PSoC5/CapSense_CSHL.c ****     {
1858:.\Generated_Source\PSoC5/CapSense_CSHL.c ****         uint16 tmp;
1859:.\Generated_Source\PSoC5/CapSense_CSHL.c ****         
1860:.\Generated_Source\PSoC5/CapSense_CSHL.c ****         if (x1 > x2)
1861:.\Generated_Source\PSoC5/CapSense_CSHL.c ****         {
1862:.\Generated_Source\PSoC5/CapSense_CSHL.c ****             tmp = x2;
1863:.\Generated_Source\PSoC5/CapSense_CSHL.c ****             x2 = x1;
1864:.\Generated_Source\PSoC5/CapSense_CSHL.c ****             x1 = tmp;
1865:.\Generated_Source\PSoC5/CapSense_CSHL.c ****         }
1866:.\Generated_Source\PSoC5/CapSense_CSHL.c ****         
1867:.\Generated_Source\PSoC5/CapSense_CSHL.c ****         if (x2 > x3)
1868:.\Generated_Source\PSoC5/CapSense_CSHL.c ****         {
1869:.\Generated_Source\PSoC5/CapSense_CSHL.c ****             x2 = x3;
1870:.\Generated_Source\PSoC5/CapSense_CSHL.c ****         }
1871:.\Generated_Source\PSoC5/CapSense_CSHL.c ****         
1872:.\Generated_Source\PSoC5/CapSense_CSHL.c ****         return ((x1 > x2) ? x1 : x2);
1873:.\Generated_Source\PSoC5/CapSense_CSHL.c ****     }
1874:.\Generated_Source\PSoC5/CapSense_CSHL.c **** #endif /* ( (CapSense_RAW_FILTER_MASK & CapSense_MEDIAN_FILTER) | \
1875:.\Generated_Source\PSoC5/CapSense_CSHL.c ****        *    (CapSense_POS_FILTERS_MASK & CapSense_MEDIAN_FILTER) )
1876:.\Generated_Source\PSoC5/CapSense_CSHL.c ****        */
1877:.\Generated_Source\PSoC5/CapSense_CSHL.c **** 
1878:.\Generated_Source\PSoC5/CapSense_CSHL.c **** 
1879:.\Generated_Source\PSoC5/CapSense_CSHL.c **** #if ( (CapSense_RAW_FILTER_MASK & CapSense_AVERAGING_FILTER) | \
1880:.\Generated_Source\PSoC5/CapSense_CSHL.c ****       (CapSense_POS_FILTERS_MASK & CapSense_AVERAGING_FILTER) )
1881:.\Generated_Source\PSoC5/CapSense_CSHL.c ****     /*******************************************************************************
1882:.\Generated_Source\PSoC5/CapSense_CSHL.c ****     * Function Name: CapSense_AveragingFilter
1883:.\Generated_Source\PSoC5/CapSense_CSHL.c ****     ********************************************************************************
1884:.\Generated_Source\PSoC5/CapSense_CSHL.c ****     *
1885:.\Generated_Source\PSoC5/CapSense_CSHL.c ****     * Summary:
1886:.\Generated_Source\PSoC5/CapSense_CSHL.c ****     *  Averaging filter function.
1887:.\Generated_Source\PSoC5/CapSense_CSHL.c ****     *  The averaging filter looks at the three most recent samples of position and
1888:.\Generated_Source\PSoC5/CapSense_CSHL.c ****     *  reports the averaging value.
1889:.\Generated_Source\PSoC5/CapSense_CSHL.c ****     *
1890:.\Generated_Source\PSoC5/CapSense_CSHL.c ****     * Parameters:
1891:.\Generated_Source\PSoC5/CapSense_CSHL.c ****     *  x1:  Current value.
1892:.\Generated_Source\PSoC5/CapSense_CSHL.c ****     *  x2:  Previous value.
1893:.\Generated_Source\PSoC5/CapSense_CSHL.c ****     *  x3:  Before previous value.
1894:.\Generated_Source\PSoC5/CapSense_CSHL.c ****     *
1895:.\Generated_Source\PSoC5/CapSense_CSHL.c ****     * Return:
1896:.\Generated_Source\PSoC5/CapSense_CSHL.c ****     *  Returns filtered value.
1897:.\Generated_Source\PSoC5/CapSense_CSHL.c ****     *
1898:.\Generated_Source\PSoC5/CapSense_CSHL.c ****     *******************************************************************************/
1899:.\Generated_Source\PSoC5/CapSense_CSHL.c ****     uint16 CapSense_AveragingFilter(uint16 x1, uint16 x2, uint16 x3)
1900:.\Generated_Source\PSoC5/CapSense_CSHL.c ****                                             
1901:.\Generated_Source\PSoC5/CapSense_CSHL.c ****     {
1902:.\Generated_Source\PSoC5/CapSense_CSHL.c ****         uint32 tmp = ((uint32)x1 + (uint32)x2 + (uint32)x3) / 3u;
1903:.\Generated_Source\PSoC5/CapSense_CSHL.c ****         
1904:.\Generated_Source\PSoC5/CapSense_CSHL.c ****         return ((uint16) tmp);
1905:.\Generated_Source\PSoC5/CapSense_CSHL.c ****     }
1906:.\Generated_Source\PSoC5/CapSense_CSHL.c **** #endif /* ( (CapSense_RAW_FILTER_MASK & CapSense_AVERAGING_FILTER) | \
ARM GAS  C:\Users\JohnP\AppData\Local\Temp\cc4GrDuO.s 			page 54


1907:.\Generated_Source\PSoC5/CapSense_CSHL.c ****        *    (CapSense_POS_FILTERS_MASK & CapSense_AVERAGING_FILTER) )
1908:.\Generated_Source\PSoC5/CapSense_CSHL.c ****        */
1909:.\Generated_Source\PSoC5/CapSense_CSHL.c **** 
1910:.\Generated_Source\PSoC5/CapSense_CSHL.c **** 
1911:.\Generated_Source\PSoC5/CapSense_CSHL.c **** #if ( (CapSense_RAW_FILTER_MASK & CapSense_IIR2_FILTER) | \
1912:.\Generated_Source\PSoC5/CapSense_CSHL.c ****       (CapSense_POS_FILTERS_MASK & CapSense_IIR2_FILTER) )
1913:.\Generated_Source\PSoC5/CapSense_CSHL.c ****     /*******************************************************************************
1914:.\Generated_Source\PSoC5/CapSense_CSHL.c ****     * Function Name: CapSense_IIR2Filter
1915:.\Generated_Source\PSoC5/CapSense_CSHL.c ****     ********************************************************************************
1916:.\Generated_Source\PSoC5/CapSense_CSHL.c ****     *
1917:.\Generated_Source\PSoC5/CapSense_CSHL.c ****     * Summary:
1918:.\Generated_Source\PSoC5/CapSense_CSHL.c ****     *  IIR1/2 filter function. IIR1/2 = 1/2current + 1/2previous.
1919:.\Generated_Source\PSoC5/CapSense_CSHL.c ****     *
1920:.\Generated_Source\PSoC5/CapSense_CSHL.c ****     * Parameters:
1921:.\Generated_Source\PSoC5/CapSense_CSHL.c ****     *  x1:  Current value.
1922:.\Generated_Source\PSoC5/CapSense_CSHL.c ****     *  x2:  Previous value.
1923:.\Generated_Source\PSoC5/CapSense_CSHL.c ****     *
1924:.\Generated_Source\PSoC5/CapSense_CSHL.c ****     * Return:
1925:.\Generated_Source\PSoC5/CapSense_CSHL.c ****     *  Returns filtered value.
1926:.\Generated_Source\PSoC5/CapSense_CSHL.c ****     *
1927:.\Generated_Source\PSoC5/CapSense_CSHL.c ****     *******************************************************************************/
1928:.\Generated_Source\PSoC5/CapSense_CSHL.c ****     uint16 CapSense_IIR2Filter(uint16 x1, uint16 x2)
1929:.\Generated_Source\PSoC5/CapSense_CSHL.c ****                                        
1930:.\Generated_Source\PSoC5/CapSense_CSHL.c ****     {
1931:.\Generated_Source\PSoC5/CapSense_CSHL.c ****         uint32 tmp;
1932:.\Generated_Source\PSoC5/CapSense_CSHL.c ****         
1933:.\Generated_Source\PSoC5/CapSense_CSHL.c ****         /* IIR = 1/2 Current Value+ 1/2 Previous Value */
1934:.\Generated_Source\PSoC5/CapSense_CSHL.c ****         tmp = (uint32)x1 + (uint32)x2;
1935:.\Generated_Source\PSoC5/CapSense_CSHL.c ****         tmp >>= 1u;
1936:.\Generated_Source\PSoC5/CapSense_CSHL.c ****     
1937:.\Generated_Source\PSoC5/CapSense_CSHL.c ****         return ((uint16) tmp);
1938:.\Generated_Source\PSoC5/CapSense_CSHL.c ****     }
1939:.\Generated_Source\PSoC5/CapSense_CSHL.c **** #endif /* ( (CapSense_RAW_FILTER_MASK & CapSense_IIR2_FILTER) | \
1940:.\Generated_Source\PSoC5/CapSense_CSHL.c ****        *    (CapSense_POS_FILTERS_MASK & CapSense_IIR2_FILTER) )
1941:.\Generated_Source\PSoC5/CapSense_CSHL.c ****        */
1942:.\Generated_Source\PSoC5/CapSense_CSHL.c **** 
1943:.\Generated_Source\PSoC5/CapSense_CSHL.c **** 
1944:.\Generated_Source\PSoC5/CapSense_CSHL.c **** #if ( (CapSense_RAW_FILTER_MASK & CapSense_IIR4_FILTER) | \
1945:.\Generated_Source\PSoC5/CapSense_CSHL.c ****       (CapSense_POS_FILTERS_MASK & CapSense_IIR4_FILTER) )
1946:.\Generated_Source\PSoC5/CapSense_CSHL.c ****     /*******************************************************************************
1947:.\Generated_Source\PSoC5/CapSense_CSHL.c ****     * Function Name: CapSense_IIR4Filter
1948:.\Generated_Source\PSoC5/CapSense_CSHL.c ****     ********************************************************************************
1949:.\Generated_Source\PSoC5/CapSense_CSHL.c ****     *
1950:.\Generated_Source\PSoC5/CapSense_CSHL.c ****     * Summary:
1951:.\Generated_Source\PSoC5/CapSense_CSHL.c ****     *  IIR1/4 filter function. IIR1/4 = 1/4current + 3/4previous.
1952:.\Generated_Source\PSoC5/CapSense_CSHL.c ****     *
1953:.\Generated_Source\PSoC5/CapSense_CSHL.c ****     * Parameters:
1954:.\Generated_Source\PSoC5/CapSense_CSHL.c ****     *  x1:  Current value.
1955:.\Generated_Source\PSoC5/CapSense_CSHL.c ****     *  x2:  Previous value.
1956:.\Generated_Source\PSoC5/CapSense_CSHL.c ****     *
1957:.\Generated_Source\PSoC5/CapSense_CSHL.c ****     * Return:
1958:.\Generated_Source\PSoC5/CapSense_CSHL.c ****     *  Returns filtered value.
1959:.\Generated_Source\PSoC5/CapSense_CSHL.c ****     *
1960:.\Generated_Source\PSoC5/CapSense_CSHL.c ****     *******************************************************************************/
1961:.\Generated_Source\PSoC5/CapSense_CSHL.c ****     uint16 CapSense_IIR4Filter(uint16 x1, uint16 x2)
1962:.\Generated_Source\PSoC5/CapSense_CSHL.c ****                                        
1963:.\Generated_Source\PSoC5/CapSense_CSHL.c ****     {
ARM GAS  C:\Users\JohnP\AppData\Local\Temp\cc4GrDuO.s 			page 55


 1087              		.loc 1 1963 0
 1088              		.cfi_startproc
 1089              		@ args = 0, pretend = 0, frame = 0
 1090              		@ frame_needed = 0, uses_anonymous_args = 0
 1091              		@ link register save eliminated.
 1092              	.LVL136:
1964:.\Generated_Source\PSoC5/CapSense_CSHL.c ****         uint32 tmp;
1965:.\Generated_Source\PSoC5/CapSense_CSHL.c ****         
1966:.\Generated_Source\PSoC5/CapSense_CSHL.c ****         /* IIR = 1/4 Current Value + 3/4 Previous Value */
1967:.\Generated_Source\PSoC5/CapSense_CSHL.c ****         tmp = (uint32)x1 + (uint32)x2;
 1093              		.loc 1 1967 0
 1094 0000 00EB4100 		add	r0, r0, r1, lsl #1
 1095              	.LVL137:
1968:.\Generated_Source\PSoC5/CapSense_CSHL.c ****         tmp += ((uint32)x2 << 1u);
 1096              		.loc 1 1968 0
 1097 0004 0844     		add	r0, r0, r1
 1098              	.LVL138:
1969:.\Generated_Source\PSoC5/CapSense_CSHL.c ****         tmp >>= 2u;
1970:.\Generated_Source\PSoC5/CapSense_CSHL.c ****         
1971:.\Generated_Source\PSoC5/CapSense_CSHL.c ****         return ((uint16) tmp);
1972:.\Generated_Source\PSoC5/CapSense_CSHL.c ****     }
 1099              		.loc 1 1972 0
 1100 0006 C0F38F00 		ubfx	r0, r0, #2, #16
 1101              	.LVL139:
 1102 000a 7047     		bx	lr
 1103              		.cfi_endproc
 1104              	.LFE14:
 1105              		.size	CapSense_IIR4Filter, .-CapSense_IIR4Filter
 1106              		.section	.text.CapSense_GetCentroidPos,"ax",%progbits
 1107              		.align	2
 1108              		.global	CapSense_GetCentroidPos
 1109              		.thumb
 1110              		.thumb_func
 1111              		.type	CapSense_GetCentroidPos, %function
 1112              	CapSense_GetCentroidPos:
 1113              	.LFB13:
1228:.\Generated_Source\PSoC5/CapSense_CSHL.c ****     {
 1114              		.loc 1 1228 0
 1115              		.cfi_startproc
 1116              		@ args = 0, pretend = 0, frame = 0
 1117              		@ frame_needed = 0, uses_anonymous_args = 0
 1118              	.LVL140:
 1119 0000 2DE9F041 		push	{r4, r5, r6, r7, r8, lr}
 1120              		.cfi_def_cfa_offset 24
 1121              		.cfi_offset 4, -24
 1122              		.cfi_offset 5, -20
 1123              		.cfi_offset 6, -16
 1124              		.cfi_offset 7, -12
 1125              		.cfi_offset 8, -8
 1126              		.cfi_offset 14, -4
 1127 0004 82B0     		sub	sp, sp, #8
 1128              		.cfi_def_cfa_offset 32
 1129 0006 0446     		mov	r4, r0
1235:.\Generated_Source\PSoC5/CapSense_CSHL.c ****             uint8 firstTimeIndex = CapSense_posFiltersData[widget];
 1130              		.loc 1 1235 0
 1131 0008 1B4B     		ldr	r3, .L94
 1132 000a 0344     		add	r3, r3, r0
ARM GAS  C:\Users\JohnP\AppData\Local\Temp\cc4GrDuO.s 			page 56


 1133 000c 1D7C     		ldrb	r5, [r3, #16]	@ zero_extendqisi2
 1134              	.LVL141:
1248:.\Generated_Source\PSoC5/CapSense_CSHL.c ****         uint8 offset = CapSense_rawDataIndex[widget];
 1135              		.loc 1 1248 0
 1136 000e 1B4A     		ldr	r2, .L94+4
 1137 0010 175C     		ldrb	r7, [r2, r0]	@ zero_extendqisi2
 1138              	.LVL142:
1249:.\Generated_Source\PSoC5/CapSense_CSHL.c ****         uint8 count = CapSense_numberOfSensors[widget];
 1139              		.loc 1 1249 0
 1140 0012 0244     		add	r2, r2, r0
 1141              	.LVL143:
 1142 0014 1679     		ldrb	r6, [r2, #4]	@ zero_extendqisi2
 1143              	.LVL144:
1267:.\Generated_Source\PSoC5/CapSense_CSHL.c ****             maximum = CapSense_FindMaximum(offset, count, CapSense_fingerThreshold[widget]);
 1144              		.loc 1 1267 0
 1145 0016 3846     		mov	r0, r7
 1146              	.LVL145:
 1147 0018 3146     		mov	r1, r6
 1148 001a 1A7A     		ldrb	r2, [r3, #8]	@ zero_extendqisi2
 1149              	.LVL146:
 1150 001c FFF7FEFF 		bl	CapSense_FindMaximum
 1151              	.LVL147:
1270:.\Generated_Source\PSoC5/CapSense_CSHL.c ****         if (maximum != 0xFFu)
 1152              		.loc 1 1270 0
 1153 0020 FF28     		cmp	r0, #255
 1154 0022 20D0     		beq	.L91
1273:.\Generated_Source\PSoC5/CapSense_CSHL.c ****             position = (uint16) CapSense_CalcCentroid(maximum, 
 1155              		.loc 1 1273 0
 1156 0024 DFF85080 		ldr	r8, .L94
 1157 0028 4444     		add	r4, r4, r8
 1158              	.LVL148:
 1159 002a 2379     		ldrb	r3, [r4, #4]	@ zero_extendqisi2
 1160 002c 0093     		str	r3, [sp]
 1161 002e 3946     		mov	r1, r7
 1162 0030 3246     		mov	r2, r6
 1163 0032 4FF4C853 		mov	r3, #6400
 1164 0036 FFF7FEFF 		bl	CapSense_CalcCentroid
 1165              	.LVL149:
 1166 003a 0346     		mov	r3, r0
 1167              	.LVL150:
1281:.\Generated_Source\PSoC5/CapSense_CSHL.c ****                     posIndex  = firstTimeIndex + 1u;
 1168              		.loc 1 1281 0
 1169 003c 6A1C     		adds	r2, r5, #1
 1170 003e D1B2     		uxtb	r1, r2
 1171              	.LVL151:
1283:.\Generated_Source\PSoC5/CapSense_CSHL.c ****                     if (0u == CapSense_posFiltersData[firstTimeIndex])
 1172              		.loc 1 1283 0
 1173 0040 A844     		add	r8, r8, r5
 1174 0042 98F81020 		ldrb	r2, [r8, #16]	@ zero_extendqisi2
 1175              	.LVL152:
 1176 0046 32B9     		cbnz	r2, .L92
1286:.\Generated_Source\PSoC5/CapSense_CSHL.c ****                         CapSense_posFiltersData[posIndex] = (uint8) position;
 1177              		.loc 1 1286 0
 1178 0048 0B4C     		ldr	r4, .L94
 1179              	.LVL153:
 1180 004a 2144     		add	r1, r1, r4
 1181              	.LVL154:
ARM GAS  C:\Users\JohnP\AppData\Local\Temp\cc4GrDuO.s 			page 57


 1182 004c 0B74     		strb	r3, [r1, #16]
1303:.\Generated_Source\PSoC5/CapSense_CSHL.c ****                         CapSense_posFiltersData[firstTimeIndex] = 1u;
 1183              		.loc 1 1303 0
 1184 004e 0123     		movs	r3, #1
 1185 0050 88F81030 		strb	r3, [r8, #16]
 1186 0054 0DE0     		b	.L93
 1187              	.LVL155:
 1188              	.L92:
1352:.\Generated_Source\PSoC5/CapSense_CSHL.c ****                                                                     (uint16)CapSense_posFiltersData
 1189              		.loc 1 1352 0
 1190 0056 084C     		ldr	r4, .L94
 1191 0058 0C44     		add	r4, r4, r1
1351:.\Generated_Source\PSoC5/CapSense_CSHL.c ****                                 position = CapSense_IIR4Filter(position,
 1192              		.loc 1 1351 0
 1193 005a 1846     		mov	r0, r3
 1194              	.LVL156:
 1195 005c 217C     		ldrb	r1, [r4, #16]	@ zero_extendqisi2
 1196              	.LVL157:
 1197 005e FFF7FEFF 		bl	CapSense_IIR4Filter
 1198              	.LVL158:
1353:.\Generated_Source\PSoC5/CapSense_CSHL.c ****                                 CapSense_posFiltersData[posIndex] = (uint8) position;
 1199              		.loc 1 1353 0
 1200 0062 2074     		strb	r0, [r4, #16]
 1201 0064 05E0     		b	.L93
 1202              	.LVL159:
 1203              	.L91:
1383:.\Generated_Source\PSoC5/CapSense_CSHL.c ****                     CapSense_posFiltersData[firstTimeIndex] = 0u;
 1204              		.loc 1 1383 0
 1205 0066 044B     		ldr	r3, .L94
 1206 0068 1D44     		add	r5, r5, r3
 1207              	.LVL160:
 1208 006a 0023     		movs	r3, #0
 1209 006c 2B74     		strb	r3, [r5, #16]
1377:.\Generated_Source\PSoC5/CapSense_CSHL.c ****             position = 0xFFFFu;
 1210              		.loc 1 1377 0
 1211 006e 4FF6FF70 		movw	r0, #65535
 1212              	.LVL161:
 1213              	.L93:
1390:.\Generated_Source\PSoC5/CapSense_CSHL.c ****     }
 1214              		.loc 1 1390 0
 1215 0072 02B0     		add	sp, sp, #8
 1216              		@ sp needed
 1217 0074 BDE8F081 		pop	{r4, r5, r6, r7, r8, pc}
 1218              	.LVL162:
 1219              	.L95:
 1220              		.align	2
 1221              	.L94:
 1222 0078 00000000 		.word	.LANCHOR0
 1223 007c 00000000 		.word	.LANCHOR2
 1224              		.cfi_endproc
 1225              	.LFE13:
 1226              		.size	CapSense_GetCentroidPos, .-CapSense_GetCentroidPos
 1227              		.global	CapSense_posFiltersData
 1228              		.global	CapSense_posFiltersMask
 1229              		.global	CapSense_centroidMult
 1230              		.global	CapSense_numberOfSensors
 1231              		.global	CapSense_rawDataIndex
ARM GAS  C:\Users\JohnP\AppData\Local\Temp\cc4GrDuO.s 			page 58


 1232              		.global	CapSense_debounceCounter
 1233              		.global	CapSense_debounce
 1234              		.global	CapSense_hysteresis
 1235              		.global	CapSense_noiseThreshold
 1236              		.global	CapSense_fingerThreshold
 1237              		.comm	CapSense_lowBaselineResetCnt,7,4
 1238              		.comm	CapSense_sensorOnMask,1,4
 1239              		.comm	CapSense_sensorSignal,7,4
 1240              		.comm	CapSense_sensorBaselineLow,7,4
 1241              		.comm	CapSense_sensorBaseline,14,4
 1242              		.section	.rodata
 1243              		.align	2
 1244              		.set	.LANCHOR2,. + 0
 1245              		.type	CapSense_rawDataIndex, %object
 1246              		.size	CapSense_rawDataIndex, 3
 1247              	CapSense_rawDataIndex:
 1248 0000 02       		.byte	2
 1249 0001 00       		.byte	0
 1250 0002 01       		.byte	1
 1251 0003 00       		.space	1
 1252              		.type	CapSense_numberOfSensors, %object
 1253              		.size	CapSense_numberOfSensors, 3
 1254              	CapSense_numberOfSensors:
 1255 0004 05       		.byte	5
 1256 0005 01       		.byte	1
 1257 0006 01       		.byte	1
 1258 0007 00       		.space	1
 1259              		.type	CapSense_posFiltersMask, %object
 1260              		.size	CapSense_posFiltersMask, 1
 1261              	CapSense_posFiltersMask:
 1262 0008 08       		.byte	8
 1263 0009 000000   		.space	3
 1264              		.type	CapSense_centroidMult, %object
 1265              		.size	CapSense_centroidMult, 2
 1266              	CapSense_centroidMult:
 1267 000c 0019     		.short	6400
 1268 000e 0000     		.data
 1269              		.align	2
 1270              		.set	.LANCHOR0,. + 0
 1271              		.type	CapSense_debounce, %object
 1272              		.size	CapSense_debounce, 3
 1273              	CapSense_debounce:
 1274 0000 01       		.byte	1
 1275 0001 01       		.byte	1
 1276 0002 01       		.byte	1
 1277 0003 00       		.space	1
 1278              		.type	CapSense_noiseThreshold, %object
 1279              		.size	CapSense_noiseThreshold, 3
 1280              	CapSense_noiseThreshold:
 1281 0004 14       		.byte	20
 1282 0005 14       		.byte	20
 1283 0006 14       		.byte	20
 1284 0007 00       		.space	1
 1285              		.type	CapSense_fingerThreshold, %object
 1286              		.size	CapSense_fingerThreshold, 3
 1287              	CapSense_fingerThreshold:
 1288 0008 64       		.byte	100
ARM GAS  C:\Users\JohnP\AppData\Local\Temp\cc4GrDuO.s 			page 59


 1289 0009 64       		.byte	100
 1290 000a 64       		.byte	100
 1291 000b 00       		.space	1
 1292              		.type	CapSense_hysteresis, %object
 1293              		.size	CapSense_hysteresis, 3
 1294              	CapSense_hysteresis:
 1295 000c 00       		.byte	0
 1296 000d 0A       		.byte	10
 1297 000e 0A       		.byte	10
 1298 000f 00       		.space	1
 1299              		.type	CapSense_posFiltersData, %object
 1300              		.size	CapSense_posFiltersData, 3
 1301              	CapSense_posFiltersData:
 1302 0010 01       		.byte	1
 1303 0011 00       		.byte	0
 1304 0012 00       		.byte	0
 1305 0013 00       		.bss
 1306              		.align	2
 1307              		.set	.LANCHOR1,. + 0
 1308              		.type	CapSense_debounceCounter, %object
 1309              		.size	CapSense_debounceCounter, 3
 1310              	CapSense_debounceCounter:
 1311 0000 000000   		.space	3
 1312 0003 00       		.space	1
 1313              		.type	CapSense_centroid.5139, %object
 1314              		.size	CapSense_centroid.5139, 3
 1315              	CapSense_centroid.5139:
 1316 0004 000000   		.space	3
 1317 0007 00       		.text
 1318              	.Letext0:
 1319              		.file 2 ".\\Generated_Source\\PSoC5\\cytypes.h"
 1320              		.file 3 ".\\Generated_Source\\PSoC5\\CapSense.h"
 1321              		.file 4 ".\\Generated_Source\\PSoC5\\CapSense_CSHL.h"