ARM GAS  C:\Users\JohnP\AppData\Local\Temp\cc6b4WZH.s 			page 1


   1              		.syntax unified
   2              		.cpu cortex-m3
   3              		.fpu softvfp
   4              		.eabi_attribute 20, 1
   5              		.eabi_attribute 21, 1
   6              		.eabi_attribute 23, 3
   7              		.eabi_attribute 24, 1
   8              		.eabi_attribute 25, 1
   9              		.eabi_attribute 26, 1
  10              		.eabi_attribute 30, 1
  11              		.eabi_attribute 34, 1
  12              		.eabi_attribute 18, 4
  13              		.thumb
  14              		.file	"Comp.c"
  15              		.text
  16              	.Ltext0:
  17              		.cfi_sections	.debug_frame
  18              		.section	.text.Comp_trimAdjust,"ax",%progbits
  19              		.align	2
  20              		.thumb
  21              		.thumb_func
  22              		.type	Comp_trimAdjust, %function
  23              	Comp_trimAdjust:
  24              	.LFB6:
  25              		.file 1 ".\\Generated_Source\\PSoC5\\Comp.c"
   1:.\Generated_Source\PSoC5/Comp.c **** /*******************************************************************************
   2:.\Generated_Source\PSoC5/Comp.c **** * File Name: Comp.c
   3:.\Generated_Source\PSoC5/Comp.c **** * Version 2.0
   4:.\Generated_Source\PSoC5/Comp.c **** *
   5:.\Generated_Source\PSoC5/Comp.c **** * Description:
   6:.\Generated_Source\PSoC5/Comp.c **** *  This file provides the source code to the API for the Comparator component
   7:.\Generated_Source\PSoC5/Comp.c **** *
   8:.\Generated_Source\PSoC5/Comp.c **** * Note:
   9:.\Generated_Source\PSoC5/Comp.c **** *  None
  10:.\Generated_Source\PSoC5/Comp.c **** *
  11:.\Generated_Source\PSoC5/Comp.c **** ********************************************************************************
  12:.\Generated_Source\PSoC5/Comp.c **** * Copyright 2008-2012, Cypress Semiconductor Corporation.  All rights reserved.
  13:.\Generated_Source\PSoC5/Comp.c **** * You may use this file only in accordance with the license, terms, conditions, 
  14:.\Generated_Source\PSoC5/Comp.c **** * disclaimers, and limitations in the end user license agreement accompanying 
  15:.\Generated_Source\PSoC5/Comp.c **** * the software package with which this file was provided.
  16:.\Generated_Source\PSoC5/Comp.c **** *******************************************************************************/
  17:.\Generated_Source\PSoC5/Comp.c **** 
  18:.\Generated_Source\PSoC5/Comp.c **** #include "Comp.h"
  19:.\Generated_Source\PSoC5/Comp.c **** 
  20:.\Generated_Source\PSoC5/Comp.c **** uint8 Comp_initVar = 0u;
  21:.\Generated_Source\PSoC5/Comp.c **** 
  22:.\Generated_Source\PSoC5/Comp.c **** /* Internal functions definitoin */
  23:.\Generated_Source\PSoC5/Comp.c **** static void Comp_trimAdjust(uint8 nibble) ;
  24:.\Generated_Source\PSoC5/Comp.c **** 
  25:.\Generated_Source\PSoC5/Comp.c **** /* static Comp_backupStruct  Comp_backup; */
  26:.\Generated_Source\PSoC5/Comp.c **** #if (CY_PSOC5A)
  27:.\Generated_Source\PSoC5/Comp.c ****     static Comp_LOWPOWER_BACKUP_STRUCT  Comp_lowPowerBackup;
  28:.\Generated_Source\PSoC5/Comp.c **** #endif /* CY_PSOC5A */
  29:.\Generated_Source\PSoC5/Comp.c **** 
  30:.\Generated_Source\PSoC5/Comp.c **** /* variable to decide whether or not to restore the control register in 
  31:.\Generated_Source\PSoC5/Comp.c ****    Enable() API for PSoC5A only */
  32:.\Generated_Source\PSoC5/Comp.c **** #if (CY_PSOC5A)
ARM GAS  C:\Users\JohnP\AppData\Local\Temp\cc6b4WZH.s 			page 2


  33:.\Generated_Source\PSoC5/Comp.c ****     static uint8 Comp_restoreReg = 0u;
  34:.\Generated_Source\PSoC5/Comp.c **** #endif /* CY_PSOC5A */
  35:.\Generated_Source\PSoC5/Comp.c **** 
  36:.\Generated_Source\PSoC5/Comp.c **** 
  37:.\Generated_Source\PSoC5/Comp.c **** /*******************************************************************************
  38:.\Generated_Source\PSoC5/Comp.c **** * Function Name: Comp_Init
  39:.\Generated_Source\PSoC5/Comp.c **** ********************************************************************************
  40:.\Generated_Source\PSoC5/Comp.c **** *
  41:.\Generated_Source\PSoC5/Comp.c **** * Summary:
  42:.\Generated_Source\PSoC5/Comp.c **** *  Initialize to the schematic state
  43:.\Generated_Source\PSoC5/Comp.c **** * 
  44:.\Generated_Source\PSoC5/Comp.c **** * Parameters:
  45:.\Generated_Source\PSoC5/Comp.c **** *  void
  46:.\Generated_Source\PSoC5/Comp.c **** *
  47:.\Generated_Source\PSoC5/Comp.c **** * Return:
  48:.\Generated_Source\PSoC5/Comp.c **** *  void
  49:.\Generated_Source\PSoC5/Comp.c **** *
  50:.\Generated_Source\PSoC5/Comp.c **** *******************************************************************************/
  51:.\Generated_Source\PSoC5/Comp.c **** void Comp_Init(void) 
  52:.\Generated_Source\PSoC5/Comp.c **** {
  53:.\Generated_Source\PSoC5/Comp.c ****     /* Set default speed/power */
  54:.\Generated_Source\PSoC5/Comp.c ****     Comp_SetSpeed(Comp_DEFAULT_SPEED);
  55:.\Generated_Source\PSoC5/Comp.c **** 
  56:.\Generated_Source\PSoC5/Comp.c ****     /* Set default Hysteresis */
  57:.\Generated_Source\PSoC5/Comp.c ****     #if ( Comp_DEFAULT_HYSTERESIS == 0u )
  58:.\Generated_Source\PSoC5/Comp.c ****         Comp_CR |= Comp_HYST_OFF;
  59:.\Generated_Source\PSoC5/Comp.c ****     #else
  60:.\Generated_Source\PSoC5/Comp.c ****         Comp_CR &= (uint8)(~Comp_HYST_OFF);
  61:.\Generated_Source\PSoC5/Comp.c ****     #endif /* Comp_DEFAULT_HYSTERESIS == 0u */
  62:.\Generated_Source\PSoC5/Comp.c ****     /* Power down override feature is not supported for PSoC5A. */
  63:.\Generated_Source\PSoC5/Comp.c ****     #if (CY_PSOC3 || CY_PSOC5LP)
  64:.\Generated_Source\PSoC5/Comp.c ****         /* Set default Power Down Override */
  65:.\Generated_Source\PSoC5/Comp.c ****         #if ( Comp_DEFAULT_PWRDWN_OVRD == 0u )
  66:.\Generated_Source\PSoC5/Comp.c ****             Comp_CR &= (uint8)(~Comp_PWRDWN_OVRD);
  67:.\Generated_Source\PSoC5/Comp.c ****         #else 
  68:.\Generated_Source\PSoC5/Comp.c ****             Comp_CR |= Comp_PWRDWN_OVRD;
  69:.\Generated_Source\PSoC5/Comp.c ****         #endif /* Comp_DEFAULT_PWRDWN_OVRD == 0u */
  70:.\Generated_Source\PSoC5/Comp.c ****     #endif /* CY_PSOC3 || CY_PSOC5LP */
  71:.\Generated_Source\PSoC5/Comp.c ****     
  72:.\Generated_Source\PSoC5/Comp.c ****     /* Set mux always on logic */
  73:.\Generated_Source\PSoC5/Comp.c ****     Comp_CR |= Comp_MX_AO;
  74:.\Generated_Source\PSoC5/Comp.c **** 
  75:.\Generated_Source\PSoC5/Comp.c ****     /* Set default sync */
  76:.\Generated_Source\PSoC5/Comp.c ****     Comp_CLK &= (uint8)(~Comp_SYNCCLK_MASK);
  77:.\Generated_Source\PSoC5/Comp.c ****     #if ( Comp_DEFAULT_BYPASS_SYNC == 0u )
  78:.\Generated_Source\PSoC5/Comp.c ****         Comp_CLK |= Comp_SYNC_CLK_EN;
  79:.\Generated_Source\PSoC5/Comp.c ****     #else
  80:.\Generated_Source\PSoC5/Comp.c ****         Comp_CLK |= Comp_BYPASS_SYNC;
  81:.\Generated_Source\PSoC5/Comp.c ****     #endif /* Comp_DEFAULT_BYPASS_SYNC == 0u */
  82:.\Generated_Source\PSoC5/Comp.c **** }
  83:.\Generated_Source\PSoC5/Comp.c **** 
  84:.\Generated_Source\PSoC5/Comp.c **** 
  85:.\Generated_Source\PSoC5/Comp.c **** /*******************************************************************************
  86:.\Generated_Source\PSoC5/Comp.c **** * Function Name: Comp_Enable
  87:.\Generated_Source\PSoC5/Comp.c **** ********************************************************************************
  88:.\Generated_Source\PSoC5/Comp.c **** *
  89:.\Generated_Source\PSoC5/Comp.c **** * Summary:
ARM GAS  C:\Users\JohnP\AppData\Local\Temp\cc6b4WZH.s 			page 3


  90:.\Generated_Source\PSoC5/Comp.c **** *  Enable the Comparator
  91:.\Generated_Source\PSoC5/Comp.c **** * 
  92:.\Generated_Source\PSoC5/Comp.c **** * Parameters:
  93:.\Generated_Source\PSoC5/Comp.c **** *  void
  94:.\Generated_Source\PSoC5/Comp.c **** *
  95:.\Generated_Source\PSoC5/Comp.c **** * Return:
  96:.\Generated_Source\PSoC5/Comp.c **** *  void
  97:.\Generated_Source\PSoC5/Comp.c **** *
  98:.\Generated_Source\PSoC5/Comp.c **** *******************************************************************************/
  99:.\Generated_Source\PSoC5/Comp.c **** void Comp_Enable(void) 
 100:.\Generated_Source\PSoC5/Comp.c **** {
 101:.\Generated_Source\PSoC5/Comp.c ****     Comp_PWRMGR |= Comp_ACT_PWR_EN;
 102:.\Generated_Source\PSoC5/Comp.c ****     Comp_STBY_PWRMGR |= Comp_STBY_PWR_EN;
 103:.\Generated_Source\PSoC5/Comp.c ****      
 104:.\Generated_Source\PSoC5/Comp.c ****      /* This is to restore the value of register CR which is saved 
 105:.\Generated_Source\PSoC5/Comp.c ****     in prior to the modification in stop() API */
 106:.\Generated_Source\PSoC5/Comp.c ****     #if (CY_PSOC5A)
 107:.\Generated_Source\PSoC5/Comp.c ****         if(Comp_restoreReg == 1u)
 108:.\Generated_Source\PSoC5/Comp.c ****         {
 109:.\Generated_Source\PSoC5/Comp.c ****             Comp_CR = Comp_lowPowerBackup.compCRReg;
 110:.\Generated_Source\PSoC5/Comp.c **** 
 111:.\Generated_Source\PSoC5/Comp.c ****             /* Clear the flag */
 112:.\Generated_Source\PSoC5/Comp.c ****             Comp_restoreReg = 0u;
 113:.\Generated_Source\PSoC5/Comp.c ****         }
 114:.\Generated_Source\PSoC5/Comp.c ****     #endif /* CY_PSOC5A */
 115:.\Generated_Source\PSoC5/Comp.c **** }
 116:.\Generated_Source\PSoC5/Comp.c **** 
 117:.\Generated_Source\PSoC5/Comp.c **** 
 118:.\Generated_Source\PSoC5/Comp.c **** /*******************************************************************************
 119:.\Generated_Source\PSoC5/Comp.c **** * Function Name: Comp_Start
 120:.\Generated_Source\PSoC5/Comp.c **** ********************************************************************************
 121:.\Generated_Source\PSoC5/Comp.c **** *
 122:.\Generated_Source\PSoC5/Comp.c **** * Summary:
 123:.\Generated_Source\PSoC5/Comp.c **** *  The start function initializes the Analog Comparator with the default values.
 124:.\Generated_Source\PSoC5/Comp.c **** *
 125:.\Generated_Source\PSoC5/Comp.c **** * Parameters:
 126:.\Generated_Source\PSoC5/Comp.c **** *  void
 127:.\Generated_Source\PSoC5/Comp.c **** *
 128:.\Generated_Source\PSoC5/Comp.c **** * Return:
 129:.\Generated_Source\PSoC5/Comp.c **** *  void 
 130:.\Generated_Source\PSoC5/Comp.c **** *
 131:.\Generated_Source\PSoC5/Comp.c **** * Global variables:
 132:.\Generated_Source\PSoC5/Comp.c **** *  Comp_initVar: Is modified when this function is called for the 
 133:.\Generated_Source\PSoC5/Comp.c **** *   first time. Is used to ensure that initialization happens only once.
 134:.\Generated_Source\PSoC5/Comp.c **** *  
 135:.\Generated_Source\PSoC5/Comp.c **** *******************************************************************************/
 136:.\Generated_Source\PSoC5/Comp.c **** void Comp_Start(void) 
 137:.\Generated_Source\PSoC5/Comp.c **** {
 138:.\Generated_Source\PSoC5/Comp.c **** 
 139:.\Generated_Source\PSoC5/Comp.c ****     if ( Comp_initVar == 0u )
 140:.\Generated_Source\PSoC5/Comp.c ****     {
 141:.\Generated_Source\PSoC5/Comp.c ****         Comp_Init();
 142:.\Generated_Source\PSoC5/Comp.c ****         
 143:.\Generated_Source\PSoC5/Comp.c ****         Comp_initVar = 1u;
 144:.\Generated_Source\PSoC5/Comp.c ****     }   
 145:.\Generated_Source\PSoC5/Comp.c **** 
 146:.\Generated_Source\PSoC5/Comp.c ****     /* Enable power to comparator */
ARM GAS  C:\Users\JohnP\AppData\Local\Temp\cc6b4WZH.s 			page 4


 147:.\Generated_Source\PSoC5/Comp.c ****     Comp_Enable();    
 148:.\Generated_Source\PSoC5/Comp.c **** }
 149:.\Generated_Source\PSoC5/Comp.c **** 
 150:.\Generated_Source\PSoC5/Comp.c **** 
 151:.\Generated_Source\PSoC5/Comp.c **** /*******************************************************************************
 152:.\Generated_Source\PSoC5/Comp.c **** * Function Name: Comp_Stop
 153:.\Generated_Source\PSoC5/Comp.c **** ********************************************************************************
 154:.\Generated_Source\PSoC5/Comp.c **** *
 155:.\Generated_Source\PSoC5/Comp.c **** * Summary:
 156:.\Generated_Source\PSoC5/Comp.c **** *  Powers down amplifier to lowest power state.
 157:.\Generated_Source\PSoC5/Comp.c **** *
 158:.\Generated_Source\PSoC5/Comp.c **** * Parameters:
 159:.\Generated_Source\PSoC5/Comp.c **** *  void
 160:.\Generated_Source\PSoC5/Comp.c **** *
 161:.\Generated_Source\PSoC5/Comp.c **** * Return:
 162:.\Generated_Source\PSoC5/Comp.c **** *  void
 163:.\Generated_Source\PSoC5/Comp.c **** *
 164:.\Generated_Source\PSoC5/Comp.c **** *******************************************************************************/
 165:.\Generated_Source\PSoC5/Comp.c **** void Comp_Stop(void) 
 166:.\Generated_Source\PSoC5/Comp.c **** {
 167:.\Generated_Source\PSoC5/Comp.c ****     /* Disable power to comparator */
 168:.\Generated_Source\PSoC5/Comp.c ****     Comp_PWRMGR &= (uint8)(~Comp_ACT_PWR_EN);
 169:.\Generated_Source\PSoC5/Comp.c ****     Comp_STBY_PWRMGR &= (uint8)(~Comp_STBY_PWR_EN);
 170:.\Generated_Source\PSoC5/Comp.c ****     
 171:.\Generated_Source\PSoC5/Comp.c ****     #if (CY_PSOC5A)
 172:.\Generated_Source\PSoC5/Comp.c ****         /* Enable the variable */
 173:.\Generated_Source\PSoC5/Comp.c ****         Comp_restoreReg = 1u;
 174:.\Generated_Source\PSoC5/Comp.c **** 
 175:.\Generated_Source\PSoC5/Comp.c ****         /* Save the control register before clearing it */
 176:.\Generated_Source\PSoC5/Comp.c ****         Comp_lowPowerBackup.compCRReg = Comp_CR;
 177:.\Generated_Source\PSoC5/Comp.c ****         Comp_CR = Comp_COMP_REG_CLR;
 178:.\Generated_Source\PSoC5/Comp.c ****     #endif /* CY_PSOC5A */
 179:.\Generated_Source\PSoC5/Comp.c **** }
 180:.\Generated_Source\PSoC5/Comp.c **** 
 181:.\Generated_Source\PSoC5/Comp.c **** 
 182:.\Generated_Source\PSoC5/Comp.c **** /*******************************************************************************
 183:.\Generated_Source\PSoC5/Comp.c **** * Function Name: Comp_SetSpeed
 184:.\Generated_Source\PSoC5/Comp.c **** ********************************************************************************
 185:.\Generated_Source\PSoC5/Comp.c **** *
 186:.\Generated_Source\PSoC5/Comp.c **** * Summary:
 187:.\Generated_Source\PSoC5/Comp.c **** *  This function sets the speed of the Analog Comparator. The faster the speed
 188:.\Generated_Source\PSoC5/Comp.c **** *  the more power that is used.
 189:.\Generated_Source\PSoC5/Comp.c **** *
 190:.\Generated_Source\PSoC5/Comp.c **** * Parameters:
 191:.\Generated_Source\PSoC5/Comp.c **** *  speed: (uint8) Sets operation mode of Comparator
 192:.\Generated_Source\PSoC5/Comp.c **** *
 193:.\Generated_Source\PSoC5/Comp.c **** * Return:
 194:.\Generated_Source\PSoC5/Comp.c **** *  void
 195:.\Generated_Source\PSoC5/Comp.c **** *
 196:.\Generated_Source\PSoC5/Comp.c **** *******************************************************************************/
 197:.\Generated_Source\PSoC5/Comp.c **** void Comp_SetSpeed(uint8 speed) 
 198:.\Generated_Source\PSoC5/Comp.c **** {
 199:.\Generated_Source\PSoC5/Comp.c ****     /* Clear and Set power level */    
 200:.\Generated_Source\PSoC5/Comp.c ****     Comp_CR = (Comp_CR & (uint8)(~Comp_PWR_MODE_MASK)) |
 201:.\Generated_Source\PSoC5/Comp.c ****                            (speed & Comp_PWR_MODE_MASK);
 202:.\Generated_Source\PSoC5/Comp.c **** 
 203:.\Generated_Source\PSoC5/Comp.c ****     /* Set trim value for high speed comparator */
ARM GAS  C:\Users\JohnP\AppData\Local\Temp\cc6b4WZH.s 			page 5


 204:.\Generated_Source\PSoC5/Comp.c ****     if(speed == Comp_HIGHSPEED)
 205:.\Generated_Source\PSoC5/Comp.c ****     {
 206:.\Generated_Source\PSoC5/Comp.c ****         /* PSoC5A */
 207:.\Generated_Source\PSoC5/Comp.c ****         #if (CY_PSOC5A)
 208:.\Generated_Source\PSoC5/Comp.c ****             Comp_TR = Comp_HS_TRIM_TR0;
 209:.\Generated_Source\PSoC5/Comp.c ****         #endif /* CY_PSOC5A */
 210:.\Generated_Source\PSoC5/Comp.c ****         
 211:.\Generated_Source\PSoC5/Comp.c ****         /* PSoC3, PSoC5LP or later */
 212:.\Generated_Source\PSoC5/Comp.c ****         #if (CY_PSOC3 || CY_PSOC5LP) 
 213:.\Generated_Source\PSoC5/Comp.c ****             Comp_TR0 = Comp_HS_TRIM_TR0;
 214:.\Generated_Source\PSoC5/Comp.c ****             Comp_TR1 = Comp_HS_TRIM_TR1;
 215:.\Generated_Source\PSoC5/Comp.c ****         #endif /* CY_PSOC3 || CY_PSOC5LP */
 216:.\Generated_Source\PSoC5/Comp.c ****     }
 217:.\Generated_Source\PSoC5/Comp.c ****     else
 218:.\Generated_Source\PSoC5/Comp.c ****     {
 219:.\Generated_Source\PSoC5/Comp.c ****     /* PSoC5A */
 220:.\Generated_Source\PSoC5/Comp.c ****         #if (CY_PSOC5A)
 221:.\Generated_Source\PSoC5/Comp.c ****             Comp_TR = Comp_LS_TRIM_TR0;
 222:.\Generated_Source\PSoC5/Comp.c ****         #endif /* CY_PSOC5A */
 223:.\Generated_Source\PSoC5/Comp.c ****         
 224:.\Generated_Source\PSoC5/Comp.c ****         /* PSoC3, PSoC5LP or later */
 225:.\Generated_Source\PSoC5/Comp.c ****         #if (CY_PSOC3 || CY_PSOC5LP) 
 226:.\Generated_Source\PSoC5/Comp.c ****             Comp_TR0 = Comp_LS_TRIM_TR0;
 227:.\Generated_Source\PSoC5/Comp.c ****             Comp_TR1 = Comp_LS_TRIM_TR1;
 228:.\Generated_Source\PSoC5/Comp.c ****         #endif /* CY_PSOC3 || CY_PSOC5LP */
 229:.\Generated_Source\PSoC5/Comp.c ****     }
 230:.\Generated_Source\PSoC5/Comp.c **** 
 231:.\Generated_Source\PSoC5/Comp.c **** }
 232:.\Generated_Source\PSoC5/Comp.c **** 
 233:.\Generated_Source\PSoC5/Comp.c **** 
 234:.\Generated_Source\PSoC5/Comp.c **** /*******************************************************************************
 235:.\Generated_Source\PSoC5/Comp.c **** * Function Name: Comp_GetCompare
 236:.\Generated_Source\PSoC5/Comp.c **** ********************************************************************************
 237:.\Generated_Source\PSoC5/Comp.c **** *
 238:.\Generated_Source\PSoC5/Comp.c **** * Summary:
 239:.\Generated_Source\PSoC5/Comp.c **** *  This function returns the comparator output value.
 240:.\Generated_Source\PSoC5/Comp.c **** *  This value is not affected by the Polarity parameter.
 241:.\Generated_Source\PSoC5/Comp.c **** *  This valuea lways reflects a noninverted state.
 242:.\Generated_Source\PSoC5/Comp.c **** *
 243:.\Generated_Source\PSoC5/Comp.c **** * Parameters:
 244:.\Generated_Source\PSoC5/Comp.c **** *   None
 245:.\Generated_Source\PSoC5/Comp.c **** *
 246:.\Generated_Source\PSoC5/Comp.c **** * Return:
 247:.\Generated_Source\PSoC5/Comp.c **** *  (uint8)  0     - if Pos_Input less than Neg_input
 248:.\Generated_Source\PSoC5/Comp.c **** *           non 0 - if Pos_Input greater than Neg_input.
 249:.\Generated_Source\PSoC5/Comp.c **** *
 250:.\Generated_Source\PSoC5/Comp.c **** *******************************************************************************/
 251:.\Generated_Source\PSoC5/Comp.c **** uint8 Comp_GetCompare(void) 
 252:.\Generated_Source\PSoC5/Comp.c **** {
 253:.\Generated_Source\PSoC5/Comp.c ****     return( Comp_WRK & Comp_CMP_OUT_MASK);
 254:.\Generated_Source\PSoC5/Comp.c **** }
 255:.\Generated_Source\PSoC5/Comp.c **** 
 256:.\Generated_Source\PSoC5/Comp.c **** 
 257:.\Generated_Source\PSoC5/Comp.c **** /*******************************************************************************
 258:.\Generated_Source\PSoC5/Comp.c **** * Function Name: Comp_trimAdjust
 259:.\Generated_Source\PSoC5/Comp.c **** ********************************************************************************
 260:.\Generated_Source\PSoC5/Comp.c **** *
ARM GAS  C:\Users\JohnP\AppData\Local\Temp\cc6b4WZH.s 			page 6


 261:.\Generated_Source\PSoC5/Comp.c **** * Summary:
 262:.\Generated_Source\PSoC5/Comp.c **** *  This function adjusts the value in the low nibble/high nibble of the Analog 
 263:.\Generated_Source\PSoC5/Comp.c **** *  Comparator trim register
 264:.\Generated_Source\PSoC5/Comp.c **** *
 265:.\Generated_Source\PSoC5/Comp.c **** * Parameters:  
 266:.\Generated_Source\PSoC5/Comp.c **** *  nibble:
 267:.\Generated_Source\PSoC5/Comp.c **** *      0 -- adjusts the value in the low nibble
 268:.\Generated_Source\PSoC5/Comp.c **** *      1 -- adjusts the value in the high nibble
 269:.\Generated_Source\PSoC5/Comp.c **** *
 270:.\Generated_Source\PSoC5/Comp.c **** * Return:
 271:.\Generated_Source\PSoC5/Comp.c **** *  None
 272:.\Generated_Source\PSoC5/Comp.c **** *
 273:.\Generated_Source\PSoC5/Comp.c **** * Theory: 
 274:.\Generated_Source\PSoC5/Comp.c **** *  Function assumes comparator block is setup for trim adjust.
 275:.\Generated_Source\PSoC5/Comp.c **** *  Intended to be called from Comp_ZeroCal()
 276:.\Generated_Source\PSoC5/Comp.c **** * 
 277:.\Generated_Source\PSoC5/Comp.c **** * Side Effects:
 278:.\Generated_Source\PSoC5/Comp.c **** *  Routine uses a course 1ms delay following each trim adjustment to allow 
 279:.\Generated_Source\PSoC5/Comp.c **** *  the comparator output to respond.
 280:.\Generated_Source\PSoC5/Comp.c **** *
 281:.\Generated_Source\PSoC5/Comp.c **** *******************************************************************************/
 282:.\Generated_Source\PSoC5/Comp.c **** static void Comp_trimAdjust(uint8 nibble) 
 283:.\Generated_Source\PSoC5/Comp.c **** {
  26              		.loc 1 283 0
  27              		.cfi_startproc
  28              		@ args = 0, pretend = 0, frame = 0
  29              		@ frame_needed = 0, uses_anonymous_args = 0
  30              	.LVL0:
  31 0000 2DE9F047 		push	{r4, r5, r6, r7, r8, r9, r10, lr}
  32              		.cfi_def_cfa_offset 32
  33              		.cfi_offset 4, -32
  34              		.cfi_offset 5, -28
  35              		.cfi_offset 6, -24
  36              		.cfi_offset 7, -20
  37              		.cfi_offset 8, -16
  38              		.cfi_offset 9, -12
  39              		.cfi_offset 10, -8
  40              		.cfi_offset 14, -4
 284:.\Generated_Source\PSoC5/Comp.c ****     uint8 trimCnt, trimCntMax;
 285:.\Generated_Source\PSoC5/Comp.c ****     uint8 cmpState;   
 286:.\Generated_Source\PSoC5/Comp.c **** 
 287:.\Generated_Source\PSoC5/Comp.c ****     /* get current state of comparator output */
 288:.\Generated_Source\PSoC5/Comp.c ****     cmpState = Comp_WRK & Comp_CMP_OUT_MASK;
  41              		.loc 1 288 0
  42 0004 1E4B     		ldr	r3, .L11
  43 0006 1D78     		ldrb	r5, [r3]	@ zero_extendqisi2
  44 0008 05F00105 		and	r5, r5, #1
  45              	.LVL1:
 289:.\Generated_Source\PSoC5/Comp.c ****     
 290:.\Generated_Source\PSoC5/Comp.c ****     if (nibble == 0u)
  46              		.loc 1 290 0
  47 000c 0646     		mov	r6, r0
  48 000e 40B9     		cbnz	r0, .L2
 291:.\Generated_Source\PSoC5/Comp.c ****     {    
 292:.\Generated_Source\PSoC5/Comp.c ****         /* if comparator output is high, negative offset adjust is required */
 293:.\Generated_Source\PSoC5/Comp.c ****         if ( cmpState != 0u )
  49              		.loc 1 293 0
ARM GAS  C:\Users\JohnP\AppData\Local\Temp\cc6b4WZH.s 			page 7


  50 0010 6DB1     		cbz	r5, .L3
 294:.\Generated_Source\PSoC5/Comp.c ****         {
 295:.\Generated_Source\PSoC5/Comp.c ****             /* PSoC5A */
 296:.\Generated_Source\PSoC5/Comp.c ****             #if (CY_PSOC5A)
 297:.\Generated_Source\PSoC5/Comp.c ****                 Comp_TR |= Comp_CMP_TRIM1_DIR;
 298:.\Generated_Source\PSoC5/Comp.c ****             #endif /* CY_PSOC5A */
 299:.\Generated_Source\PSoC5/Comp.c ****             
 300:.\Generated_Source\PSoC5/Comp.c ****             /* PSoC3, PSoC5LP or later */
 301:.\Generated_Source\PSoC5/Comp.c ****             #if (CY_PSOC3 || CY_PSOC5LP)
 302:.\Generated_Source\PSoC5/Comp.c ****                 Comp_TR0 |= Comp_CMP_TR0_DIR;
  51              		.loc 1 302 0
  52 0012 A3F5AB53 		sub	r3, r3, #5472
  53 0016 063B     		subs	r3, r3, #6
  54 0018 1A78     		ldrb	r2, [r3]	@ zero_extendqisi2
  55 001a 42F01002 		orr	r2, r2, #16
  56 001e 1A70     		strb	r2, [r3]
  57 0020 05E0     		b	.L3
  58              	.L2:
 303:.\Generated_Source\PSoC5/Comp.c ****             #endif /* CY_PSOC3 || CY_PSOC5LP */
 304:.\Generated_Source\PSoC5/Comp.c ****         }
 305:.\Generated_Source\PSoC5/Comp.c ****     }
 306:.\Generated_Source\PSoC5/Comp.c ****     else
 307:.\Generated_Source\PSoC5/Comp.c ****     {
 308:.\Generated_Source\PSoC5/Comp.c ****         /* if comparator output is low, positive offset adjust is required */
 309:.\Generated_Source\PSoC5/Comp.c ****         if ( cmpState == 0u )
  59              		.loc 1 309 0
  60 0022 25B9     		cbnz	r5, .L3
 310:.\Generated_Source\PSoC5/Comp.c ****         {
 311:.\Generated_Source\PSoC5/Comp.c ****             /* PSoC5A */
 312:.\Generated_Source\PSoC5/Comp.c ****             #if (CY_PSOC5A)
 313:.\Generated_Source\PSoC5/Comp.c ****                 Comp_TR |= Comp_CMP_TRIM2_DIR; 
 314:.\Generated_Source\PSoC5/Comp.c ****             #endif /* CY_PSOC5A */
 315:.\Generated_Source\PSoC5/Comp.c ****             
 316:.\Generated_Source\PSoC5/Comp.c ****             /* PSoC3, PSoC5LP or later */
 317:.\Generated_Source\PSoC5/Comp.c ****             #if (CY_PSOC3 || CY_PSOC5LP)
 318:.\Generated_Source\PSoC5/Comp.c ****                 Comp_TR1 |= Comp_CMP_TR1_DIR;
  61              		.loc 1 318 0
  62 0024 174B     		ldr	r3, .L11+4
  63 0026 1A78     		ldrb	r2, [r3]	@ zero_extendqisi2
  64 0028 42F01002 		orr	r2, r2, #16
  65 002c 1A70     		strb	r2, [r3]
  66              	.L3:
 319:.\Generated_Source\PSoC5/Comp.c ****             #endif /* CY_PSOC3 || CY_PSOC5LP */
 320:.\Generated_Source\PSoC5/Comp.c ****         }
 321:.\Generated_Source\PSoC5/Comp.c ****     }
 322:.\Generated_Source\PSoC5/Comp.c **** 
 323:.\Generated_Source\PSoC5/Comp.c ****     /* Increment trim value until compare output changes state */
 324:.\Generated_Source\PSoC5/Comp.c **** 	
 325:.\Generated_Source\PSoC5/Comp.c ****     /* PSoC5A */
 326:.\Generated_Source\PSoC5/Comp.c **** 	#if (CY_PSOC5A)
 327:.\Generated_Source\PSoC5/Comp.c **** 	    trimCntMax = 7u;
 328:.\Generated_Source\PSoC5/Comp.c ****     #endif
 329:.\Generated_Source\PSoC5/Comp.c **** 	
 330:.\Generated_Source\PSoC5/Comp.c **** 	/* PSoC3, PSoC5LP or later */
 331:.\Generated_Source\PSoC5/Comp.c **** 	#if (CY_PSOC3 || CY_PSOC5LP)
 332:.\Generated_Source\PSoC5/Comp.c ****     	if(nibble == 0u)
  67              		.loc 1 332 0
ARM GAS  C:\Users\JohnP\AppData\Local\Temp\cc6b4WZH.s 			page 8


  68 002e 0EB9     		cbnz	r6, .L10
 333:.\Generated_Source\PSoC5/Comp.c ****     	{
 334:.\Generated_Source\PSoC5/Comp.c ****     		trimCntMax = 15u;
  69              		.loc 1 334 0
  70 0030 0F27     		movs	r7, #15
  71 0032 00E0     		b	.L4
  72              	.L10:
 335:.\Generated_Source\PSoC5/Comp.c ****     	}
 336:.\Generated_Source\PSoC5/Comp.c ****     	else
 337:.\Generated_Source\PSoC5/Comp.c ****     	{
 338:.\Generated_Source\PSoC5/Comp.c ****     		trimCntMax = 7u;
  73              		.loc 1 338 0
  74 0034 0727     		movs	r7, #7
  75              	.L4:
  76              	.LVL2:
 339:.\Generated_Source\PSoC5/Comp.c ****     	}
 340:.\Generated_Source\PSoC5/Comp.c **** 	#endif
 341:.\Generated_Source\PSoC5/Comp.c **** 	
 342:.\Generated_Source\PSoC5/Comp.c ****     for ( trimCnt = 0u; trimCnt < trimCntMax; trimCnt++ )
  77              		.loc 1 342 0
  78 0036 0024     		movs	r4, #0
 343:.\Generated_Source\PSoC5/Comp.c **** 	{
 344:.\Generated_Source\PSoC5/Comp.c ****         if (nibble == 0u)
 345:.\Generated_Source\PSoC5/Comp.c ****         {
 346:.\Generated_Source\PSoC5/Comp.c ****             /* PSoC5A */
 347:.\Generated_Source\PSoC5/Comp.c ****             #if (CY_PSOC5A)
 348:.\Generated_Source\PSoC5/Comp.c ****                 Comp_TR += 1u;
 349:.\Generated_Source\PSoC5/Comp.c ****             #endif /* CY_PSOC5A */
 350:.\Generated_Source\PSoC5/Comp.c ****             
 351:.\Generated_Source\PSoC5/Comp.c ****             /* PSoC3, PSoC5LP or later */
 352:.\Generated_Source\PSoC5/Comp.c ****             #if (CY_PSOC3 || CY_PSOC5LP)
 353:.\Generated_Source\PSoC5/Comp.c ****                 Comp_TR0 += 1u;
 354:.\Generated_Source\PSoC5/Comp.c ****             #endif /* CY_PSOC3 || CY_PSOC5LP */
 355:.\Generated_Source\PSoC5/Comp.c ****         }
 356:.\Generated_Source\PSoC5/Comp.c ****         else
 357:.\Generated_Source\PSoC5/Comp.c ****         {
 358:.\Generated_Source\PSoC5/Comp.c ****             /* PSoC5A */
 359:.\Generated_Source\PSoC5/Comp.c ****             #if (CY_PSOC5A)
 360:.\Generated_Source\PSoC5/Comp.c ****                 Comp_TR += 0x10u;
 361:.\Generated_Source\PSoC5/Comp.c ****             #endif /* CY_PSOC5A */
 362:.\Generated_Source\PSoC5/Comp.c ****             
 363:.\Generated_Source\PSoC5/Comp.c ****             /* PSoC3, PSoC5LP or later */
 364:.\Generated_Source\PSoC5/Comp.c ****             #if (CY_PSOC3 || CY_PSOC5LP)
 365:.\Generated_Source\PSoC5/Comp.c ****                 Comp_TR1 += 1u;
  79              		.loc 1 365 0
  80 0038 DFF848A0 		ldr	r10, .L11+4
 353:.\Generated_Source\PSoC5/Comp.c ****                 Comp_TR0 += 1u;
  81              		.loc 1 353 0
  82 003c DFF84890 		ldr	r9, .L11+8
 366:.\Generated_Source\PSoC5/Comp.c ****             #endif /* CY_PSOC3 || CY_PSOC5LP */
 367:.\Generated_Source\PSoC5/Comp.c ****         }
 368:.\Generated_Source\PSoC5/Comp.c ****         
 369:.\Generated_Source\PSoC5/Comp.c ****         CyDelayUs(10u);
 370:.\Generated_Source\PSoC5/Comp.c ****         
 371:.\Generated_Source\PSoC5/Comp.c ****         /* Check for change in comparator output */
 372:.\Generated_Source\PSoC5/Comp.c ****         if ((Comp_WRK & Comp_CMP_OUT_MASK) != cmpState)
  83              		.loc 1 372 0
ARM GAS  C:\Users\JohnP\AppData\Local\Temp\cc6b4WZH.s 			page 9


  84 0040 DFF83C80 		ldr	r8, .L11
 342:.\Generated_Source\PSoC5/Comp.c ****     for ( trimCnt = 0u; trimCnt < trimCntMax; trimCnt++ )
  85              		.loc 1 342 0
  86 0044 18E0     		b	.L5
  87              	.LVL3:
  88              	.L9:
 344:.\Generated_Source\PSoC5/Comp.c ****         if (nibble == 0u)
  89              		.loc 1 344 0
  90 0046 36B9     		cbnz	r6, .L6
 353:.\Generated_Source\PSoC5/Comp.c ****                 Comp_TR0 += 1u;
  91              		.loc 1 353 0
  92 0048 99F80030 		ldrb	r3, [r9]	@ zero_extendqisi2
  93 004c 0133     		adds	r3, r3, #1
  94 004e DBB2     		uxtb	r3, r3
  95 0050 89F80030 		strb	r3, [r9]
  96 0054 05E0     		b	.L7
  97              	.L6:
 365:.\Generated_Source\PSoC5/Comp.c ****                 Comp_TR1 += 1u;
  98              		.loc 1 365 0
  99 0056 9AF80030 		ldrb	r3, [r10]	@ zero_extendqisi2
 100 005a 0133     		adds	r3, r3, #1
 101 005c DBB2     		uxtb	r3, r3
 102 005e 8AF80030 		strb	r3, [r10]
 103              	.L7:
 369:.\Generated_Source\PSoC5/Comp.c ****         CyDelayUs(10u);
 104              		.loc 1 369 0
 105 0062 0A20     		movs	r0, #10
 106 0064 FFF7FEFF 		bl	CyDelayUs
 107              	.LVL4:
 108              		.loc 1 372 0
 109 0068 98F80030 		ldrb	r3, [r8]	@ zero_extendqisi2
 110 006c 03F00103 		and	r3, r3, #1
 111 0070 AB42     		cmp	r3, r5
 112 0072 03D1     		bne	.L1
 342:.\Generated_Source\PSoC5/Comp.c ****     for ( trimCnt = 0u; trimCnt < trimCntMax; trimCnt++ )
 113              		.loc 1 342 0
 114 0074 0134     		adds	r4, r4, #1
 115              	.LVL5:
 116 0076 E4B2     		uxtb	r4, r4
 117              	.LVL6:
 118              	.L5:
 342:.\Generated_Source\PSoC5/Comp.c ****     for ( trimCnt = 0u; trimCnt < trimCntMax; trimCnt++ )
 119              		.loc 1 342 0 is_stmt 0 discriminator 1
 120 0078 BC42     		cmp	r4, r7
 121 007a E4D3     		bcc	.L9
 122              	.L1:
 123 007c BDE8F087 		pop	{r4, r5, r6, r7, r8, r9, r10, pc}
 124              	.LVL7:
 125              	.L12:
 126              		.align	2
 127              	.L11:
 128 0080 965B0040 		.word	1073765270
 129 0084 31460040 		.word	1073759793
 130 0088 30460040 		.word	1073759792
 131              		.cfi_endproc
 132              	.LFE6:
 133              		.size	Comp_trimAdjust, .-Comp_trimAdjust
ARM GAS  C:\Users\JohnP\AppData\Local\Temp\cc6b4WZH.s 			page 10


 134              		.section	.text.Comp_Enable,"ax",%progbits
 135              		.align	2
 136              		.global	Comp_Enable
 137              		.thumb
 138              		.thumb_func
 139              		.type	Comp_Enable, %function
 140              	Comp_Enable:
 141              	.LFB1:
 100:.\Generated_Source\PSoC5/Comp.c **** {
 142              		.loc 1 100 0 is_stmt 1
 143              		.cfi_startproc
 144              		@ args = 0, pretend = 0, frame = 0
 145              		@ frame_needed = 0, uses_anonymous_args = 0
 146              		@ link register save eliminated.
 101:.\Generated_Source\PSoC5/Comp.c ****     Comp_PWRMGR |= Comp_ACT_PWR_EN;
 147              		.loc 1 101 0
 148 0000 054B     		ldr	r3, .L14
 149 0002 1A78     		ldrb	r2, [r3]	@ zero_extendqisi2
 150 0004 42F00102 		orr	r2, r2, #1
 151 0008 1A70     		strb	r2, [r3]
 102:.\Generated_Source\PSoC5/Comp.c ****     Comp_STBY_PWRMGR |= Comp_STBY_PWR_EN;
 152              		.loc 1 102 0
 153 000a 1033     		adds	r3, r3, #16
 154 000c 1A78     		ldrb	r2, [r3]	@ zero_extendqisi2
 155 000e 42F00102 		orr	r2, r2, #1
 156 0012 1A70     		strb	r2, [r3]
 157 0014 7047     		bx	lr
 158              	.L15:
 159 0016 00BF     		.align	2
 160              	.L14:
 161 0018 A7430040 		.word	1073759143
 162              		.cfi_endproc
 163              	.LFE1:
 164              		.size	Comp_Enable, .-Comp_Enable
 165              		.section	.text.Comp_Stop,"ax",%progbits
 166              		.align	2
 167              		.global	Comp_Stop
 168              		.thumb
 169              		.thumb_func
 170              		.type	Comp_Stop, %function
 171              	Comp_Stop:
 172              	.LFB3:
 166:.\Generated_Source\PSoC5/Comp.c **** {
 173              		.loc 1 166 0
 174              		.cfi_startproc
 175              		@ args = 0, pretend = 0, frame = 0
 176              		@ frame_needed = 0, uses_anonymous_args = 0
 177              		@ link register save eliminated.
 168:.\Generated_Source\PSoC5/Comp.c ****     Comp_PWRMGR &= (uint8)(~Comp_ACT_PWR_EN);
 178              		.loc 1 168 0
 179 0000 054B     		ldr	r3, .L17
 180 0002 1A78     		ldrb	r2, [r3]	@ zero_extendqisi2
 181 0004 02F0FE02 		and	r2, r2, #254
 182 0008 1A70     		strb	r2, [r3]
 169:.\Generated_Source\PSoC5/Comp.c ****     Comp_STBY_PWRMGR &= (uint8)(~Comp_STBY_PWR_EN);
 183              		.loc 1 169 0
 184 000a 1033     		adds	r3, r3, #16
ARM GAS  C:\Users\JohnP\AppData\Local\Temp\cc6b4WZH.s 			page 11


 185 000c 1A78     		ldrb	r2, [r3]	@ zero_extendqisi2
 186 000e 02F0FE02 		and	r2, r2, #254
 187 0012 1A70     		strb	r2, [r3]
 188 0014 7047     		bx	lr
 189              	.L18:
 190 0016 00BF     		.align	2
 191              	.L17:
 192 0018 A7430040 		.word	1073759143
 193              		.cfi_endproc
 194              	.LFE3:
 195              		.size	Comp_Stop, .-Comp_Stop
 196              		.section	.text.Comp_SetSpeed,"ax",%progbits
 197              		.align	2
 198              		.global	Comp_SetSpeed
 199              		.thumb
 200              		.thumb_func
 201              		.type	Comp_SetSpeed, %function
 202              	Comp_SetSpeed:
 203              	.LFB4:
 198:.\Generated_Source\PSoC5/Comp.c **** {
 204              		.loc 1 198 0
 205              		.cfi_startproc
 206              		@ args = 0, pretend = 0, frame = 0
 207              		@ frame_needed = 0, uses_anonymous_args = 0
 208              		@ link register save eliminated.
 209              	.LVL8:
 200:.\Generated_Source\PSoC5/Comp.c ****     Comp_CR = (Comp_CR & (uint8)(~Comp_PWR_MODE_MASK)) |
 210              		.loc 1 200 0
 211 0000 0F4B     		ldr	r3, .L22
 212 0002 1A78     		ldrb	r2, [r3]	@ zero_extendqisi2
 213 0004 02F0FC02 		and	r2, r2, #252
 214 0008 00F00301 		and	r1, r0, #3
 215 000c 0A43     		orrs	r2, r2, r1
 216 000e 1A70     		strb	r2, [r3]
 204:.\Generated_Source\PSoC5/Comp.c ****     if(speed == Comp_HIGHSPEED)
 217              		.loc 1 204 0
 218 0010 0128     		cmp	r0, #1
 219 0012 0AD1     		bne	.L20
 213:.\Generated_Source\PSoC5/Comp.c ****             Comp_TR0 = Comp_HS_TRIM_TR0;
 220              		.loc 1 213 0
 221 0014 0B4B     		ldr	r3, .L22+4
 222 0016 1A78     		ldrb	r2, [r3]	@ zero_extendqisi2
 223 0018 D2B2     		uxtb	r2, r2
 224 001a 0B4B     		ldr	r3, .L22+8
 225 001c 1A70     		strb	r2, [r3]
 214:.\Generated_Source\PSoC5/Comp.c ****             Comp_TR1 = Comp_HS_TRIM_TR1;
 226              		.loc 1 214 0
 227 001e 0B4B     		ldr	r3, .L22+12
 228 0020 1A78     		ldrb	r2, [r3]	@ zero_extendqisi2
 229 0022 D2B2     		uxtb	r2, r2
 230 0024 0A4B     		ldr	r3, .L22+16
 231 0026 1A70     		strb	r2, [r3]
 232 0028 7047     		bx	lr
 233              	.L20:
 226:.\Generated_Source\PSoC5/Comp.c ****             Comp_TR0 = Comp_LS_TRIM_TR0;
 234              		.loc 1 226 0
 235 002a 0A4B     		ldr	r3, .L22+20
ARM GAS  C:\Users\JohnP\AppData\Local\Temp\cc6b4WZH.s 			page 12


 236 002c 1A78     		ldrb	r2, [r3]	@ zero_extendqisi2
 237 002e D2B2     		uxtb	r2, r2
 238 0030 054B     		ldr	r3, .L22+8
 239 0032 1A70     		strb	r2, [r3]
 227:.\Generated_Source\PSoC5/Comp.c ****             Comp_TR1 = Comp_LS_TRIM_TR1;
 240              		.loc 1 227 0
 241 0034 084B     		ldr	r3, .L22+24
 242 0036 1A78     		ldrb	r2, [r3]	@ zero_extendqisi2
 243 0038 D2B2     		uxtb	r2, r2
 244 003a 054B     		ldr	r3, .L22+16
 245 003c 1A70     		strb	r2, [r3]
 246 003e 7047     		bx	lr
 247              	.L23:
 248              		.align	2
 249              	.L22:
 250 0040 40580040 		.word	1073764416
 251 0044 10010049 		.word	1224737040
 252 0048 30460040 		.word	1073759792
 253 004c 14010049 		.word	1224737044
 254 0050 31460040 		.word	1073759793
 255 0054 AD010049 		.word	1224737197
 256 0058 B5010049 		.word	1224737205
 257              		.cfi_endproc
 258              	.LFE4:
 259              		.size	Comp_SetSpeed, .-Comp_SetSpeed
 260              		.section	.text.Comp_Init,"ax",%progbits
 261              		.align	2
 262              		.global	Comp_Init
 263              		.thumb
 264              		.thumb_func
 265              		.type	Comp_Init, %function
 266              	Comp_Init:
 267              	.LFB0:
  52:.\Generated_Source\PSoC5/Comp.c **** {
 268              		.loc 1 52 0
 269              		.cfi_startproc
 270              		@ args = 0, pretend = 0, frame = 0
 271              		@ frame_needed = 0, uses_anonymous_args = 0
 272 0000 08B5     		push	{r3, lr}
 273              		.cfi_def_cfa_offset 8
 274              		.cfi_offset 3, -8
 275              		.cfi_offset 14, -4
  54:.\Generated_Source\PSoC5/Comp.c ****     Comp_SetSpeed(Comp_DEFAULT_SPEED);
 276              		.loc 1 54 0
 277 0002 0120     		movs	r0, #1
 278 0004 FFF7FEFF 		bl	Comp_SetSpeed
 279              	.LVL9:
  58:.\Generated_Source\PSoC5/Comp.c ****         Comp_CR |= Comp_HYST_OFF;
 280              		.loc 1 58 0
 281 0008 0B4B     		ldr	r3, .L25
 282 000a 1A78     		ldrb	r2, [r3]	@ zero_extendqisi2
 283 000c 42F02002 		orr	r2, r2, #32
 284 0010 1A70     		strb	r2, [r3]
  66:.\Generated_Source\PSoC5/Comp.c ****             Comp_CR &= (uint8)(~Comp_PWRDWN_OVRD);
 285              		.loc 1 66 0
 286 0012 1A78     		ldrb	r2, [r3]	@ zero_extendqisi2
 287 0014 02F0FB02 		and	r2, r2, #251
ARM GAS  C:\Users\JohnP\AppData\Local\Temp\cc6b4WZH.s 			page 13


 288 0018 1A70     		strb	r2, [r3]
  73:.\Generated_Source\PSoC5/Comp.c ****     Comp_CR |= Comp_MX_AO;
 289              		.loc 1 73 0
 290 001a 1A78     		ldrb	r2, [r3]	@ zero_extendqisi2
 291 001c 42F00802 		orr	r2, r2, #8
 292 0020 1A70     		strb	r2, [r3]
  76:.\Generated_Source\PSoC5/Comp.c ****     Comp_CLK &= (uint8)(~Comp_SYNCCLK_MASK);
 293              		.loc 1 76 0
 294 0022 03F28723 		addw	r3, r3, #647
 295 0026 1A78     		ldrb	r2, [r3]	@ zero_extendqisi2
 296 0028 02F0E702 		and	r2, r2, #231
 297 002c 1A70     		strb	r2, [r3]
  80:.\Generated_Source\PSoC5/Comp.c ****         Comp_CLK |= Comp_BYPASS_SYNC;
 298              		.loc 1 80 0
 299 002e 1A78     		ldrb	r2, [r3]	@ zero_extendqisi2
 300 0030 42F01002 		orr	r2, r2, #16
 301 0034 1A70     		strb	r2, [r3]
 302 0036 08BD     		pop	{r3, pc}
 303              	.L26:
 304              		.align	2
 305              	.L25:
 306 0038 40580040 		.word	1073764416
 307              		.cfi_endproc
 308              	.LFE0:
 309              		.size	Comp_Init, .-Comp_Init
 310              		.section	.text.Comp_Start,"ax",%progbits
 311              		.align	2
 312              		.global	Comp_Start
 313              		.thumb
 314              		.thumb_func
 315              		.type	Comp_Start, %function
 316              	Comp_Start:
 317              	.LFB2:
 137:.\Generated_Source\PSoC5/Comp.c **** {
 318              		.loc 1 137 0
 319              		.cfi_startproc
 320              		@ args = 0, pretend = 0, frame = 0
 321              		@ frame_needed = 0, uses_anonymous_args = 0
 322 0000 08B5     		push	{r3, lr}
 323              		.cfi_def_cfa_offset 8
 324              		.cfi_offset 3, -8
 325              		.cfi_offset 14, -4
 139:.\Generated_Source\PSoC5/Comp.c ****     if ( Comp_initVar == 0u )
 326              		.loc 1 139 0
 327 0002 054B     		ldr	r3, .L29
 328 0004 1B78     		ldrb	r3, [r3]	@ zero_extendqisi2
 329 0006 23B9     		cbnz	r3, .L28
 141:.\Generated_Source\PSoC5/Comp.c ****         Comp_Init();
 330              		.loc 1 141 0
 331 0008 FFF7FEFF 		bl	Comp_Init
 332              	.LVL10:
 143:.\Generated_Source\PSoC5/Comp.c ****         Comp_initVar = 1u;
 333              		.loc 1 143 0
 334 000c 0122     		movs	r2, #1
 335 000e 024B     		ldr	r3, .L29
 336 0010 1A70     		strb	r2, [r3]
 337              	.L28:
ARM GAS  C:\Users\JohnP\AppData\Local\Temp\cc6b4WZH.s 			page 14


 147:.\Generated_Source\PSoC5/Comp.c ****     Comp_Enable();    
 338              		.loc 1 147 0
 339 0012 FFF7FEFF 		bl	Comp_Enable
 340              	.LVL11:
 341 0016 08BD     		pop	{r3, pc}
 342              	.L30:
 343              		.align	2
 344              	.L29:
 345 0018 00000000 		.word	.LANCHOR0
 346              		.cfi_endproc
 347              	.LFE2:
 348              		.size	Comp_Start, .-Comp_Start
 349              		.section	.text.Comp_GetCompare,"ax",%progbits
 350              		.align	2
 351              		.global	Comp_GetCompare
 352              		.thumb
 353              		.thumb_func
 354              		.type	Comp_GetCompare, %function
 355              	Comp_GetCompare:
 356              	.LFB5:
 252:.\Generated_Source\PSoC5/Comp.c **** {
 357              		.loc 1 252 0
 358              		.cfi_startproc
 359              		@ args = 0, pretend = 0, frame = 0
 360              		@ frame_needed = 0, uses_anonymous_args = 0
 361              		@ link register save eliminated.
 253:.\Generated_Source\PSoC5/Comp.c ****     return( Comp_WRK & Comp_CMP_OUT_MASK);
 362              		.loc 1 253 0
 363 0000 024B     		ldr	r3, .L32
 364 0002 1878     		ldrb	r0, [r3]	@ zero_extendqisi2
 254:.\Generated_Source\PSoC5/Comp.c **** }
 365              		.loc 1 254 0
 366 0004 00F00100 		and	r0, r0, #1
 367 0008 7047     		bx	lr
 368              	.L33:
 369 000a 00BF     		.align	2
 370              	.L32:
 371 000c 965B0040 		.word	1073765270
 372              		.cfi_endproc
 373              	.LFE5:
 374              		.size	Comp_GetCompare, .-Comp_GetCompare
 375              		.section	.text.Comp_ZeroCal,"ax",%progbits
 376              		.align	2
 377              		.global	Comp_ZeroCal
 378              		.thumb
 379              		.thumb_func
 380              		.type	Comp_ZeroCal, %function
 381              	Comp_ZeroCal:
 382              	.LFB7:
 373:.\Generated_Source\PSoC5/Comp.c ****         {
 374:.\Generated_Source\PSoC5/Comp.c ****             break;      /* output changed state, trim phase is complete */
 375:.\Generated_Source\PSoC5/Comp.c ****         }        
 376:.\Generated_Source\PSoC5/Comp.c ****     }    
 377:.\Generated_Source\PSoC5/Comp.c **** }
 378:.\Generated_Source\PSoC5/Comp.c **** 
 379:.\Generated_Source\PSoC5/Comp.c **** 
 380:.\Generated_Source\PSoC5/Comp.c **** /*******************************************************************************
ARM GAS  C:\Users\JohnP\AppData\Local\Temp\cc6b4WZH.s 			page 15


 381:.\Generated_Source\PSoC5/Comp.c **** * Function Name: Comp_ZeroCal
 382:.\Generated_Source\PSoC5/Comp.c **** ********************************************************************************
 383:.\Generated_Source\PSoC5/Comp.c **** *
 384:.\Generated_Source\PSoC5/Comp.c **** * Summary:
 385:.\Generated_Source\PSoC5/Comp.c **** *  This function calibrates the offset of the Analog Comparator.
 386:.\Generated_Source\PSoC5/Comp.c **** *
 387:.\Generated_Source\PSoC5/Comp.c **** * Parameters:
 388:.\Generated_Source\PSoC5/Comp.c **** *  None
 389:.\Generated_Source\PSoC5/Comp.c **** *
 390:.\Generated_Source\PSoC5/Comp.c **** * Return:
 391:.\Generated_Source\PSoC5/Comp.c **** *  (uint16)  value written in trim register when calibration complete.
 392:.\Generated_Source\PSoC5/Comp.c **** *
 393:.\Generated_Source\PSoC5/Comp.c **** * Theory: 
 394:.\Generated_Source\PSoC5/Comp.c **** *  This function is used to optimize the calibration for user specific voltage
 395:.\Generated_Source\PSoC5/Comp.c **** *  range.  The comparator trim is adjusted to counter transistor offsets
 396:.\Generated_Source\PSoC5/Comp.c **** *   - offset is defined as positive if the output transitions to high before inP
 397:.\Generated_Source\PSoC5/Comp.c **** *     is greater than inN
 398:.\Generated_Source\PSoC5/Comp.c **** *   - offset is defined as negative if the output transitions to high after inP
 399:.\Generated_Source\PSoC5/Comp.c **** *     is greater than inP
 400:.\Generated_Source\PSoC5/Comp.c **** *
 401:.\Generated_Source\PSoC5/Comp.c **** *  PSoC5A
 402:.\Generated_Source\PSoC5/Comp.c **** *  The Analog Comparator provides 1 byte for offset trim.  The byte contains two
 403:.\Generated_Source\PSoC5/Comp.c **** *  4 bit trim fields - one is a course trim and the other allows smaller
 404:.\Generated_Source\PSoC5/Comp.c **** *  offset adjustments only for slow modes.
 405:.\Generated_Source\PSoC5/Comp.c **** *  - low nibble - fine trim
 406:.\Generated_Source\PSoC5/Comp.c **** *  - high nibble - course trim
 407:.\Generated_Source\PSoC5/Comp.c **** *  PSoC3, PSoC5LP or later
 408:.\Generated_Source\PSoC5/Comp.c **** *  The Analog Comparator provides 2 bytes for offset trim.  The bytes contain two
 409:.\Generated_Source\PSoC5/Comp.c **** *  5 bit trim fields - one is a course trim and the other allows smaller
 410:.\Generated_Source\PSoC5/Comp.c **** *  offset adjustments only for slow modes.
 411:.\Generated_Source\PSoC5/Comp.c **** *  - TR0 - fine trim
 412:.\Generated_Source\PSoC5/Comp.c **** *  - TR1 - course trim
 413:.\Generated_Source\PSoC5/Comp.c **** *
 414:.\Generated_Source\PSoC5/Comp.c **** *  Trim algorithm is a two phase process
 415:.\Generated_Source\PSoC5/Comp.c **** *  The first phase performs course offset adjustment
 416:.\Generated_Source\PSoC5/Comp.c **** *  The second phase serves one of two purposes depending on the outcome of the
 417:.\Generated_Source\PSoC5/Comp.c **** *  first phase
 418:.\Generated_Source\PSoC5/Comp.c **** *  - if the first trim value was maxed out without a comparator output 
 419:.\Generated_Source\PSoC5/Comp.c **** *    transition, more offset will be added by adjusting the second trim value.
 420:.\Generated_Source\PSoC5/Comp.c **** *  - if the first trim phase resulted in a comparator output transition, the
 421:.\Generated_Source\PSoC5/Comp.c **** *    second trim value will serve as fine trim (in the opposite direction)to
 422:.\Generated_Source\PSoC5/Comp.c **** *    ensure the offset is < 1 mV.
 423:.\Generated_Source\PSoC5/Comp.c **** *
 424:.\Generated_Source\PSoC5/Comp.c **** * Trim Process:   
 425:.\Generated_Source\PSoC5/Comp.c **** *  1) User applies a voltage to the negative input.  Voltage should be in the
 426:.\Generated_Source\PSoC5/Comp.c **** *     comparator operating range or an average of the operating voltage range.
 427:.\Generated_Source\PSoC5/Comp.c **** *  2) Clear registers associated with analog routing to the positive input.
 428:.\Generated_Source\PSoC5/Comp.c **** *  3) Disable Hysteresis
 429:.\Generated_Source\PSoC5/Comp.c **** *  4) Set the calibration bit to short the negative and positive inputs to
 430:.\Generated_Source\PSoC5/Comp.c **** *     the users calibration voltage.
 431:.\Generated_Source\PSoC5/Comp.c **** *  5) Clear the TR register  ( TR = 0x00 )
 432:.\Generated_Source\PSoC5/Comp.c **** *  ** LOW MODES
 433:.\Generated_Source\PSoC5/Comp.c **** *  6) Check if compare output is high, if so, set the MSb of course trim field 
 434:.\Generated_Source\PSoC5/Comp.c **** *     to a 1.
 435:.\Generated_Source\PSoC5/Comp.c **** *  7) Increment the course trim field until the compare output changes
 436:.\Generated_Source\PSoC5/Comp.c **** *  8) Check if compare output is low, if so, set the MSb of fine trim field
 437:.\Generated_Source\PSoC5/Comp.c **** *     to a 1.
ARM GAS  C:\Users\JohnP\AppData\Local\Temp\cc6b4WZH.s 			page 16


 438:.\Generated_Source\PSoC5/Comp.c **** *  9) Increment the fine trim field until the compare output changes
 439:.\Generated_Source\PSoC5/Comp.c **** *  ** FAST MODE - skip the steps 8,9
 440:.\Generated_Source\PSoC5/Comp.c **** *
 441:.\Generated_Source\PSoC5/Comp.c **** * Side Effects:
 442:.\Generated_Source\PSoC5/Comp.c **** *  Routine clears analog routing associated with the comparator positive input.  
 443:.\Generated_Source\PSoC5/Comp.c **** *  This may affect routing of signals from other components that are connected
 444:.\Generated_Source\PSoC5/Comp.c **** *  to the positive input of the comparator.
 445:.\Generated_Source\PSoC5/Comp.c **** *
 446:.\Generated_Source\PSoC5/Comp.c **** *******************************************************************************/
 447:.\Generated_Source\PSoC5/Comp.c **** uint16 Comp_ZeroCal(void) 
 448:.\Generated_Source\PSoC5/Comp.c **** {
 383              		.loc 1 448 0
 384              		.cfi_startproc
 385              		@ args = 0, pretend = 0, frame = 0
 386              		@ frame_needed = 0, uses_anonymous_args = 0
 387 0000 F8B5     		push	{r3, r4, r5, r6, r7, lr}
 388              		.cfi_def_cfa_offset 24
 389              		.cfi_offset 3, -24
 390              		.cfi_offset 4, -20
 391              		.cfi_offset 5, -16
 392              		.cfi_offset 6, -12
 393              		.cfi_offset 7, -8
 394              		.cfi_offset 14, -4
 449:.\Generated_Source\PSoC5/Comp.c ****     uint8 tmpSW0;
 450:.\Generated_Source\PSoC5/Comp.c ****     uint8 tmpSW2;
 451:.\Generated_Source\PSoC5/Comp.c ****     uint8 tmpSW3;
 452:.\Generated_Source\PSoC5/Comp.c ****     uint8 tmpCR;
 453:.\Generated_Source\PSoC5/Comp.c **** 
 454:.\Generated_Source\PSoC5/Comp.c ****     /* Save a copy of routing registers associated with inP */
 455:.\Generated_Source\PSoC5/Comp.c ****     tmpSW0 = Comp_SW0;
 395              		.loc 1 455 0
 396 0002 1E48     		ldr	r0, .L37
 397 0004 0678     		ldrb	r6, [r0]	@ zero_extendqisi2
 398 0006 F6B2     		uxtb	r6, r6
 399              	.LVL12:
 456:.\Generated_Source\PSoC5/Comp.c ****     tmpSW2 = Comp_SW2;
 400              		.loc 1 456 0
 401 0008 1D49     		ldr	r1, .L37+4
 402 000a 0D78     		ldrb	r5, [r1]	@ zero_extendqisi2
 403 000c EDB2     		uxtb	r5, r5
 404              	.LVL13:
 457:.\Generated_Source\PSoC5/Comp.c ****     tmpSW3 = Comp_SW3;
 405              		.loc 1 457 0
 406 000e 1D4B     		ldr	r3, .L37+8
 407 0010 1C78     		ldrb	r4, [r3]	@ zero_extendqisi2
 408 0012 E4B2     		uxtb	r4, r4
 409              	.LVL14:
 458:.\Generated_Source\PSoC5/Comp.c **** 
 459:.\Generated_Source\PSoC5/Comp.c ****      /* Clear routing for inP, retain routing for inN */
 460:.\Generated_Source\PSoC5/Comp.c ****     Comp_SW0 = 0x00u;
 410              		.loc 1 460 0
 411 0014 0022     		movs	r2, #0
 412 0016 0270     		strb	r2, [r0]
 461:.\Generated_Source\PSoC5/Comp.c ****     Comp_SW2 = 0x00u;
 413              		.loc 1 461 0
 414 0018 0A70     		strb	r2, [r1]
 462:.\Generated_Source\PSoC5/Comp.c ****     Comp_SW3 = tmpSW3 & (uint8)(~Comp_CMP_SW3_INPCTL_MASK);
ARM GAS  C:\Users\JohnP\AppData\Local\Temp\cc6b4WZH.s 			page 17


 415              		.loc 1 462 0
 416 001a 04F0F601 		and	r1, r4, #246
 417 001e 1970     		strb	r1, [r3]
 463:.\Generated_Source\PSoC5/Comp.c **** 
 464:.\Generated_Source\PSoC5/Comp.c ****     /* Preserve original configuration
 465:.\Generated_Source\PSoC5/Comp.c ****      * - turn off Hysteresis
 466:.\Generated_Source\PSoC5/Comp.c ****      * - set calibration bit - shorts inN to inP
 467:.\Generated_Source\PSoC5/Comp.c ****     */
 468:.\Generated_Source\PSoC5/Comp.c ****     tmpCR = Comp_CR;
 418              		.loc 1 468 0
 419 0020 A3F28323 		subw	r3, r3, #643
 420 0024 1F78     		ldrb	r7, [r3]	@ zero_extendqisi2
 421 0026 FFB2     		uxtb	r7, r7
 422              	.LVL15:
 469:.\Generated_Source\PSoC5/Comp.c ****     Comp_CR |= (Comp_CAL_ON | Comp_HYST_OFF);
 423              		.loc 1 469 0
 424 0028 1978     		ldrb	r1, [r3]	@ zero_extendqisi2
 425 002a 41F03001 		orr	r1, r1, #48
 426 002e 1970     		strb	r1, [r3]
 470:.\Generated_Source\PSoC5/Comp.c ****     
 471:.\Generated_Source\PSoC5/Comp.c ****     /* Write default low values to trim register - no offset adjust */
 472:.\Generated_Source\PSoC5/Comp.c ****     /* PSoC5A */
 473:.\Generated_Source\PSoC5/Comp.c ****     #if (CY_PSOC5A)
 474:.\Generated_Source\PSoC5/Comp.c ****         Comp_TR = Comp_DEFAULT_CMP_TRIM;
 475:.\Generated_Source\PSoC5/Comp.c ****     #endif /* CY_PSOC5A */
 476:.\Generated_Source\PSoC5/Comp.c ****     
 477:.\Generated_Source\PSoC5/Comp.c ****     /* PSoC3, PSoC5LP or later */
 478:.\Generated_Source\PSoC5/Comp.c ****     #if (CY_PSOC3 || CY_PSOC5LP)
 479:.\Generated_Source\PSoC5/Comp.c ****         Comp_TR0 = Comp_DEFAULT_CMP_TRIM;
 427              		.loc 1 479 0
 428 0030 1549     		ldr	r1, .L37+12
 429 0032 0A70     		strb	r2, [r1]
 480:.\Generated_Source\PSoC5/Comp.c ****         Comp_TR1 = Comp_DEFAULT_CMP_TRIM;
 430              		.loc 1 480 0
 431 0034 0131     		adds	r1, r1, #1
 432 0036 0A70     		strb	r2, [r1]
 481:.\Generated_Source\PSoC5/Comp.c ****     #endif /* CY_PSOC3 || CY_PSOC5LP */
 482:.\Generated_Source\PSoC5/Comp.c **** 	
 483:.\Generated_Source\PSoC5/Comp.c **** 	/* Two phase trim - slow modes, one phase trim - for fast */ 
 484:.\Generated_Source\PSoC5/Comp.c ****     if ( (Comp_CR & Comp_PWR_MODE_MASK) == Comp_PWR_MODE_FAST)
 433              		.loc 1 484 0
 434 0038 1B78     		ldrb	r3, [r3]	@ zero_extendqisi2
 435 003a 03F00303 		and	r3, r3, #3
 436 003e 012B     		cmp	r3, #1
 437 0040 03D1     		bne	.L35
 485:.\Generated_Source\PSoC5/Comp.c ****     {
 486:.\Generated_Source\PSoC5/Comp.c ****         Comp_trimAdjust(0u);
 438              		.loc 1 486 0
 439 0042 1046     		mov	r0, r2
 440 0044 FFF7FEFF 		bl	Comp_trimAdjust
 441              	.LVL16:
 442 0048 05E0     		b	.L36
 443              	.L35:
 487:.\Generated_Source\PSoC5/Comp.c ****     }
 488:.\Generated_Source\PSoC5/Comp.c ****     else /* default to trim for fast modes */
 489:.\Generated_Source\PSoC5/Comp.c ****     {
 490:.\Generated_Source\PSoC5/Comp.c ****         Comp_trimAdjust(1u);
ARM GAS  C:\Users\JohnP\AppData\Local\Temp\cc6b4WZH.s 			page 18


 444              		.loc 1 490 0
 445 004a 0120     		movs	r0, #1
 446 004c FFF7FEFF 		bl	Comp_trimAdjust
 447              	.LVL17:
 491:.\Generated_Source\PSoC5/Comp.c **** 		Comp_trimAdjust(0u);
 448              		.loc 1 491 0
 449 0050 0020     		movs	r0, #0
 450 0052 FFF7FEFF 		bl	Comp_trimAdjust
 451              	.LVL18:
 452              	.L36:
 492:.\Generated_Source\PSoC5/Comp.c ****     }
 493:.\Generated_Source\PSoC5/Comp.c ****    
 494:.\Generated_Source\PSoC5/Comp.c ****     /* Restore Config Register */
 495:.\Generated_Source\PSoC5/Comp.c ****     Comp_CR = tmpCR;
 453              		.loc 1 495 0
 454 0056 0D4B     		ldr	r3, .L37+16
 455 0058 1F70     		strb	r7, [r3]
 496:.\Generated_Source\PSoC5/Comp.c ****     
 497:.\Generated_Source\PSoC5/Comp.c ****     /* Restore routing registers for inP */
 498:.\Generated_Source\PSoC5/Comp.c ****     Comp_SW0 = tmpSW0;
 456              		.loc 1 498 0
 457 005a 03F52073 		add	r3, r3, #640
 458 005e 1E70     		strb	r6, [r3]
 499:.\Generated_Source\PSoC5/Comp.c ****     Comp_SW2 = tmpSW2;
 459              		.loc 1 499 0
 460 0060 0233     		adds	r3, r3, #2
 461 0062 1D70     		strb	r5, [r3]
 500:.\Generated_Source\PSoC5/Comp.c ****     Comp_SW3 = tmpSW3;
 462              		.loc 1 500 0
 463 0064 0133     		adds	r3, r3, #1
 464 0066 1C70     		strb	r4, [r3]
 501:.\Generated_Source\PSoC5/Comp.c ****     
 502:.\Generated_Source\PSoC5/Comp.c ****     /* PSoC5A */
 503:.\Generated_Source\PSoC5/Comp.c ****     #if (CY_PSOC5A)
 504:.\Generated_Source\PSoC5/Comp.c ****         return (uint16) Comp_TR;
 505:.\Generated_Source\PSoC5/Comp.c ****     #endif /* CY_PSOC5A */
 506:.\Generated_Source\PSoC5/Comp.c ****     
 507:.\Generated_Source\PSoC5/Comp.c ****     /* PSoC3, PSoC5LP or later */
 508:.\Generated_Source\PSoC5/Comp.c ****     #if (CY_PSOC3 || CY_PSOC5LP)
 509:.\Generated_Source\PSoC5/Comp.c ****         return ((uint16)((uint16)Comp_TR1 << 8u) | (Comp_TR0));        
 465              		.loc 1 509 0
 466 0068 A3F5A453 		sub	r3, r3, #5248
 467 006c 123B     		subs	r3, r3, #18
 468 006e 1878     		ldrb	r0, [r3]	@ zero_extendqisi2
 469 0070 013B     		subs	r3, r3, #1
 470 0072 1B78     		ldrb	r3, [r3]	@ zero_extendqisi2
 510:.\Generated_Source\PSoC5/Comp.c ****     #endif /* CY_PSOC3 || CY_PSOC5LP */
 511:.\Generated_Source\PSoC5/Comp.c **** }
 471              		.loc 1 511 0
 472 0074 43EA0020 		orr	r0, r3, r0, lsl #8
 473 0078 F8BD     		pop	{r3, r4, r5, r6, r7, pc}
 474              	.LVL19:
 475              	.L38:
 476 007a 00BF     		.align	2
 477              	.L37:
 478 007c C05A0040 		.word	1073765056
 479 0080 C25A0040 		.word	1073765058
ARM GAS  C:\Users\JohnP\AppData\Local\Temp\cc6b4WZH.s 			page 19


 480 0084 C35A0040 		.word	1073765059
 481 0088 30460040 		.word	1073759792
 482 008c 40580040 		.word	1073764416
 483              		.cfi_endproc
 484              	.LFE7:
 485              		.size	Comp_ZeroCal, .-Comp_ZeroCal
 486              		.section	.text.Comp_LoadTrim,"ax",%progbits
 487              		.align	2
 488              		.global	Comp_LoadTrim
 489              		.thumb
 490              		.thumb_func
 491              		.type	Comp_LoadTrim, %function
 492              	Comp_LoadTrim:
 493              	.LFB8:
 512:.\Generated_Source\PSoC5/Comp.c **** 
 513:.\Generated_Source\PSoC5/Comp.c **** 
 514:.\Generated_Source\PSoC5/Comp.c **** /*******************************************************************************
 515:.\Generated_Source\PSoC5/Comp.c **** * Function Name: Comp_LoadTrim
 516:.\Generated_Source\PSoC5/Comp.c **** ********************************************************************************
 517:.\Generated_Source\PSoC5/Comp.c **** *
 518:.\Generated_Source\PSoC5/Comp.c **** * Summary:
 519:.\Generated_Source\PSoC5/Comp.c **** *  This function stores a value in the Analog Comparator trim register.
 520:.\Generated_Source\PSoC5/Comp.c **** *
 521:.\Generated_Source\PSoC5/Comp.c **** * Parameters:  
 522:.\Generated_Source\PSoC5/Comp.c **** *  uint8 trimVal - trim value.  This value is the same format as the value 
 523:.\Generated_Source\PSoC5/Comp.c **** *  returned by the _ZeroCal routine.
 524:.\Generated_Source\PSoC5/Comp.c **** *
 525:.\Generated_Source\PSoC5/Comp.c **** * Return:
 526:.\Generated_Source\PSoC5/Comp.c **** *  None
 527:.\Generated_Source\PSoC5/Comp.c **** *
 528:.\Generated_Source\PSoC5/Comp.c **** *******************************************************************************/
 529:.\Generated_Source\PSoC5/Comp.c **** void Comp_LoadTrim(uint16 trimVal) 
 530:.\Generated_Source\PSoC5/Comp.c **** {
 494              		.loc 1 530 0
 495              		.cfi_startproc
 496              		@ args = 0, pretend = 0, frame = 0
 497              		@ frame_needed = 0, uses_anonymous_args = 0
 498              		@ link register save eliminated.
 499              	.LVL20:
 531:.\Generated_Source\PSoC5/Comp.c ****     /* Stores value in the Analog Comparator trim register */
 532:.\Generated_Source\PSoC5/Comp.c ****     /* PSoC5A */
 533:.\Generated_Source\PSoC5/Comp.c ****     #if (CY_PSOC5A)
 534:.\Generated_Source\PSoC5/Comp.c ****         Comp_TR = (uint8) trimVal;
 535:.\Generated_Source\PSoC5/Comp.c ****     #endif /* CY_PSOC5A */
 536:.\Generated_Source\PSoC5/Comp.c ****     
 537:.\Generated_Source\PSoC5/Comp.c ****     /* PSoC3, PSoC5LP or later */
 538:.\Generated_Source\PSoC5/Comp.c ****     #if (CY_PSOC3 || CY_PSOC5LP)
 539:.\Generated_Source\PSoC5/Comp.c ****         /* Stores value in the Analog Comparator trim register for P-type load */
 540:.\Generated_Source\PSoC5/Comp.c ****         Comp_TR0 = (uint8) trimVal;
 500              		.loc 1 540 0
 501 0000 C2B2     		uxtb	r2, r0
 502 0002 034B     		ldr	r3, .L40
 503 0004 1A70     		strb	r2, [r3]
 541:.\Generated_Source\PSoC5/Comp.c ****         
 542:.\Generated_Source\PSoC5/Comp.c ****         /* Stores value in the Analog Comparator trim register for N-type load */
 543:.\Generated_Source\PSoC5/Comp.c ****         Comp_TR1 = (uint8) (trimVal >> 8); 
 504              		.loc 1 543 0
ARM GAS  C:\Users\JohnP\AppData\Local\Temp\cc6b4WZH.s 			page 20


 505 0006 000A     		lsrs	r0, r0, #8
 506              	.LVL21:
 507 0008 0133     		adds	r3, r3, #1
 508 000a 1870     		strb	r0, [r3]
 509 000c 7047     		bx	lr
 510              	.L41:
 511 000e 00BF     		.align	2
 512              	.L40:
 513 0010 30460040 		.word	1073759792
 514              		.cfi_endproc
 515              	.LFE8:
 516              		.size	Comp_LoadTrim, .-Comp_LoadTrim
 517              		.section	.text.Comp_PwrDwnOverrideEnable,"ax",%progbits
 518              		.align	2
 519              		.global	Comp_PwrDwnOverrideEnable
 520              		.thumb
 521              		.thumb_func
 522              		.type	Comp_PwrDwnOverrideEnable, %function
 523              	Comp_PwrDwnOverrideEnable:
 524              	.LFB9:
 544:.\Generated_Source\PSoC5/Comp.c ****     #endif /* CY_PSOC3 || CY_PSOC5LP */
 545:.\Generated_Source\PSoC5/Comp.c **** }
 546:.\Generated_Source\PSoC5/Comp.c **** 
 547:.\Generated_Source\PSoC5/Comp.c **** 
 548:.\Generated_Source\PSoC5/Comp.c **** #if (CY_PSOC3 || CY_PSOC5LP)
 549:.\Generated_Source\PSoC5/Comp.c **** 
 550:.\Generated_Source\PSoC5/Comp.c ****     /*******************************************************************************
 551:.\Generated_Source\PSoC5/Comp.c ****     * Function Name: Comp_PwrDwnOverrideEnable
 552:.\Generated_Source\PSoC5/Comp.c ****     ********************************************************************************
 553:.\Generated_Source\PSoC5/Comp.c ****     *
 554:.\Generated_Source\PSoC5/Comp.c ****     * Summary:
 555:.\Generated_Source\PSoC5/Comp.c ****     *  This is the power down over-ride feature. This function ignores sleep 
 556:.\Generated_Source\PSoC5/Comp.c ****     *  parameter and allows the component to stay active during sleep mode.
 557:.\Generated_Source\PSoC5/Comp.c ****     *
 558:.\Generated_Source\PSoC5/Comp.c ****     * Parameters:
 559:.\Generated_Source\PSoC5/Comp.c ****     *  None
 560:.\Generated_Source\PSoC5/Comp.c ****     *
 561:.\Generated_Source\PSoC5/Comp.c ****     * Return:
 562:.\Generated_Source\PSoC5/Comp.c ****     *  None
 563:.\Generated_Source\PSoC5/Comp.c ****     *
 564:.\Generated_Source\PSoC5/Comp.c ****     *******************************************************************************/
 565:.\Generated_Source\PSoC5/Comp.c ****     void Comp_PwrDwnOverrideEnable(void) 
 566:.\Generated_Source\PSoC5/Comp.c ****     {
 525              		.loc 1 566 0
 526              		.cfi_startproc
 527              		@ args = 0, pretend = 0, frame = 0
 528              		@ frame_needed = 0, uses_anonymous_args = 0
 529              		@ link register save eliminated.
 567:.\Generated_Source\PSoC5/Comp.c ****         /* Set the pd_override bit in CMP_CR register */
 568:.\Generated_Source\PSoC5/Comp.c ****         Comp_CR |= Comp_PWRDWN_OVRD;
 530              		.loc 1 568 0
 531 0000 024B     		ldr	r3, .L43
 532 0002 1A78     		ldrb	r2, [r3]	@ zero_extendqisi2
 533 0004 42F00402 		orr	r2, r2, #4
 534 0008 1A70     		strb	r2, [r3]
 535 000a 7047     		bx	lr
 536              	.L44:
ARM GAS  C:\Users\JohnP\AppData\Local\Temp\cc6b4WZH.s 			page 21


 537              		.align	2
 538              	.L43:
 539 000c 40580040 		.word	1073764416
 540              		.cfi_endproc
 541              	.LFE9:
 542              		.size	Comp_PwrDwnOverrideEnable, .-Comp_PwrDwnOverrideEnable
 543              		.section	.text.Comp_PwrDwnOverrideDisable,"ax",%progbits
 544              		.align	2
 545              		.global	Comp_PwrDwnOverrideDisable
 546              		.thumb
 547              		.thumb_func
 548              		.type	Comp_PwrDwnOverrideDisable, %function
 549              	Comp_PwrDwnOverrideDisable:
 550              	.LFB10:
 569:.\Generated_Source\PSoC5/Comp.c ****     }
 570:.\Generated_Source\PSoC5/Comp.c **** 
 571:.\Generated_Source\PSoC5/Comp.c **** 
 572:.\Generated_Source\PSoC5/Comp.c ****     /*******************************************************************************
 573:.\Generated_Source\PSoC5/Comp.c ****     * Function Name: Comp_PwrDwnOverrideDisable
 574:.\Generated_Source\PSoC5/Comp.c ****     ********************************************************************************
 575:.\Generated_Source\PSoC5/Comp.c ****     *
 576:.\Generated_Source\PSoC5/Comp.c ****     * Summary:
 577:.\Generated_Source\PSoC5/Comp.c ****     *  This is the power down over-ride feature. This allows the component to stay
 578:.\Generated_Source\PSoC5/Comp.c ****     *  inactive during sleep.
 579:.\Generated_Source\PSoC5/Comp.c ****     *
 580:.\Generated_Source\PSoC5/Comp.c ****     * Parameters:
 581:.\Generated_Source\PSoC5/Comp.c ****     *  None
 582:.\Generated_Source\PSoC5/Comp.c ****     *
 583:.\Generated_Source\PSoC5/Comp.c ****     * Return:
 584:.\Generated_Source\PSoC5/Comp.c ****     *  None
 585:.\Generated_Source\PSoC5/Comp.c ****     *
 586:.\Generated_Source\PSoC5/Comp.c ****     *******************************************************************************/
 587:.\Generated_Source\PSoC5/Comp.c ****     void Comp_PwrDwnOverrideDisable(void) 
 588:.\Generated_Source\PSoC5/Comp.c ****     {
 551              		.loc 1 588 0
 552              		.cfi_startproc
 553              		@ args = 0, pretend = 0, frame = 0
 554              		@ frame_needed = 0, uses_anonymous_args = 0
 555              		@ link register save eliminated.
 589:.\Generated_Source\PSoC5/Comp.c ****         /* Reset the pd_override bit in CMP_CR register */
 590:.\Generated_Source\PSoC5/Comp.c ****         Comp_CR &= (uint8)(~Comp_PWRDWN_OVRD);
 556              		.loc 1 590 0
 557 0000 024B     		ldr	r3, .L46
 558 0002 1A78     		ldrb	r2, [r3]	@ zero_extendqisi2
 559 0004 02F0FB02 		and	r2, r2, #251
 560 0008 1A70     		strb	r2, [r3]
 561 000a 7047     		bx	lr
 562              	.L47:
 563              		.align	2
 564              	.L46:
 565 000c 40580040 		.word	1073764416
 566              		.cfi_endproc
 567              	.LFE10:
 568              		.size	Comp_PwrDwnOverrideDisable, .-Comp_PwrDwnOverrideDisable
 569              		.global	Comp_initVar
 570              		.bss
 571              		.set	.LANCHOR0,. + 0
ARM GAS  C:\Users\JohnP\AppData\Local\Temp\cc6b4WZH.s 			page 22


 572              		.type	Comp_initVar, %object
 573              		.size	Comp_initVar, 1
 574              	Comp_initVar:
 575 0000 00       		.space	1
 576              		.text
 577              	.Letext0:
 578              		.file 2 ".\\Generated_Source\\PSoC5\\cytypes.h"
 579              		.file 3 ".\\Generated_Source\\PSoC5\\CyLib.h"