ARM GAS  C:\Users\JohnP\AppData\Local\Temp\ccTBAowt.s 			page 1


   1              		.syntax unified
   2              		.cpu cortex-m3
   3              		.fpu softvfp
   4              		.eabi_attribute 20, 1
   5              		.eabi_attribute 21, 1
   6              		.eabi_attribute 23, 3
   7              		.eabi_attribute 24, 1
   8              		.eabi_attribute 25, 1
   9              		.eabi_attribute 26, 1
  10              		.eabi_attribute 30, 1
  11              		.eabi_attribute 34, 1
  12              		.eabi_attribute 18, 4
  13              		.thumb
  14              		.file	"cyfitter_cfg.c"
  15              		.text
  16              	.Ltext0:
  17              		.cfi_sections	.debug_frame
  18              		.section	.text.CyClockStartupError,"ax",%progbits
  19              		.align	2
  20              		.thumb
  21              		.thumb_func
  22              		.type	CyClockStartupError, %function
  23              	CyClockStartupError:
  24              	.LFB3:
  25              		.file 1 ".\\Generated_Source\\PSoC5\\cyfitter_cfg.c"
   1:.\Generated_Source\PSoC5/cyfitter_cfg.c **** /*******************************************************************************
   2:.\Generated_Source\PSoC5/cyfitter_cfg.c **** * FILENAME: cyfitter_cfg.c
   3:.\Generated_Source\PSoC5/cyfitter_cfg.c **** * 
   4:.\Generated_Source\PSoC5/cyfitter_cfg.c **** * PSoC Creator  3.2 SP1
   5:.\Generated_Source\PSoC5/cyfitter_cfg.c **** *
   6:.\Generated_Source\PSoC5/cyfitter_cfg.c **** * DESCRIPTION:
   7:.\Generated_Source\PSoC5/cyfitter_cfg.c **** * This file contains device initialization code.
   8:.\Generated_Source\PSoC5/cyfitter_cfg.c **** * Except for the user defined sections in CyClockStartupError(), this file should not be modified.
   9:.\Generated_Source\PSoC5/cyfitter_cfg.c **** * This file is automatically generated by PSoC Creator.
  10:.\Generated_Source\PSoC5/cyfitter_cfg.c **** *
  11:.\Generated_Source\PSoC5/cyfitter_cfg.c **** ********************************************************************************
  12:.\Generated_Source\PSoC5/cyfitter_cfg.c **** * Copyright (c) 2007-2015 Cypress Semiconductor.  All rights reserved.
  13:.\Generated_Source\PSoC5/cyfitter_cfg.c **** * You may use this file only in accordance with the license, terms, conditions, 
  14:.\Generated_Source\PSoC5/cyfitter_cfg.c **** * disclaimers, and limitations in the end user license agreement accompanying 
  15:.\Generated_Source\PSoC5/cyfitter_cfg.c **** * the software package with which this file was provided.
  16:.\Generated_Source\PSoC5/cyfitter_cfg.c **** ********************************************************************************/
  17:.\Generated_Source\PSoC5/cyfitter_cfg.c **** 
  18:.\Generated_Source\PSoC5/cyfitter_cfg.c **** #include <string.h>
  19:.\Generated_Source\PSoC5/cyfitter_cfg.c **** #include "cytypes.h"
  20:.\Generated_Source\PSoC5/cyfitter_cfg.c **** #include "cydevice_trm.h"
  21:.\Generated_Source\PSoC5/cyfitter_cfg.c **** #include "cyfitter.h"
  22:.\Generated_Source\PSoC5/cyfitter_cfg.c **** #include "CyLib.h"
  23:.\Generated_Source\PSoC5/cyfitter_cfg.c **** #include "cyfitter_cfg.h"
  24:.\Generated_Source\PSoC5/cyfitter_cfg.c **** 
  25:.\Generated_Source\PSoC5/cyfitter_cfg.c **** #define CY_NEED_CYCLOCKSTARTUPERROR 1
  26:.\Generated_Source\PSoC5/cyfitter_cfg.c **** 
  27:.\Generated_Source\PSoC5/cyfitter_cfg.c **** 
  28:.\Generated_Source\PSoC5/cyfitter_cfg.c **** #if defined(__GNUC__) || defined(__ARMCC_VERSION)
  29:.\Generated_Source\PSoC5/cyfitter_cfg.c ****     #define CYPACKED 
  30:.\Generated_Source\PSoC5/cyfitter_cfg.c ****     #define CYPACKED_ATTR __attribute__ ((packed))
  31:.\Generated_Source\PSoC5/cyfitter_cfg.c ****     #define CYALIGNED __attribute__ ((aligned))
  32:.\Generated_Source\PSoC5/cyfitter_cfg.c ****     #define CY_CFG_UNUSED __attribute__ ((unused))
ARM GAS  C:\Users\JohnP\AppData\Local\Temp\ccTBAowt.s 			page 2


  33:.\Generated_Source\PSoC5/cyfitter_cfg.c ****     #define CY_CFG_SECTION __attribute__ ((section(".psocinit")))
  34:.\Generated_Source\PSoC5/cyfitter_cfg.c ****     
  35:.\Generated_Source\PSoC5/cyfitter_cfg.c ****     #if defined(__ARMCC_VERSION)
  36:.\Generated_Source\PSoC5/cyfitter_cfg.c ****         #define CY_CFG_MEMORY_BARRIER() __memory_changed()
  37:.\Generated_Source\PSoC5/cyfitter_cfg.c ****     #else
  38:.\Generated_Source\PSoC5/cyfitter_cfg.c ****         #define CY_CFG_MEMORY_BARRIER() __sync_synchronize()
  39:.\Generated_Source\PSoC5/cyfitter_cfg.c ****     #endif
  40:.\Generated_Source\PSoC5/cyfitter_cfg.c ****     
  41:.\Generated_Source\PSoC5/cyfitter_cfg.c **** #elif defined(__ICCARM__)
  42:.\Generated_Source\PSoC5/cyfitter_cfg.c ****     #include <intrinsics.h>
  43:.\Generated_Source\PSoC5/cyfitter_cfg.c **** 
  44:.\Generated_Source\PSoC5/cyfitter_cfg.c ****     #define CYPACKED __packed
  45:.\Generated_Source\PSoC5/cyfitter_cfg.c ****     #define CYPACKED_ATTR 
  46:.\Generated_Source\PSoC5/cyfitter_cfg.c ****     #define CYALIGNED _Pragma("data_alignment=4")
  47:.\Generated_Source\PSoC5/cyfitter_cfg.c ****     #define CY_CFG_UNUSED _Pragma("diag_suppress=Pe177")
  48:.\Generated_Source\PSoC5/cyfitter_cfg.c ****     #define CY_CFG_SECTION _Pragma("location=\".psocinit\"")
  49:.\Generated_Source\PSoC5/cyfitter_cfg.c ****     
  50:.\Generated_Source\PSoC5/cyfitter_cfg.c ****     #define CY_CFG_MEMORY_BARRIER() __DMB()
  51:.\Generated_Source\PSoC5/cyfitter_cfg.c ****     
  52:.\Generated_Source\PSoC5/cyfitter_cfg.c **** #else
  53:.\Generated_Source\PSoC5/cyfitter_cfg.c ****     #error Unsupported toolchain
  54:.\Generated_Source\PSoC5/cyfitter_cfg.c **** #endif
  55:.\Generated_Source\PSoC5/cyfitter_cfg.c **** 
  56:.\Generated_Source\PSoC5/cyfitter_cfg.c **** 
  57:.\Generated_Source\PSoC5/cyfitter_cfg.c **** CY_CFG_UNUSED
  58:.\Generated_Source\PSoC5/cyfitter_cfg.c **** static void CYMEMZERO(void *s, size_t n);
  59:.\Generated_Source\PSoC5/cyfitter_cfg.c **** CY_CFG_UNUSED
  60:.\Generated_Source\PSoC5/cyfitter_cfg.c **** static void CYMEMZERO(void *s, size_t n)
  61:.\Generated_Source\PSoC5/cyfitter_cfg.c **** {
  62:.\Generated_Source\PSoC5/cyfitter_cfg.c **** 	(void)memset(s, 0, n);
  63:.\Generated_Source\PSoC5/cyfitter_cfg.c **** }
  64:.\Generated_Source\PSoC5/cyfitter_cfg.c **** CY_CFG_UNUSED
  65:.\Generated_Source\PSoC5/cyfitter_cfg.c **** static void CYCONFIGCPY(void *dest, const void *src, size_t n);
  66:.\Generated_Source\PSoC5/cyfitter_cfg.c **** CY_CFG_UNUSED
  67:.\Generated_Source\PSoC5/cyfitter_cfg.c **** static void CYCONFIGCPY(void *dest, const void *src, size_t n)
  68:.\Generated_Source\PSoC5/cyfitter_cfg.c **** {
  69:.\Generated_Source\PSoC5/cyfitter_cfg.c **** 	(void)memcpy(dest, src, n);
  70:.\Generated_Source\PSoC5/cyfitter_cfg.c **** }
  71:.\Generated_Source\PSoC5/cyfitter_cfg.c **** CY_CFG_UNUSED
  72:.\Generated_Source\PSoC5/cyfitter_cfg.c **** static void CYCONFIGCPYCODE(void *dest, const void *src, size_t n);
  73:.\Generated_Source\PSoC5/cyfitter_cfg.c **** CY_CFG_UNUSED
  74:.\Generated_Source\PSoC5/cyfitter_cfg.c **** static void CYCONFIGCPYCODE(void *dest, const void *src, size_t n)
  75:.\Generated_Source\PSoC5/cyfitter_cfg.c **** {
  76:.\Generated_Source\PSoC5/cyfitter_cfg.c **** 	(void)memcpy(dest, src, n);
  77:.\Generated_Source\PSoC5/cyfitter_cfg.c **** }
  78:.\Generated_Source\PSoC5/cyfitter_cfg.c **** 
  79:.\Generated_Source\PSoC5/cyfitter_cfg.c **** 
  80:.\Generated_Source\PSoC5/cyfitter_cfg.c **** 
  81:.\Generated_Source\PSoC5/cyfitter_cfg.c **** /* Clock startup error codes                                                   */
  82:.\Generated_Source\PSoC5/cyfitter_cfg.c **** #define CYCLOCKSTART_NO_ERROR    0u
  83:.\Generated_Source\PSoC5/cyfitter_cfg.c **** #define CYCLOCKSTART_XTAL_ERROR  1u
  84:.\Generated_Source\PSoC5/cyfitter_cfg.c **** #define CYCLOCKSTART_32KHZ_ERROR 2u
  85:.\Generated_Source\PSoC5/cyfitter_cfg.c **** #define CYCLOCKSTART_PLL_ERROR   3u
  86:.\Generated_Source\PSoC5/cyfitter_cfg.c **** 
  87:.\Generated_Source\PSoC5/cyfitter_cfg.c **** #ifdef CY_NEED_CYCLOCKSTARTUPERROR
  88:.\Generated_Source\PSoC5/cyfitter_cfg.c **** /*******************************************************************************
  89:.\Generated_Source\PSoC5/cyfitter_cfg.c **** * Function Name: CyClockStartupError
ARM GAS  C:\Users\JohnP\AppData\Local\Temp\ccTBAowt.s 			page 3


  90:.\Generated_Source\PSoC5/cyfitter_cfg.c **** ********************************************************************************
  91:.\Generated_Source\PSoC5/cyfitter_cfg.c **** * Summary:
  92:.\Generated_Source\PSoC5/cyfitter_cfg.c **** *  If an error is encountered during clock configuration (crystal startup error,
  93:.\Generated_Source\PSoC5/cyfitter_cfg.c **** *  PLL lock error, etc.), the system will end up here.  Unless reimplemented by
  94:.\Generated_Source\PSoC5/cyfitter_cfg.c **** *  the customer, this function will stop in an infinite loop.
  95:.\Generated_Source\PSoC5/cyfitter_cfg.c **** *
  96:.\Generated_Source\PSoC5/cyfitter_cfg.c **** * Parameters:
  97:.\Generated_Source\PSoC5/cyfitter_cfg.c **** *   void
  98:.\Generated_Source\PSoC5/cyfitter_cfg.c **** *
  99:.\Generated_Source\PSoC5/cyfitter_cfg.c **** * Return:
 100:.\Generated_Source\PSoC5/cyfitter_cfg.c **** *   void
 101:.\Generated_Source\PSoC5/cyfitter_cfg.c **** *
 102:.\Generated_Source\PSoC5/cyfitter_cfg.c **** *******************************************************************************/
 103:.\Generated_Source\PSoC5/cyfitter_cfg.c **** CY_CFG_UNUSED
 104:.\Generated_Source\PSoC5/cyfitter_cfg.c **** static void CyClockStartupError(uint8 errorCode);
 105:.\Generated_Source\PSoC5/cyfitter_cfg.c **** CY_CFG_UNUSED
 106:.\Generated_Source\PSoC5/cyfitter_cfg.c **** static void CyClockStartupError(uint8 errorCode)
 107:.\Generated_Source\PSoC5/cyfitter_cfg.c **** {
  26              		.loc 1 107 0
  27              		.cfi_startproc
  28              		@ Volatile: function does not return.
  29              		@ args = 0, pretend = 0, frame = 0
  30              		@ frame_needed = 0, uses_anonymous_args = 0
  31              		@ link register save eliminated.
  32              	.LVL0:
  33              	.L2:
  34 0000 FEE7     		b	.L2
  35              		.cfi_endproc
  36              	.LFE3:
  37              		.size	CyClockStartupError, .-CyClockStartupError
  38 0002 00BF     		.section	.text.cfg_write_bytes32,"ax",%progbits
  39              		.align	2
  40              		.thumb
  41              		.thumb_func
  42              		.type	cfg_write_bytes32, %function
  43              	cfg_write_bytes32:
  44              	.LFB4:
 108:.\Generated_Source\PSoC5/cyfitter_cfg.c ****     /* To remove the compiler warning if errorCode not used.                */
 109:.\Generated_Source\PSoC5/cyfitter_cfg.c ****     errorCode = errorCode;
 110:.\Generated_Source\PSoC5/cyfitter_cfg.c **** 
 111:.\Generated_Source\PSoC5/cyfitter_cfg.c ****     /* `#START CyClockStartupError` */
 112:.\Generated_Source\PSoC5/cyfitter_cfg.c **** 
 113:.\Generated_Source\PSoC5/cyfitter_cfg.c ****     /* If we have a clock startup error (bad MHz crystal, PLL lock, etc.),  */
 114:.\Generated_Source\PSoC5/cyfitter_cfg.c ****     /* we will end up here to allow the customer to implement something to  */
 115:.\Generated_Source\PSoC5/cyfitter_cfg.c ****     /* deal with the clock condition.                                       */
 116:.\Generated_Source\PSoC5/cyfitter_cfg.c **** 
 117:.\Generated_Source\PSoC5/cyfitter_cfg.c ****     /* `#END` */
 118:.\Generated_Source\PSoC5/cyfitter_cfg.c **** 
 119:.\Generated_Source\PSoC5/cyfitter_cfg.c ****     /* If nothing else, stop here since the clocks have not started         */
 120:.\Generated_Source\PSoC5/cyfitter_cfg.c ****     /* correctly.                                                           */
 121:.\Generated_Source\PSoC5/cyfitter_cfg.c ****     while(1) {}
 122:.\Generated_Source\PSoC5/cyfitter_cfg.c **** }
 123:.\Generated_Source\PSoC5/cyfitter_cfg.c **** #endif
 124:.\Generated_Source\PSoC5/cyfitter_cfg.c **** 
 125:.\Generated_Source\PSoC5/cyfitter_cfg.c **** #define CY_CFG_BASE_ADDR_COUNT 40u
 126:.\Generated_Source\PSoC5/cyfitter_cfg.c **** CYPACKED typedef struct
 127:.\Generated_Source\PSoC5/cyfitter_cfg.c **** {
ARM GAS  C:\Users\JohnP\AppData\Local\Temp\ccTBAowt.s 			page 4


 128:.\Generated_Source\PSoC5/cyfitter_cfg.c **** 	uint8 offset;
 129:.\Generated_Source\PSoC5/cyfitter_cfg.c **** 	uint8 value;
 130:.\Generated_Source\PSoC5/cyfitter_cfg.c **** } CYPACKED_ATTR cy_cfg_addrvalue_t;
 131:.\Generated_Source\PSoC5/cyfitter_cfg.c **** 
 132:.\Generated_Source\PSoC5/cyfitter_cfg.c **** #define cy_cfg_addr_table ((const uint32 CYFAR *)0x48000000u)
 133:.\Generated_Source\PSoC5/cyfitter_cfg.c **** #define cy_cfg_data_table ((const cy_cfg_addrvalue_t CYFAR *)0x480000A0u)
 134:.\Generated_Source\PSoC5/cyfitter_cfg.c **** 
 135:.\Generated_Source\PSoC5/cyfitter_cfg.c **** /* IOPINS0_7 Address: CYREG_PRT12_DM0 Size (bytes): 8 */
 136:.\Generated_Source\PSoC5/cyfitter_cfg.c **** #define BS_IOPINS0_7_VAL ((const uint8 CYFAR *)0x48000978u)
 137:.\Generated_Source\PSoC5/cyfitter_cfg.c **** 
 138:.\Generated_Source\PSoC5/cyfitter_cfg.c **** /* IOPINS0_8 Address: CYREG_PRT15_DR Size (bytes): 10 */
 139:.\Generated_Source\PSoC5/cyfitter_cfg.c **** #define BS_IOPINS0_8_VAL ((const uint8 CYFAR *)0x48000980u)
 140:.\Generated_Source\PSoC5/cyfitter_cfg.c **** 
 141:.\Generated_Source\PSoC5/cyfitter_cfg.c **** /* IOPINS0_2 Address: CYREG_PRT2_DM0 Size (bytes): 8 */
 142:.\Generated_Source\PSoC5/cyfitter_cfg.c **** #define BS_IOPINS0_2_VAL ((const uint8 CYFAR *)0x4800098Cu)
 143:.\Generated_Source\PSoC5/cyfitter_cfg.c **** 
 144:.\Generated_Source\PSoC5/cyfitter_cfg.c **** /* IOPINS0_4 Address: CYREG_PRT4_DM0 Size (bytes): 8 */
 145:.\Generated_Source\PSoC5/cyfitter_cfg.c **** #define BS_IOPINS0_4_VAL ((const uint8 CYFAR *)0x48000994u)
 146:.\Generated_Source\PSoC5/cyfitter_cfg.c **** 
 147:.\Generated_Source\PSoC5/cyfitter_cfg.c **** /* IOPINS0_5 Address: CYREG_PRT5_DM0 Size (bytes): 8 */
 148:.\Generated_Source\PSoC5/cyfitter_cfg.c **** #define BS_IOPINS0_5_VAL ((const uint8 CYFAR *)0x4800099Cu)
 149:.\Generated_Source\PSoC5/cyfitter_cfg.c **** 
 150:.\Generated_Source\PSoC5/cyfitter_cfg.c **** /* IOPINS0_6 Address: CYREG_PRT6_DM0 Size (bytes): 8 */
 151:.\Generated_Source\PSoC5/cyfitter_cfg.c **** #define BS_IOPINS0_6_VAL ((const uint8 CYFAR *)0x480009A4u)
 152:.\Generated_Source\PSoC5/cyfitter_cfg.c **** 
 153:.\Generated_Source\PSoC5/cyfitter_cfg.c **** 
 154:.\Generated_Source\PSoC5/cyfitter_cfg.c **** /*******************************************************************************
 155:.\Generated_Source\PSoC5/cyfitter_cfg.c **** * Function Name: cfg_write_bytes32
 156:.\Generated_Source\PSoC5/cyfitter_cfg.c **** ********************************************************************************
 157:.\Generated_Source\PSoC5/cyfitter_cfg.c **** * Summary:
 158:.\Generated_Source\PSoC5/cyfitter_cfg.c **** *  This function is used for setting up the chip configuration areas that
 159:.\Generated_Source\PSoC5/cyfitter_cfg.c **** *  contain relatively sparse data.
 160:.\Generated_Source\PSoC5/cyfitter_cfg.c **** *
 161:.\Generated_Source\PSoC5/cyfitter_cfg.c **** * Parameters:
 162:.\Generated_Source\PSoC5/cyfitter_cfg.c **** *   void
 163:.\Generated_Source\PSoC5/cyfitter_cfg.c **** *
 164:.\Generated_Source\PSoC5/cyfitter_cfg.c **** * Return:
 165:.\Generated_Source\PSoC5/cyfitter_cfg.c **** *   void
 166:.\Generated_Source\PSoC5/cyfitter_cfg.c **** *
 167:.\Generated_Source\PSoC5/cyfitter_cfg.c **** *******************************************************************************/
 168:.\Generated_Source\PSoC5/cyfitter_cfg.c **** static void cfg_write_bytes32(const uint32 addr_table[], const cy_cfg_addrvalue_t data_table[]);
 169:.\Generated_Source\PSoC5/cyfitter_cfg.c **** static void cfg_write_bytes32(const uint32 addr_table[], const cy_cfg_addrvalue_t data_table[])
 170:.\Generated_Source\PSoC5/cyfitter_cfg.c **** {
  45              		.loc 1 170 0
  46              		.cfi_startproc
  47              		@ args = 0, pretend = 0, frame = 0
  48              		@ frame_needed = 0, uses_anonymous_args = 0
  49              		@ link register save eliminated.
  50              	.LVL1:
  51              		.loc 1 170 0
  52 0000 F0B4     		push	{r4, r5, r6, r7}
  53              		.cfi_def_cfa_offset 16
  54              		.cfi_offset 4, -16
  55              		.cfi_offset 5, -12
  56              		.cfi_offset 6, -8
  57              		.cfi_offset 7, -4
  58              	.LVL2:
ARM GAS  C:\Users\JohnP\AppData\Local\Temp\ccTBAowt.s 			page 5


 171:.\Generated_Source\PSoC5/cyfitter_cfg.c **** 	/* For 32-bit little-endian architectures */
 172:.\Generated_Source\PSoC5/cyfitter_cfg.c **** 	uint32 i, j = 0u;
  59              		.loc 1 172 0
  60 0002 0023     		movs	r3, #0
 173:.\Generated_Source\PSoC5/cyfitter_cfg.c **** 	for (i = 0u; i < CY_CFG_BASE_ADDR_COUNT; i++)
  61              		.loc 1 173 0
  62 0004 1F46     		mov	r7, r3
  63 0006 11E0     		b	.L4
  64              	.LVL3:
  65              	.L7:
  66              	.LBB2:
 174:.\Generated_Source\PSoC5/cyfitter_cfg.c **** 	{
 175:.\Generated_Source\PSoC5/cyfitter_cfg.c **** 		uint32 baseAddr = addr_table[i];
  67              		.loc 1 175 0
  68 0008 50F82760 		ldr	r6, [r0, r7, lsl #2]
  69              	.LVL4:
 176:.\Generated_Source\PSoC5/cyfitter_cfg.c **** 		uint8 count = (uint8)baseAddr;
  70              		.loc 1 176 0
  71 000c F2B2     		uxtb	r2, r6
  72              	.LVL5:
 177:.\Generated_Source\PSoC5/cyfitter_cfg.c **** 		baseAddr &= 0xFFFFFF00u;
  73              		.loc 1 177 0
  74 000e 26F0FF06 		bic	r6, r6, #255
  75              	.LVL6:
 178:.\Generated_Source\PSoC5/cyfitter_cfg.c **** 		while (count != 0u)
  76              		.loc 1 178 0
  77 0012 08E0     		b	.L5
  78              	.L6:
 179:.\Generated_Source\PSoC5/cyfitter_cfg.c **** 		{
 180:.\Generated_Source\PSoC5/cyfitter_cfg.c **** 			CY_SET_XTND_REG8((void CYFAR *)(baseAddr + data_table[j].offset), data_table[j].value);
  79              		.loc 1 180 0
  80 0014 01EB4305 		add	r5, r1, r3, lsl #1
  81 0018 11F81340 		ldrb	r4, [r1, r3, lsl #1]	@ zero_extendqisi2
  82 001c 6D78     		ldrb	r5, [r5, #1]	@ zero_extendqisi2
  83 001e A555     		strb	r5, [r4, r6]
 181:.\Generated_Source\PSoC5/cyfitter_cfg.c **** 			j++;
  84              		.loc 1 181 0
  85 0020 0133     		adds	r3, r3, #1
  86              	.LVL7:
 182:.\Generated_Source\PSoC5/cyfitter_cfg.c **** 			count--;
  87              		.loc 1 182 0
  88 0022 013A     		subs	r2, r2, #1
  89              	.LVL8:
  90 0024 D2B2     		uxtb	r2, r2
  91              	.LVL9:
  92              	.L5:
 178:.\Generated_Source\PSoC5/cyfitter_cfg.c **** 		while (count != 0u)
  93              		.loc 1 178 0 discriminator 1
  94 0026 002A     		cmp	r2, #0
  95 0028 F4D1     		bne	.L6
  96              	.LBE2:
 173:.\Generated_Source\PSoC5/cyfitter_cfg.c **** 	for (i = 0u; i < CY_CFG_BASE_ADDR_COUNT; i++)
  97              		.loc 1 173 0
  98 002a 0137     		adds	r7, r7, #1
  99              	.LVL10:
 100              	.L4:
 173:.\Generated_Source\PSoC5/cyfitter_cfg.c **** 	for (i = 0u; i < CY_CFG_BASE_ADDR_COUNT; i++)
ARM GAS  C:\Users\JohnP\AppData\Local\Temp\ccTBAowt.s 			page 6


 101              		.loc 1 173 0 is_stmt 0 discriminator 1
 102 002c 272F     		cmp	r7, #39
 103 002e EBD9     		bls	.L7
 183:.\Generated_Source\PSoC5/cyfitter_cfg.c **** 		}
 184:.\Generated_Source\PSoC5/cyfitter_cfg.c **** 	}
 185:.\Generated_Source\PSoC5/cyfitter_cfg.c **** }
 104              		.loc 1 185 0 is_stmt 1
 105 0030 F0BC     		pop	{r4, r5, r6, r7}
 106              	.LVL11:
 107 0032 7047     		bx	lr
 108              		.cfi_endproc
 109              	.LFE4:
 110              		.size	cfg_write_bytes32, .-cfg_write_bytes32
 111              		.section	.text.AnalogSetDefault,"ax",%progbits
 112              		.align	2
 113              		.thumb
 114              		.thumb_func
 115              		.type	AnalogSetDefault, %function
 116              	AnalogSetDefault:
 117              	.LFB6:
 186:.\Generated_Source\PSoC5/cyfitter_cfg.c **** 
 187:.\Generated_Source\PSoC5/cyfitter_cfg.c **** /*******************************************************************************
 188:.\Generated_Source\PSoC5/cyfitter_cfg.c **** * Function Name: ClockSetup
 189:.\Generated_Source\PSoC5/cyfitter_cfg.c **** ********************************************************************************
 190:.\Generated_Source\PSoC5/cyfitter_cfg.c **** *
 191:.\Generated_Source\PSoC5/cyfitter_cfg.c **** * Summary:
 192:.\Generated_Source\PSoC5/cyfitter_cfg.c **** *  Performs the initialization of all of the clocks in the device based on the
 193:.\Generated_Source\PSoC5/cyfitter_cfg.c **** *  settings in the Clock tab of the DWR.  This includes enabling the requested
 194:.\Generated_Source\PSoC5/cyfitter_cfg.c **** *  clocks and setting the necessary dividers to produce the desired frequency. 
 195:.\Generated_Source\PSoC5/cyfitter_cfg.c **** *
 196:.\Generated_Source\PSoC5/cyfitter_cfg.c **** * Parameters:
 197:.\Generated_Source\PSoC5/cyfitter_cfg.c **** *  void
 198:.\Generated_Source\PSoC5/cyfitter_cfg.c **** *
 199:.\Generated_Source\PSoC5/cyfitter_cfg.c **** * Return:
 200:.\Generated_Source\PSoC5/cyfitter_cfg.c **** *  void
 201:.\Generated_Source\PSoC5/cyfitter_cfg.c **** *
 202:.\Generated_Source\PSoC5/cyfitter_cfg.c **** *******************************************************************************/
 203:.\Generated_Source\PSoC5/cyfitter_cfg.c **** static void ClockSetup(void);
 204:.\Generated_Source\PSoC5/cyfitter_cfg.c **** static void ClockSetup(void)
 205:.\Generated_Source\PSoC5/cyfitter_cfg.c **** {
 206:.\Generated_Source\PSoC5/cyfitter_cfg.c **** 	uint32 timeout;
 207:.\Generated_Source\PSoC5/cyfitter_cfg.c **** 	uint8 pllLock;
 208:.\Generated_Source\PSoC5/cyfitter_cfg.c **** 
 209:.\Generated_Source\PSoC5/cyfitter_cfg.c **** 
 210:.\Generated_Source\PSoC5/cyfitter_cfg.c **** 	/* Configure Digital Clocks based on settings from Clock DWR */
 211:.\Generated_Source\PSoC5/cyfitter_cfg.c **** 	CY_SET_XTND_REG16((void CYFAR *)(CYREG_CLKDIST_DCFG0_CFG0), 0x0000u);
 212:.\Generated_Source\PSoC5/cyfitter_cfg.c **** 	CY_SET_XTND_REG8((void CYFAR *)(CYREG_CLKDIST_DCFG0_CFG0 + 0x2u), 0x58u);
 213:.\Generated_Source\PSoC5/cyfitter_cfg.c **** 	CY_SET_XTND_REG16((void CYFAR *)(CYREG_CLKDIST_DCFG1_CFG0), 0x0009u);
 214:.\Generated_Source\PSoC5/cyfitter_cfg.c **** 	CY_SET_XTND_REG8((void CYFAR *)(CYREG_CLKDIST_DCFG1_CFG0 + 0x2u), 0x1Bu);
 215:.\Generated_Source\PSoC5/cyfitter_cfg.c **** 	CY_SET_XTND_REG16((void CYFAR *)(CYREG_CLKDIST_DCFG2_CFG0), 0x0F9Fu);
 216:.\Generated_Source\PSoC5/cyfitter_cfg.c **** 	CY_SET_XTND_REG8((void CYFAR *)(CYREG_CLKDIST_DCFG2_CFG0 + 0x2u), 0x18u);
 217:.\Generated_Source\PSoC5/cyfitter_cfg.c **** 
 218:.\Generated_Source\PSoC5/cyfitter_cfg.c **** 	/* Configure ILO based on settings from Clock DWR */
 219:.\Generated_Source\PSoC5/cyfitter_cfg.c **** 	CY_SET_XTND_REG8((void CYFAR *)(CYREG_SLOWCLK_ILO_CR0), 0x06u);
 220:.\Generated_Source\PSoC5/cyfitter_cfg.c **** 
 221:.\Generated_Source\PSoC5/cyfitter_cfg.c **** 	/* Configure XTAL based on settings from Clock DWR */
 222:.\Generated_Source\PSoC5/cyfitter_cfg.c **** 	CY_SET_XTND_REG16((void CYFAR *)(CYREG_FASTCLK_XMHZ_CFG0), 0x3313u);
ARM GAS  C:\Users\JohnP\AppData\Local\Temp\ccTBAowt.s 			page 7


 223:.\Generated_Source\PSoC5/cyfitter_cfg.c **** 	CY_SET_XTND_REG8((void CYFAR *)(CYREG_FASTCLK_XMHZ_CSR), 0x05u);
 224:.\Generated_Source\PSoC5/cyfitter_cfg.c **** 	/* Wait up to 130000us for the XTAL to lock */
 225:.\Generated_Source\PSoC5/cyfitter_cfg.c **** 	CY_GET_XTND_REG8((void CYFAR *)CYREG_FASTCLK_XMHZ_CSR);
 226:.\Generated_Source\PSoC5/cyfitter_cfg.c **** 	for (timeout = 130000u / 10u; (timeout > 0u) && ((CY_GET_XTND_REG8((void CYFAR *)CYREG_FASTCLK_XMH
 227:.\Generated_Source\PSoC5/cyfitter_cfg.c **** 	{ 
 228:.\Generated_Source\PSoC5/cyfitter_cfg.c **** 		
 229:.\Generated_Source\PSoC5/cyfitter_cfg.c **** 		CyDelayCycles(10u * 48u); /* Delay 10us based on 48MHz clock */
 230:.\Generated_Source\PSoC5/cyfitter_cfg.c **** 	}
 231:.\Generated_Source\PSoC5/cyfitter_cfg.c **** 	if (timeout == 0u)
 232:.\Generated_Source\PSoC5/cyfitter_cfg.c **** 	{
 233:.\Generated_Source\PSoC5/cyfitter_cfg.c **** 		CyClockStartupError(CYCLOCKSTART_XTAL_ERROR);
 234:.\Generated_Source\PSoC5/cyfitter_cfg.c **** 	}
 235:.\Generated_Source\PSoC5/cyfitter_cfg.c **** 	CY_SET_XTND_REG8((void CYFAR *)(CYREG_CLKDIST_CR), 0x40u);
 236:.\Generated_Source\PSoC5/cyfitter_cfg.c **** 
 237:.\Generated_Source\PSoC5/cyfitter_cfg.c **** 	/* Configure IMO based on settings from Clock DWR */
 238:.\Generated_Source\PSoC5/cyfitter_cfg.c **** 	CY_SET_XTND_REG8((void CYFAR *)(CYREG_FASTCLK_IMO_CR), 0x70u);
 239:.\Generated_Source\PSoC5/cyfitter_cfg.c **** 
 240:.\Generated_Source\PSoC5/cyfitter_cfg.c **** 	/* Configure PLL based on settings from Clock DWR */
 241:.\Generated_Source\PSoC5/cyfitter_cfg.c **** 	CY_SET_XTND_REG16((void CYFAR *)(CYREG_FASTCLK_PLL_P), 0x0708u);
 242:.\Generated_Source\PSoC5/cyfitter_cfg.c **** 	CY_SET_XTND_REG16((void CYFAR *)(CYREG_FASTCLK_PLL_CFG0), 0x1251u);
 243:.\Generated_Source\PSoC5/cyfitter_cfg.c **** 	/* Wait up to 250us for the PLL to lock */
 244:.\Generated_Source\PSoC5/cyfitter_cfg.c **** 	pllLock = 0u;
 245:.\Generated_Source\PSoC5/cyfitter_cfg.c **** 	for (timeout = 250u / 10u; (timeout > 0u) && (pllLock != 0x03u); timeout--)
 246:.\Generated_Source\PSoC5/cyfitter_cfg.c **** 	{ 
 247:.\Generated_Source\PSoC5/cyfitter_cfg.c **** 		pllLock = 0x03u & ((uint8)((uint8)pllLock << 1) | ((CY_GET_XTND_REG8((void CYFAR *)CYREG_FASTCLK_
 248:.\Generated_Source\PSoC5/cyfitter_cfg.c **** 		CyDelayCycles(10u * 48u); /* Delay 10us based on 48MHz clock */
 249:.\Generated_Source\PSoC5/cyfitter_cfg.c **** 	}
 250:.\Generated_Source\PSoC5/cyfitter_cfg.c **** 	/* If we ran out of time the PLL didn't lock so go to the error function */
 251:.\Generated_Source\PSoC5/cyfitter_cfg.c **** 	if (timeout == 0u)
 252:.\Generated_Source\PSoC5/cyfitter_cfg.c **** 	{
 253:.\Generated_Source\PSoC5/cyfitter_cfg.c **** 		CyClockStartupError(CYCLOCKSTART_PLL_ERROR);
 254:.\Generated_Source\PSoC5/cyfitter_cfg.c **** 	}
 255:.\Generated_Source\PSoC5/cyfitter_cfg.c **** 
 256:.\Generated_Source\PSoC5/cyfitter_cfg.c **** 	/* Configure Bus/Master Clock based on settings from Clock DWR */
 257:.\Generated_Source\PSoC5/cyfitter_cfg.c **** 	CY_SET_XTND_REG16((void CYFAR *)(CYREG_CLKDIST_MSTR0), 0x0100u);
 258:.\Generated_Source\PSoC5/cyfitter_cfg.c **** 	CY_SET_XTND_REG8((void CYFAR *)(CYREG_CLKDIST_MSTR0), 0x07u);
 259:.\Generated_Source\PSoC5/cyfitter_cfg.c **** 	CY_SET_XTND_REG8((void CYFAR *)(CYREG_CLKDIST_BCFG0), 0x00u);
 260:.\Generated_Source\PSoC5/cyfitter_cfg.c **** 	CY_SET_XTND_REG8((void CYFAR *)(CYREG_CLKDIST_BCFG2), 0x48u);
 261:.\Generated_Source\PSoC5/cyfitter_cfg.c **** 	CY_SET_XTND_REG8((void CYFAR *)(CYREG_CLKDIST_MSTR0), 0x00u);
 262:.\Generated_Source\PSoC5/cyfitter_cfg.c **** 
 263:.\Generated_Source\PSoC5/cyfitter_cfg.c **** 	/* Configure USB Clock based on settings from Clock DWR */
 264:.\Generated_Source\PSoC5/cyfitter_cfg.c **** 	CY_SET_XTND_REG8((void CYFAR *)(CYREG_CLKDIST_UCFG), 0x00u);
 265:.\Generated_Source\PSoC5/cyfitter_cfg.c **** 	CY_SET_XTND_REG8((void CYFAR *)(CYREG_CLKDIST_LD), 0x02u);
 266:.\Generated_Source\PSoC5/cyfitter_cfg.c **** 
 267:.\Generated_Source\PSoC5/cyfitter_cfg.c **** 	CY_SET_XTND_REG8((void CYFAR *)(CYREG_PM_ACT_CFG2), ((CY_GET_XTND_REG8((void CYFAR *)CYREG_PM_ACT_
 268:.\Generated_Source\PSoC5/cyfitter_cfg.c **** }
 269:.\Generated_Source\PSoC5/cyfitter_cfg.c **** 
 270:.\Generated_Source\PSoC5/cyfitter_cfg.c **** 
 271:.\Generated_Source\PSoC5/cyfitter_cfg.c **** /* Analog API Functions */
 272:.\Generated_Source\PSoC5/cyfitter_cfg.c **** 
 273:.\Generated_Source\PSoC5/cyfitter_cfg.c **** 
 274:.\Generated_Source\PSoC5/cyfitter_cfg.c **** /*******************************************************************************
 275:.\Generated_Source\PSoC5/cyfitter_cfg.c **** * Function Name: AnalogSetDefault
 276:.\Generated_Source\PSoC5/cyfitter_cfg.c **** ********************************************************************************
 277:.\Generated_Source\PSoC5/cyfitter_cfg.c **** *
 278:.\Generated_Source\PSoC5/cyfitter_cfg.c **** * Summary:
 279:.\Generated_Source\PSoC5/cyfitter_cfg.c **** *  Sets up the analog portions of the chip to default values based on chip
ARM GAS  C:\Users\JohnP\AppData\Local\Temp\ccTBAowt.s 			page 8


 280:.\Generated_Source\PSoC5/cyfitter_cfg.c **** *  configuration options from the project.
 281:.\Generated_Source\PSoC5/cyfitter_cfg.c **** *
 282:.\Generated_Source\PSoC5/cyfitter_cfg.c **** * Parameters:
 283:.\Generated_Source\PSoC5/cyfitter_cfg.c **** *  void
 284:.\Generated_Source\PSoC5/cyfitter_cfg.c **** *
 285:.\Generated_Source\PSoC5/cyfitter_cfg.c **** * Return:
 286:.\Generated_Source\PSoC5/cyfitter_cfg.c **** *  void
 287:.\Generated_Source\PSoC5/cyfitter_cfg.c **** *
 288:.\Generated_Source\PSoC5/cyfitter_cfg.c **** *******************************************************************************/
 289:.\Generated_Source\PSoC5/cyfitter_cfg.c **** static void AnalogSetDefault(void);
 290:.\Generated_Source\PSoC5/cyfitter_cfg.c **** static void AnalogSetDefault(void)
 291:.\Generated_Source\PSoC5/cyfitter_cfg.c **** {
 118              		.loc 1 291 0
 119              		.cfi_startproc
 120              		@ args = 0, pretend = 0, frame = 0
 121              		@ frame_needed = 0, uses_anonymous_args = 0
 122              		@ link register save eliminated.
 292:.\Generated_Source\PSoC5/cyfitter_cfg.c **** 	uint8 bg_xover_inl_trim = CY_GET_XTND_REG8((void CYFAR *)(CYREG_FLSHID_MFG_CFG_BG_XOVER_INL_TRIM +
 123              		.loc 1 292 0
 124 0000 164B     		ldr	r3, .L9
 125 0002 1B78     		ldrb	r3, [r3]	@ zero_extendqisi2
 126 0004 DBB2     		uxtb	r3, r3
 127              	.LVL12:
 293:.\Generated_Source\PSoC5/cyfitter_cfg.c **** 	CY_SET_XTND_REG8((void CYFAR *)(CYREG_BG_DFT0), (bg_xover_inl_trim & 0x07u));
 128              		.loc 1 293 0
 129 0006 03F00701 		and	r1, r3, #7
 130 000a 154A     		ldr	r2, .L9+4
 131 000c 1170     		strb	r1, [r2]
 294:.\Generated_Source\PSoC5/cyfitter_cfg.c **** 	CY_SET_XTND_REG8((void CYFAR *)(CYREG_BG_DFT1), ((bg_xover_inl_trim >> 4) & 0x0Fu));
 132              		.loc 1 294 0
 133 000e 1B09     		lsrs	r3, r3, #4
 134              	.LVL13:
 135 0010 0132     		adds	r2, r2, #1
 136 0012 1370     		strb	r3, [r2]
 295:.\Generated_Source\PSoC5/cyfitter_cfg.c **** 	CY_SET_XTND_REG8((void CYFAR *)CYREG_PRT4_AG, 0x02u);
 137              		.loc 1 295 0
 138 0014 0222     		movs	r2, #2
 139 0016 134B     		ldr	r3, .L9+8
 140 0018 1A70     		strb	r2, [r3]
 296:.\Generated_Source\PSoC5/cyfitter_cfg.c **** 	CY_SET_XTND_REG8((void CYFAR *)CYREG_PRT6_AG, 0x10u);
 141              		.loc 1 296 0
 142 001a 1022     		movs	r2, #16
 143 001c 2033     		adds	r3, r3, #32
 144 001e 1A70     		strb	r2, [r3]
 297:.\Generated_Source\PSoC5/cyfitter_cfg.c **** 	CY_SET_XTND_REG8((void CYFAR *)CYREG_BG_CR0, 0x09u);
 145              		.loc 1 297 0
 146 0020 0921     		movs	r1, #9
 147 0022 03F2FF63 		addw	r3, r3, #1791
 148 0026 1970     		strb	r1, [r3]
 298:.\Generated_Source\PSoC5/cyfitter_cfg.c **** 	CY_SET_XTND_REG8((void CYFAR *)CYREG_CAPSL_CFG0, 0x00u);
 149              		.loc 1 298 0
 150 0028 0021     		movs	r1, #0
 151 002a 0433     		adds	r3, r3, #4
 152 002c 1970     		strb	r1, [r3]
 299:.\Generated_Source\PSoC5/cyfitter_cfg.c **** 	CY_SET_XTND_REG8((void CYFAR *)CYREG_SC0_SW0, 0x10u);
 153              		.loc 1 299 0
 154 002e 03F5C873 		add	r3, r3, #400
ARM GAS  C:\Users\JohnP\AppData\Local\Temp\ccTBAowt.s 			page 9


 155 0032 1A70     		strb	r2, [r3]
 300:.\Generated_Source\PSoC5/cyfitter_cfg.c **** 	CY_SET_XTND_REG8((void CYFAR *)CYREG_SC0_SW8, 0x20u);
 156              		.loc 1 300 0
 157 0034 2023     		movs	r3, #32
 158 0036 0C49     		ldr	r1, .L9+12
 159 0038 0B70     		strb	r3, [r1]
 301:.\Generated_Source\PSoC5/cyfitter_cfg.c **** 	CY_SET_XTND_REG8((void CYFAR *)CYREG_DAC2_SW0, 0x10u);
 160              		.loc 1 301 0
 161 003a 8831     		adds	r1, r1, #136
 162 003c 0A70     		strb	r2, [r1]
 302:.\Generated_Source\PSoC5/cyfitter_cfg.c **** 	CY_SET_XTND_REG8((void CYFAR *)CYREG_CMP0_SW0, 0x20u);
 163              		.loc 1 302 0
 164 003e 0B4A     		ldr	r2, .L9+16
 165 0040 1370     		strb	r3, [r2]
 303:.\Generated_Source\PSoC5/cyfitter_cfg.c **** 	CY_SET_XTND_REG8((void CYFAR *)CYREG_CMP0_SW3, 0x40u);
 166              		.loc 1 303 0
 167 0042 4021     		movs	r1, #64
 168 0044 0332     		adds	r2, r2, #3
 169 0046 1170     		strb	r1, [r2]
 304:.\Generated_Source\PSoC5/cyfitter_cfg.c **** 	CY_SET_XTND_REG8((void CYFAR *)CYREG_CMP2_SW3, 0x20u);
 170              		.loc 1 304 0
 171 0048 1032     		adds	r2, r2, #16
 172 004a 1370     		strb	r3, [r2]
 305:.\Generated_Source\PSoC5/cyfitter_cfg.c **** 	CY_SET_XTND_REG8((void CYFAR *)CYREG_BUS_SW3, 0x01u);
 173              		.loc 1 305 0
 174 004c 0122     		movs	r2, #1
 175 004e 084B     		ldr	r3, .L9+20
 176 0050 1A70     		strb	r2, [r3]
 306:.\Generated_Source\PSoC5/cyfitter_cfg.c **** 	CY_SET_XTND_REG8((void CYFAR *)CYREG_PUMP_CR0, 0x44u);
 177              		.loc 1 306 0
 178 0052 4422     		movs	r2, #68
 179 0054 A3F2E523 		subw	r3, r3, #741
 180 0058 1A70     		strb	r2, [r3]
 181 005a 7047     		bx	lr
 182              	.L10:
 183              		.align	2
 184              	.L9:
 185 005c CF010049 		.word	1224737231
 186 0060 6E580040 		.word	1073764462
 187 0064 4D510040 		.word	1073762637
 188 0068 085A0040 		.word	1073764872
 189 006c C05A0040 		.word	1073765056
 190 0070 5B5B0040 		.word	1073765211
 191              		.cfi_endproc
 192              	.LFE6:
 193              		.size	AnalogSetDefault, .-AnalogSetDefault
 194              		.section	.text.CYMEMZERO,"ax",%progbits
 195              		.align	2
 196              		.thumb
 197              		.thumb_func
 198              		.type	CYMEMZERO, %function
 199              	CYMEMZERO:
 200              	.LFB0:
  61:.\Generated_Source\PSoC5/cyfitter_cfg.c **** {
 201              		.loc 1 61 0
 202              		.cfi_startproc
 203              		@ args = 0, pretend = 0, frame = 0
ARM GAS  C:\Users\JohnP\AppData\Local\Temp\ccTBAowt.s 			page 10


 204              		@ frame_needed = 0, uses_anonymous_args = 0
 205              	.LVL14:
 206 0000 08B5     		push	{r3, lr}
 207              		.cfi_def_cfa_offset 8
 208              		.cfi_offset 3, -8
 209              		.cfi_offset 14, -4
 210 0002 0A46     		mov	r2, r1
  62:.\Generated_Source\PSoC5/cyfitter_cfg.c **** 	(void)memset(s, 0, n);
 211              		.loc 1 62 0
 212 0004 0021     		movs	r1, #0
 213              	.LVL15:
 214 0006 FFF7FEFF 		bl	memset
 215              	.LVL16:
 216 000a 08BD     		pop	{r3, pc}
 217              		.cfi_endproc
 218              	.LFE0:
 219              		.size	CYMEMZERO, .-CYMEMZERO
 220              		.section	.text.ClockSetup,"ax",%progbits
 221              		.align	2
 222              		.thumb
 223              		.thumb_func
 224              		.type	ClockSetup, %function
 225              	ClockSetup:
 226              	.LFB5:
 205:.\Generated_Source\PSoC5/cyfitter_cfg.c **** {
 227              		.loc 1 205 0
 228              		.cfi_startproc
 229              		@ args = 0, pretend = 0, frame = 0
 230              		@ frame_needed = 0, uses_anonymous_args = 0
 231 0000 F8B5     		push	{r3, r4, r5, r6, r7, lr}
 232              		.cfi_def_cfa_offset 24
 233              		.cfi_offset 3, -24
 234              		.cfi_offset 4, -20
 235              		.cfi_offset 5, -16
 236              		.cfi_offset 6, -12
 237              		.cfi_offset 7, -8
 238              		.cfi_offset 14, -4
 211:.\Generated_Source\PSoC5/cyfitter_cfg.c **** 	CY_SET_XTND_REG16((void CYFAR *)(CYREG_CLKDIST_DCFG0_CFG0), 0x0000u);
 239              		.loc 1 211 0
 240 0002 0022     		movs	r2, #0
 241 0004 384B     		ldr	r3, .L21
 242 0006 1A80     		strh	r2, [r3]	@ movhi
 212:.\Generated_Source\PSoC5/cyfitter_cfg.c **** 	CY_SET_XTND_REG8((void CYFAR *)(CYREG_CLKDIST_DCFG0_CFG0 + 0x2u), 0x58u);
 243              		.loc 1 212 0
 244 0008 5822     		movs	r2, #88
 245 000a 0233     		adds	r3, r3, #2
 246 000c 1A70     		strb	r2, [r3]
 213:.\Generated_Source\PSoC5/cyfitter_cfg.c **** 	CY_SET_XTND_REG16((void CYFAR *)(CYREG_CLKDIST_DCFG1_CFG0), 0x0009u);
 247              		.loc 1 213 0
 248 000e 0922     		movs	r2, #9
 249 0010 0233     		adds	r3, r3, #2
 250 0012 1A80     		strh	r2, [r3]	@ movhi
 214:.\Generated_Source\PSoC5/cyfitter_cfg.c **** 	CY_SET_XTND_REG8((void CYFAR *)(CYREG_CLKDIST_DCFG1_CFG0 + 0x2u), 0x1Bu);
 251              		.loc 1 214 0
 252 0014 1B22     		movs	r2, #27
 253 0016 0233     		adds	r3, r3, #2
 254 0018 1A70     		strb	r2, [r3]
ARM GAS  C:\Users\JohnP\AppData\Local\Temp\ccTBAowt.s 			page 11


 215:.\Generated_Source\PSoC5/cyfitter_cfg.c **** 	CY_SET_XTND_REG16((void CYFAR *)(CYREG_CLKDIST_DCFG2_CFG0), 0x0F9Fu);
 255              		.loc 1 215 0
 256 001a 40F69F72 		movw	r2, #3999
 257 001e 0233     		adds	r3, r3, #2
 258 0020 1A80     		strh	r2, [r3]	@ movhi
 216:.\Generated_Source\PSoC5/cyfitter_cfg.c **** 	CY_SET_XTND_REG8((void CYFAR *)(CYREG_CLKDIST_DCFG2_CFG0 + 0x2u), 0x18u);
 259              		.loc 1 216 0
 260 0022 1822     		movs	r2, #24
 261 0024 0233     		adds	r3, r3, #2
 262 0026 1A70     		strb	r2, [r3]
 219:.\Generated_Source\PSoC5/cyfitter_cfg.c **** 	CY_SET_XTND_REG8((void CYFAR *)(CYREG_SLOWCLK_ILO_CR0), 0x06u);
 263              		.loc 1 219 0
 264 0028 0622     		movs	r2, #6
 265 002a 03F27623 		addw	r3, r3, #630
 266 002e 1A70     		strb	r2, [r3]
 222:.\Generated_Source\PSoC5/cyfitter_cfg.c **** 	CY_SET_XTND_REG16((void CYFAR *)(CYREG_FASTCLK_XMHZ_CFG0), 0x3313u);
 267              		.loc 1 222 0
 268 0030 43F21332 		movw	r2, #13075
 269 0034 EE3B     		subs	r3, r3, #238
 270 0036 1A80     		strh	r2, [r3]	@ movhi
 223:.\Generated_Source\PSoC5/cyfitter_cfg.c **** 	CY_SET_XTND_REG8((void CYFAR *)(CYREG_FASTCLK_XMHZ_CSR), 0x05u);
 271              		.loc 1 223 0
 272 0038 023B     		subs	r3, r3, #2
 273 003a 0522     		movs	r2, #5
 274 003c 1A70     		strb	r2, [r3]
 225:.\Generated_Source\PSoC5/cyfitter_cfg.c **** 	CY_GET_XTND_REG8((void CYFAR *)CYREG_FASTCLK_XMHZ_CSR);
 275              		.loc 1 225 0
 276 003e 1B78     		ldrb	r3, [r3]	@ zero_extendqisi2
 277              	.LVL17:
 226:.\Generated_Source\PSoC5/cyfitter_cfg.c **** 	for (timeout = 130000u / 10u; (timeout > 0u) && ((CY_GET_XTND_REG8((void CYFAR *)CYREG_FASTCLK_XMH
 278              		.loc 1 226 0
 279 0040 43F2C824 		movw	r4, #13000
 280 0044 294D     		ldr	r5, .L21+4
 229:.\Generated_Source\PSoC5/cyfitter_cfg.c **** 		CyDelayCycles(10u * 48u); /* Delay 10us based on 48MHz clock */
 281              		.loc 1 229 0
 282 0046 4FF4F076 		mov	r6, #480
 226:.\Generated_Source\PSoC5/cyfitter_cfg.c **** 	for (timeout = 130000u / 10u; (timeout > 0u) && ((CY_GET_XTND_REG8((void CYFAR *)CYREG_FASTCLK_XMH
 283              		.loc 1 226 0
 284 004a 03E0     		b	.L13
 285              	.LVL18:
 286              	.L15:
 229:.\Generated_Source\PSoC5/cyfitter_cfg.c **** 		CyDelayCycles(10u * 48u); /* Delay 10us based on 48MHz clock */
 287              		.loc 1 229 0 discriminator 1
 288 004c 3046     		mov	r0, r6
 289 004e FFF7FEFF 		bl	CyDelayCycles
 290              	.LVL19:
 226:.\Generated_Source\PSoC5/cyfitter_cfg.c **** 	for (timeout = 130000u / 10u; (timeout > 0u) && ((CY_GET_XTND_REG8((void CYFAR *)CYREG_FASTCLK_XMH
 291              		.loc 1 226 0 discriminator 1
 292 0052 013C     		subs	r4, r4, #1
 293              	.LVL20:
 294              	.L13:
 295 0054 1CB1     		cbz	r4, .L14
 226:.\Generated_Source\PSoC5/cyfitter_cfg.c **** 	for (timeout = 130000u / 10u; (timeout > 0u) && ((CY_GET_XTND_REG8((void CYFAR *)CYREG_FASTCLK_XMH
 296              		.loc 1 226 0 is_stmt 0 discriminator 2
 297 0056 2B78     		ldrb	r3, [r5]	@ zero_extendqisi2
 298 0058 13F0800F 		tst	r3, #128
 299 005c F6D1     		bne	.L15
ARM GAS  C:\Users\JohnP\AppData\Local\Temp\ccTBAowt.s 			page 12


 300              	.L14:
 231:.\Generated_Source\PSoC5/cyfitter_cfg.c **** 	if (timeout == 0u)
 301              		.loc 1 231 0 is_stmt 1
 302 005e 14B9     		cbnz	r4, .L16
 233:.\Generated_Source\PSoC5/cyfitter_cfg.c **** 		CyClockStartupError(CYCLOCKSTART_XTAL_ERROR);
 303              		.loc 1 233 0
 304 0060 0120     		movs	r0, #1
 305 0062 FFF7FEFF 		bl	CyClockStartupError
 306              	.LVL21:
 307              	.L16:
 235:.\Generated_Source\PSoC5/cyfitter_cfg.c **** 	CY_SET_XTND_REG8((void CYFAR *)(CYREG_CLKDIST_CR), 0x40u);
 308              		.loc 1 235 0
 309 0066 4022     		movs	r2, #64
 310 0068 4FF04023 		mov	r3, #1073758208
 311 006c 1A70     		strb	r2, [r3]
 238:.\Generated_Source\PSoC5/cyfitter_cfg.c **** 	CY_SET_XTND_REG8((void CYFAR *)(CYREG_FASTCLK_IMO_CR), 0x70u);
 312              		.loc 1 238 0
 313 006e 7022     		movs	r2, #112
 314 0070 03F50073 		add	r3, r3, #512
 315 0074 1A70     		strb	r2, [r3]
 241:.\Generated_Source\PSoC5/cyfitter_cfg.c **** 	CY_SET_XTND_REG16((void CYFAR *)(CYREG_FASTCLK_PLL_P), 0x0708u);
 316              		.loc 1 241 0
 317 0076 4FF4E162 		mov	r2, #1800
 318 007a 2233     		adds	r3, r3, #34
 319 007c 1A80     		strh	r2, [r3]	@ movhi
 242:.\Generated_Source\PSoC5/cyfitter_cfg.c **** 	CY_SET_XTND_REG16((void CYFAR *)(CYREG_FASTCLK_PLL_CFG0), 0x1251u);
 320              		.loc 1 242 0
 321 007e 41F25122 		movw	r2, #4689
 322 0082 023B     		subs	r3, r3, #2
 323 0084 1A80     		strh	r2, [r3]	@ movhi
 324              	.LVL22:
 244:.\Generated_Source\PSoC5/cyfitter_cfg.c **** 	pllLock = 0u;
 325              		.loc 1 244 0
 326 0086 0025     		movs	r5, #0
 245:.\Generated_Source\PSoC5/cyfitter_cfg.c **** 	for (timeout = 250u / 10u; (timeout > 0u) && (pllLock != 0x03u); timeout--)
 327              		.loc 1 245 0
 328 0088 1924     		movs	r4, #25
 247:.\Generated_Source\PSoC5/cyfitter_cfg.c **** 		pllLock = 0x03u & ((uint8)((uint8)pllLock << 1) | ((CY_GET_XTND_REG8((void CYFAR *)CYREG_FASTCLK_
 329              		.loc 1 247 0
 330 008a 194F     		ldr	r7, .L21+8
 248:.\Generated_Source\PSoC5/cyfitter_cfg.c **** 		CyDelayCycles(10u * 48u); /* Delay 10us based on 48MHz clock */
 331              		.loc 1 248 0
 332 008c 4FF4F076 		mov	r6, #480
 245:.\Generated_Source\PSoC5/cyfitter_cfg.c **** 	for (timeout = 250u / 10u; (timeout > 0u) && (pllLock != 0x03u); timeout--)
 333              		.loc 1 245 0
 334 0090 0AE0     		b	.L17
 335              	.LVL23:
 336              	.L19:
 247:.\Generated_Source\PSoC5/cyfitter_cfg.c **** 		pllLock = 0x03u & ((uint8)((uint8)pllLock << 1) | ((CY_GET_XTND_REG8((void CYFAR *)CYREG_FASTCLK_
 337              		.loc 1 247 0 discriminator 1
 338 0092 3B78     		ldrb	r3, [r7]	@ zero_extendqisi2
 339 0094 03F00103 		and	r3, r3, #1
 340 0098 43EA4505 		orr	r5, r3, r5, lsl #1
 341              	.LVL24:
 342 009c 05F00305 		and	r5, r5, #3
 343              	.LVL25:
 248:.\Generated_Source\PSoC5/cyfitter_cfg.c **** 		CyDelayCycles(10u * 48u); /* Delay 10us based on 48MHz clock */
ARM GAS  C:\Users\JohnP\AppData\Local\Temp\ccTBAowt.s 			page 13


 344              		.loc 1 248 0 discriminator 1
 345 00a0 3046     		mov	r0, r6
 346 00a2 FFF7FEFF 		bl	CyDelayCycles
 347              	.LVL26:
 245:.\Generated_Source\PSoC5/cyfitter_cfg.c **** 	for (timeout = 250u / 10u; (timeout > 0u) && (pllLock != 0x03u); timeout--)
 348              		.loc 1 245 0 discriminator 1
 349 00a6 013C     		subs	r4, r4, #1
 350              	.LVL27:
 351              	.L17:
 352 00a8 0CB1     		cbz	r4, .L18
 245:.\Generated_Source\PSoC5/cyfitter_cfg.c **** 	for (timeout = 250u / 10u; (timeout > 0u) && (pllLock != 0x03u); timeout--)
 353              		.loc 1 245 0 is_stmt 0 discriminator 2
 354 00aa 032D     		cmp	r5, #3
 355 00ac F1D1     		bne	.L19
 356              	.L18:
 251:.\Generated_Source\PSoC5/cyfitter_cfg.c **** 	if (timeout == 0u)
 357              		.loc 1 251 0 is_stmt 1
 358 00ae 14B9     		cbnz	r4, .L20
 253:.\Generated_Source\PSoC5/cyfitter_cfg.c **** 		CyClockStartupError(CYCLOCKSTART_PLL_ERROR);
 359              		.loc 1 253 0
 360 00b0 0320     		movs	r0, #3
 361 00b2 FFF7FEFF 		bl	CyClockStartupError
 362              	.LVL28:
 363              	.L20:
 257:.\Generated_Source\PSoC5/cyfitter_cfg.c **** 	CY_SET_XTND_REG16((void CYFAR *)(CYREG_CLKDIST_MSTR0), 0x0100u);
 364              		.loc 1 257 0
 365 00b6 0F4A     		ldr	r2, .L21+12
 366 00b8 4FF48073 		mov	r3, #256
 367 00bc 1380     		strh	r3, [r2]	@ movhi
 258:.\Generated_Source\PSoC5/cyfitter_cfg.c **** 	CY_SET_XTND_REG8((void CYFAR *)(CYREG_CLKDIST_MSTR0), 0x07u);
 368              		.loc 1 258 0
 369 00be 0723     		movs	r3, #7
 370 00c0 1370     		strb	r3, [r2]
 259:.\Generated_Source\PSoC5/cyfitter_cfg.c **** 	CY_SET_XTND_REG8((void CYFAR *)(CYREG_CLKDIST_BCFG0), 0x00u);
 371              		.loc 1 259 0
 372 00c2 0023     		movs	r3, #0
 373 00c4 0C49     		ldr	r1, .L21+16
 374 00c6 0B70     		strb	r3, [r1]
 260:.\Generated_Source\PSoC5/cyfitter_cfg.c **** 	CY_SET_XTND_REG8((void CYFAR *)(CYREG_CLKDIST_BCFG2), 0x48u);
 375              		.loc 1 260 0
 376 00c8 4820     		movs	r0, #72
 377 00ca 0231     		adds	r1, r1, #2
 378 00cc 0870     		strb	r0, [r1]
 261:.\Generated_Source\PSoC5/cyfitter_cfg.c **** 	CY_SET_XTND_REG8((void CYFAR *)(CYREG_CLKDIST_MSTR0), 0x00u);
 379              		.loc 1 261 0
 380 00ce 1370     		strb	r3, [r2]
 264:.\Generated_Source\PSoC5/cyfitter_cfg.c **** 	CY_SET_XTND_REG8((void CYFAR *)(CYREG_CLKDIST_UCFG), 0x00u);
 381              		.loc 1 264 0
 382 00d0 0532     		adds	r2, r2, #5
 383 00d2 1370     		strb	r3, [r2]
 265:.\Generated_Source\PSoC5/cyfitter_cfg.c **** 	CY_SET_XTND_REG8((void CYFAR *)(CYREG_CLKDIST_LD), 0x02u);
 384              		.loc 1 265 0
 385 00d4 0222     		movs	r2, #2
 386 00d6 094B     		ldr	r3, .L21+20
 387 00d8 1A70     		strb	r2, [r3]
 267:.\Generated_Source\PSoC5/cyfitter_cfg.c **** 	CY_SET_XTND_REG8((void CYFAR *)(CYREG_PM_ACT_CFG2), ((CY_GET_XTND_REG8((void CYFAR *)CYREG_PM_ACT_
 388              		.loc 1 267 0
ARM GAS  C:\Users\JohnP\AppData\Local\Temp\ccTBAowt.s 			page 14


 389 00da 03F2A133 		addw	r3, r3, #929
 390 00de 1A78     		ldrb	r2, [r3]	@ zero_extendqisi2
 391 00e0 42F00702 		orr	r2, r2, #7
 392 00e4 1A70     		strb	r2, [r3]
 393 00e6 F8BD     		pop	{r3, r4, r5, r6, r7, pc}
 394              	.LVL29:
 395              	.L22:
 396              		.align	2
 397              	.L21:
 398 00e8 80400040 		.word	1073758336
 399 00ec 10420040 		.word	1073758736
 400 00f0 25420040 		.word	1073758757
 401 00f4 04400040 		.word	1073758212
 402 00f8 06400040 		.word	1073758214
 403 00fc 01400040 		.word	1073758209
 404              		.cfi_endproc
 405              	.LFE5:
 406              		.size	ClockSetup, .-ClockSetup
 407              		.section	.text.CYCONFIGCPY,"ax",%progbits
 408              		.align	2
 409              		.thumb
 410              		.thumb_func
 411              		.type	CYCONFIGCPY, %function
 412              	CYCONFIGCPY:
 413              	.LFB1:
  68:.\Generated_Source\PSoC5/cyfitter_cfg.c **** {
 414              		.loc 1 68 0
 415              		.cfi_startproc
 416              		@ args = 0, pretend = 0, frame = 0
 417              		@ frame_needed = 0, uses_anonymous_args = 0
 418              	.LVL30:
 419 0000 08B5     		push	{r3, lr}
 420              		.cfi_def_cfa_offset 8
 421              		.cfi_offset 3, -8
 422              		.cfi_offset 14, -4
  69:.\Generated_Source\PSoC5/cyfitter_cfg.c **** 	(void)memcpy(dest, src, n);
 423              		.loc 1 69 0
 424 0002 FFF7FEFF 		bl	memcpy
 425              	.LVL31:
 426 0006 08BD     		pop	{r3, pc}
 427              		.cfi_endproc
 428              	.LFE1:
 429              		.size	CYCONFIGCPY, .-CYCONFIGCPY
 430              		.section	.text.SetAnalogRoutingPumps,"ax",%progbits
 431              		.align	2
 432              		.global	SetAnalogRoutingPumps
 433              		.thumb
 434              		.thumb_func
 435              		.type	SetAnalogRoutingPumps, %function
 436              	SetAnalogRoutingPumps:
 437              	.LFB7:
 307:.\Generated_Source\PSoC5/cyfitter_cfg.c **** }
 308:.\Generated_Source\PSoC5/cyfitter_cfg.c **** 
 309:.\Generated_Source\PSoC5/cyfitter_cfg.c **** 
 310:.\Generated_Source\PSoC5/cyfitter_cfg.c **** /*******************************************************************************
 311:.\Generated_Source\PSoC5/cyfitter_cfg.c **** * Function Name: SetAnalogRoutingPumps
 312:.\Generated_Source\PSoC5/cyfitter_cfg.c **** ********************************************************************************
ARM GAS  C:\Users\JohnP\AppData\Local\Temp\ccTBAowt.s 			page 15


 313:.\Generated_Source\PSoC5/cyfitter_cfg.c **** *
 314:.\Generated_Source\PSoC5/cyfitter_cfg.c **** * Summary:
 315:.\Generated_Source\PSoC5/cyfitter_cfg.c **** * Enables or disables the analog pumps feeding analog routing switches.
 316:.\Generated_Source\PSoC5/cyfitter_cfg.c **** * Intended to be called at startup, based on the Vdda system configuration;
 317:.\Generated_Source\PSoC5/cyfitter_cfg.c **** * may be called during operation when the user informs us that the Vdda voltage
 318:.\Generated_Source\PSoC5/cyfitter_cfg.c **** * crossed the pump threshold.
 319:.\Generated_Source\PSoC5/cyfitter_cfg.c **** *
 320:.\Generated_Source\PSoC5/cyfitter_cfg.c **** * Parameters:
 321:.\Generated_Source\PSoC5/cyfitter_cfg.c **** *  enabled - 1 to enable the pumps, 0 to disable the pumps
 322:.\Generated_Source\PSoC5/cyfitter_cfg.c **** *
 323:.\Generated_Source\PSoC5/cyfitter_cfg.c **** * Return:
 324:.\Generated_Source\PSoC5/cyfitter_cfg.c **** *  void
 325:.\Generated_Source\PSoC5/cyfitter_cfg.c **** *
 326:.\Generated_Source\PSoC5/cyfitter_cfg.c **** *******************************************************************************/
 327:.\Generated_Source\PSoC5/cyfitter_cfg.c **** void SetAnalogRoutingPumps(uint8 enabled)
 328:.\Generated_Source\PSoC5/cyfitter_cfg.c **** {
 438              		.loc 1 328 0
 439              		.cfi_startproc
 440              		@ args = 0, pretend = 0, frame = 0
 441              		@ frame_needed = 0, uses_anonymous_args = 0
 442              		@ link register save eliminated.
 443              	.LVL32:
 329:.\Generated_Source\PSoC5/cyfitter_cfg.c **** 	uint8 regValue = CY_GET_XTND_REG8((void CYFAR *)CYREG_PUMP_CR0);
 444              		.loc 1 329 0
 445 0000 054B     		ldr	r3, .L27
 446 0002 1B78     		ldrb	r3, [r3]	@ zero_extendqisi2
 447 0004 DBB2     		uxtb	r3, r3
 448              	.LVL33:
 330:.\Generated_Source\PSoC5/cyfitter_cfg.c **** 	if (enabled != 0u)
 449              		.loc 1 330 0
 450 0006 10B1     		cbz	r0, .L25
 331:.\Generated_Source\PSoC5/cyfitter_cfg.c **** 	{
 332:.\Generated_Source\PSoC5/cyfitter_cfg.c **** 		regValue |= 0x22u;
 451              		.loc 1 332 0
 452 0008 43F02203 		orr	r3, r3, #34
 453              	.LVL34:
 454 000c 01E0     		b	.L26
 455              	.L25:
 333:.\Generated_Source\PSoC5/cyfitter_cfg.c **** 	}
 334:.\Generated_Source\PSoC5/cyfitter_cfg.c **** 	else
 335:.\Generated_Source\PSoC5/cyfitter_cfg.c **** 	{
 336:.\Generated_Source\PSoC5/cyfitter_cfg.c **** 		regValue &= (uint8)~0x22u;
 456              		.loc 1 336 0
 457 000e 03F0DD03 		and	r3, r3, #221
 458              	.LVL35:
 459              	.L26:
 337:.\Generated_Source\PSoC5/cyfitter_cfg.c **** 	}
 338:.\Generated_Source\PSoC5/cyfitter_cfg.c **** 	CY_SET_XTND_REG8((void CYFAR *)CYREG_PUMP_CR0, regValue);
 460              		.loc 1 338 0
 461 0012 014A     		ldr	r2, .L27
 462 0014 1370     		strb	r3, [r2]
 463 0016 7047     		bx	lr
 464              	.L28:
 465              		.align	2
 466              	.L27:
 467 0018 76580040 		.word	1073764470
 468              		.cfi_endproc
ARM GAS  C:\Users\JohnP\AppData\Local\Temp\ccTBAowt.s 			page 16


 469              	.LFE7:
 470              		.size	SetAnalogRoutingPumps, .-SetAnalogRoutingPumps
 471              		.section	.text.CapSense_AMuxCH0_Set,"ax",%progbits
 472              		.align	2
 473              		.global	CapSense_AMuxCH0_Set
 474              		.thumb
 475              		.thumb_func
 476              		.type	CapSense_AMuxCH0_Set, %function
 477              	CapSense_AMuxCH0_Set:
 478              	.LFB8:
 339:.\Generated_Source\PSoC5/cyfitter_cfg.c **** }
 340:.\Generated_Source\PSoC5/cyfitter_cfg.c **** 
 341:.\Generated_Source\PSoC5/cyfitter_cfg.c **** #define CY_AMUX_UNUSED CYREG_BOOST_SR
 342:.\Generated_Source\PSoC5/cyfitter_cfg.c **** /* This is an implementation detail of the AMux. Code that depends on it may be
 343:.\Generated_Source\PSoC5/cyfitter_cfg.c ****    incompatible with other versions of PSoC Creator. */
 344:.\Generated_Source\PSoC5/cyfitter_cfg.c **** uint8 CYXDATA * const CYCODE CapSense_AMuxCH0__addrTable[10] = {
 345:.\Generated_Source\PSoC5/cyfitter_cfg.c **** 	(uint8 CYXDATA *)CYREG_PRT5_AMUX, 
 346:.\Generated_Source\PSoC5/cyfitter_cfg.c **** 	(uint8 CYXDATA *)CYREG_PRT5_AMUX, 
 347:.\Generated_Source\PSoC5/cyfitter_cfg.c **** 	(uint8 CYXDATA *)CYREG_PRT5_AMUX, 
 348:.\Generated_Source\PSoC5/cyfitter_cfg.c **** 	(uint8 CYXDATA *)CYREG_PRT5_AMUX, 
 349:.\Generated_Source\PSoC5/cyfitter_cfg.c **** 	(uint8 CYXDATA *)CYREG_PRT5_AMUX, 
 350:.\Generated_Source\PSoC5/cyfitter_cfg.c **** 	(uint8 CYXDATA *)CYREG_PRT5_AMUX, 
 351:.\Generated_Source\PSoC5/cyfitter_cfg.c **** 	(uint8 CYXDATA *)CYREG_PRT5_AMUX, 
 352:.\Generated_Source\PSoC5/cyfitter_cfg.c **** 	(uint8 CYXDATA *)CYREG_PRT6_AMUX, 
 353:.\Generated_Source\PSoC5/cyfitter_cfg.c **** 	(uint8 CYXDATA *)CYREG_CMP2_SW3, 
 354:.\Generated_Source\PSoC5/cyfitter_cfg.c **** 	(uint8 CYXDATA *)CYREG_DAC0_SW3, 
 355:.\Generated_Source\PSoC5/cyfitter_cfg.c **** };
 356:.\Generated_Source\PSoC5/cyfitter_cfg.c **** 
 357:.\Generated_Source\PSoC5/cyfitter_cfg.c **** /* This is an implementation detail of the AMux. Code that depends on it may be
 358:.\Generated_Source\PSoC5/cyfitter_cfg.c ****    incompatible with other versions of PSoC Creator. */
 359:.\Generated_Source\PSoC5/cyfitter_cfg.c **** const uint8 CYCODE CapSense_AMuxCH0__maskTable[10] = {
 360:.\Generated_Source\PSoC5/cyfitter_cfg.c **** 	0x20u, 
 361:.\Generated_Source\PSoC5/cyfitter_cfg.c **** 	0x40u, 
 362:.\Generated_Source\PSoC5/cyfitter_cfg.c **** 	0x01u, 
 363:.\Generated_Source\PSoC5/cyfitter_cfg.c **** 	0x02u, 
 364:.\Generated_Source\PSoC5/cyfitter_cfg.c **** 	0x04u, 
 365:.\Generated_Source\PSoC5/cyfitter_cfg.c **** 	0x08u, 
 366:.\Generated_Source\PSoC5/cyfitter_cfg.c **** 	0x10u, 
 367:.\Generated_Source\PSoC5/cyfitter_cfg.c **** 	0x10u, 
 368:.\Generated_Source\PSoC5/cyfitter_cfg.c **** 	0x01u, 
 369:.\Generated_Source\PSoC5/cyfitter_cfg.c **** 	0x10u, 
 370:.\Generated_Source\PSoC5/cyfitter_cfg.c **** };
 371:.\Generated_Source\PSoC5/cyfitter_cfg.c **** 
 372:.\Generated_Source\PSoC5/cyfitter_cfg.c **** /*******************************************************************************
 373:.\Generated_Source\PSoC5/cyfitter_cfg.c **** * Function Name: CapSense_AMuxCH0_Set
 374:.\Generated_Source\PSoC5/cyfitter_cfg.c **** ********************************************************************************
 375:.\Generated_Source\PSoC5/cyfitter_cfg.c **** * Summary:
 376:.\Generated_Source\PSoC5/cyfitter_cfg.c **** *  This function is used to set a particular channel as active on the AMux.
 377:.\Generated_Source\PSoC5/cyfitter_cfg.c **** *
 378:.\Generated_Source\PSoC5/cyfitter_cfg.c **** * Parameters:  
 379:.\Generated_Source\PSoC5/cyfitter_cfg.c **** *   channel - The mux channel input to set as active
 380:.\Generated_Source\PSoC5/cyfitter_cfg.c **** *
 381:.\Generated_Source\PSoC5/cyfitter_cfg.c **** * Return:
 382:.\Generated_Source\PSoC5/cyfitter_cfg.c **** *   void
 383:.\Generated_Source\PSoC5/cyfitter_cfg.c **** *
 384:.\Generated_Source\PSoC5/cyfitter_cfg.c **** *******************************************************************************/
 385:.\Generated_Source\PSoC5/cyfitter_cfg.c **** void CapSense_AMuxCH0_Set(uint8 channel)
ARM GAS  C:\Users\JohnP\AppData\Local\Temp\ccTBAowt.s 			page 17


 386:.\Generated_Source\PSoC5/cyfitter_cfg.c **** {
 479              		.loc 1 386 0
 480              		.cfi_startproc
 481              		@ args = 0, pretend = 0, frame = 0
 482              		@ frame_needed = 0, uses_anonymous_args = 0
 483              		@ link register save eliminated.
 484              	.LVL36:
 387:.\Generated_Source\PSoC5/cyfitter_cfg.c **** 	if (channel < 10)
 485              		.loc 1 387 0
 486 0000 0928     		cmp	r0, #9
 487 0002 08D8     		bhi	.L29
 388:.\Generated_Source\PSoC5/cyfitter_cfg.c **** 	{
 389:.\Generated_Source\PSoC5/cyfitter_cfg.c **** 		*CapSense_AMuxCH0__addrTable[channel] |= CapSense_AMuxCH0__maskTable[channel];
 488              		.loc 1 389 0
 489 0004 044A     		ldr	r2, .L31
 490 0006 52F82030 		ldr	r3, [r2, r0, lsl #2]
 491 000a 1044     		add	r0, r0, r2
 492              	.LVL37:
 493 000c 90F82810 		ldrb	r1, [r0, #40]	@ zero_extendqisi2
 494 0010 1A78     		ldrb	r2, [r3]	@ zero_extendqisi2
 495 0012 0A43     		orrs	r2, r2, r1
 496 0014 1A70     		strb	r2, [r3]
 497              	.L29:
 498 0016 7047     		bx	lr
 499              	.L32:
 500              		.align	2
 501              	.L31:
 502 0018 00000000 		.word	.LANCHOR0
 503              		.cfi_endproc
 504              	.LFE8:
 505              		.size	CapSense_AMuxCH0_Set, .-CapSense_AMuxCH0_Set
 506              		.section	.text.CapSense_AMuxCH0_Unset,"ax",%progbits
 507              		.align	2
 508              		.global	CapSense_AMuxCH0_Unset
 509              		.thumb
 510              		.thumb_func
 511              		.type	CapSense_AMuxCH0_Unset, %function
 512              	CapSense_AMuxCH0_Unset:
 513              	.LFB9:
 390:.\Generated_Source\PSoC5/cyfitter_cfg.c **** 	}
 391:.\Generated_Source\PSoC5/cyfitter_cfg.c **** }
 392:.\Generated_Source\PSoC5/cyfitter_cfg.c **** 
 393:.\Generated_Source\PSoC5/cyfitter_cfg.c **** /*******************************************************************************
 394:.\Generated_Source\PSoC5/cyfitter_cfg.c **** * Function Name: CapSense_AMuxCH0_Unset
 395:.\Generated_Source\PSoC5/cyfitter_cfg.c **** ********************************************************************************
 396:.\Generated_Source\PSoC5/cyfitter_cfg.c **** * Summary:
 397:.\Generated_Source\PSoC5/cyfitter_cfg.c **** *  This function is used to clear a particular channel from being active on the
 398:.\Generated_Source\PSoC5/cyfitter_cfg.c **** *  AMux.
 399:.\Generated_Source\PSoC5/cyfitter_cfg.c **** *
 400:.\Generated_Source\PSoC5/cyfitter_cfg.c **** * Parameters:  
 401:.\Generated_Source\PSoC5/cyfitter_cfg.c **** *   channel - The mux channel input to mark inactive
 402:.\Generated_Source\PSoC5/cyfitter_cfg.c **** *
 403:.\Generated_Source\PSoC5/cyfitter_cfg.c **** * Return:
 404:.\Generated_Source\PSoC5/cyfitter_cfg.c **** *   void
 405:.\Generated_Source\PSoC5/cyfitter_cfg.c **** *
 406:.\Generated_Source\PSoC5/cyfitter_cfg.c **** *******************************************************************************/
 407:.\Generated_Source\PSoC5/cyfitter_cfg.c **** void CapSense_AMuxCH0_Unset(uint8 channel)
ARM GAS  C:\Users\JohnP\AppData\Local\Temp\ccTBAowt.s 			page 18


 408:.\Generated_Source\PSoC5/cyfitter_cfg.c **** {
 514              		.loc 1 408 0
 515              		.cfi_startproc
 516              		@ args = 0, pretend = 0, frame = 0
 517              		@ frame_needed = 0, uses_anonymous_args = 0
 518              		@ link register save eliminated.
 519              	.LVL38:
 409:.\Generated_Source\PSoC5/cyfitter_cfg.c **** 	if (channel < 10)
 520              		.loc 1 409 0
 521 0000 0928     		cmp	r0, #9
 522 0002 09D8     		bhi	.L33
 410:.\Generated_Source\PSoC5/cyfitter_cfg.c **** 	{
 411:.\Generated_Source\PSoC5/cyfitter_cfg.c **** 		*CapSense_AMuxCH0__addrTable[channel] &= (uint8)~CapSense_AMuxCH0__maskTable[channel];
 523              		.loc 1 411 0
 524 0004 054A     		ldr	r2, .L35
 525 0006 52F82030 		ldr	r3, [r2, r0, lsl #2]
 526 000a 1044     		add	r0, r0, r2
 527              	.LVL39:
 528 000c 90F82810 		ldrb	r1, [r0, #40]	@ zero_extendqisi2
 529 0010 1A78     		ldrb	r2, [r3]	@ zero_extendqisi2
 530 0012 22EA0102 		bic	r2, r2, r1
 531 0016 1A70     		strb	r2, [r3]
 532              	.L33:
 533 0018 7047     		bx	lr
 534              	.L36:
 535 001a 00BF     		.align	2
 536              	.L35:
 537 001c 00000000 		.word	.LANCHOR0
 538              		.cfi_endproc
 539              	.LFE9:
 540              		.size	CapSense_AMuxCH0_Unset, .-CapSense_AMuxCH0_Unset
 541              		.section	.text.cyfitter_cfg,"ax",%progbits
 542              		.align	2
 543              		.global	cyfitter_cfg
 544              		.thumb
 545              		.thumb_func
 546              		.type	cyfitter_cfg, %function
 547              	cyfitter_cfg:
 548              	.LFB10:
 412:.\Generated_Source\PSoC5/cyfitter_cfg.c **** 	}
 413:.\Generated_Source\PSoC5/cyfitter_cfg.c **** }
 414:.\Generated_Source\PSoC5/cyfitter_cfg.c **** 
 415:.\Generated_Source\PSoC5/cyfitter_cfg.c **** 
 416:.\Generated_Source\PSoC5/cyfitter_cfg.c **** 
 417:.\Generated_Source\PSoC5/cyfitter_cfg.c **** /*******************************************************************************
 418:.\Generated_Source\PSoC5/cyfitter_cfg.c **** * Function Name: cyfitter_cfg
 419:.\Generated_Source\PSoC5/cyfitter_cfg.c **** ********************************************************************************
 420:.\Generated_Source\PSoC5/cyfitter_cfg.c **** * Summary:
 421:.\Generated_Source\PSoC5/cyfitter_cfg.c **** *  This function is called by the start-up code for the selected device. It
 422:.\Generated_Source\PSoC5/cyfitter_cfg.c **** *  performs all of the necessary device configuration based on the design
 423:.\Generated_Source\PSoC5/cyfitter_cfg.c **** *  settings.  This includes settings from the Design Wide Resources (DWR) such
 424:.\Generated_Source\PSoC5/cyfitter_cfg.c **** *  as Clocks and Pins as well as any component configuration that is necessary.
 425:.\Generated_Source\PSoC5/cyfitter_cfg.c **** *
 426:.\Generated_Source\PSoC5/cyfitter_cfg.c **** * Parameters:  
 427:.\Generated_Source\PSoC5/cyfitter_cfg.c **** *   void
 428:.\Generated_Source\PSoC5/cyfitter_cfg.c **** *
 429:.\Generated_Source\PSoC5/cyfitter_cfg.c **** * Return:
ARM GAS  C:\Users\JohnP\AppData\Local\Temp\ccTBAowt.s 			page 19


 430:.\Generated_Source\PSoC5/cyfitter_cfg.c **** *   void
 431:.\Generated_Source\PSoC5/cyfitter_cfg.c **** *
 432:.\Generated_Source\PSoC5/cyfitter_cfg.c **** *******************************************************************************/
 433:.\Generated_Source\PSoC5/cyfitter_cfg.c **** 
 434:.\Generated_Source\PSoC5/cyfitter_cfg.c **** void cyfitter_cfg(void)
 435:.\Generated_Source\PSoC5/cyfitter_cfg.c **** {
 549              		.loc 1 435 0
 550              		.cfi_startproc
 551              		@ args = 0, pretend = 0, frame = 0
 552              		@ frame_needed = 0, uses_anonymous_args = 0
 553 0000 38B5     		push	{r3, r4, r5, lr}
 554              		.cfi_def_cfa_offset 16
 555              		.cfi_offset 3, -16
 556              		.cfi_offset 4, -12
 557              		.cfi_offset 5, -8
 558              		.cfi_offset 14, -4
 436:.\Generated_Source\PSoC5/cyfitter_cfg.c **** #ifdef CYGlobalIntDisable
 437:.\Generated_Source\PSoC5/cyfitter_cfg.c **** 	/* Disable interrupts by default. Let user enable if/when they want. */
 438:.\Generated_Source\PSoC5/cyfitter_cfg.c **** 	CYGlobalIntDisable
 559              		.loc 1 438 0
 560              	@ 438 ".\Generated_Source\PSoC5\cyfitter_cfg.c" 1
 561 0002 72B6     		CPSID   i
 562              	@ 0 "" 2
 439:.\Generated_Source\PSoC5/cyfitter_cfg.c **** #endif
 440:.\Generated_Source\PSoC5/cyfitter_cfg.c **** 
 441:.\Generated_Source\PSoC5/cyfitter_cfg.c **** 	/* Enable/Disable Debug functionality based on settings from System DWR */
 442:.\Generated_Source\PSoC5/cyfitter_cfg.c **** 	CY_SET_XTND_REG8((void CYFAR *)CYREG_MLOGIC_DEBUG, (CY_GET_XTND_REG8((void CYFAR *)CYREG_MLOGIC_DE
 563              		.loc 1 442 0
 564              		.thumb
 565 0004 3B4B     		ldr	r3, .L40
 566 0006 1A78     		ldrb	r2, [r3]	@ zero_extendqisi2
 567 0008 42F00402 		orr	r2, r2, #4
 568 000c 1A70     		strb	r2, [r3]
 569              	.LVL40:
 570              	.LBB3:
 443:.\Generated_Source\PSoC5/cyfitter_cfg.c **** 
 444:.\Generated_Source\PSoC5/cyfitter_cfg.c **** 	{
 445:.\Generated_Source\PSoC5/cyfitter_cfg.c **** 
 446:.\Generated_Source\PSoC5/cyfitter_cfg.c **** 		CYPACKED typedef struct {
 447:.\Generated_Source\PSoC5/cyfitter_cfg.c **** 			void CYFAR *address;
 448:.\Generated_Source\PSoC5/cyfitter_cfg.c **** 			uint16 size;
 449:.\Generated_Source\PSoC5/cyfitter_cfg.c **** 		} CYPACKED_ATTR cfg_memset_t;
 450:.\Generated_Source\PSoC5/cyfitter_cfg.c **** 
 451:.\Generated_Source\PSoC5/cyfitter_cfg.c **** 		static const cfg_memset_t CYCODE cfg_memset_list [] = {
 452:.\Generated_Source\PSoC5/cyfitter_cfg.c **** 			/* address, size */
 453:.\Generated_Source\PSoC5/cyfitter_cfg.c **** 			{(void CYFAR *)(CYREG_PRT0_DR), 32u},
 454:.\Generated_Source\PSoC5/cyfitter_cfg.c **** 			{(void CYFAR *)(CYREG_PRT3_DR), 16u},
 455:.\Generated_Source\PSoC5/cyfitter_cfg.c **** 			{(void CYFAR *)(CYDEV_UCFG_B0_P0_U0_BASE), 4096u},
 456:.\Generated_Source\PSoC5/cyfitter_cfg.c **** 			{(void CYFAR *)(CYDEV_UCFG_B1_P2_U0_BASE), 2048u},
 457:.\Generated_Source\PSoC5/cyfitter_cfg.c **** 			{(void CYFAR *)(CYDEV_UCFG_DSI0_BASE), 2560u},
 458:.\Generated_Source\PSoC5/cyfitter_cfg.c **** 			{(void CYFAR *)(CYDEV_UCFG_DSI12_BASE), 512u},
 459:.\Generated_Source\PSoC5/cyfitter_cfg.c **** 			{(void CYFAR *)(CYREG_BCTL0_MDCLK_EN), 32u},
 460:.\Generated_Source\PSoC5/cyfitter_cfg.c **** 		};
 461:.\Generated_Source\PSoC5/cyfitter_cfg.c **** 
 462:.\Generated_Source\PSoC5/cyfitter_cfg.c **** 		uint8 CYDATA i;
 463:.\Generated_Source\PSoC5/cyfitter_cfg.c **** 
 464:.\Generated_Source\PSoC5/cyfitter_cfg.c **** 		/* Zero out critical memory blocks before beginning configuration */
ARM GAS  C:\Users\JohnP\AppData\Local\Temp\ccTBAowt.s 			page 20


 465:.\Generated_Source\PSoC5/cyfitter_cfg.c **** 		for (i = 0u; i < (sizeof(cfg_memset_list)/sizeof(cfg_memset_list[0])); i++)
 571              		.loc 1 465 0
 572 000e 0024     		movs	r4, #0
 573              	.LBB4:
 466:.\Generated_Source\PSoC5/cyfitter_cfg.c **** 		{
 467:.\Generated_Source\PSoC5/cyfitter_cfg.c **** 			const cfg_memset_t CYCODE * CYDATA ms = &cfg_memset_list[i];
 574              		.loc 1 467 0
 575 0010 394D     		ldr	r5, .L40+4
 576              	.LBE4:
 465:.\Generated_Source\PSoC5/cyfitter_cfg.c **** 		for (i = 0u; i < (sizeof(cfg_memset_list)/sizeof(cfg_memset_list[0])); i++)
 577              		.loc 1 465 0
 578 0012 09E0     		b	.L38
 579              	.LVL41:
 580              	.L39:
 581              	.LBB5:
 582              		.loc 1 467 0 discriminator 2
 583 0014 04EB4403 		add	r3, r4, r4, lsl #1
 584 0018 5B00     		lsls	r3, r3, #1
 585 001a 2B44     		add	r3, r3, r5
 586              	.LVL42:
 468:.\Generated_Source\PSoC5/cyfitter_cfg.c **** 			CYMEMZERO(ms->address, (size_t)(uint32)(ms->size));
 587              		.loc 1 468 0 discriminator 2
 588 001c 1868     		ldr	r0, [r3]	@ unaligned
 589 001e 9988     		ldrh	r1, [r3, #4]
 590 0020 FFF7FEFF 		bl	CYMEMZERO
 591              	.LVL43:
 592              	.LBE5:
 465:.\Generated_Source\PSoC5/cyfitter_cfg.c **** 		for (i = 0u; i < (sizeof(cfg_memset_list)/sizeof(cfg_memset_list[0])); i++)
 593              		.loc 1 465 0 discriminator 2
 594 0024 0134     		adds	r4, r4, #1
 595              	.LVL44:
 596 0026 E4B2     		uxtb	r4, r4
 597              	.LVL45:
 598              	.L38:
 465:.\Generated_Source\PSoC5/cyfitter_cfg.c **** 		for (i = 0u; i < (sizeof(cfg_memset_list)/sizeof(cfg_memset_list[0])); i++)
 599              		.loc 1 465 0 is_stmt 0 discriminator 1
 600 0028 062C     		cmp	r4, #6
 601 002a F3D9     		bls	.L39
 469:.\Generated_Source\PSoC5/cyfitter_cfg.c **** 		}
 470:.\Generated_Source\PSoC5/cyfitter_cfg.c **** 
 471:.\Generated_Source\PSoC5/cyfitter_cfg.c **** 		cfg_write_bytes32(cy_cfg_addr_table, cy_cfg_data_table);
 602              		.loc 1 471 0 is_stmt 1
 603 002c 4FF09040 		mov	r0, #1207959552
 604 0030 3249     		ldr	r1, .L40+8
 605 0032 FFF7FEFF 		bl	cfg_write_bytes32
 606              	.LVL46:
 472:.\Generated_Source\PSoC5/cyfitter_cfg.c **** 
 473:.\Generated_Source\PSoC5/cyfitter_cfg.c **** 		/* Perform normal device configuration. Order is not critical for these items. */
 474:.\Generated_Source\PSoC5/cyfitter_cfg.c **** 		CY_SET_XTND_REG16((void CYFAR *)(CYREG_CAPSR_CFG0), 0x0300u);
 607              		.loc 1 474 0
 608 0036 4FF44072 		mov	r2, #768
 609 003a 314B     		ldr	r3, .L40+12
 610 003c 1A80     		strh	r2, [r3]	@ movhi
 475:.\Generated_Source\PSoC5/cyfitter_cfg.c **** 		CY_SET_XTND_REG16((void CYFAR *)(CYREG_LUT0_CR), 0x0003u);
 611              		.loc 1 475 0
 612 003e 0322     		movs	r2, #3
 613 0040 2A3B     		subs	r3, r3, #42
ARM GAS  C:\Users\JohnP\AppData\Local\Temp\ccTBAowt.s 			page 21


 614 0042 1A80     		strh	r2, [r3]	@ movhi
 476:.\Generated_Source\PSoC5/cyfitter_cfg.c **** 		CY_SET_XTND_REG16((void CYFAR *)(CYREG_LUT2_CR), 0x0203u);
 615              		.loc 1 476 0
 616 0044 40F20322 		movw	r2, #515
 617 0048 0433     		adds	r3, r3, #4
 618 004a 1A80     		strh	r2, [r3]	@ movhi
 477:.\Generated_Source\PSoC5/cyfitter_cfg.c **** 		CYMEMZERO((void CYFAR *)(CYREG_PHUB_CFGMEM0_CFG0), 4u);
 619              		.loc 1 477 0
 620 004c 2D48     		ldr	r0, .L40+16
 621 004e 0421     		movs	r1, #4
 622 0050 FFF7FEFF 		bl	CYMEMZERO
 623              	.LVL47:
 478:.\Generated_Source\PSoC5/cyfitter_cfg.c **** 		CYMEMZERO((void CYFAR *)(CYREG_PHUB_CFGMEM1_CFG0), 4u);
 624              		.loc 1 478 0
 625 0054 2C48     		ldr	r0, .L40+20
 626 0056 0421     		movs	r1, #4
 627 0058 FFF7FEFF 		bl	CYMEMZERO
 628              	.LVL48:
 479:.\Generated_Source\PSoC5/cyfitter_cfg.c **** 
 480:.\Generated_Source\PSoC5/cyfitter_cfg.c **** 		/* Enable digital routing */
 481:.\Generated_Source\PSoC5/cyfitter_cfg.c **** 		CY_SET_XTND_REG8((void CYFAR *)CYREG_BCTL0_BANK_CTL, CY_GET_XTND_REG8((void CYFAR *)CYREG_BCTL0_B
 629              		.loc 1 481 0
 630 005c 2B4B     		ldr	r3, .L40+24
 631 005e 1A78     		ldrb	r2, [r3]	@ zero_extendqisi2
 632 0060 42F00202 		orr	r2, r2, #2
 633 0064 1A70     		strb	r2, [r3]
 482:.\Generated_Source\PSoC5/cyfitter_cfg.c **** 		CY_SET_XTND_REG8((void CYFAR *)CYREG_BCTL1_BANK_CTL, CY_GET_XTND_REG8((void CYFAR *)CYREG_BCTL1_B
 634              		.loc 1 482 0
 635 0066 1033     		adds	r3, r3, #16
 636 0068 1A78     		ldrb	r2, [r3]	@ zero_extendqisi2
 637 006a 42F00202 		orr	r2, r2, #2
 638 006e 1A70     		strb	r2, [r3]
 483:.\Generated_Source\PSoC5/cyfitter_cfg.c **** 
 484:.\Generated_Source\PSoC5/cyfitter_cfg.c **** 		/* Enable UDB array */
 485:.\Generated_Source\PSoC5/cyfitter_cfg.c **** 		CY_SET_XTND_REG8((void CYFAR *)CYREG_PM_ACT_CFG0, CY_GET_XTND_REG8((void CYFAR *)CYREG_PM_ACT_CFG
 639              		.loc 1 485 0
 640 0070 274C     		ldr	r4, .L40+28
 641              	.LVL49:
 642 0072 2378     		ldrb	r3, [r4]	@ zero_extendqisi2
 643 0074 43F04003 		orr	r3, r3, #64
 644 0078 2370     		strb	r3, [r4]
 486:.\Generated_Source\PSoC5/cyfitter_cfg.c **** 		CY_SET_XTND_REG8((void CYFAR *)CYREG_PM_AVAIL_CR2, CY_GET_XTND_REG8((void CYFAR *)CYREG_PM_AVAIL_
 645              		.loc 1 486 0
 646 007a 264B     		ldr	r3, .L40+32
 647 007c 1A78     		ldrb	r2, [r3]	@ zero_extendqisi2
 648 007e 42F01002 		orr	r2, r2, #16
 649 0082 1A70     		strb	r2, [r3]
 650              	.LBE3:
 487:.\Generated_Source\PSoC5/cyfitter_cfg.c **** 	}
 488:.\Generated_Source\PSoC5/cyfitter_cfg.c **** 
 489:.\Generated_Source\PSoC5/cyfitter_cfg.c **** 
 490:.\Generated_Source\PSoC5/cyfitter_cfg.c **** 	/* Perform second pass device configuration. These items must be configured in specific order afte
 491:.\Generated_Source\PSoC5/cyfitter_cfg.c **** 	CYCONFIGCPY((void CYFAR *)(CYREG_PRT12_DM0), (const void CYFAR *)(BS_IOPINS0_7_VAL), 8u);
 651              		.loc 1 491 0
 652 0084 2448     		ldr	r0, .L40+36
 653 0086 2549     		ldr	r1, .L40+40
 654 0088 0822     		movs	r2, #8
ARM GAS  C:\Users\JohnP\AppData\Local\Temp\ccTBAowt.s 			page 22


 655 008a FFF7FEFF 		bl	CYCONFIGCPY
 656              	.LVL50:
 492:.\Generated_Source\PSoC5/cyfitter_cfg.c **** 	CYCONFIGCPY((void CYFAR *)(CYREG_PRT15_DR), (const void CYFAR *)(BS_IOPINS0_8_VAL), 10u);
 657              		.loc 1 492 0
 658 008e 2448     		ldr	r0, .L40+44
 659 0090 2449     		ldr	r1, .L40+48
 660 0092 0A22     		movs	r2, #10
 661 0094 FFF7FEFF 		bl	CYCONFIGCPY
 662              	.LVL51:
 493:.\Generated_Source\PSoC5/cyfitter_cfg.c **** 	CYCONFIGCPY((void CYFAR *)(CYREG_PRT2_DM0), (const void CYFAR *)(BS_IOPINS0_2_VAL), 8u);
 663              		.loc 1 493 0
 664 0098 2348     		ldr	r0, .L40+52
 665 009a 2449     		ldr	r1, .L40+56
 666 009c 0822     		movs	r2, #8
 667 009e FFF7FEFF 		bl	CYCONFIGCPY
 668              	.LVL52:
 494:.\Generated_Source\PSoC5/cyfitter_cfg.c **** 	CYCONFIGCPY((void CYFAR *)(CYREG_PRT4_DM0), (const void CYFAR *)(BS_IOPINS0_4_VAL), 8u);
 669              		.loc 1 494 0
 670 00a2 2348     		ldr	r0, .L40+60
 671 00a4 2349     		ldr	r1, .L40+64
 672 00a6 0822     		movs	r2, #8
 673 00a8 FFF7FEFF 		bl	CYCONFIGCPY
 674              	.LVL53:
 495:.\Generated_Source\PSoC5/cyfitter_cfg.c **** 	CYCONFIGCPY((void CYFAR *)(CYREG_PRT5_DM0), (const void CYFAR *)(BS_IOPINS0_5_VAL), 8u);
 675              		.loc 1 495 0
 676 00ac 2248     		ldr	r0, .L40+68
 677 00ae 2349     		ldr	r1, .L40+72
 678 00b0 0822     		movs	r2, #8
 679 00b2 FFF7FEFF 		bl	CYCONFIGCPY
 680              	.LVL54:
 496:.\Generated_Source\PSoC5/cyfitter_cfg.c **** 	CYCONFIGCPY((void CYFAR *)(CYREG_PRT6_DM0), (const void CYFAR *)(BS_IOPINS0_6_VAL), 8u);
 681              		.loc 1 496 0
 682 00b6 2248     		ldr	r0, .L40+76
 683 00b8 2249     		ldr	r1, .L40+80
 684 00ba 0822     		movs	r2, #8
 685 00bc FFF7FEFF 		bl	CYCONFIGCPY
 686              	.LVL55:
 497:.\Generated_Source\PSoC5/cyfitter_cfg.c **** 	CY_SET_XTND_REG8((void CYFAR *)(CYREG_B0_P7_U1_CFG27), 0x44u);
 687              		.loc 1 497 0
 688 00c0 4422     		movs	r2, #68
 689 00c2 214B     		ldr	r3, .L40+84
 690 00c4 1A70     		strb	r2, [r3]
 498:.\Generated_Source\PSoC5/cyfitter_cfg.c **** 	/* Switch Boost to the precision bandgap reference from its internal reference */
 499:.\Generated_Source\PSoC5/cyfitter_cfg.c **** 	CY_SET_REG8((void CYXDATA *)CYREG_BOOST_CR2, (CY_GET_REG8((void CYXDATA *)CYREG_BOOST_CR2) | 0x08u
 691              		.loc 1 499 0
 692 00c6 A3F54B43 		sub	r3, r3, #51968
 693 00ca B93B     		subs	r3, r3, #185
 694 00cc 1A78     		ldrb	r2, [r3]	@ zero_extendqisi2
 695 00ce 42F00802 		orr	r2, r2, #8
 696 00d2 1A70     		strb	r2, [r3]
 500:.\Generated_Source\PSoC5/cyfitter_cfg.c **** 
 501:.\Generated_Source\PSoC5/cyfitter_cfg.c **** 	/* Set Flash Cycles based on max possible frequency in case a glitch occurs during ClockSetup(). *
 502:.\Generated_Source\PSoC5/cyfitter_cfg.c **** 	CY_SET_XTND_REG8((void CYFAR *)(CYREG_CACHE_CC_CTL), (((CYDEV_INSTRUCT_CACHE_ENABLED) != 0) ? 0x01
 697              		.loc 1 502 0
 698 00d4 1D4D     		ldr	r5, .L40+88
 699 00d6 0123     		movs	r3, #1
 700 00d8 2B70     		strb	r3, [r5]
ARM GAS  C:\Users\JohnP\AppData\Local\Temp\ccTBAowt.s 			page 23


 503:.\Generated_Source\PSoC5/cyfitter_cfg.c **** 	/* Setup clocks based on selections from Clock DWR */
 504:.\Generated_Source\PSoC5/cyfitter_cfg.c **** 	ClockSetup();
 701              		.loc 1 504 0
 702 00da FFF7FEFF 		bl	ClockSetup
 703              	.LVL56:
 505:.\Generated_Source\PSoC5/cyfitter_cfg.c **** 	/* Set Flash Cycles based on newly configured 24.00MHz Bus Clock. */
 506:.\Generated_Source\PSoC5/cyfitter_cfg.c **** 	CY_SET_XTND_REG8((void CYFAR *)(CYREG_CACHE_CC_CTL), (((CYDEV_INSTRUCT_CACHE_ENABLED) != 0) ? 0x81
 704              		.loc 1 506 0
 705 00de 8123     		movs	r3, #129
 706 00e0 2B70     		strb	r3, [r5]
 507:.\Generated_Source\PSoC5/cyfitter_cfg.c **** 
 508:.\Generated_Source\PSoC5/cyfitter_cfg.c **** 	/* Perform basic analog initialization to defaults */
 509:.\Generated_Source\PSoC5/cyfitter_cfg.c **** 	AnalogSetDefault();
 707              		.loc 1 509 0
 708 00e2 FFF7FEFF 		bl	AnalogSetDefault
 709              	.LVL57:
 510:.\Generated_Source\PSoC5/cyfitter_cfg.c **** 
 511:.\Generated_Source\PSoC5/cyfitter_cfg.c **** 	/* Configure alternate active mode */
 512:.\Generated_Source\PSoC5/cyfitter_cfg.c **** 	CYCONFIGCPY((void CYFAR *)CYDEV_PM_STBY_BASE, (const void CYFAR *)CYDEV_PM_ACT_BASE, 14u);
 710              		.loc 1 512 0
 711 00e6 1A48     		ldr	r0, .L40+92
 712 00e8 2146     		mov	r1, r4
 713 00ea 0E22     		movs	r2, #14
 714 00ec FFF7FEFF 		bl	CYCONFIGCPY
 715              	.LVL58:
 716 00f0 38BD     		pop	{r3, r4, r5, pc}
 717              	.L41:
 718 00f2 00BF     		.align	2
 719              	.L40:
 720 00f4 E8460040 		.word	1073759976
 721 00f8 34000000 		.word	.LANCHOR0+52
 722 00fc A0000048 		.word	1207959712
 723 0100 72580040 		.word	1073764466
 724 0104 00760040 		.word	1073772032
 725 0108 08760040 		.word	1073772040
 726 010c 03500140 		.word	1073827843
 727 0110 A0430040 		.word	1073759136
 728 0114 C2430040 		.word	1073759170
 729 0118 C2510040 		.word	1073762754
 730 011c 78090048 		.word	1207961976
 731 0120 F0510040 		.word	1073762800
 732 0124 80090048 		.word	1207961984
 733 0128 22510040 		.word	1073762594
 734 012c 8C090048 		.word	1207961996
 735 0130 42510040 		.word	1073762626
 736 0134 94090048 		.word	1207962004
 737 0138 52510040 		.word	1073762642
 738 013c 9C090048 		.word	1207962012
 739 0140 62510040 		.word	1073762658
 740 0144 A4090048 		.word	1207962020
 741 0148 DB0E0140 		.word	1073811163
 742 014c 00480040 		.word	1073760256
 743 0150 B0430040 		.word	1073759152
 744              		.cfi_endproc
 745              	.LFE10:
 746              		.size	cyfitter_cfg, .-cyfitter_cfg
 747              		.global	CapSense_AMuxCH0__maskTable
ARM GAS  C:\Users\JohnP\AppData\Local\Temp\ccTBAowt.s 			page 24


 748              		.global	CapSense_AMuxCH0__addrTable
 749              		.section	.rodata
 750              		.align	2
 751              		.set	.LANCHOR0,. + 0
 752              		.type	CapSense_AMuxCH0__addrTable, %object
 753              		.size	CapSense_AMuxCH0__addrTable, 40
 754              	CapSense_AMuxCH0__addrTable:
 755 0000 5C510040 		.word	1073762652
 756 0004 5C510040 		.word	1073762652
 757 0008 5C510040 		.word	1073762652
 758 000c 5C510040 		.word	1073762652
 759 0010 5C510040 		.word	1073762652
 760 0014 5C510040 		.word	1073762652
 761 0018 5C510040 		.word	1073762652
 762 001c 6C510040 		.word	1073762668
 763 0020 D35A0040 		.word	1073765075
 764 0024 835A0040 		.word	1073764995
 765              		.type	CapSense_AMuxCH0__maskTable, %object
 766              		.size	CapSense_AMuxCH0__maskTable, 10
 767              	CapSense_AMuxCH0__maskTable:
 768 0028 20       		.byte	32
 769 0029 40       		.byte	64
 770 002a 01       		.byte	1
 771 002b 02       		.byte	2
 772 002c 04       		.byte	4
 773 002d 08       		.byte	8
 774 002e 10       		.byte	16
 775 002f 10       		.byte	16
 776 0030 01       		.byte	1
 777 0031 10       		.byte	16
 778 0032 0000     		.space	2
 779              		.type	cfg_memset_list.4900, %object
 780              		.size	cfg_memset_list.4900, 42
 781              	cfg_memset_list.4900:
 782 0034 00510040 		.word	1073762560
 783 0038 2000     		.short	32
 784 003a 30510040 		.4byte	1073762608
 785 003e 1000     		.short	16
 786 0040 00000140 		.word	1073807360
 787 0044 0010     		.short	4096
 788 0046 00140140 		.4byte	1073812480
 789 004a 0008     		.short	2048
 790 004c 00400140 		.word	1073823744
 791 0050 000A     		.short	2560
 792 0052 004C0140 		.4byte	1073826816
 793 0056 0002     		.short	512
 794 0058 00500140 		.word	1073827840
 795 005c 2000     		.short	32
 796 005e 0000     		.text
 797              	.Letext0:
 798              		.file 2 "c:\\program files (x86)\\cypress\\psoc creator\\3.2\\psoc creator\\import\\gnu\\arm\\4.8.
 799              		.file 3 ".\\Generated_Source\\PSoC5\\cytypes.h"
 800              		.file 4 ".\\Generated_Source\\PSoC5\\CyLib.h"