ARM GAS  C:\Users\JohnP\AppData\Local\Temp\cckhufNR.s 			page 1


   1              		.syntax unified
   2              		.cpu cortex-m3
   3              		.fpu softvfp
   4              		.eabi_attribute 20, 1
   5              		.eabi_attribute 21, 1
   6              		.eabi_attribute 23, 3
   7              		.eabi_attribute 24, 1
   8              		.eabi_attribute 25, 1
   9              		.eabi_attribute 26, 1
  10              		.eabi_attribute 30, 1
  11              		.eabi_attribute 34, 1
  12              		.eabi_attribute 18, 4
  13              		.thumb
  14              		.file	"display.c"
  15              		.text
  16              	.Ltext0:
  17              		.cfi_sections	.debug_frame
  18              		.section	.text.Display_welcome_message,"ax",%progbits
  19              		.align	2
  20              		.global	Display_welcome_message
  21              		.thumb
  22              		.thumb_func
  23              		.type	Display_welcome_message, %function
  24              	Display_welcome_message:
  25              	.LFB0:
  26              		.file 1 ".\\display.c"
   1:.\display.c   **** /* ========================================
   2:.\display.c   ****  *
   3:.\display.c   ****  * Copyright YOUR COMPANY, THE YEAR
   4:.\display.c   ****  * All Rights Reserved
   5:.\display.c   ****  * UNPUBLISHED, LICENSED SOFTWARE.
   6:.\display.c   ****  *
   7:.\display.c   ****  * CONFIDENTIAL AND PROPRIETARY INFORMATION
   8:.\display.c   ****  * WHICH IS THE PROPERTY OF your company.
   9:.\display.c   ****  *
  10:.\display.c   ****  * ========================================
  11:.\display.c   **** */
  12:.\display.c   **** 
  13:.\display.c   **** #include "display.h"
  14:.\display.c   **** 
  15:.\display.c   **** int loading_bar_speed_ms = 100;
  16:.\display.c   **** 
  17:.\display.c   **** 
  18:.\display.c   **** void Display_welcome_message(){
  27              		.loc 1 18 0
  28              		.cfi_startproc
  29              		@ args = 0, pretend = 0, frame = 0
  30              		@ frame_needed = 0, uses_anonymous_args = 0
  31 0000 F8B5     		push	{r3, r4, r5, r6, r7, lr}
  32              		.cfi_def_cfa_offset 24
  33              		.cfi_offset 3, -24
  34              		.cfi_offset 4, -20
  35              		.cfi_offset 5, -16
  36              		.cfi_offset 6, -12
  37              		.cfi_offset 7, -8
  38              		.cfi_offset 14, -4
  19:.\display.c   ****     LCD_ClearDisplay();
ARM GAS  C:\Users\JohnP\AppData\Local\Temp\cckhufNR.s 			page 2


  39              		.loc 1 19 0
  40 0002 0120     		movs	r0, #1
  41 0004 FFF7FEFF 		bl	LCD_WriteControl
  42              	.LVL0:
  20:.\display.c   ****     int i;
  21:.\display.c   ****     for (i=0; i<16; i++){
  43              		.loc 1 21 0
  44 0008 0024     		movs	r4, #0
  22:.\display.c   ****         LCD_Position(0,i);
  45              		.loc 1 22 0
  46 000a 2746     		mov	r7, r4
  23:.\display.c   ****         LCD_PutChar(LCD_CUSTOM_5);
  47              		.loc 1 23 0
  48 000c 0526     		movs	r6, #5
  24:.\display.c   ****         CyDelay(loading_bar_speed_ms);
  49              		.loc 1 24 0
  50 000e 104D     		ldr	r5, .L4
  21:.\display.c   ****     for (i=0; i<16; i++){
  51              		.loc 1 21 0
  52 0010 0AE0     		b	.L2
  53              	.LVL1:
  54              	.L3:
  22:.\display.c   ****         LCD_Position(0,i);
  55              		.loc 1 22 0 discriminator 2
  56 0012 3846     		mov	r0, r7
  57 0014 E1B2     		uxtb	r1, r4
  58 0016 FFF7FEFF 		bl	LCD_Position
  59              	.LVL2:
  23:.\display.c   ****         LCD_PutChar(LCD_CUSTOM_5);
  60              		.loc 1 23 0 discriminator 2
  61 001a 3046     		mov	r0, r6
  62 001c FFF7FEFF 		bl	LCD_PutChar
  63              	.LVL3:
  64              		.loc 1 24 0 discriminator 2
  65 0020 2868     		ldr	r0, [r5]
  66 0022 FFF7FEFF 		bl	CyDelay
  67              	.LVL4:
  21:.\display.c   ****     for (i=0; i<16; i++){
  68              		.loc 1 21 0 discriminator 2
  69 0026 0134     		adds	r4, r4, #1
  70              	.LVL5:
  71              	.L2:
  21:.\display.c   ****     for (i=0; i<16; i++){
  72              		.loc 1 21 0 is_stmt 0 discriminator 1
  73 0028 0F2C     		cmp	r4, #15
  74 002a F2DD     		ble	.L3
  25:.\display.c   ****     }
  26:.\display.c   ****     LCD_ClearDisplay();
  75              		.loc 1 26 0 is_stmt 1
  76 002c 0120     		movs	r0, #1
  77 002e FFF7FEFF 		bl	LCD_WriteControl
  78              	.LVL6:
  27:.\display.c   ****     LCD_Position(0,3);
  79              		.loc 1 27 0
  80 0032 0020     		movs	r0, #0
  81 0034 0321     		movs	r1, #3
  82 0036 FFF7FEFF 		bl	LCD_Position
ARM GAS  C:\Users\JohnP\AppData\Local\Temp\cckhufNR.s 			page 3


  83              	.LVL7:
  28:.\display.c   ****     LCD_PrintString("Welcome to ");
  84              		.loc 1 28 0
  85 003a 0648     		ldr	r0, .L4+4
  86 003c FFF7FEFF 		bl	LCD_PrintString
  87              	.LVL8:
  29:.\display.c   ****     LCD_Position(1,2);
  88              		.loc 1 29 0
  89 0040 0120     		movs	r0, #1
  90 0042 0221     		movs	r1, #2
  91 0044 FFF7FEFF 		bl	LCD_Position
  92              	.LVL9:
  30:.\display.c   ****     LCD_PrintString("My Treadmill");
  93              		.loc 1 30 0
  94 0048 0348     		ldr	r0, .L4+8
  95 004a FFF7FEFF 		bl	LCD_PrintString
  96              	.LVL10:
  97 004e F8BD     		pop	{r3, r4, r5, r6, r7, pc}
  98              	.LVL11:
  99              	.L5:
 100              		.align	2
 101              	.L4:
 102 0050 00000000 		.word	.LANCHOR0
 103 0054 00000000 		.word	.LC0
 104 0058 0C000000 		.word	.LC1
 105              		.cfi_endproc
 106              	.LFE0:
 107              		.size	Display_welcome_message, .-Display_welcome_message
 108              		.section	.text.Display_sleep,"ax",%progbits
 109              		.align	2
 110              		.global	Display_sleep
 111              		.thumb
 112              		.thumb_func
 113              		.type	Display_sleep, %function
 114              	Display_sleep:
 115              	.LFB1:
  31:.\display.c   **** }   
  32:.\display.c   **** 
  33:.\display.c   **** /*
  34:.\display.c   **** void Display_welcome_message(){
  35:.\display.c   ****     LCD_ClearDisplay();
  36:.\display.c   ****     LCD_Position(0,0);
  37:.\display.c   ****     LCD_PrintString("8");
  38:.\display.c   ****     int i;
  39:.\display.c   ****     for (i=0; i<14; i++){
  40:.\display.c   ****         LCD_PrintString("=");
  41:.\display.c   ****         CyDelay(loading_bar_speed_ms);
  42:.\display.c   ****     }
  43:.\display.c   ****     LCD_PrintString("D");
  44:.\display.c   **** }   
  45:.\display.c   **** */
  46:.\display.c   **** void Display_sleep(){    
 116              		.loc 1 46 0
 117              		.cfi_startproc
 118              		@ args = 0, pretend = 0, frame = 0
 119              		@ frame_needed = 0, uses_anonymous_args = 0
 120 0000 08B5     		push	{r3, lr}
ARM GAS  C:\Users\JohnP\AppData\Local\Temp\cckhufNR.s 			page 4


 121              		.cfi_def_cfa_offset 8
 122              		.cfi_offset 3, -8
 123              		.cfi_offset 14, -4
  47:.\display.c   ****     LCD_Position(0,0);
 124              		.loc 1 47 0
 125 0002 0020     		movs	r0, #0
 126 0004 0146     		mov	r1, r0
 127 0006 FFF7FEFF 		bl	LCD_Position
 128              	.LVL12:
  48:.\display.c   ****     LCD_PrintString("Sleeping...");
 129              		.loc 1 48 0
 130 000a 0248     		ldr	r0, .L7
 131 000c FFF7FEFF 		bl	LCD_PrintString
 132              	.LVL13:
 133 0010 08BD     		pop	{r3, pc}
 134              	.L8:
 135 0012 00BF     		.align	2
 136              	.L7:
 137 0014 1C000000 		.word	.LC2
 138              		.cfi_endproc
 139              	.LFE1:
 140              		.size	Display_sleep, .-Display_sleep
 141              		.section	.text.Display_profile_selection,"ax",%progbits
 142              		.align	2
 143              		.global	Display_profile_selection
 144              		.thumb
 145              		.thumb_func
 146              		.type	Display_profile_selection, %function
 147              	Display_profile_selection:
 148              	.LFB2:
  49:.\display.c   **** //        LCD_DrawHorizontalBG(0,0,8,i);
  50:.\display.c   **** //        LCD_PrintString("zzzzzz");
  51:.\display.c   **** //        CyDelay(1000);
  52:.\display.c   ****     
  53:.\display.c   **** }
  54:.\display.c   **** 
  55:.\display.c   **** void Display_profile_selection(int profile){
 149              		.loc 1 55 0
 150              		.cfi_startproc
 151              		@ args = 0, pretend = 0, frame = 0
 152              		@ frame_needed = 0, uses_anonymous_args = 0
 153              	.LVL14:
 154 0000 2DE9F041 		push	{r4, r5, r6, r7, r8, lr}
 155              		.cfi_def_cfa_offset 24
 156              		.cfi_offset 4, -24
 157              		.cfi_offset 5, -20
 158              		.cfi_offset 6, -16
 159              		.cfi_offset 7, -12
 160              		.cfi_offset 8, -8
 161              		.cfi_offset 14, -4
 162 0004 0546     		mov	r5, r0
 163              	.LVL15:
  56:.\display.c   ****     int i;
  57:.\display.c   ****     for (i=4;i>0;i--){
 164              		.loc 1 57 0
 165 0006 0424     		movs	r4, #4
  58:.\display.c   ****         LCD_ClearDisplay();
ARM GAS  C:\Users\JohnP\AppData\Local\Temp\cckhufNR.s 			page 5


  59:.\display.c   ****         CyDelay(100);
  60:.\display.c   ****         switch (profile){
  61:.\display.c   ****             case PROFILE_REGULAR:
  62:.\display.c   ****                 LCD_Position(1,0);
  63:.\display.c   ****                 LCD_PrintString("Regular   ");
  64:.\display.c   ****                 break;
  65:.\display.c   ****             case PROFILE_CARDIO:
  66:.\display.c   ****                 LCD_Position(1,0);
  67:.\display.c   ****                 LCD_PrintString("Cardio    ");
  68:.\display.c   ****                 break;
  69:.\display.c   ****             case PROFILE_FATBURN:
  70:.\display.c   ****                 LCD_Position(1,0);
  71:.\display.c   ****                 LCD_PrintString("Fat Burn  ");
 166              		.loc 1 71 0
 167 0008 DFF86480 		ldr	r8, .L16+8
  67:.\display.c   ****                 LCD_PrintString("Cardio    ");
 168              		.loc 1 67 0
 169 000c 164F     		ldr	r7, .L16
  63:.\display.c   ****                 LCD_PrintString("Regular   ");
 170              		.loc 1 63 0
 171 000e 174E     		ldr	r6, .L16+4
  57:.\display.c   ****     for (i=4;i>0;i--){
 172              		.loc 1 57 0
 173 0010 25E0     		b	.L10
 174              	.LVL16:
 175              	.L15:
  58:.\display.c   ****         LCD_ClearDisplay();
 176              		.loc 1 58 0
 177 0012 0120     		movs	r0, #1
 178 0014 FFF7FEFF 		bl	LCD_WriteControl
 179              	.LVL17:
  59:.\display.c   ****         CyDelay(100);
 180              		.loc 1 59 0
 181 0018 6420     		movs	r0, #100
 182 001a FFF7FEFF 		bl	CyDelay
 183              	.LVL18:
  60:.\display.c   ****         switch (profile){
 184              		.loc 1 60 0
 185 001e 012D     		cmp	r5, #1
 186 0020 12D0     		beq	.L12
 187 0022 022D     		cmp	r5, #2
 188 0024 08D0     		beq	.L13
 189 0026 B5B9     		cbnz	r5, .L11
  62:.\display.c   ****                 LCD_Position(1,0);
 190              		.loc 1 62 0
 191 0028 0120     		movs	r0, #1
 192 002a 0021     		movs	r1, #0
 193 002c FFF7FEFF 		bl	LCD_Position
 194              	.LVL19:
  63:.\display.c   ****                 LCD_PrintString("Regular   ");
 195              		.loc 1 63 0
 196 0030 3046     		mov	r0, r6
 197 0032 FFF7FEFF 		bl	LCD_PrintString
 198              	.LVL20:
  64:.\display.c   ****                 break;
 199              		.loc 1 64 0
 200 0036 0EE0     		b	.L11
ARM GAS  C:\Users\JohnP\AppData\Local\Temp\cckhufNR.s 			page 6


 201              	.L13:
  66:.\display.c   ****                 LCD_Position(1,0);
 202              		.loc 1 66 0
 203 0038 0120     		movs	r0, #1
 204 003a 0021     		movs	r1, #0
 205 003c FFF7FEFF 		bl	LCD_Position
 206              	.LVL21:
  67:.\display.c   ****                 LCD_PrintString("Cardio    ");
 207              		.loc 1 67 0
 208 0040 3846     		mov	r0, r7
 209 0042 FFF7FEFF 		bl	LCD_PrintString
 210              	.LVL22:
  68:.\display.c   ****                 break;
 211              		.loc 1 68 0
 212 0046 06E0     		b	.L11
 213              	.L12:
  70:.\display.c   ****                 LCD_Position(1,0);
 214              		.loc 1 70 0
 215 0048 0120     		movs	r0, #1
 216 004a 0021     		movs	r1, #0
 217 004c FFF7FEFF 		bl	LCD_Position
 218              	.LVL23:
 219              		.loc 1 71 0
 220 0050 4046     		mov	r0, r8
 221 0052 FFF7FEFF 		bl	LCD_PrintString
 222              	.LVL24:
 223              	.L11:
  72:.\display.c   ****                 break;
  73:.\display.c   ****             default:
  74:.\display.c   ****                 break;
  75:.\display.c   ****         }
  76:.\display.c   ****         CyDelay(100);
 224              		.loc 1 76 0
 225 0056 6420     		movs	r0, #100
 226 0058 FFF7FEFF 		bl	CyDelay
 227              	.LVL25:
  57:.\display.c   ****     for (i=4;i>0;i--){
 228              		.loc 1 57 0
 229 005c 013C     		subs	r4, r4, #1
 230              	.LVL26:
 231              	.L10:
  57:.\display.c   ****     for (i=4;i>0;i--){
 232              		.loc 1 57 0 is_stmt 0 discriminator 1
 233 005e 002C     		cmp	r4, #0
 234 0060 D7DC     		bgt	.L15
  77:.\display.c   ****     }
  78:.\display.c   **** }
 235              		.loc 1 78 0 is_stmt 1
 236 0062 BDE8F081 		pop	{r4, r5, r6, r7, r8, pc}
 237              	.LVL27:
 238              	.L17:
 239 0066 00BF     		.align	2
 240              	.L16:
 241 0068 34000000 		.word	.LC4
 242 006c 28000000 		.word	.LC3
 243 0070 40000000 		.word	.LC5
 244              		.cfi_endproc
ARM GAS  C:\Users\JohnP\AppData\Local\Temp\cckhufNR.s 			page 7


 245              	.LFE2:
 246              		.size	Display_profile_selection, .-Display_profile_selection
 247              		.global	loading_bar_speed_ms
 248              		.comm	Prev_state,4,4
 249              		.comm	currentState,4,4
 250              		.comm	PROFILE,4,4
 251              		.comm	increasingHr,4,4
 252              		.comm	average,4,4
 253              		.comm	timer_value,4,4
 254              		.comm	timer_status,4,4
 255              		.comm	heartbeatCounter,4,4
 256              		.comm	heartrate,4,4
 257              		.comm	speed,4,4
 258              		.data
 259              		.align	2
 260              		.set	.LANCHOR0,. + 0
 261              		.type	loading_bar_speed_ms, %object
 262              		.size	loading_bar_speed_ms, 4
 263              	loading_bar_speed_ms:
 264 0000 64000000 		.word	100
 265              		.section	.rodata.str1.4,"aMS",%progbits,1
 266              		.align	2
 267              	.LC0:
 268 0000 57656C63 		.ascii	"Welcome to \000"
 268      6F6D6520 
 268      746F2000 
 269              	.LC1:
 270 000c 4D792054 		.ascii	"My Treadmill\000"
 270      72656164 
 270      6D696C6C 
 270      00
 271 0019 000000   		.space	3
 272              	.LC2:
 273 001c 536C6565 		.ascii	"Sleeping...\000"
 273      70696E67 
 273      2E2E2E00 
 274              	.LC3:
 275 0028 52656775 		.ascii	"Regular   \000"
 275      6C617220 
 275      202000
 276 0033 00       		.space	1
 277              	.LC4:
 278 0034 43617264 		.ascii	"Cardio    \000"
 278      696F2020 
 278      202000
 279 003f 00       		.space	1
 280              	.LC5:
 281 0040 46617420 		.ascii	"Fat Burn  \000"
 281      4275726E 
 281      202000
 282 004b 00       		.text
 283              	.Letext0:
 284              		.file 2 "Generated_Source\\PSoC5/cytypes.h"
 285              		.file 3 ".\\states.h"
 286              		.file 4 ".\\motor.h"
 287              		.file 5 ".\\heartrate.h"
 288              		.file 6 "Generated_Source\\PSoC5/LCD.h"
ARM GAS  C:\Users\JohnP\AppData\Local\Temp\cckhufNR.s 			page 8


 289              		.file 7 "Generated_Source\\PSoC5/CyLib.h"