ARM GAS  C:\Users\JohnP\AppData\Local\Temp\cc3hGQUE.s 			page 1


   1              		.syntax unified
   2              		.cpu cortex-m3
   3              		.fpu softvfp
   4              		.eabi_attribute 20, 1
   5              		.eabi_attribute 21, 1
   6              		.eabi_attribute 23, 3
   7              		.eabi_attribute 24, 1
   8              		.eabi_attribute 25, 1
   9              		.eabi_attribute 26, 1
  10              		.eabi_attribute 30, 1
  11              		.eabi_attribute 34, 1
  12              		.eabi_attribute 18, 4
  13              		.thumb
  14              		.file	"heartrate.c"
  15              		.text
  16              	.Ltext0:
  17              		.cfi_sections	.debug_frame
  18              		.global	__aeabi_i2f
  19              		.global	__aeabi_f2uiz
  20              		.section	.text.Detect_heartrate,"ax",%progbits
  21              		.align	2
  22              		.global	Detect_heartrate
  23              		.thumb
  24              		.thumb_func
  25              		.type	Detect_heartrate, %function
  26              	Detect_heartrate:
  27              	.LFB0:
  28              		.file 1 ".\\heartrate.c"
   1:.\heartrate.c **** /* ========================================
   2:.\heartrate.c ****  *
   3:.\heartrate.c ****  * Copyright YOUR COMPANY, THE YEAR
   4:.\heartrate.c ****  * All Rights Reserved
   5:.\heartrate.c ****  * UNPUBLISHED, LICENSED SOFTWARE.
   6:.\heartrate.c ****  *
   7:.\heartrate.c ****  * CONFIDENTIAL AND PROPRIETARY INFORMATION
   8:.\heartrate.c ****  * WHICH IS THE PROPERTY OF your company.
   9:.\heartrate.c ****  *
  10:.\heartrate.c ****  * ========================================
  11:.\heartrate.c **** */
  12:.\heartrate.c **** 
  13:.\heartrate.c **** #include "heartrate.h"
  14:.\heartrate.c **** extern int startCounts;
  15:.\heartrate.c **** extern int endCounts;
  16:.\heartrate.c **** extern int speed;
  17:.\heartrate.c **** 
  18:.\heartrate.c **** 
  19:.\heartrate.c **** float Detect_heartrate(void) {
  29              		.loc 1 19 0
  30              		.cfi_startproc
  31              		@ args = 0, pretend = 0, frame = 0
  32              		@ frame_needed = 0, uses_anonymous_args = 0
  33 0000 38B5     		push	{r3, r4, r5, lr}
  34              		.cfi_def_cfa_offset 16
  35              		.cfi_offset 3, -16
  36              		.cfi_offset 4, -12
  37              		.cfi_offset 5, -8
  38              		.cfi_offset 14, -4
ARM GAS  C:\Users\JohnP\AppData\Local\Temp\cc3hGQUE.s 			page 2


  20:.\heartrate.c ****     LCD_Position(0,0);
  39              		.loc 1 20 0
  40 0002 0020     		movs	r0, #0
  41 0004 0146     		mov	r1, r0
  42 0006 FFF7FEFF 		bl	LCD_Position
  43              	.LVL0:
  21:.\heartrate.c ****     LCD_PrintString("Heartrate: ");
  44              		.loc 1 21 0
  45 000a 1048     		ldr	r0, .L2
  46 000c FFF7FEFF 		bl	LCD_PrintString
  47              	.LVL1:
  22:.\heartrate.c ****    
  23:.\heartrate.c **** //    LCD_PrintU32Number(endCounts);
  24:.\heartrate.c ****     LCD_PrintString("      ");
  48              		.loc 1 24 0
  49 0010 0F4D     		ldr	r5, .L2+4
  50 0012 2846     		mov	r0, r5
  51 0014 FFF7FEFF 		bl	LCD_PrintString
  52              	.LVL2:
  25:.\heartrate.c ****     LCD_Position(1,0);
  53              		.loc 1 25 0
  54 0018 0120     		movs	r0, #1
  55 001a 0021     		movs	r1, #0
  56 001c FFF7FEFF 		bl	LCD_Position
  57              	.LVL3:
  26:.\heartrate.c ****     heartrate = (600000/(endCounts-startCounts));
  58              		.loc 1 26 0
  59 0020 0C4B     		ldr	r3, .L2+8
  60 0022 1A68     		ldr	r2, [r3]
  61 0024 0C4B     		ldr	r3, .L2+12
  62 0026 1B68     		ldr	r3, [r3]
  63 0028 D31A     		subs	r3, r2, r3
  64 002a 0C48     		ldr	r0, .L2+16
  65 002c 90FBF3F0 		sdiv	r0, r0, r3
  66 0030 FFF7FEFF 		bl	__aeabi_i2f
  67              	.LVL4:
  68 0034 0A4C     		ldr	r4, .L2+20
  69 0036 2060     		str	r0, [r4]	@ float
  27:.\heartrate.c **** //    LCD_PrintU32Number(startCounts);
  28:.\heartrate.c ****     LCD_PrintU32Number(heartrate);
  70              		.loc 1 28 0
  71 0038 FFF7FEFF 		bl	__aeabi_f2uiz
  72              	.LVL5:
  73 003c FFF7FEFF 		bl	LCD_PrintU32Number
  74              	.LVL6:
  29:.\heartrate.c ****     LCD_PrintString("      ");
  75              		.loc 1 29 0
  76 0040 2846     		mov	r0, r5
  77 0042 FFF7FEFF 		bl	LCD_PrintString
  78              	.LVL7:
  30:.\heartrate.c ****     
  31:.\heartrate.c ****     return heartrate;
  32:.\heartrate.c **** }
  79              		.loc 1 32 0
  80 0046 2068     		ldr	r0, [r4]	@ float
  81 0048 38BD     		pop	{r3, r4, r5, pc}
  82              	.L3:
ARM GAS  C:\Users\JohnP\AppData\Local\Temp\cc3hGQUE.s 			page 3


  83 004a 00BF     		.align	2
  84              	.L2:
  85 004c 00000000 		.word	.LC0
  86 0050 0C000000 		.word	.LC1
  87 0054 00000000 		.word	endCounts
  88 0058 00000000 		.word	startCounts
  89 005c C0270900 		.word	600000
  90 0060 00000000 		.word	heartrate
  91              		.cfi_endproc
  92              	.LFE0:
  93              		.size	Detect_heartrate, .-Detect_heartrate
  94              		.comm	timer_value,4,4
  95              		.comm	timer_status,4,4
  96              		.comm	heartbeatCounter,4,4
  97              		.comm	heartrate,4,4
  98              		.comm	Prev_state,4,4
  99              		.comm	currentState,4,4
 100              		.comm	RESET_CAUSE,4,4
 101              		.comm	PROFILE,4,4
 102              		.comm	increasingHr,4,4
 103              		.comm	average,4,4
 104              		.comm	speed,4,4
 105              		.section	.rodata.str1.4,"aMS",%progbits,1
 106              		.align	2
 107              	.LC0:
 108 0000 48656172 		.ascii	"Heartrate: \000"
 108      74726174 
 108      653A2000 
 109              	.LC1:
 110 000c 20202020 		.ascii	"      \000"
 110      202000
 111 0013 00       		.text
 112              	.Letext0:
 113              		.file 2 "Generated_Source\\PSoC5/cytypes.h"
 114              		.file 3 ".\\states.h"
 115              		.file 4 ".\\heartrate.h"
 116              		.file 5 "Generated_Source\\PSoC5/LCD.h"