ARM GAS  C:\Users\JohnP\AppData\Local\Temp\cc5GED80.s 			page 1


   1              		.syntax unified
   2              		.cpu cortex-m3
   3              		.fpu softvfp
   4              		.eabi_attribute 20, 1
   5              		.eabi_attribute 21, 1
   6              		.eabi_attribute 23, 3
   7              		.eabi_attribute 24, 1
   8              		.eabi_attribute 25, 1
   9              		.eabi_attribute 26, 1
  10              		.eabi_attribute 30, 1
  11              		.eabi_attribute 34, 1
  12              		.eabi_attribute 18, 4
  13              		.thumb
  14              		.file	"HeartbeatCounter.c"
  15              		.text
  16              	.Ltext0:
  17              		.cfi_sections	.debug_frame
  18              		.section	.text.HeartbeatCounter_Enable,"ax",%progbits
  19              		.align	2
  20              		.global	HeartbeatCounter_Enable
  21              		.thumb
  22              		.thumb_func
  23              		.type	HeartbeatCounter_Enable, %function
  24              	HeartbeatCounter_Enable:
  25              	.LFB1:
  26              		.file 1 ".\\Generated_Source\\PSoC5\\HeartbeatCounter.c"
   1:.\Generated_Source\PSoC5/HeartbeatCounter.c **** /*******************************************************************************
   2:.\Generated_Source\PSoC5/HeartbeatCounter.c **** * File Name: HeartbeatCounter.c  
   3:.\Generated_Source\PSoC5/HeartbeatCounter.c **** * Version 3.0
   4:.\Generated_Source\PSoC5/HeartbeatCounter.c **** *
   5:.\Generated_Source\PSoC5/HeartbeatCounter.c **** *  Description:
   6:.\Generated_Source\PSoC5/HeartbeatCounter.c **** *     The Counter component consists of a 8, 16, 24 or 32-bit counter with
   7:.\Generated_Source\PSoC5/HeartbeatCounter.c **** *     a selectable period between 2 and 2^Width - 1.  
   8:.\Generated_Source\PSoC5/HeartbeatCounter.c **** *
   9:.\Generated_Source\PSoC5/HeartbeatCounter.c **** *   Note:
  10:.\Generated_Source\PSoC5/HeartbeatCounter.c **** *     None
  11:.\Generated_Source\PSoC5/HeartbeatCounter.c **** *
  12:.\Generated_Source\PSoC5/HeartbeatCounter.c **** ********************************************************************************
  13:.\Generated_Source\PSoC5/HeartbeatCounter.c **** * Copyright 2008-2012, Cypress Semiconductor Corporation.  All rights reserved.
  14:.\Generated_Source\PSoC5/HeartbeatCounter.c **** * You may use this file only in accordance with the license, terms, conditions, 
  15:.\Generated_Source\PSoC5/HeartbeatCounter.c **** * disclaimers, and limitations in the end user license agreement accompanying 
  16:.\Generated_Source\PSoC5/HeartbeatCounter.c **** * the software package with which this file was provided.
  17:.\Generated_Source\PSoC5/HeartbeatCounter.c **** *******************************************************************************/
  18:.\Generated_Source\PSoC5/HeartbeatCounter.c **** 
  19:.\Generated_Source\PSoC5/HeartbeatCounter.c **** #include "HeartbeatCounter.h"
  20:.\Generated_Source\PSoC5/HeartbeatCounter.c **** 
  21:.\Generated_Source\PSoC5/HeartbeatCounter.c **** uint8 HeartbeatCounter_initVar = 0u;
  22:.\Generated_Source\PSoC5/HeartbeatCounter.c **** 
  23:.\Generated_Source\PSoC5/HeartbeatCounter.c **** 
  24:.\Generated_Source\PSoC5/HeartbeatCounter.c **** /*******************************************************************************
  25:.\Generated_Source\PSoC5/HeartbeatCounter.c **** * Function Name: HeartbeatCounter_Init
  26:.\Generated_Source\PSoC5/HeartbeatCounter.c **** ********************************************************************************
  27:.\Generated_Source\PSoC5/HeartbeatCounter.c **** * Summary:
  28:.\Generated_Source\PSoC5/HeartbeatCounter.c **** *     Initialize to the schematic state
  29:.\Generated_Source\PSoC5/HeartbeatCounter.c **** * 
  30:.\Generated_Source\PSoC5/HeartbeatCounter.c **** * Parameters:  
  31:.\Generated_Source\PSoC5/HeartbeatCounter.c **** *  void  
ARM GAS  C:\Users\JohnP\AppData\Local\Temp\cc5GED80.s 			page 2


  32:.\Generated_Source\PSoC5/HeartbeatCounter.c **** *
  33:.\Generated_Source\PSoC5/HeartbeatCounter.c **** * Return: 
  34:.\Generated_Source\PSoC5/HeartbeatCounter.c **** *  void
  35:.\Generated_Source\PSoC5/HeartbeatCounter.c **** *
  36:.\Generated_Source\PSoC5/HeartbeatCounter.c **** *******************************************************************************/
  37:.\Generated_Source\PSoC5/HeartbeatCounter.c **** void HeartbeatCounter_Init(void) 
  38:.\Generated_Source\PSoC5/HeartbeatCounter.c **** {
  39:.\Generated_Source\PSoC5/HeartbeatCounter.c ****         #if (!HeartbeatCounter_UsingFixedFunction && !HeartbeatCounter_ControlRegRemoved)
  40:.\Generated_Source\PSoC5/HeartbeatCounter.c ****             uint8 ctrl;
  41:.\Generated_Source\PSoC5/HeartbeatCounter.c ****         #endif /* (!HeartbeatCounter_UsingFixedFunction && !HeartbeatCounter_ControlRegRemoved) */
  42:.\Generated_Source\PSoC5/HeartbeatCounter.c ****         
  43:.\Generated_Source\PSoC5/HeartbeatCounter.c ****         #if(!HeartbeatCounter_UsingFixedFunction) 
  44:.\Generated_Source\PSoC5/HeartbeatCounter.c ****             /* Interrupt State Backup for Critical Region*/
  45:.\Generated_Source\PSoC5/HeartbeatCounter.c ****             uint8 HeartbeatCounter_interruptState;
  46:.\Generated_Source\PSoC5/HeartbeatCounter.c ****         #endif /* (!HeartbeatCounter_UsingFixedFunction) */
  47:.\Generated_Source\PSoC5/HeartbeatCounter.c ****         
  48:.\Generated_Source\PSoC5/HeartbeatCounter.c ****         #if (HeartbeatCounter_UsingFixedFunction)
  49:.\Generated_Source\PSoC5/HeartbeatCounter.c ****             /* Clear all bits but the enable bit (if it's already set for Timer operation */
  50:.\Generated_Source\PSoC5/HeartbeatCounter.c ****             HeartbeatCounter_CONTROL &= HeartbeatCounter_CTRL_ENABLE;
  51:.\Generated_Source\PSoC5/HeartbeatCounter.c ****             
  52:.\Generated_Source\PSoC5/HeartbeatCounter.c ****             /* Clear the mode bits for continuous run mode */
  53:.\Generated_Source\PSoC5/HeartbeatCounter.c ****             #if (CY_PSOC5A)
  54:.\Generated_Source\PSoC5/HeartbeatCounter.c ****                 HeartbeatCounter_CONTROL2 &= ((uint8)(~HeartbeatCounter_CTRL_MODE_MASK));
  55:.\Generated_Source\PSoC5/HeartbeatCounter.c ****             #endif /* (CY_PSOC5A) */
  56:.\Generated_Source\PSoC5/HeartbeatCounter.c ****             #if (CY_PSOC3 || CY_PSOC5LP)
  57:.\Generated_Source\PSoC5/HeartbeatCounter.c ****                 HeartbeatCounter_CONTROL3 &= ((uint8)(~HeartbeatCounter_CTRL_MODE_MASK));          
  58:.\Generated_Source\PSoC5/HeartbeatCounter.c ****             #endif /* (CY_PSOC3 || CY_PSOC5LP) */
  59:.\Generated_Source\PSoC5/HeartbeatCounter.c ****             /* Check if One Shot mode is enabled i.e. RunMode !=0*/
  60:.\Generated_Source\PSoC5/HeartbeatCounter.c ****             #if (HeartbeatCounter_RunModeUsed != 0x0u)
  61:.\Generated_Source\PSoC5/HeartbeatCounter.c ****                 /* Set 3rd bit of Control register to enable one shot mode */
  62:.\Generated_Source\PSoC5/HeartbeatCounter.c ****                 HeartbeatCounter_CONTROL |= HeartbeatCounter_ONESHOT;
  63:.\Generated_Source\PSoC5/HeartbeatCounter.c ****             #endif /* (HeartbeatCounter_RunModeUsed != 0x0u) */
  64:.\Generated_Source\PSoC5/HeartbeatCounter.c ****             
  65:.\Generated_Source\PSoC5/HeartbeatCounter.c ****             /* Set the IRQ to use the status register interrupts */
  66:.\Generated_Source\PSoC5/HeartbeatCounter.c ****             HeartbeatCounter_CONTROL2 |= HeartbeatCounter_CTRL2_IRQ_SEL;
  67:.\Generated_Source\PSoC5/HeartbeatCounter.c ****             
  68:.\Generated_Source\PSoC5/HeartbeatCounter.c ****             /* Clear and Set SYNCTC and SYNCCMP bits of RT1 register */
  69:.\Generated_Source\PSoC5/HeartbeatCounter.c ****             HeartbeatCounter_RT1 &= ((uint8)(~HeartbeatCounter_RT1_MASK));
  70:.\Generated_Source\PSoC5/HeartbeatCounter.c ****             HeartbeatCounter_RT1 |= HeartbeatCounter_SYNC;     
  71:.\Generated_Source\PSoC5/HeartbeatCounter.c ****                     
  72:.\Generated_Source\PSoC5/HeartbeatCounter.c ****             /*Enable DSI Sync all all inputs of the Timer*/
  73:.\Generated_Source\PSoC5/HeartbeatCounter.c ****             HeartbeatCounter_RT1 &= ((uint8)(~HeartbeatCounter_SYNCDSI_MASK));
  74:.\Generated_Source\PSoC5/HeartbeatCounter.c ****             HeartbeatCounter_RT1 |= HeartbeatCounter_SYNCDSI_EN;
  75:.\Generated_Source\PSoC5/HeartbeatCounter.c **** 
  76:.\Generated_Source\PSoC5/HeartbeatCounter.c ****         #else
  77:.\Generated_Source\PSoC5/HeartbeatCounter.c ****             #if(!HeartbeatCounter_ControlRegRemoved)
  78:.\Generated_Source\PSoC5/HeartbeatCounter.c ****             /* Set the default compare mode defined in the parameter */
  79:.\Generated_Source\PSoC5/HeartbeatCounter.c ****             ctrl = HeartbeatCounter_CONTROL & ((uint8)(~HeartbeatCounter_CTRL_CMPMODE_MASK));
  80:.\Generated_Source\PSoC5/HeartbeatCounter.c ****             HeartbeatCounter_CONTROL = ctrl | HeartbeatCounter_DEFAULT_COMPARE_MODE;
  81:.\Generated_Source\PSoC5/HeartbeatCounter.c ****             
  82:.\Generated_Source\PSoC5/HeartbeatCounter.c ****             /* Set the default capture mode defined in the parameter */
  83:.\Generated_Source\PSoC5/HeartbeatCounter.c ****             ctrl = HeartbeatCounter_CONTROL & ((uint8)(~HeartbeatCounter_CTRL_CAPMODE_MASK));
  84:.\Generated_Source\PSoC5/HeartbeatCounter.c ****             
  85:.\Generated_Source\PSoC5/HeartbeatCounter.c ****             #if( 0 != HeartbeatCounter_CAPTURE_MODE_CONF)
  86:.\Generated_Source\PSoC5/HeartbeatCounter.c ****                 HeartbeatCounter_CONTROL = ctrl | HeartbeatCounter_DEFAULT_CAPTURE_MODE;
  87:.\Generated_Source\PSoC5/HeartbeatCounter.c ****             #else
  88:.\Generated_Source\PSoC5/HeartbeatCounter.c ****                 HeartbeatCounter_CONTROL = ctrl;
ARM GAS  C:\Users\JohnP\AppData\Local\Temp\cc5GED80.s 			page 3


  89:.\Generated_Source\PSoC5/HeartbeatCounter.c ****             #endif /* 0 != HeartbeatCounter_CAPTURE_MODE */ 
  90:.\Generated_Source\PSoC5/HeartbeatCounter.c ****             
  91:.\Generated_Source\PSoC5/HeartbeatCounter.c ****             #endif /* (!HeartbeatCounter_ControlRegRemoved) */
  92:.\Generated_Source\PSoC5/HeartbeatCounter.c ****         #endif /* (HeartbeatCounter_UsingFixedFunction) */
  93:.\Generated_Source\PSoC5/HeartbeatCounter.c ****         
  94:.\Generated_Source\PSoC5/HeartbeatCounter.c ****         /* Clear all data in the FIFO's */
  95:.\Generated_Source\PSoC5/HeartbeatCounter.c ****         #if (!HeartbeatCounter_UsingFixedFunction)
  96:.\Generated_Source\PSoC5/HeartbeatCounter.c ****             HeartbeatCounter_ClearFIFO();
  97:.\Generated_Source\PSoC5/HeartbeatCounter.c ****         #endif /* (!HeartbeatCounter_UsingFixedFunction) */
  98:.\Generated_Source\PSoC5/HeartbeatCounter.c ****         
  99:.\Generated_Source\PSoC5/HeartbeatCounter.c ****         /* Set Initial values from Configuration */
 100:.\Generated_Source\PSoC5/HeartbeatCounter.c ****         HeartbeatCounter_WritePeriod(HeartbeatCounter_INIT_PERIOD_VALUE);
 101:.\Generated_Source\PSoC5/HeartbeatCounter.c ****         #if (!(HeartbeatCounter_UsingFixedFunction && (CY_PSOC5A)))
 102:.\Generated_Source\PSoC5/HeartbeatCounter.c ****             HeartbeatCounter_WriteCounter(HeartbeatCounter_INIT_COUNTER_VALUE);
 103:.\Generated_Source\PSoC5/HeartbeatCounter.c ****         #endif /* (!(HeartbeatCounter_UsingFixedFunction && (CY_PSOC5A))) */
 104:.\Generated_Source\PSoC5/HeartbeatCounter.c ****         HeartbeatCounter_SetInterruptMode(HeartbeatCounter_INIT_INTERRUPTS_MASK);
 105:.\Generated_Source\PSoC5/HeartbeatCounter.c ****         
 106:.\Generated_Source\PSoC5/HeartbeatCounter.c ****         #if (!HeartbeatCounter_UsingFixedFunction)
 107:.\Generated_Source\PSoC5/HeartbeatCounter.c ****             /* Read the status register to clear the unwanted interrupts */
 108:.\Generated_Source\PSoC5/HeartbeatCounter.c ****             (void)HeartbeatCounter_ReadStatusRegister();
 109:.\Generated_Source\PSoC5/HeartbeatCounter.c ****             /* Set the compare value (only available to non-fixed function implementation */
 110:.\Generated_Source\PSoC5/HeartbeatCounter.c ****             HeartbeatCounter_WriteCompare(HeartbeatCounter_INIT_COMPARE_VALUE);
 111:.\Generated_Source\PSoC5/HeartbeatCounter.c ****             /* Use the interrupt output of the status register for IRQ output */
 112:.\Generated_Source\PSoC5/HeartbeatCounter.c ****             
 113:.\Generated_Source\PSoC5/HeartbeatCounter.c ****             /* CyEnterCriticalRegion and CyExitCriticalRegion are used to mark following region cri
 114:.\Generated_Source\PSoC5/HeartbeatCounter.c ****             /* Enter Critical Region*/
 115:.\Generated_Source\PSoC5/HeartbeatCounter.c ****             HeartbeatCounter_interruptState = CyEnterCriticalSection();
 116:.\Generated_Source\PSoC5/HeartbeatCounter.c ****             
 117:.\Generated_Source\PSoC5/HeartbeatCounter.c ****             HeartbeatCounter_STATUS_AUX_CTRL |= HeartbeatCounter_STATUS_ACTL_INT_EN_MASK;
 118:.\Generated_Source\PSoC5/HeartbeatCounter.c ****             
 119:.\Generated_Source\PSoC5/HeartbeatCounter.c ****             /* Exit Critical Region*/
 120:.\Generated_Source\PSoC5/HeartbeatCounter.c ****             CyExitCriticalSection(HeartbeatCounter_interruptState);
 121:.\Generated_Source\PSoC5/HeartbeatCounter.c ****             
 122:.\Generated_Source\PSoC5/HeartbeatCounter.c ****         #endif /* (!HeartbeatCounter_UsingFixedFunction) */
 123:.\Generated_Source\PSoC5/HeartbeatCounter.c **** }
 124:.\Generated_Source\PSoC5/HeartbeatCounter.c **** 
 125:.\Generated_Source\PSoC5/HeartbeatCounter.c **** 
 126:.\Generated_Source\PSoC5/HeartbeatCounter.c **** /*******************************************************************************
 127:.\Generated_Source\PSoC5/HeartbeatCounter.c **** * Function Name: HeartbeatCounter_Enable
 128:.\Generated_Source\PSoC5/HeartbeatCounter.c **** ********************************************************************************
 129:.\Generated_Source\PSoC5/HeartbeatCounter.c **** * Summary:
 130:.\Generated_Source\PSoC5/HeartbeatCounter.c **** *     Enable the Counter
 131:.\Generated_Source\PSoC5/HeartbeatCounter.c **** * 
 132:.\Generated_Source\PSoC5/HeartbeatCounter.c **** * Parameters:  
 133:.\Generated_Source\PSoC5/HeartbeatCounter.c **** *  void  
 134:.\Generated_Source\PSoC5/HeartbeatCounter.c **** *
 135:.\Generated_Source\PSoC5/HeartbeatCounter.c **** * Return: 
 136:.\Generated_Source\PSoC5/HeartbeatCounter.c **** *  void
 137:.\Generated_Source\PSoC5/HeartbeatCounter.c **** *
 138:.\Generated_Source\PSoC5/HeartbeatCounter.c **** * Side Effects: 
 139:.\Generated_Source\PSoC5/HeartbeatCounter.c **** *   If the Enable mode is set to Hardware only then this function has no effect 
 140:.\Generated_Source\PSoC5/HeartbeatCounter.c **** *   on the operation of the counter.
 141:.\Generated_Source\PSoC5/HeartbeatCounter.c **** *
 142:.\Generated_Source\PSoC5/HeartbeatCounter.c **** *******************************************************************************/
 143:.\Generated_Source\PSoC5/HeartbeatCounter.c **** void HeartbeatCounter_Enable(void) 
 144:.\Generated_Source\PSoC5/HeartbeatCounter.c **** {
  27              		.loc 1 144 0
ARM GAS  C:\Users\JohnP\AppData\Local\Temp\cc5GED80.s 			page 4


  28              		.cfi_startproc
  29              		@ args = 0, pretend = 0, frame = 0
  30              		@ frame_needed = 0, uses_anonymous_args = 0
  31              		@ link register save eliminated.
 145:.\Generated_Source\PSoC5/HeartbeatCounter.c ****     /* Globally Enable the Fixed Function Block chosen */
 146:.\Generated_Source\PSoC5/HeartbeatCounter.c ****     #if (HeartbeatCounter_UsingFixedFunction)
 147:.\Generated_Source\PSoC5/HeartbeatCounter.c ****         HeartbeatCounter_GLOBAL_ENABLE |= HeartbeatCounter_BLOCK_EN_MASK;
 148:.\Generated_Source\PSoC5/HeartbeatCounter.c ****         HeartbeatCounter_GLOBAL_STBY_ENABLE |= HeartbeatCounter_BLOCK_STBY_EN_MASK;
 149:.\Generated_Source\PSoC5/HeartbeatCounter.c ****     #endif /* (HeartbeatCounter_UsingFixedFunction) */  
 150:.\Generated_Source\PSoC5/HeartbeatCounter.c ****         
 151:.\Generated_Source\PSoC5/HeartbeatCounter.c ****     /* Enable the counter from the control register  */
 152:.\Generated_Source\PSoC5/HeartbeatCounter.c ****     /* If Fixed Function then make sure Mode is set correctly */
 153:.\Generated_Source\PSoC5/HeartbeatCounter.c ****     /* else make sure reset is clear */
 154:.\Generated_Source\PSoC5/HeartbeatCounter.c ****     #if(!HeartbeatCounter_ControlRegRemoved || HeartbeatCounter_UsingFixedFunction)
 155:.\Generated_Source\PSoC5/HeartbeatCounter.c ****         HeartbeatCounter_CONTROL |= HeartbeatCounter_CTRL_ENABLE;                
  32              		.loc 1 155 0
  33 0000 024B     		ldr	r3, .L2
  34 0002 1A78     		ldrb	r2, [r3]	@ zero_extendqisi2
  35 0004 42F08002 		orr	r2, r2, #128
  36 0008 1A70     		strb	r2, [r3]
  37 000a 7047     		bx	lr
  38              	.L3:
  39              		.align	2
  40              	.L2:
  41 000c 74650040 		.word	1073767796
  42              		.cfi_endproc
  43              	.LFE1:
  44              		.size	HeartbeatCounter_Enable, .-HeartbeatCounter_Enable
  45              		.section	.text.HeartbeatCounter_Stop,"ax",%progbits
  46              		.align	2
  47              		.global	HeartbeatCounter_Stop
  48              		.thumb
  49              		.thumb_func
  50              		.type	HeartbeatCounter_Stop, %function
  51              	HeartbeatCounter_Stop:
  52              	.LFB3:
 156:.\Generated_Source\PSoC5/HeartbeatCounter.c ****     #endif /* (!HeartbeatCounter_ControlRegRemoved || HeartbeatCounter_UsingFixedFunction) */
 157:.\Generated_Source\PSoC5/HeartbeatCounter.c ****     
 158:.\Generated_Source\PSoC5/HeartbeatCounter.c **** }
 159:.\Generated_Source\PSoC5/HeartbeatCounter.c **** 
 160:.\Generated_Source\PSoC5/HeartbeatCounter.c **** 
 161:.\Generated_Source\PSoC5/HeartbeatCounter.c **** /*******************************************************************************
 162:.\Generated_Source\PSoC5/HeartbeatCounter.c **** * Function Name: HeartbeatCounter_Start
 163:.\Generated_Source\PSoC5/HeartbeatCounter.c **** ********************************************************************************
 164:.\Generated_Source\PSoC5/HeartbeatCounter.c **** * Summary:
 165:.\Generated_Source\PSoC5/HeartbeatCounter.c **** *  Enables the counter for operation 
 166:.\Generated_Source\PSoC5/HeartbeatCounter.c **** *
 167:.\Generated_Source\PSoC5/HeartbeatCounter.c **** * Parameters:  
 168:.\Generated_Source\PSoC5/HeartbeatCounter.c **** *  void  
 169:.\Generated_Source\PSoC5/HeartbeatCounter.c **** *
 170:.\Generated_Source\PSoC5/HeartbeatCounter.c **** * Return: 
 171:.\Generated_Source\PSoC5/HeartbeatCounter.c **** *  void
 172:.\Generated_Source\PSoC5/HeartbeatCounter.c **** *
 173:.\Generated_Source\PSoC5/HeartbeatCounter.c **** * Global variables:
 174:.\Generated_Source\PSoC5/HeartbeatCounter.c **** *  HeartbeatCounter_initVar: Is modified when this function is called for the  
 175:.\Generated_Source\PSoC5/HeartbeatCounter.c **** *   first time. Is used to ensure that initialization happens only once.
 176:.\Generated_Source\PSoC5/HeartbeatCounter.c **** *
ARM GAS  C:\Users\JohnP\AppData\Local\Temp\cc5GED80.s 			page 5


 177:.\Generated_Source\PSoC5/HeartbeatCounter.c **** *******************************************************************************/
 178:.\Generated_Source\PSoC5/HeartbeatCounter.c **** void HeartbeatCounter_Start(void) 
 179:.\Generated_Source\PSoC5/HeartbeatCounter.c **** {
 180:.\Generated_Source\PSoC5/HeartbeatCounter.c ****     if(HeartbeatCounter_initVar == 0u)
 181:.\Generated_Source\PSoC5/HeartbeatCounter.c ****     {
 182:.\Generated_Source\PSoC5/HeartbeatCounter.c ****         HeartbeatCounter_Init();
 183:.\Generated_Source\PSoC5/HeartbeatCounter.c ****         
 184:.\Generated_Source\PSoC5/HeartbeatCounter.c ****         HeartbeatCounter_initVar = 1u; /* Clear this bit for Initialization */        
 185:.\Generated_Source\PSoC5/HeartbeatCounter.c ****     }
 186:.\Generated_Source\PSoC5/HeartbeatCounter.c ****     
 187:.\Generated_Source\PSoC5/HeartbeatCounter.c ****     /* Enable the Counter */
 188:.\Generated_Source\PSoC5/HeartbeatCounter.c ****     HeartbeatCounter_Enable();        
 189:.\Generated_Source\PSoC5/HeartbeatCounter.c **** }
 190:.\Generated_Source\PSoC5/HeartbeatCounter.c **** 
 191:.\Generated_Source\PSoC5/HeartbeatCounter.c **** 
 192:.\Generated_Source\PSoC5/HeartbeatCounter.c **** /*******************************************************************************
 193:.\Generated_Source\PSoC5/HeartbeatCounter.c **** * Function Name: HeartbeatCounter_Stop
 194:.\Generated_Source\PSoC5/HeartbeatCounter.c **** ********************************************************************************
 195:.\Generated_Source\PSoC5/HeartbeatCounter.c **** * Summary:
 196:.\Generated_Source\PSoC5/HeartbeatCounter.c **** * Halts the counter, but does not change any modes or disable interrupts.
 197:.\Generated_Source\PSoC5/HeartbeatCounter.c **** *
 198:.\Generated_Source\PSoC5/HeartbeatCounter.c **** * Parameters:  
 199:.\Generated_Source\PSoC5/HeartbeatCounter.c **** *  void  
 200:.\Generated_Source\PSoC5/HeartbeatCounter.c **** *
 201:.\Generated_Source\PSoC5/HeartbeatCounter.c **** * Return: 
 202:.\Generated_Source\PSoC5/HeartbeatCounter.c **** *  void
 203:.\Generated_Source\PSoC5/HeartbeatCounter.c **** *
 204:.\Generated_Source\PSoC5/HeartbeatCounter.c **** * Side Effects: If the Enable mode is set to Hardware only then this function
 205:.\Generated_Source\PSoC5/HeartbeatCounter.c **** *               has no effect on the operation of the counter.
 206:.\Generated_Source\PSoC5/HeartbeatCounter.c **** *
 207:.\Generated_Source\PSoC5/HeartbeatCounter.c **** *******************************************************************************/
 208:.\Generated_Source\PSoC5/HeartbeatCounter.c **** void HeartbeatCounter_Stop(void) 
 209:.\Generated_Source\PSoC5/HeartbeatCounter.c **** {
  53              		.loc 1 209 0
  54              		.cfi_startproc
  55              		@ args = 0, pretend = 0, frame = 0
  56              		@ frame_needed = 0, uses_anonymous_args = 0
  57              		@ link register save eliminated.
 210:.\Generated_Source\PSoC5/HeartbeatCounter.c ****     /* Disable Counter */
 211:.\Generated_Source\PSoC5/HeartbeatCounter.c ****     #if(!HeartbeatCounter_ControlRegRemoved || HeartbeatCounter_UsingFixedFunction)
 212:.\Generated_Source\PSoC5/HeartbeatCounter.c ****         HeartbeatCounter_CONTROL &= ((uint8)(~HeartbeatCounter_CTRL_ENABLE));        
  58              		.loc 1 212 0
  59 0000 024B     		ldr	r3, .L5
  60 0002 1A78     		ldrb	r2, [r3]	@ zero_extendqisi2
  61 0004 02F07F02 		and	r2, r2, #127
  62 0008 1A70     		strb	r2, [r3]
  63 000a 7047     		bx	lr
  64              	.L6:
  65              		.align	2
  66              	.L5:
  67 000c 74650040 		.word	1073767796
  68              		.cfi_endproc
  69              	.LFE3:
  70              		.size	HeartbeatCounter_Stop, .-HeartbeatCounter_Stop
  71              		.section	.text.HeartbeatCounter_SetInterruptMode,"ax",%progbits
  72              		.align	2
  73              		.global	HeartbeatCounter_SetInterruptMode
ARM GAS  C:\Users\JohnP\AppData\Local\Temp\cc5GED80.s 			page 6


  74              		.thumb
  75              		.thumb_func
  76              		.type	HeartbeatCounter_SetInterruptMode, %function
  77              	HeartbeatCounter_SetInterruptMode:
  78              	.LFB4:
 213:.\Generated_Source\PSoC5/HeartbeatCounter.c ****     #endif /* (!HeartbeatCounter_ControlRegRemoved || HeartbeatCounter_UsingFixedFunction) */
 214:.\Generated_Source\PSoC5/HeartbeatCounter.c ****     
 215:.\Generated_Source\PSoC5/HeartbeatCounter.c ****     /* Globally disable the Fixed Function Block chosen */
 216:.\Generated_Source\PSoC5/HeartbeatCounter.c ****     #if (HeartbeatCounter_UsingFixedFunction)
 217:.\Generated_Source\PSoC5/HeartbeatCounter.c ****         HeartbeatCounter_GLOBAL_ENABLE &= ((uint8)(~HeartbeatCounter_BLOCK_EN_MASK));
 218:.\Generated_Source\PSoC5/HeartbeatCounter.c ****         HeartbeatCounter_GLOBAL_STBY_ENABLE &= ((uint8)(~HeartbeatCounter_BLOCK_STBY_EN_MASK));
 219:.\Generated_Source\PSoC5/HeartbeatCounter.c ****     #endif /* (HeartbeatCounter_UsingFixedFunction) */
 220:.\Generated_Source\PSoC5/HeartbeatCounter.c **** }
 221:.\Generated_Source\PSoC5/HeartbeatCounter.c **** 
 222:.\Generated_Source\PSoC5/HeartbeatCounter.c **** 
 223:.\Generated_Source\PSoC5/HeartbeatCounter.c **** /*******************************************************************************
 224:.\Generated_Source\PSoC5/HeartbeatCounter.c **** * Function Name: HeartbeatCounter_SetInterruptMode
 225:.\Generated_Source\PSoC5/HeartbeatCounter.c **** ********************************************************************************
 226:.\Generated_Source\PSoC5/HeartbeatCounter.c **** * Summary:
 227:.\Generated_Source\PSoC5/HeartbeatCounter.c **** * Configures which interrupt sources are enabled to generate the final interrupt
 228:.\Generated_Source\PSoC5/HeartbeatCounter.c **** *
 229:.\Generated_Source\PSoC5/HeartbeatCounter.c **** * Parameters:  
 230:.\Generated_Source\PSoC5/HeartbeatCounter.c **** *  InterruptsMask: This parameter is an or'd collection of the status bits
 231:.\Generated_Source\PSoC5/HeartbeatCounter.c **** *                   which will be allowed to generate the counters interrupt.   
 232:.\Generated_Source\PSoC5/HeartbeatCounter.c **** *
 233:.\Generated_Source\PSoC5/HeartbeatCounter.c **** * Return: 
 234:.\Generated_Source\PSoC5/HeartbeatCounter.c **** *  void
 235:.\Generated_Source\PSoC5/HeartbeatCounter.c **** *
 236:.\Generated_Source\PSoC5/HeartbeatCounter.c **** *******************************************************************************/
 237:.\Generated_Source\PSoC5/HeartbeatCounter.c **** void HeartbeatCounter_SetInterruptMode(uint8 interruptsMask) 
 238:.\Generated_Source\PSoC5/HeartbeatCounter.c **** {
  79              		.loc 1 238 0
  80              		.cfi_startproc
  81              		@ args = 0, pretend = 0, frame = 0
  82              		@ frame_needed = 0, uses_anonymous_args = 0
  83              		@ link register save eliminated.
  84              	.LVL0:
 239:.\Generated_Source\PSoC5/HeartbeatCounter.c ****     HeartbeatCounter_STATUS_MASK = interruptsMask;
  85              		.loc 1 239 0
  86 0000 014B     		ldr	r3, .L8
  87 0002 1870     		strb	r0, [r3]
  88 0004 7047     		bx	lr
  89              	.L9:
  90 0006 00BF     		.align	2
  91              	.L8:
  92 0008 87650040 		.word	1073767815
  93              		.cfi_endproc
  94              	.LFE4:
  95              		.size	HeartbeatCounter_SetInterruptMode, .-HeartbeatCounter_SetInterruptMode
  96              		.section	.text.HeartbeatCounter_ReadStatusRegister,"ax",%progbits
  97              		.align	2
  98              		.global	HeartbeatCounter_ReadStatusRegister
  99              		.thumb
 100              		.thumb_func
 101              		.type	HeartbeatCounter_ReadStatusRegister, %function
 102              	HeartbeatCounter_ReadStatusRegister:
 103              	.LFB5:
ARM GAS  C:\Users\JohnP\AppData\Local\Temp\cc5GED80.s 			page 7


 240:.\Generated_Source\PSoC5/HeartbeatCounter.c **** }
 241:.\Generated_Source\PSoC5/HeartbeatCounter.c **** 
 242:.\Generated_Source\PSoC5/HeartbeatCounter.c **** 
 243:.\Generated_Source\PSoC5/HeartbeatCounter.c **** /*******************************************************************************
 244:.\Generated_Source\PSoC5/HeartbeatCounter.c **** * Function Name: HeartbeatCounter_ReadStatusRegister
 245:.\Generated_Source\PSoC5/HeartbeatCounter.c **** ********************************************************************************
 246:.\Generated_Source\PSoC5/HeartbeatCounter.c **** * Summary:
 247:.\Generated_Source\PSoC5/HeartbeatCounter.c **** *   Reads the status register and returns it's state. This function should use
 248:.\Generated_Source\PSoC5/HeartbeatCounter.c **** *       defined types for the bit-field information as the bits in this
 249:.\Generated_Source\PSoC5/HeartbeatCounter.c **** *       register may be permuteable.
 250:.\Generated_Source\PSoC5/HeartbeatCounter.c **** *
 251:.\Generated_Source\PSoC5/HeartbeatCounter.c **** * Parameters:  
 252:.\Generated_Source\PSoC5/HeartbeatCounter.c **** *  void
 253:.\Generated_Source\PSoC5/HeartbeatCounter.c **** *
 254:.\Generated_Source\PSoC5/HeartbeatCounter.c **** * Return: 
 255:.\Generated_Source\PSoC5/HeartbeatCounter.c **** *  (uint8) The contents of the status register
 256:.\Generated_Source\PSoC5/HeartbeatCounter.c **** *
 257:.\Generated_Source\PSoC5/HeartbeatCounter.c **** * Side Effects:
 258:.\Generated_Source\PSoC5/HeartbeatCounter.c **** *   Status register bits may be clear on read. 
 259:.\Generated_Source\PSoC5/HeartbeatCounter.c **** *
 260:.\Generated_Source\PSoC5/HeartbeatCounter.c **** *******************************************************************************/
 261:.\Generated_Source\PSoC5/HeartbeatCounter.c **** uint8   HeartbeatCounter_ReadStatusRegister(void) 
 262:.\Generated_Source\PSoC5/HeartbeatCounter.c **** {
 104              		.loc 1 262 0
 105              		.cfi_startproc
 106              		@ args = 0, pretend = 0, frame = 0
 107              		@ frame_needed = 0, uses_anonymous_args = 0
 108              		@ link register save eliminated.
 263:.\Generated_Source\PSoC5/HeartbeatCounter.c ****     return HeartbeatCounter_STATUS;
 109              		.loc 1 263 0
 110 0000 014B     		ldr	r3, .L11
 111 0002 1878     		ldrb	r0, [r3]	@ zero_extendqisi2
 264:.\Generated_Source\PSoC5/HeartbeatCounter.c **** }
 112              		.loc 1 264 0
 113 0004 7047     		bx	lr
 114              	.L12:
 115 0006 00BF     		.align	2
 116              	.L11:
 117 0008 67650040 		.word	1073767783
 118              		.cfi_endproc
 119              	.LFE5:
 120              		.size	HeartbeatCounter_ReadStatusRegister, .-HeartbeatCounter_ReadStatusRegister
 121              		.section	.text.HeartbeatCounter_ReadControlRegister,"ax",%progbits
 122              		.align	2
 123              		.global	HeartbeatCounter_ReadControlRegister
 124              		.thumb
 125              		.thumb_func
 126              		.type	HeartbeatCounter_ReadControlRegister, %function
 127              	HeartbeatCounter_ReadControlRegister:
 128              	.LFB6:
 265:.\Generated_Source\PSoC5/HeartbeatCounter.c **** 
 266:.\Generated_Source\PSoC5/HeartbeatCounter.c **** 
 267:.\Generated_Source\PSoC5/HeartbeatCounter.c **** #if(!HeartbeatCounter_ControlRegRemoved)
 268:.\Generated_Source\PSoC5/HeartbeatCounter.c **** /*******************************************************************************
 269:.\Generated_Source\PSoC5/HeartbeatCounter.c **** * Function Name: HeartbeatCounter_ReadControlRegister
 270:.\Generated_Source\PSoC5/HeartbeatCounter.c **** ********************************************************************************
 271:.\Generated_Source\PSoC5/HeartbeatCounter.c **** * Summary:
ARM GAS  C:\Users\JohnP\AppData\Local\Temp\cc5GED80.s 			page 8


 272:.\Generated_Source\PSoC5/HeartbeatCounter.c **** *   Reads the control register and returns it's state. This function should use
 273:.\Generated_Source\PSoC5/HeartbeatCounter.c **** *       defined types for the bit-field information as the bits in this
 274:.\Generated_Source\PSoC5/HeartbeatCounter.c **** *       register may be permuteable.
 275:.\Generated_Source\PSoC5/HeartbeatCounter.c **** *
 276:.\Generated_Source\PSoC5/HeartbeatCounter.c **** * Parameters:  
 277:.\Generated_Source\PSoC5/HeartbeatCounter.c **** *  void
 278:.\Generated_Source\PSoC5/HeartbeatCounter.c **** *
 279:.\Generated_Source\PSoC5/HeartbeatCounter.c **** * Return: 
 280:.\Generated_Source\PSoC5/HeartbeatCounter.c **** *  (uint8) The contents of the control register
 281:.\Generated_Source\PSoC5/HeartbeatCounter.c **** *
 282:.\Generated_Source\PSoC5/HeartbeatCounter.c **** *******************************************************************************/
 283:.\Generated_Source\PSoC5/HeartbeatCounter.c **** uint8   HeartbeatCounter_ReadControlRegister(void) 
 284:.\Generated_Source\PSoC5/HeartbeatCounter.c **** {
 129              		.loc 1 284 0
 130              		.cfi_startproc
 131              		@ args = 0, pretend = 0, frame = 0
 132              		@ frame_needed = 0, uses_anonymous_args = 0
 133              		@ link register save eliminated.
 285:.\Generated_Source\PSoC5/HeartbeatCounter.c ****     return HeartbeatCounter_CONTROL;
 134              		.loc 1 285 0
 135 0000 014B     		ldr	r3, .L14
 136 0002 1878     		ldrb	r0, [r3]	@ zero_extendqisi2
 286:.\Generated_Source\PSoC5/HeartbeatCounter.c **** }
 137              		.loc 1 286 0
 138 0004 7047     		bx	lr
 139              	.L15:
 140 0006 00BF     		.align	2
 141              	.L14:
 142 0008 74650040 		.word	1073767796
 143              		.cfi_endproc
 144              	.LFE6:
 145              		.size	HeartbeatCounter_ReadControlRegister, .-HeartbeatCounter_ReadControlRegister
 146              		.section	.text.HeartbeatCounter_WriteControlRegister,"ax",%progbits
 147              		.align	2
 148              		.global	HeartbeatCounter_WriteControlRegister
 149              		.thumb
 150              		.thumb_func
 151              		.type	HeartbeatCounter_WriteControlRegister, %function
 152              	HeartbeatCounter_WriteControlRegister:
 153              	.LFB7:
 287:.\Generated_Source\PSoC5/HeartbeatCounter.c **** 
 288:.\Generated_Source\PSoC5/HeartbeatCounter.c **** 
 289:.\Generated_Source\PSoC5/HeartbeatCounter.c **** /*******************************************************************************
 290:.\Generated_Source\PSoC5/HeartbeatCounter.c **** * Function Name: HeartbeatCounter_WriteControlRegister
 291:.\Generated_Source\PSoC5/HeartbeatCounter.c **** ********************************************************************************
 292:.\Generated_Source\PSoC5/HeartbeatCounter.c **** * Summary:
 293:.\Generated_Source\PSoC5/HeartbeatCounter.c **** *   Sets the bit-field of the control register.  This function should use
 294:.\Generated_Source\PSoC5/HeartbeatCounter.c **** *       defined types for the bit-field information as the bits in this
 295:.\Generated_Source\PSoC5/HeartbeatCounter.c **** *       register may be permuteable.
 296:.\Generated_Source\PSoC5/HeartbeatCounter.c **** *
 297:.\Generated_Source\PSoC5/HeartbeatCounter.c **** * Parameters:  
 298:.\Generated_Source\PSoC5/HeartbeatCounter.c **** *  void
 299:.\Generated_Source\PSoC5/HeartbeatCounter.c **** *
 300:.\Generated_Source\PSoC5/HeartbeatCounter.c **** * Return: 
 301:.\Generated_Source\PSoC5/HeartbeatCounter.c **** *  (uint8) The contents of the control register
 302:.\Generated_Source\PSoC5/HeartbeatCounter.c **** *
 303:.\Generated_Source\PSoC5/HeartbeatCounter.c **** *******************************************************************************/
ARM GAS  C:\Users\JohnP\AppData\Local\Temp\cc5GED80.s 			page 9


 304:.\Generated_Source\PSoC5/HeartbeatCounter.c **** void    HeartbeatCounter_WriteControlRegister(uint8 control) 
 305:.\Generated_Source\PSoC5/HeartbeatCounter.c **** {
 154              		.loc 1 305 0
 155              		.cfi_startproc
 156              		@ args = 0, pretend = 0, frame = 0
 157              		@ frame_needed = 0, uses_anonymous_args = 0
 158              		@ link register save eliminated.
 159              	.LVL1:
 306:.\Generated_Source\PSoC5/HeartbeatCounter.c ****     HeartbeatCounter_CONTROL = control;
 160              		.loc 1 306 0
 161 0000 014B     		ldr	r3, .L17
 162 0002 1870     		strb	r0, [r3]
 163 0004 7047     		bx	lr
 164              	.L18:
 165 0006 00BF     		.align	2
 166              	.L17:
 167 0008 74650040 		.word	1073767796
 168              		.cfi_endproc
 169              	.LFE7:
 170              		.size	HeartbeatCounter_WriteControlRegister, .-HeartbeatCounter_WriteControlRegister
 171              		.section	.text.HeartbeatCounter_WriteCounter,"ax",%progbits
 172              		.align	2
 173              		.global	HeartbeatCounter_WriteCounter
 174              		.thumb
 175              		.thumb_func
 176              		.type	HeartbeatCounter_WriteCounter, %function
 177              	HeartbeatCounter_WriteCounter:
 178              	.LFB8:
 307:.\Generated_Source\PSoC5/HeartbeatCounter.c **** }
 308:.\Generated_Source\PSoC5/HeartbeatCounter.c **** 
 309:.\Generated_Source\PSoC5/HeartbeatCounter.c **** #endif  /* (!HeartbeatCounter_ControlRegRemoved) */
 310:.\Generated_Source\PSoC5/HeartbeatCounter.c **** 
 311:.\Generated_Source\PSoC5/HeartbeatCounter.c **** 
 312:.\Generated_Source\PSoC5/HeartbeatCounter.c **** #if (!(HeartbeatCounter_UsingFixedFunction && (CY_PSOC5A)))
 313:.\Generated_Source\PSoC5/HeartbeatCounter.c **** /*******************************************************************************
 314:.\Generated_Source\PSoC5/HeartbeatCounter.c **** * Function Name: HeartbeatCounter_WriteCounter
 315:.\Generated_Source\PSoC5/HeartbeatCounter.c **** ********************************************************************************
 316:.\Generated_Source\PSoC5/HeartbeatCounter.c **** * Summary:
 317:.\Generated_Source\PSoC5/HeartbeatCounter.c **** *   This funtion is used to set the counter to a specific value
 318:.\Generated_Source\PSoC5/HeartbeatCounter.c **** *
 319:.\Generated_Source\PSoC5/HeartbeatCounter.c **** * Parameters:  
 320:.\Generated_Source\PSoC5/HeartbeatCounter.c **** *  counter:  New counter value. 
 321:.\Generated_Source\PSoC5/HeartbeatCounter.c **** *
 322:.\Generated_Source\PSoC5/HeartbeatCounter.c **** * Return: 
 323:.\Generated_Source\PSoC5/HeartbeatCounter.c **** *  void 
 324:.\Generated_Source\PSoC5/HeartbeatCounter.c **** *
 325:.\Generated_Source\PSoC5/HeartbeatCounter.c **** *******************************************************************************/
 326:.\Generated_Source\PSoC5/HeartbeatCounter.c **** void HeartbeatCounter_WriteCounter(uint32 counter) \
 327:.\Generated_Source\PSoC5/HeartbeatCounter.c ****                                    
 328:.\Generated_Source\PSoC5/HeartbeatCounter.c **** {
 179              		.loc 1 328 0
 180              		.cfi_startproc
 181              		@ args = 0, pretend = 0, frame = 0
 182              		@ frame_needed = 0, uses_anonymous_args = 0
 183              		@ link register save eliminated.
 184              	.LVL2:
 329:.\Generated_Source\PSoC5/HeartbeatCounter.c ****     #if(HeartbeatCounter_UsingFixedFunction)
ARM GAS  C:\Users\JohnP\AppData\Local\Temp\cc5GED80.s 			page 10


 330:.\Generated_Source\PSoC5/HeartbeatCounter.c ****         /* assert if block is already enabled */
 331:.\Generated_Source\PSoC5/HeartbeatCounter.c ****         CYASSERT (0u == (HeartbeatCounter_GLOBAL_ENABLE & HeartbeatCounter_BLOCK_EN_MASK));
 332:.\Generated_Source\PSoC5/HeartbeatCounter.c ****         /* If block is disabled, enable it and then write the counter */
 333:.\Generated_Source\PSoC5/HeartbeatCounter.c ****         HeartbeatCounter_GLOBAL_ENABLE |= HeartbeatCounter_BLOCK_EN_MASK;
 334:.\Generated_Source\PSoC5/HeartbeatCounter.c ****         CY_SET_REG16(HeartbeatCounter_COUNTER_LSB_PTR, (uint16)counter);
 335:.\Generated_Source\PSoC5/HeartbeatCounter.c ****         HeartbeatCounter_GLOBAL_ENABLE &= ((uint8)(~HeartbeatCounter_BLOCK_EN_MASK));
 336:.\Generated_Source\PSoC5/HeartbeatCounter.c ****     #else
 337:.\Generated_Source\PSoC5/HeartbeatCounter.c ****         CY_SET_REG32(HeartbeatCounter_COUNTER_LSB_PTR, counter);
 185              		.loc 1 337 0
 186 0000 014B     		ldr	r3, .L20
 187 0002 1860     		str	r0, [r3]
 188 0004 7047     		bx	lr
 189              	.L21:
 190 0006 00BF     		.align	2
 191              	.L20:
 192 0008 04650040 		.word	1073767684
 193              		.cfi_endproc
 194              	.LFE8:
 195              		.size	HeartbeatCounter_WriteCounter, .-HeartbeatCounter_WriteCounter
 196              		.section	.text.HeartbeatCounter_ReadCounter,"ax",%progbits
 197              		.align	2
 198              		.global	HeartbeatCounter_ReadCounter
 199              		.thumb
 200              		.thumb_func
 201              		.type	HeartbeatCounter_ReadCounter, %function
 202              	HeartbeatCounter_ReadCounter:
 203              	.LFB9:
 338:.\Generated_Source\PSoC5/HeartbeatCounter.c ****     #endif /* (HeartbeatCounter_UsingFixedFunction) */
 339:.\Generated_Source\PSoC5/HeartbeatCounter.c **** }
 340:.\Generated_Source\PSoC5/HeartbeatCounter.c **** #endif /* (!(HeartbeatCounter_UsingFixedFunction && (CY_PSOC5A))) */
 341:.\Generated_Source\PSoC5/HeartbeatCounter.c **** 
 342:.\Generated_Source\PSoC5/HeartbeatCounter.c **** 
 343:.\Generated_Source\PSoC5/HeartbeatCounter.c **** /*******************************************************************************
 344:.\Generated_Source\PSoC5/HeartbeatCounter.c **** * Function Name: HeartbeatCounter_ReadCounter
 345:.\Generated_Source\PSoC5/HeartbeatCounter.c **** ********************************************************************************
 346:.\Generated_Source\PSoC5/HeartbeatCounter.c **** * Summary:
 347:.\Generated_Source\PSoC5/HeartbeatCounter.c **** * Returns the current value of the counter.  It doesn't matter
 348:.\Generated_Source\PSoC5/HeartbeatCounter.c **** * if the counter is enabled or running.
 349:.\Generated_Source\PSoC5/HeartbeatCounter.c **** *
 350:.\Generated_Source\PSoC5/HeartbeatCounter.c **** * Parameters:  
 351:.\Generated_Source\PSoC5/HeartbeatCounter.c **** *  void:  
 352:.\Generated_Source\PSoC5/HeartbeatCounter.c **** *
 353:.\Generated_Source\PSoC5/HeartbeatCounter.c **** * Return: 
 354:.\Generated_Source\PSoC5/HeartbeatCounter.c **** *  (uint32) The present value of the counter.
 355:.\Generated_Source\PSoC5/HeartbeatCounter.c **** *
 356:.\Generated_Source\PSoC5/HeartbeatCounter.c **** *******************************************************************************/
 357:.\Generated_Source\PSoC5/HeartbeatCounter.c **** uint32 HeartbeatCounter_ReadCounter(void) 
 358:.\Generated_Source\PSoC5/HeartbeatCounter.c **** {
 204              		.loc 1 358 0
 205              		.cfi_startproc
 206              		@ args = 0, pretend = 0, frame = 0
 207              		@ frame_needed = 0, uses_anonymous_args = 0
 208              		@ link register save eliminated.
 359:.\Generated_Source\PSoC5/HeartbeatCounter.c ****     /* Force capture by reading Accumulator */
 360:.\Generated_Source\PSoC5/HeartbeatCounter.c ****     /* Must first do a software capture to be able to read the counter */
 361:.\Generated_Source\PSoC5/HeartbeatCounter.c ****     /* It is up to the user code to make sure there isn't already captured data in the FIFO */
 362:.\Generated_Source\PSoC5/HeartbeatCounter.c ****     #if(HeartbeatCounter_UsingFixedFunction)
ARM GAS  C:\Users\JohnP\AppData\Local\Temp\cc5GED80.s 			page 11


 363:.\Generated_Source\PSoC5/HeartbeatCounter.c **** 		(void)CY_GET_REG16(HeartbeatCounter_COUNTER_LSB_PTR);
 364:.\Generated_Source\PSoC5/HeartbeatCounter.c **** 	#else
 365:.\Generated_Source\PSoC5/HeartbeatCounter.c **** 		(void)CY_GET_REG8(HeartbeatCounter_COUNTER_LSB_PTR_8BIT);
 209              		.loc 1 365 0
 210 0000 024B     		ldr	r3, .L23
 211 0002 1B78     		ldrb	r3, [r3]	@ zero_extendqisi2
 366:.\Generated_Source\PSoC5/HeartbeatCounter.c **** 	#endif/* (HeartbeatCounter_UsingFixedFunction) */
 367:.\Generated_Source\PSoC5/HeartbeatCounter.c ****     
 368:.\Generated_Source\PSoC5/HeartbeatCounter.c ****     /* Read the data from the FIFO (or capture register for Fixed Function)*/
 369:.\Generated_Source\PSoC5/HeartbeatCounter.c ****     #if(HeartbeatCounter_UsingFixedFunction)
 370:.\Generated_Source\PSoC5/HeartbeatCounter.c ****         return ((uint32)CY_GET_REG16(HeartbeatCounter_STATICCOUNT_LSB_PTR));
 371:.\Generated_Source\PSoC5/HeartbeatCounter.c ****     #else
 372:.\Generated_Source\PSoC5/HeartbeatCounter.c ****         return (CY_GET_REG32(HeartbeatCounter_STATICCOUNT_LSB_PTR));
 212              		.loc 1 372 0
 213 0004 024B     		ldr	r3, .L23+4
 214 0006 1868     		ldr	r0, [r3]
 373:.\Generated_Source\PSoC5/HeartbeatCounter.c ****     #endif /* (HeartbeatCounter_UsingFixedFunction) */
 374:.\Generated_Source\PSoC5/HeartbeatCounter.c **** }
 215              		.loc 1 374 0
 216 0008 7047     		bx	lr
 217              	.L24:
 218 000a 00BF     		.align	2
 219              	.L23:
 220 000c 04650040 		.word	1073767684
 221 0010 44650040 		.word	1073767748
 222              		.cfi_endproc
 223              	.LFE9:
 224              		.size	HeartbeatCounter_ReadCounter, .-HeartbeatCounter_ReadCounter
 225              		.section	.text.HeartbeatCounter_ReadCapture,"ax",%progbits
 226              		.align	2
 227              		.global	HeartbeatCounter_ReadCapture
 228              		.thumb
 229              		.thumb_func
 230              		.type	HeartbeatCounter_ReadCapture, %function
 231              	HeartbeatCounter_ReadCapture:
 232              	.LFB10:
 375:.\Generated_Source\PSoC5/HeartbeatCounter.c **** 
 376:.\Generated_Source\PSoC5/HeartbeatCounter.c **** 
 377:.\Generated_Source\PSoC5/HeartbeatCounter.c **** /*******************************************************************************
 378:.\Generated_Source\PSoC5/HeartbeatCounter.c **** * Function Name: HeartbeatCounter_ReadCapture
 379:.\Generated_Source\PSoC5/HeartbeatCounter.c **** ********************************************************************************
 380:.\Generated_Source\PSoC5/HeartbeatCounter.c **** * Summary:
 381:.\Generated_Source\PSoC5/HeartbeatCounter.c **** *   This function returns the last value captured.
 382:.\Generated_Source\PSoC5/HeartbeatCounter.c **** *
 383:.\Generated_Source\PSoC5/HeartbeatCounter.c **** * Parameters:  
 384:.\Generated_Source\PSoC5/HeartbeatCounter.c **** *  void
 385:.\Generated_Source\PSoC5/HeartbeatCounter.c **** *
 386:.\Generated_Source\PSoC5/HeartbeatCounter.c **** * Return: 
 387:.\Generated_Source\PSoC5/HeartbeatCounter.c **** *  (uint32) Present Capture value.
 388:.\Generated_Source\PSoC5/HeartbeatCounter.c **** *
 389:.\Generated_Source\PSoC5/HeartbeatCounter.c **** *******************************************************************************/
 390:.\Generated_Source\PSoC5/HeartbeatCounter.c **** uint32 HeartbeatCounter_ReadCapture(void) 
 391:.\Generated_Source\PSoC5/HeartbeatCounter.c **** {
 233              		.loc 1 391 0
 234              		.cfi_startproc
 235              		@ args = 0, pretend = 0, frame = 0
 236              		@ frame_needed = 0, uses_anonymous_args = 0
ARM GAS  C:\Users\JohnP\AppData\Local\Temp\cc5GED80.s 			page 12


 237              		@ link register save eliminated.
 392:.\Generated_Source\PSoC5/HeartbeatCounter.c ****     #if(HeartbeatCounter_UsingFixedFunction)
 393:.\Generated_Source\PSoC5/HeartbeatCounter.c ****         return ((uint32)CY_GET_REG16(HeartbeatCounter_STATICCOUNT_LSB_PTR));
 394:.\Generated_Source\PSoC5/HeartbeatCounter.c ****     #else
 395:.\Generated_Source\PSoC5/HeartbeatCounter.c ****         return (CY_GET_REG32(HeartbeatCounter_STATICCOUNT_LSB_PTR));
 238              		.loc 1 395 0
 239 0000 014B     		ldr	r3, .L26
 240 0002 1868     		ldr	r0, [r3]
 396:.\Generated_Source\PSoC5/HeartbeatCounter.c ****     #endif /* (HeartbeatCounter_UsingFixedFunction) */
 397:.\Generated_Source\PSoC5/HeartbeatCounter.c **** }
 241              		.loc 1 397 0
 242 0004 7047     		bx	lr
 243              	.L27:
 244 0006 00BF     		.align	2
 245              	.L26:
 246 0008 44650040 		.word	1073767748
 247              		.cfi_endproc
 248              	.LFE10:
 249              		.size	HeartbeatCounter_ReadCapture, .-HeartbeatCounter_ReadCapture
 250              		.section	.text.HeartbeatCounter_WritePeriod,"ax",%progbits
 251              		.align	2
 252              		.global	HeartbeatCounter_WritePeriod
 253              		.thumb
 254              		.thumb_func
 255              		.type	HeartbeatCounter_WritePeriod, %function
 256              	HeartbeatCounter_WritePeriod:
 257              	.LFB11:
 398:.\Generated_Source\PSoC5/HeartbeatCounter.c **** 
 399:.\Generated_Source\PSoC5/HeartbeatCounter.c **** 
 400:.\Generated_Source\PSoC5/HeartbeatCounter.c **** /*******************************************************************************
 401:.\Generated_Source\PSoC5/HeartbeatCounter.c **** * Function Name: HeartbeatCounter_WritePeriod
 402:.\Generated_Source\PSoC5/HeartbeatCounter.c **** ********************************************************************************
 403:.\Generated_Source\PSoC5/HeartbeatCounter.c **** * Summary:
 404:.\Generated_Source\PSoC5/HeartbeatCounter.c **** * Changes the period of the counter.  The new period 
 405:.\Generated_Source\PSoC5/HeartbeatCounter.c **** * will be loaded the next time terminal count is detected.
 406:.\Generated_Source\PSoC5/HeartbeatCounter.c **** *
 407:.\Generated_Source\PSoC5/HeartbeatCounter.c **** * Parameters:  
 408:.\Generated_Source\PSoC5/HeartbeatCounter.c **** *  period: (uint32) A value of 0 will result in
 409:.\Generated_Source\PSoC5/HeartbeatCounter.c **** *         the counter remaining at zero.  
 410:.\Generated_Source\PSoC5/HeartbeatCounter.c **** *
 411:.\Generated_Source\PSoC5/HeartbeatCounter.c **** * Return: 
 412:.\Generated_Source\PSoC5/HeartbeatCounter.c **** *  void
 413:.\Generated_Source\PSoC5/HeartbeatCounter.c **** *
 414:.\Generated_Source\PSoC5/HeartbeatCounter.c **** *******************************************************************************/
 415:.\Generated_Source\PSoC5/HeartbeatCounter.c **** void HeartbeatCounter_WritePeriod(uint32 period) 
 416:.\Generated_Source\PSoC5/HeartbeatCounter.c **** {
 258              		.loc 1 416 0
 259              		.cfi_startproc
 260              		@ args = 0, pretend = 0, frame = 0
 261              		@ frame_needed = 0, uses_anonymous_args = 0
 262              		@ link register save eliminated.
 263              	.LVL3:
 417:.\Generated_Source\PSoC5/HeartbeatCounter.c ****     #if(HeartbeatCounter_UsingFixedFunction)
 418:.\Generated_Source\PSoC5/HeartbeatCounter.c ****         CY_SET_REG16(HeartbeatCounter_PERIOD_LSB_PTR,(uint16)period);
 419:.\Generated_Source\PSoC5/HeartbeatCounter.c ****     #else
 420:.\Generated_Source\PSoC5/HeartbeatCounter.c ****         CY_SET_REG32(HeartbeatCounter_PERIOD_LSB_PTR, period);
 264              		.loc 1 420 0
ARM GAS  C:\Users\JohnP\AppData\Local\Temp\cc5GED80.s 			page 13


 265 0000 014B     		ldr	r3, .L29
 266 0002 1860     		str	r0, [r3]
 267 0004 7047     		bx	lr
 268              	.L30:
 269 0006 00BF     		.align	2
 270              	.L29:
 271 0008 24650040 		.word	1073767716
 272              		.cfi_endproc
 273              	.LFE11:
 274              		.size	HeartbeatCounter_WritePeriod, .-HeartbeatCounter_WritePeriod
 275              		.section	.text.HeartbeatCounter_ReadPeriod,"ax",%progbits
 276              		.align	2
 277              		.global	HeartbeatCounter_ReadPeriod
 278              		.thumb
 279              		.thumb_func
 280              		.type	HeartbeatCounter_ReadPeriod, %function
 281              	HeartbeatCounter_ReadPeriod:
 282              	.LFB12:
 421:.\Generated_Source\PSoC5/HeartbeatCounter.c ****     #endif /* (HeartbeatCounter_UsingFixedFunction) */
 422:.\Generated_Source\PSoC5/HeartbeatCounter.c **** }
 423:.\Generated_Source\PSoC5/HeartbeatCounter.c **** 
 424:.\Generated_Source\PSoC5/HeartbeatCounter.c **** 
 425:.\Generated_Source\PSoC5/HeartbeatCounter.c **** /*******************************************************************************
 426:.\Generated_Source\PSoC5/HeartbeatCounter.c **** * Function Name: HeartbeatCounter_ReadPeriod
 427:.\Generated_Source\PSoC5/HeartbeatCounter.c **** ********************************************************************************
 428:.\Generated_Source\PSoC5/HeartbeatCounter.c **** * Summary:
 429:.\Generated_Source\PSoC5/HeartbeatCounter.c **** * Reads the current period value without affecting counter operation.
 430:.\Generated_Source\PSoC5/HeartbeatCounter.c **** *
 431:.\Generated_Source\PSoC5/HeartbeatCounter.c **** * Parameters:  
 432:.\Generated_Source\PSoC5/HeartbeatCounter.c **** *  void:  
 433:.\Generated_Source\PSoC5/HeartbeatCounter.c **** *
 434:.\Generated_Source\PSoC5/HeartbeatCounter.c **** * Return: 
 435:.\Generated_Source\PSoC5/HeartbeatCounter.c **** *  (uint32) Present period value.
 436:.\Generated_Source\PSoC5/HeartbeatCounter.c **** *
 437:.\Generated_Source\PSoC5/HeartbeatCounter.c **** *******************************************************************************/
 438:.\Generated_Source\PSoC5/HeartbeatCounter.c **** uint32 HeartbeatCounter_ReadPeriod(void) 
 439:.\Generated_Source\PSoC5/HeartbeatCounter.c **** {
 283              		.loc 1 439 0
 284              		.cfi_startproc
 285              		@ args = 0, pretend = 0, frame = 0
 286              		@ frame_needed = 0, uses_anonymous_args = 0
 287              		@ link register save eliminated.
 440:.\Generated_Source\PSoC5/HeartbeatCounter.c ****     #if(HeartbeatCounter_UsingFixedFunction)
 441:.\Generated_Source\PSoC5/HeartbeatCounter.c ****         return ((uint32)CY_GET_REG16(HeartbeatCounter_PERIOD_LSB_PTR));
 442:.\Generated_Source\PSoC5/HeartbeatCounter.c ****     #else
 443:.\Generated_Source\PSoC5/HeartbeatCounter.c ****         return (CY_GET_REG32(HeartbeatCounter_PERIOD_LSB_PTR));
 288              		.loc 1 443 0
 289 0000 014B     		ldr	r3, .L32
 290 0002 1868     		ldr	r0, [r3]
 444:.\Generated_Source\PSoC5/HeartbeatCounter.c ****     #endif /* (HeartbeatCounter_UsingFixedFunction) */
 445:.\Generated_Source\PSoC5/HeartbeatCounter.c **** }
 291              		.loc 1 445 0
 292 0004 7047     		bx	lr
 293              	.L33:
 294 0006 00BF     		.align	2
 295              	.L32:
 296 0008 24650040 		.word	1073767716
ARM GAS  C:\Users\JohnP\AppData\Local\Temp\cc5GED80.s 			page 14


 297              		.cfi_endproc
 298              	.LFE12:
 299              		.size	HeartbeatCounter_ReadPeriod, .-HeartbeatCounter_ReadPeriod
 300              		.section	.text.HeartbeatCounter_WriteCompare,"ax",%progbits
 301              		.align	2
 302              		.global	HeartbeatCounter_WriteCompare
 303              		.thumb
 304              		.thumb_func
 305              		.type	HeartbeatCounter_WriteCompare, %function
 306              	HeartbeatCounter_WriteCompare:
 307              	.LFB13:
 446:.\Generated_Source\PSoC5/HeartbeatCounter.c **** 
 447:.\Generated_Source\PSoC5/HeartbeatCounter.c **** 
 448:.\Generated_Source\PSoC5/HeartbeatCounter.c **** #if (!HeartbeatCounter_UsingFixedFunction)
 449:.\Generated_Source\PSoC5/HeartbeatCounter.c **** /*******************************************************************************
 450:.\Generated_Source\PSoC5/HeartbeatCounter.c **** * Function Name: HeartbeatCounter_WriteCompare
 451:.\Generated_Source\PSoC5/HeartbeatCounter.c **** ********************************************************************************
 452:.\Generated_Source\PSoC5/HeartbeatCounter.c **** * Summary:
 453:.\Generated_Source\PSoC5/HeartbeatCounter.c **** * Changes the compare value.  The compare output will 
 454:.\Generated_Source\PSoC5/HeartbeatCounter.c **** * reflect the new value on the next UDB clock.  The compare output will be 
 455:.\Generated_Source\PSoC5/HeartbeatCounter.c **** * driven high when the present counter value compares true based on the 
 456:.\Generated_Source\PSoC5/HeartbeatCounter.c **** * configured compare mode setting. 
 457:.\Generated_Source\PSoC5/HeartbeatCounter.c **** *
 458:.\Generated_Source\PSoC5/HeartbeatCounter.c **** * Parameters:  
 459:.\Generated_Source\PSoC5/HeartbeatCounter.c **** *  Compare:  New compare value. 
 460:.\Generated_Source\PSoC5/HeartbeatCounter.c **** *
 461:.\Generated_Source\PSoC5/HeartbeatCounter.c **** * Return: 
 462:.\Generated_Source\PSoC5/HeartbeatCounter.c **** *  void
 463:.\Generated_Source\PSoC5/HeartbeatCounter.c **** *
 464:.\Generated_Source\PSoC5/HeartbeatCounter.c **** *******************************************************************************/
 465:.\Generated_Source\PSoC5/HeartbeatCounter.c **** void HeartbeatCounter_WriteCompare(uint32 compare) \
 466:.\Generated_Source\PSoC5/HeartbeatCounter.c ****                                    
 467:.\Generated_Source\PSoC5/HeartbeatCounter.c **** {
 308              		.loc 1 467 0
 309              		.cfi_startproc
 310              		@ args = 0, pretend = 0, frame = 0
 311              		@ frame_needed = 0, uses_anonymous_args = 0
 312              		@ link register save eliminated.
 313              	.LVL4:
 468:.\Generated_Source\PSoC5/HeartbeatCounter.c ****     #if(HeartbeatCounter_UsingFixedFunction)
 469:.\Generated_Source\PSoC5/HeartbeatCounter.c ****         CY_SET_REG16(HeartbeatCounter_COMPARE_LSB_PTR, (uint16)compare);
 470:.\Generated_Source\PSoC5/HeartbeatCounter.c ****     #else
 471:.\Generated_Source\PSoC5/HeartbeatCounter.c ****         CY_SET_REG32(HeartbeatCounter_COMPARE_LSB_PTR, compare);
 314              		.loc 1 471 0
 315 0000 014B     		ldr	r3, .L35
 316 0002 1860     		str	r0, [r3]
 317 0004 7047     		bx	lr
 318              	.L36:
 319 0006 00BF     		.align	2
 320              	.L35:
 321 0008 34650040 		.word	1073767732
 322              		.cfi_endproc
 323              	.LFE13:
 324              		.size	HeartbeatCounter_WriteCompare, .-HeartbeatCounter_WriteCompare
 325              		.section	.text.HeartbeatCounter_ReadCompare,"ax",%progbits
 326              		.align	2
 327              		.global	HeartbeatCounter_ReadCompare
ARM GAS  C:\Users\JohnP\AppData\Local\Temp\cc5GED80.s 			page 15


 328              		.thumb
 329              		.thumb_func
 330              		.type	HeartbeatCounter_ReadCompare, %function
 331              	HeartbeatCounter_ReadCompare:
 332              	.LFB14:
 472:.\Generated_Source\PSoC5/HeartbeatCounter.c ****     #endif /* (HeartbeatCounter_UsingFixedFunction) */
 473:.\Generated_Source\PSoC5/HeartbeatCounter.c **** }
 474:.\Generated_Source\PSoC5/HeartbeatCounter.c **** 
 475:.\Generated_Source\PSoC5/HeartbeatCounter.c **** 
 476:.\Generated_Source\PSoC5/HeartbeatCounter.c **** /*******************************************************************************
 477:.\Generated_Source\PSoC5/HeartbeatCounter.c **** * Function Name: HeartbeatCounter_ReadCompare
 478:.\Generated_Source\PSoC5/HeartbeatCounter.c **** ********************************************************************************
 479:.\Generated_Source\PSoC5/HeartbeatCounter.c **** * Summary:
 480:.\Generated_Source\PSoC5/HeartbeatCounter.c **** * Returns the compare value.
 481:.\Generated_Source\PSoC5/HeartbeatCounter.c **** *
 482:.\Generated_Source\PSoC5/HeartbeatCounter.c **** * Parameters:  
 483:.\Generated_Source\PSoC5/HeartbeatCounter.c **** *  void:
 484:.\Generated_Source\PSoC5/HeartbeatCounter.c **** *
 485:.\Generated_Source\PSoC5/HeartbeatCounter.c **** * Return: 
 486:.\Generated_Source\PSoC5/HeartbeatCounter.c **** *  (uint32) Present compare value.
 487:.\Generated_Source\PSoC5/HeartbeatCounter.c **** *
 488:.\Generated_Source\PSoC5/HeartbeatCounter.c **** *******************************************************************************/
 489:.\Generated_Source\PSoC5/HeartbeatCounter.c **** uint32 HeartbeatCounter_ReadCompare(void) 
 490:.\Generated_Source\PSoC5/HeartbeatCounter.c **** {
 333              		.loc 1 490 0
 334              		.cfi_startproc
 335              		@ args = 0, pretend = 0, frame = 0
 336              		@ frame_needed = 0, uses_anonymous_args = 0
 337              		@ link register save eliminated.
 491:.\Generated_Source\PSoC5/HeartbeatCounter.c ****     return (CY_GET_REG32(HeartbeatCounter_COMPARE_LSB_PTR));
 338              		.loc 1 491 0
 339 0000 014B     		ldr	r3, .L38
 340 0002 1868     		ldr	r0, [r3]
 492:.\Generated_Source\PSoC5/HeartbeatCounter.c **** }
 341              		.loc 1 492 0
 342 0004 7047     		bx	lr
 343              	.L39:
 344 0006 00BF     		.align	2
 345              	.L38:
 346 0008 34650040 		.word	1073767732
 347              		.cfi_endproc
 348              	.LFE14:
 349              		.size	HeartbeatCounter_ReadCompare, .-HeartbeatCounter_ReadCompare
 350              		.section	.text.HeartbeatCounter_ClearFIFO,"ax",%progbits
 351              		.align	2
 352              		.global	HeartbeatCounter_ClearFIFO
 353              		.thumb
 354              		.thumb_func
 355              		.type	HeartbeatCounter_ClearFIFO, %function
 356              	HeartbeatCounter_ClearFIFO:
 357              	.LFB15:
 493:.\Generated_Source\PSoC5/HeartbeatCounter.c **** 
 494:.\Generated_Source\PSoC5/HeartbeatCounter.c **** 
 495:.\Generated_Source\PSoC5/HeartbeatCounter.c **** #if (HeartbeatCounter_COMPARE_MODE_SOFTWARE)
 496:.\Generated_Source\PSoC5/HeartbeatCounter.c **** /*******************************************************************************
 497:.\Generated_Source\PSoC5/HeartbeatCounter.c **** * Function Name: HeartbeatCounter_SetCompareMode
 498:.\Generated_Source\PSoC5/HeartbeatCounter.c **** ********************************************************************************
ARM GAS  C:\Users\JohnP\AppData\Local\Temp\cc5GED80.s 			page 16


 499:.\Generated_Source\PSoC5/HeartbeatCounter.c **** * Summary:
 500:.\Generated_Source\PSoC5/HeartbeatCounter.c **** *  Sets the software controlled Compare Mode.
 501:.\Generated_Source\PSoC5/HeartbeatCounter.c **** *
 502:.\Generated_Source\PSoC5/HeartbeatCounter.c **** * Parameters:
 503:.\Generated_Source\PSoC5/HeartbeatCounter.c **** *  compareMode:  Compare Mode Enumerated Type.
 504:.\Generated_Source\PSoC5/HeartbeatCounter.c **** *
 505:.\Generated_Source\PSoC5/HeartbeatCounter.c **** * Return:
 506:.\Generated_Source\PSoC5/HeartbeatCounter.c **** *  void
 507:.\Generated_Source\PSoC5/HeartbeatCounter.c **** *
 508:.\Generated_Source\PSoC5/HeartbeatCounter.c **** *******************************************************************************/
 509:.\Generated_Source\PSoC5/HeartbeatCounter.c **** void HeartbeatCounter_SetCompareMode(uint8 compareMode) 
 510:.\Generated_Source\PSoC5/HeartbeatCounter.c **** {
 511:.\Generated_Source\PSoC5/HeartbeatCounter.c ****     /* Clear the compare mode bits in the control register */
 512:.\Generated_Source\PSoC5/HeartbeatCounter.c ****     HeartbeatCounter_CONTROL &= ((uint8)(~HeartbeatCounter_CTRL_CMPMODE_MASK));
 513:.\Generated_Source\PSoC5/HeartbeatCounter.c ****     
 514:.\Generated_Source\PSoC5/HeartbeatCounter.c ****     /* Write the new setting */
 515:.\Generated_Source\PSoC5/HeartbeatCounter.c ****     HeartbeatCounter_CONTROL |= compareMode;
 516:.\Generated_Source\PSoC5/HeartbeatCounter.c **** }
 517:.\Generated_Source\PSoC5/HeartbeatCounter.c **** #endif  /* (HeartbeatCounter_COMPARE_MODE_SOFTWARE) */
 518:.\Generated_Source\PSoC5/HeartbeatCounter.c **** 
 519:.\Generated_Source\PSoC5/HeartbeatCounter.c **** 
 520:.\Generated_Source\PSoC5/HeartbeatCounter.c **** #if (HeartbeatCounter_CAPTURE_MODE_SOFTWARE)
 521:.\Generated_Source\PSoC5/HeartbeatCounter.c **** /*******************************************************************************
 522:.\Generated_Source\PSoC5/HeartbeatCounter.c **** * Function Name: HeartbeatCounter_SetCaptureMode
 523:.\Generated_Source\PSoC5/HeartbeatCounter.c **** ********************************************************************************
 524:.\Generated_Source\PSoC5/HeartbeatCounter.c **** * Summary:
 525:.\Generated_Source\PSoC5/HeartbeatCounter.c **** *  Sets the software controlled Capture Mode.
 526:.\Generated_Source\PSoC5/HeartbeatCounter.c **** *
 527:.\Generated_Source\PSoC5/HeartbeatCounter.c **** * Parameters:
 528:.\Generated_Source\PSoC5/HeartbeatCounter.c **** *  captureMode:  Capture Mode Enumerated Type.
 529:.\Generated_Source\PSoC5/HeartbeatCounter.c **** *
 530:.\Generated_Source\PSoC5/HeartbeatCounter.c **** * Return:
 531:.\Generated_Source\PSoC5/HeartbeatCounter.c **** *  void
 532:.\Generated_Source\PSoC5/HeartbeatCounter.c **** *
 533:.\Generated_Source\PSoC5/HeartbeatCounter.c **** *******************************************************************************/
 534:.\Generated_Source\PSoC5/HeartbeatCounter.c **** void HeartbeatCounter_SetCaptureMode(uint8 captureMode) 
 535:.\Generated_Source\PSoC5/HeartbeatCounter.c **** {
 536:.\Generated_Source\PSoC5/HeartbeatCounter.c ****     /* Clear the capture mode bits in the control register */
 537:.\Generated_Source\PSoC5/HeartbeatCounter.c ****     HeartbeatCounter_CONTROL &= ((uint8)(~HeartbeatCounter_CTRL_CAPMODE_MASK));
 538:.\Generated_Source\PSoC5/HeartbeatCounter.c ****     
 539:.\Generated_Source\PSoC5/HeartbeatCounter.c ****     /* Write the new setting */
 540:.\Generated_Source\PSoC5/HeartbeatCounter.c ****     HeartbeatCounter_CONTROL |= ((uint8)((uint8)captureMode << HeartbeatCounter_CTRL_CAPMODE0_SHIFT
 541:.\Generated_Source\PSoC5/HeartbeatCounter.c **** }
 542:.\Generated_Source\PSoC5/HeartbeatCounter.c **** #endif  /* (HeartbeatCounter_CAPTURE_MODE_SOFTWARE) */
 543:.\Generated_Source\PSoC5/HeartbeatCounter.c **** 
 544:.\Generated_Source\PSoC5/HeartbeatCounter.c **** 
 545:.\Generated_Source\PSoC5/HeartbeatCounter.c **** /*******************************************************************************
 546:.\Generated_Source\PSoC5/HeartbeatCounter.c **** * Function Name: HeartbeatCounter_ClearFIFO
 547:.\Generated_Source\PSoC5/HeartbeatCounter.c **** ********************************************************************************
 548:.\Generated_Source\PSoC5/HeartbeatCounter.c **** * Summary:
 549:.\Generated_Source\PSoC5/HeartbeatCounter.c **** *   This function clears all capture data from the capture FIFO
 550:.\Generated_Source\PSoC5/HeartbeatCounter.c **** *
 551:.\Generated_Source\PSoC5/HeartbeatCounter.c **** * Parameters:  
 552:.\Generated_Source\PSoC5/HeartbeatCounter.c **** *  void:
 553:.\Generated_Source\PSoC5/HeartbeatCounter.c **** *
 554:.\Generated_Source\PSoC5/HeartbeatCounter.c **** * Return: 
 555:.\Generated_Source\PSoC5/HeartbeatCounter.c **** *  None
ARM GAS  C:\Users\JohnP\AppData\Local\Temp\cc5GED80.s 			page 17


 556:.\Generated_Source\PSoC5/HeartbeatCounter.c **** *
 557:.\Generated_Source\PSoC5/HeartbeatCounter.c **** *******************************************************************************/
 558:.\Generated_Source\PSoC5/HeartbeatCounter.c **** void HeartbeatCounter_ClearFIFO(void) 
 559:.\Generated_Source\PSoC5/HeartbeatCounter.c **** {
 358              		.loc 1 559 0
 359              		.cfi_startproc
 360              		@ args = 0, pretend = 0, frame = 0
 361              		@ frame_needed = 0, uses_anonymous_args = 0
 362 0000 08B5     		push	{r3, lr}
 363              		.cfi_def_cfa_offset 8
 364              		.cfi_offset 3, -8
 365              		.cfi_offset 14, -4
 560:.\Generated_Source\PSoC5/HeartbeatCounter.c **** 
 561:.\Generated_Source\PSoC5/HeartbeatCounter.c ****     while(0u != (HeartbeatCounter_ReadStatusRegister() & HeartbeatCounter_STATUS_FIFONEMP))
 366              		.loc 1 561 0
 367 0002 01E0     		b	.L41
 368              	.L42:
 562:.\Generated_Source\PSoC5/HeartbeatCounter.c ****     {
 563:.\Generated_Source\PSoC5/HeartbeatCounter.c ****         (void)HeartbeatCounter_ReadCapture();
 369              		.loc 1 563 0
 370 0004 FFF7FEFF 		bl	HeartbeatCounter_ReadCapture
 371              	.LVL5:
 372              	.L41:
 561:.\Generated_Source\PSoC5/HeartbeatCounter.c ****     while(0u != (HeartbeatCounter_ReadStatusRegister() & HeartbeatCounter_STATUS_FIFONEMP))
 373              		.loc 1 561 0 discriminator 1
 374 0008 FFF7FEFF 		bl	HeartbeatCounter_ReadStatusRegister
 375              	.LVL6:
 376 000c 10F0400F 		tst	r0, #64
 377 0010 F8D1     		bne	.L42
 564:.\Generated_Source\PSoC5/HeartbeatCounter.c ****     }
 565:.\Generated_Source\PSoC5/HeartbeatCounter.c **** 
 566:.\Generated_Source\PSoC5/HeartbeatCounter.c **** }
 378              		.loc 1 566 0
 379 0012 08BD     		pop	{r3, pc}
 380              		.cfi_endproc
 381              	.LFE15:
 382              		.size	HeartbeatCounter_ClearFIFO, .-HeartbeatCounter_ClearFIFO
 383              		.section	.text.HeartbeatCounter_Init,"ax",%progbits
 384              		.align	2
 385              		.global	HeartbeatCounter_Init
 386              		.thumb
 387              		.thumb_func
 388              		.type	HeartbeatCounter_Init, %function
 389              	HeartbeatCounter_Init:
 390              	.LFB0:
  38:.\Generated_Source\PSoC5/HeartbeatCounter.c **** {
 391              		.loc 1 38 0
 392              		.cfi_startproc
 393              		@ args = 0, pretend = 0, frame = 0
 394              		@ frame_needed = 0, uses_anonymous_args = 0
 395 0000 08B5     		push	{r3, lr}
 396              		.cfi_def_cfa_offset 8
 397              		.cfi_offset 3, -8
 398              		.cfi_offset 14, -4
  79:.\Generated_Source\PSoC5/HeartbeatCounter.c ****             ctrl = HeartbeatCounter_CONTROL & ((uint8)(~HeartbeatCounter_CTRL_CMPMODE_MASK));
 399              		.loc 1 79 0
 400 0002 134B     		ldr	r3, .L44
ARM GAS  C:\Users\JohnP\AppData\Local\Temp\cc5GED80.s 			page 18


 401 0004 1A78     		ldrb	r2, [r3]	@ zero_extendqisi2
 402 0006 02F0F802 		and	r2, r2, #248
 403              	.LVL7:
  80:.\Generated_Source\PSoC5/HeartbeatCounter.c ****             HeartbeatCounter_CONTROL = ctrl | HeartbeatCounter_DEFAULT_COMPARE_MODE;
 404              		.loc 1 80 0
 405 000a 42F00102 		orr	r2, r2, #1
 406              	.LVL8:
 407 000e 1A70     		strb	r2, [r3]
  83:.\Generated_Source\PSoC5/HeartbeatCounter.c ****             ctrl = HeartbeatCounter_CONTROL & ((uint8)(~HeartbeatCounter_CTRL_CAPMODE_MASK));
 408              		.loc 1 83 0
 409 0010 1A78     		ldrb	r2, [r3]	@ zero_extendqisi2
 410 0012 02F0FC02 		and	r2, r2, #252
 411              	.LVL9:
  88:.\Generated_Source\PSoC5/HeartbeatCounter.c ****                 HeartbeatCounter_CONTROL = ctrl;
 412              		.loc 1 88 0
 413 0016 1A70     		strb	r2, [r3]
  96:.\Generated_Source\PSoC5/HeartbeatCounter.c ****             HeartbeatCounter_ClearFIFO();
 414              		.loc 1 96 0
 415 0018 FFF7FEFF 		bl	HeartbeatCounter_ClearFIFO
 416              	.LVL10:
 100:.\Generated_Source\PSoC5/HeartbeatCounter.c ****         HeartbeatCounter_WritePeriod(HeartbeatCounter_INIT_PERIOD_VALUE);
 417              		.loc 1 100 0
 418 001c 4FF0FF30 		mov	r0, #-1
 419 0020 FFF7FEFF 		bl	HeartbeatCounter_WritePeriod
 420              	.LVL11:
 102:.\Generated_Source\PSoC5/HeartbeatCounter.c ****             HeartbeatCounter_WriteCounter(HeartbeatCounter_INIT_COUNTER_VALUE);
 421              		.loc 1 102 0
 422 0024 4FF0FF30 		mov	r0, #-1
 423 0028 FFF7FEFF 		bl	HeartbeatCounter_WriteCounter
 424              	.LVL12:
 104:.\Generated_Source\PSoC5/HeartbeatCounter.c ****         HeartbeatCounter_SetInterruptMode(HeartbeatCounter_INIT_INTERRUPTS_MASK);
 425              		.loc 1 104 0
 426 002c 0020     		movs	r0, #0
 427 002e FFF7FEFF 		bl	HeartbeatCounter_SetInterruptMode
 428              	.LVL13:
 108:.\Generated_Source\PSoC5/HeartbeatCounter.c ****             (void)HeartbeatCounter_ReadStatusRegister();
 429              		.loc 1 108 0
 430 0032 FFF7FEFF 		bl	HeartbeatCounter_ReadStatusRegister
 431              	.LVL14:
 110:.\Generated_Source\PSoC5/HeartbeatCounter.c ****             HeartbeatCounter_WriteCompare(HeartbeatCounter_INIT_COMPARE_VALUE);
 432              		.loc 1 110 0
 433 0036 8020     		movs	r0, #128
 434 0038 FFF7FEFF 		bl	HeartbeatCounter_WriteCompare
 435              	.LVL15:
 115:.\Generated_Source\PSoC5/HeartbeatCounter.c ****             HeartbeatCounter_interruptState = CyEnterCriticalSection();
 436              		.loc 1 115 0
 437 003c FFF7FEFF 		bl	CyEnterCriticalSection
 438              	.LVL16:
 117:.\Generated_Source\PSoC5/HeartbeatCounter.c ****             HeartbeatCounter_STATUS_AUX_CTRL |= HeartbeatCounter_STATUS_ACTL_INT_EN_MASK;
 439              		.loc 1 117 0
 440 0040 044B     		ldr	r3, .L44+4
 441 0042 1A78     		ldrb	r2, [r3]	@ zero_extendqisi2
 442 0044 42F01002 		orr	r2, r2, #16
 443 0048 1A70     		strb	r2, [r3]
 120:.\Generated_Source\PSoC5/HeartbeatCounter.c ****             CyExitCriticalSection(HeartbeatCounter_interruptState);
 444              		.loc 1 120 0
 445 004a FFF7FEFF 		bl	CyExitCriticalSection
ARM GAS  C:\Users\JohnP\AppData\Local\Temp\cc5GED80.s 			page 19


 446              	.LVL17:
 447 004e 08BD     		pop	{r3, pc}
 448              	.L45:
 449              		.align	2
 450              	.L44:
 451 0050 74650040 		.word	1073767796
 452 0054 97650040 		.word	1073767831
 453              		.cfi_endproc
 454              	.LFE0:
 455              		.size	HeartbeatCounter_Init, .-HeartbeatCounter_Init
 456              		.section	.text.HeartbeatCounter_Start,"ax",%progbits
 457              		.align	2
 458              		.global	HeartbeatCounter_Start
 459              		.thumb
 460              		.thumb_func
 461              		.type	HeartbeatCounter_Start, %function
 462              	HeartbeatCounter_Start:
 463              	.LFB2:
 179:.\Generated_Source\PSoC5/HeartbeatCounter.c **** {
 464              		.loc 1 179 0
 465              		.cfi_startproc
 466              		@ args = 0, pretend = 0, frame = 0
 467              		@ frame_needed = 0, uses_anonymous_args = 0
 468 0000 08B5     		push	{r3, lr}
 469              		.cfi_def_cfa_offset 8
 470              		.cfi_offset 3, -8
 471              		.cfi_offset 14, -4
 180:.\Generated_Source\PSoC5/HeartbeatCounter.c ****     if(HeartbeatCounter_initVar == 0u)
 472              		.loc 1 180 0
 473 0002 054B     		ldr	r3, .L48
 474 0004 1B78     		ldrb	r3, [r3]	@ zero_extendqisi2
 475 0006 23B9     		cbnz	r3, .L47
 182:.\Generated_Source\PSoC5/HeartbeatCounter.c ****         HeartbeatCounter_Init();
 476              		.loc 1 182 0
 477 0008 FFF7FEFF 		bl	HeartbeatCounter_Init
 478              	.LVL18:
 184:.\Generated_Source\PSoC5/HeartbeatCounter.c ****         HeartbeatCounter_initVar = 1u; /* Clear this bit for Initialization */        
 479              		.loc 1 184 0
 480 000c 0122     		movs	r2, #1
 481 000e 024B     		ldr	r3, .L48
 482 0010 1A70     		strb	r2, [r3]
 483              	.L47:
 188:.\Generated_Source\PSoC5/HeartbeatCounter.c ****     HeartbeatCounter_Enable();        
 484              		.loc 1 188 0
 485 0012 FFF7FEFF 		bl	HeartbeatCounter_Enable
 486              	.LVL19:
 487 0016 08BD     		pop	{r3, pc}
 488              	.L49:
 489              		.align	2
 490              	.L48:
 491 0018 00000000 		.word	.LANCHOR0
 492              		.cfi_endproc
 493              	.LFE2:
 494              		.size	HeartbeatCounter_Start, .-HeartbeatCounter_Start
 495              		.global	HeartbeatCounter_initVar
 496              		.bss
 497              		.set	.LANCHOR0,. + 0
ARM GAS  C:\Users\JohnP\AppData\Local\Temp\cc5GED80.s 			page 20


 498              		.type	HeartbeatCounter_initVar, %object
 499              		.size	HeartbeatCounter_initVar, 1
 500              	HeartbeatCounter_initVar:
 501 0000 00       		.space	1
 502              		.text
 503              	.Letext0:
 504              		.file 2 ".\\Generated_Source\\PSoC5\\cytypes.h"
 505              		.file 3 ".\\Generated_Source\\PSoC5\\CyLib.h"