ARM GAS  C:\Users\JohnP\AppData\Local\Temp\ccHd1jkV.s 			page 1


   1              		.syntax unified
   2              		.cpu cortex-m3
   3              		.fpu softvfp
   4              		.eabi_attribute 20, 1
   5              		.eabi_attribute 21, 1
   6              		.eabi_attribute 23, 3
   7              		.eabi_attribute 24, 1
   8              		.eabi_attribute 25, 1
   9              		.eabi_attribute 26, 1
  10              		.eabi_attribute 30, 1
  11              		.eabi_attribute 34, 1
  12              		.eabi_attribute 18, 4
  13              		.thumb
  14              		.file	"lcd_test_BarGraph.c"
  15              		.text
  16              	.Ltext0:
  17              		.cfi_sections	.debug_frame
  18              		.section	.text.lcd_test_LoadCustomFonts,"ax",%progbits
  19              		.align	2
  20              		.global	lcd_test_LoadCustomFonts
  21              		.thumb
  22              		.thumb_func
  23              		.type	lcd_test_LoadCustomFonts, %function
  24              	lcd_test_LoadCustomFonts:
  25              	.LFB0:
  26              		.file 1 ".\\Generated_Source\\PSoC5\\lcd_test_BarGraph.c"
   1:.\Generated_Source\PSoC5/lcd_test_BarGraph.c **** /*******************************************************************************
   2:.\Generated_Source\PSoC5/lcd_test_BarGraph.c **** * File Name: lcd_test_BarGraph.c
   3:.\Generated_Source\PSoC5/lcd_test_BarGraph.c **** * Version 2.10
   4:.\Generated_Source\PSoC5/lcd_test_BarGraph.c **** *
   5:.\Generated_Source\PSoC5/lcd_test_BarGraph.c **** * Description:
   6:.\Generated_Source\PSoC5/lcd_test_BarGraph.c **** *  This file provides the custom character data and API for creating and using
   7:.\Generated_Source\PSoC5/lcd_test_BarGraph.c **** *  bar graphs with the Character LCD component.
   8:.\Generated_Source\PSoC5/lcd_test_BarGraph.c **** *
   9:.\Generated_Source\PSoC5/lcd_test_BarGraph.c **** * Note:
  10:.\Generated_Source\PSoC5/lcd_test_BarGraph.c **** *
  11:.\Generated_Source\PSoC5/lcd_test_BarGraph.c **** ********************************************************************************
  12:.\Generated_Source\PSoC5/lcd_test_BarGraph.c **** * Copyright 2008-2014, Cypress Semiconductor Corporation.  All rights reserved.
  13:.\Generated_Source\PSoC5/lcd_test_BarGraph.c **** * You may use this file only in accordance with the license, terms, conditions,
  14:.\Generated_Source\PSoC5/lcd_test_BarGraph.c **** * disclaimers, and limitations in the end user license agreement accompanying
  15:.\Generated_Source\PSoC5/lcd_test_BarGraph.c **** * the software package with which this file was provided.
  16:.\Generated_Source\PSoC5/lcd_test_BarGraph.c **** *******************************************************************************/
  17:.\Generated_Source\PSoC5/lcd_test_BarGraph.c **** 
  18:.\Generated_Source\PSoC5/lcd_test_BarGraph.c **** #include "lcd_test.h"
  19:.\Generated_Source\PSoC5/lcd_test_BarGraph.c **** 
  20:.\Generated_Source\PSoC5/lcd_test_BarGraph.c **** 
  21:.\Generated_Source\PSoC5/lcd_test_BarGraph.c **** uint8 const CYCODE lcd_test_customFonts[] = \
  22:.\Generated_Source\PSoC5/lcd_test_BarGraph.c **** {
  23:.\Generated_Source\PSoC5/lcd_test_BarGraph.c ****     /* Character lcd_test_CUSTOM_0   */
  24:.\Generated_Source\PSoC5/lcd_test_BarGraph.c ****     0x00u,    0x00u,    0x00u,    0x00u,    0x00u,    0x00u,    0x00u,    0x1Fu, \
  25:.\Generated_Source\PSoC5/lcd_test_BarGraph.c ****     /* Character lcd_test_CUSTOM_1   */
  26:.\Generated_Source\PSoC5/lcd_test_BarGraph.c ****     0x00u,    0x00u,    0x00u,    0x00u,    0x00u,    0x00u,    0x1Fu,    0x1Fu, \
  27:.\Generated_Source\PSoC5/lcd_test_BarGraph.c ****     /* Character lcd_test_CUSTOM_2   */
  28:.\Generated_Source\PSoC5/lcd_test_BarGraph.c ****     0x00u,    0x00u,    0x00u,    0x00u,    0x00u,    0x1Fu,    0x1Fu,    0x1Fu, \
  29:.\Generated_Source\PSoC5/lcd_test_BarGraph.c ****     /* Character lcd_test_CUSTOM_3   */
  30:.\Generated_Source\PSoC5/lcd_test_BarGraph.c ****     0x00u,    0x00u,    0x00u,    0x00u,    0x1Fu,    0x1Fu,    0x1Fu,    0x1Fu, \
  31:.\Generated_Source\PSoC5/lcd_test_BarGraph.c ****     /* Character lcd_test_CUSTOM_4   */
ARM GAS  C:\Users\JohnP\AppData\Local\Temp\ccHd1jkV.s 			page 2


  32:.\Generated_Source\PSoC5/lcd_test_BarGraph.c ****     0x00u,    0x00u,    0x00u,    0x1Fu,    0x1Fu,    0x1Fu,    0x1Fu,    0x1Fu, \
  33:.\Generated_Source\PSoC5/lcd_test_BarGraph.c ****     /* Character lcd_test_CUSTOM_5   */
  34:.\Generated_Source\PSoC5/lcd_test_BarGraph.c ****     0x00u,    0x00u,    0x1Fu,    0x1Fu,    0x1Fu,    0x1Fu,    0x1Fu,    0x1Fu, \
  35:.\Generated_Source\PSoC5/lcd_test_BarGraph.c ****     /* Character lcd_test_CUSTOM_6   */
  36:.\Generated_Source\PSoC5/lcd_test_BarGraph.c ****     0x00u,    0x1Fu,    0x1Fu,    0x1Fu,    0x1Fu,    0x1Fu,    0x1Fu,    0x1Fu, \
  37:.\Generated_Source\PSoC5/lcd_test_BarGraph.c ****     /* Character lcd_test_CUSTOM_7   */
  38:.\Generated_Source\PSoC5/lcd_test_BarGraph.c ****     0x1Fu,    0x1Fu,    0x1Fu,    0x1Fu,    0x1Fu,    0x1Fu,    0x1Fu,    0x1Fu \
  39:.\Generated_Source\PSoC5/lcd_test_BarGraph.c **** };
  40:.\Generated_Source\PSoC5/lcd_test_BarGraph.c **** 
  41:.\Generated_Source\PSoC5/lcd_test_BarGraph.c **** 
  42:.\Generated_Source\PSoC5/lcd_test_BarGraph.c **** /*******************************************************************************
  43:.\Generated_Source\PSoC5/lcd_test_BarGraph.c **** * Function Name: lcd_test_LoadCustomFonts
  44:.\Generated_Source\PSoC5/lcd_test_BarGraph.c **** ********************************************************************************
  45:.\Generated_Source\PSoC5/lcd_test_BarGraph.c **** *
  46:.\Generated_Source\PSoC5/lcd_test_BarGraph.c **** * Summary:
  47:.\Generated_Source\PSoC5/lcd_test_BarGraph.c **** *  Loads 8 custom font characters into the LCD Module for use.  Cannot use
  48:.\Generated_Source\PSoC5/lcd_test_BarGraph.c **** *  characters from two different font sets at once, but font sets can be
  49:.\Generated_Source\PSoC5/lcd_test_BarGraph.c **** *  switched out during runtime.
  50:.\Generated_Source\PSoC5/lcd_test_BarGraph.c **** *
  51:.\Generated_Source\PSoC5/lcd_test_BarGraph.c **** * Parameters:
  52:.\Generated_Source\PSoC5/lcd_test_BarGraph.c **** *  customData:  pointer to a constant array of 64 bytes representing 8 custom
  53:.\Generated_Source\PSoC5/lcd_test_BarGraph.c **** *               font characters.
  54:.\Generated_Source\PSoC5/lcd_test_BarGraph.c **** * Return:
  55:.\Generated_Source\PSoC5/lcd_test_BarGraph.c **** *  None.
  56:.\Generated_Source\PSoC5/lcd_test_BarGraph.c **** *
  57:.\Generated_Source\PSoC5/lcd_test_BarGraph.c **** * Theory:
  58:.\Generated_Source\PSoC5/lcd_test_BarGraph.c **** *  Prior to using this function user need to import the pointer to custom
  59:.\Generated_Source\PSoC5/lcd_test_BarGraph.c **** *  font array to your project by writting the following in the source code file
  60:.\Generated_Source\PSoC5/lcd_test_BarGraph.c **** *  where custom font will be used:
  61:.\Generated_Source\PSoC5/lcd_test_BarGraph.c **** *       extern uint8 const CYCODE LCD_Char_customFonts[];
  62:.\Generated_Source\PSoC5/lcd_test_BarGraph.c **** *  This function is not automatically called by the Start() routine and must be
  63:.\Generated_Source\PSoC5/lcd_test_BarGraph.c **** *  called manually by the user.
  64:.\Generated_Source\PSoC5/lcd_test_BarGraph.c **** *******************************************************************************/
  65:.\Generated_Source\PSoC5/lcd_test_BarGraph.c **** void lcd_test_LoadCustomFonts(uint8 const customData[]) 
  66:.\Generated_Source\PSoC5/lcd_test_BarGraph.c **** {
  27              		.loc 1 66 0
  28              		.cfi_startproc
  29              		@ args = 0, pretend = 0, frame = 0
  30              		@ frame_needed = 0, uses_anonymous_args = 0
  31              	.LVL0:
  32 0000 38B5     		push	{r3, r4, r5, lr}
  33              		.cfi_def_cfa_offset 16
  34              		.cfi_offset 3, -16
  35              		.cfi_offset 4, -12
  36              		.cfi_offset 5, -8
  37              		.cfi_offset 14, -4
  38 0002 0546     		mov	r5, r0
  67:.\Generated_Source\PSoC5/lcd_test_BarGraph.c ****     uint8 indexU8;
  68:.\Generated_Source\PSoC5/lcd_test_BarGraph.c **** 
  69:.\Generated_Source\PSoC5/lcd_test_BarGraph.c ****     lcd_test_IsReady();
  39              		.loc 1 69 0
  40 0004 FFF7FEFF 		bl	lcd_test_IsReady
  41              	.LVL1:
  70:.\Generated_Source\PSoC5/lcd_test_BarGraph.c ****     /* Set starting address in the LCD Module */
  71:.\Generated_Source\PSoC5/lcd_test_BarGraph.c ****     /* Optionally: Read the current address to restore at a later time */
  72:.\Generated_Source\PSoC5/lcd_test_BarGraph.c ****     lcd_test_WriteControl(lcd_test_CGRAM_0);
  42              		.loc 1 72 0
ARM GAS  C:\Users\JohnP\AppData\Local\Temp\ccHd1jkV.s 			page 3


  43 0008 4020     		movs	r0, #64
  44 000a FFF7FEFF 		bl	lcd_test_WriteControl
  45              	.LVL2:
  73:.\Generated_Source\PSoC5/lcd_test_BarGraph.c **** 
  74:.\Generated_Source\PSoC5/lcd_test_BarGraph.c ****     /* Load in the 64 bytes of CustomChar Data */
  75:.\Generated_Source\PSoC5/lcd_test_BarGraph.c ****     for(indexU8 = 0u; indexU8 < lcd_test_CUSTOM_CHAR_SET_LEN; indexU8++)
  46              		.loc 1 75 0
  47 000e 0024     		movs	r4, #0
  48 0010 04E0     		b	.L2
  49              	.LVL3:
  50              	.L3:
  76:.\Generated_Source\PSoC5/lcd_test_BarGraph.c ****     {
  77:.\Generated_Source\PSoC5/lcd_test_BarGraph.c ****         /* Delay between each write */
  78:.\Generated_Source\PSoC5/lcd_test_BarGraph.c ****         lcd_test_WriteData(customData[indexU8]);
  51              		.loc 1 78 0 discriminator 2
  52 0012 285D     		ldrb	r0, [r5, r4]	@ zero_extendqisi2
  53 0014 FFF7FEFF 		bl	lcd_test_WriteData
  54              	.LVL4:
  75:.\Generated_Source\PSoC5/lcd_test_BarGraph.c ****     for(indexU8 = 0u; indexU8 < lcd_test_CUSTOM_CHAR_SET_LEN; indexU8++)
  55              		.loc 1 75 0 discriminator 2
  56 0018 0134     		adds	r4, r4, #1
  57              	.LVL5:
  58 001a E4B2     		uxtb	r4, r4
  59              	.LVL6:
  60              	.L2:
  75:.\Generated_Source\PSoC5/lcd_test_BarGraph.c ****     for(indexU8 = 0u; indexU8 < lcd_test_CUSTOM_CHAR_SET_LEN; indexU8++)
  61              		.loc 1 75 0 is_stmt 0 discriminator 1
  62 001c 3F2C     		cmp	r4, #63
  63 001e F8D9     		bls	.L3
  79:.\Generated_Source\PSoC5/lcd_test_BarGraph.c ****     }
  80:.\Generated_Source\PSoC5/lcd_test_BarGraph.c **** 
  81:.\Generated_Source\PSoC5/lcd_test_BarGraph.c ****     lcd_test_IsReady();
  64              		.loc 1 81 0 is_stmt 1
  65 0020 FFF7FEFF 		bl	lcd_test_IsReady
  66              	.LVL7:
  82:.\Generated_Source\PSoC5/lcd_test_BarGraph.c ****     lcd_test_WriteControl(lcd_test_DDRAM_0);
  67              		.loc 1 82 0
  68 0024 8020     		movs	r0, #128
  69 0026 FFF7FEFF 		bl	lcd_test_WriteControl
  70              	.LVL8:
  71 002a 38BD     		pop	{r3, r4, r5, pc}
  72              		.cfi_endproc
  73              	.LFE0:
  74              		.size	lcd_test_LoadCustomFonts, .-lcd_test_LoadCustomFonts
  75              		.section	.text.lcd_test_DrawVerticalBG,"ax",%progbits
  76              		.align	2
  77              		.global	lcd_test_DrawVerticalBG
  78              		.thumb
  79              		.thumb_func
  80              		.type	lcd_test_DrawVerticalBG, %function
  81              	lcd_test_DrawVerticalBG:
  82              	.LFB1:
  83:.\Generated_Source\PSoC5/lcd_test_BarGraph.c **** }
  84:.\Generated_Source\PSoC5/lcd_test_BarGraph.c **** 
  85:.\Generated_Source\PSoC5/lcd_test_BarGraph.c **** 
  86:.\Generated_Source\PSoC5/lcd_test_BarGraph.c **** #if (lcd_test_CUSTOM_CHAR_SET == lcd_test_HORIZONTAL_BG)
  87:.\Generated_Source\PSoC5/lcd_test_BarGraph.c **** 
ARM GAS  C:\Users\JohnP\AppData\Local\Temp\ccHd1jkV.s 			page 4


  88:.\Generated_Source\PSoC5/lcd_test_BarGraph.c ****     /*******************************************************************************
  89:.\Generated_Source\PSoC5/lcd_test_BarGraph.c ****     * Function Name: lcd_test_DrawHorizontalBG
  90:.\Generated_Source\PSoC5/lcd_test_BarGraph.c ****     ********************************************************************************
  91:.\Generated_Source\PSoC5/lcd_test_BarGraph.c ****     *
  92:.\Generated_Source\PSoC5/lcd_test_BarGraph.c ****     * Summary:
  93:.\Generated_Source\PSoC5/lcd_test_BarGraph.c ****     *  Draws the horizontal bargraph.
  94:.\Generated_Source\PSoC5/lcd_test_BarGraph.c ****     *
  95:.\Generated_Source\PSoC5/lcd_test_BarGraph.c ****     * Parameters:
  96:.\Generated_Source\PSoC5/lcd_test_BarGraph.c ****     *  row:            The row in which the bar graph starts.
  97:.\Generated_Source\PSoC5/lcd_test_BarGraph.c ****     *  column:         The column in which the bar graph starts.
  98:.\Generated_Source\PSoC5/lcd_test_BarGraph.c ****     *  maxCharacters:  The max length of the graph in whole characters.
  99:.\Generated_Source\PSoC5/lcd_test_BarGraph.c ****     *  value:          The current length or height of the graph in pixels.
 100:.\Generated_Source\PSoC5/lcd_test_BarGraph.c ****     *
 101:.\Generated_Source\PSoC5/lcd_test_BarGraph.c ****     * Return:
 102:.\Generated_Source\PSoC5/lcd_test_BarGraph.c ****     *  void.
 103:.\Generated_Source\PSoC5/lcd_test_BarGraph.c ****     *
 104:.\Generated_Source\PSoC5/lcd_test_BarGraph.c ****     *******************************************************************************/
 105:.\Generated_Source\PSoC5/lcd_test_BarGraph.c ****     void lcd_test_DrawHorizontalBG(uint8 row, uint8 column, uint8 maxCharacters, uint8 value) \
 106:.\Generated_Source\PSoC5/lcd_test_BarGraph.c ****                                                             
 107:.\Generated_Source\PSoC5/lcd_test_BarGraph.c ****     {
 108:.\Generated_Source\PSoC5/lcd_test_BarGraph.c ****         /* 8-bit Counter */
 109:.\Generated_Source\PSoC5/lcd_test_BarGraph.c ****         uint8 count8;
 110:.\Generated_Source\PSoC5/lcd_test_BarGraph.c ****         uint8 fullChars;
 111:.\Generated_Source\PSoC5/lcd_test_BarGraph.c ****         uint8 remainingPixels;
 112:.\Generated_Source\PSoC5/lcd_test_BarGraph.c **** 
 113:.\Generated_Source\PSoC5/lcd_test_BarGraph.c ****         /* Number of full characters to draw */
 114:.\Generated_Source\PSoC5/lcd_test_BarGraph.c ****         fullChars = value / lcd_test_CHARACTER_WIDTH;
 115:.\Generated_Source\PSoC5/lcd_test_BarGraph.c **** 
 116:.\Generated_Source\PSoC5/lcd_test_BarGraph.c ****         /* Number of remaining pixels to draw */
 117:.\Generated_Source\PSoC5/lcd_test_BarGraph.c ****         remainingPixels = value % lcd_test_CHARACTER_WIDTH;
 118:.\Generated_Source\PSoC5/lcd_test_BarGraph.c **** 
 119:.\Generated_Source\PSoC5/lcd_test_BarGraph.c ****         /* Ensure that the maximum character limit is followed. */
 120:.\Generated_Source\PSoC5/lcd_test_BarGraph.c ****         if(fullChars >= maxCharacters)
 121:.\Generated_Source\PSoC5/lcd_test_BarGraph.c ****         {
 122:.\Generated_Source\PSoC5/lcd_test_BarGraph.c ****             fullChars = maxCharacters;
 123:.\Generated_Source\PSoC5/lcd_test_BarGraph.c ****         }
 124:.\Generated_Source\PSoC5/lcd_test_BarGraph.c **** 
 125:.\Generated_Source\PSoC5/lcd_test_BarGraph.c ****         /* Put Cursor at start position */
 126:.\Generated_Source\PSoC5/lcd_test_BarGraph.c ****         lcd_test_Position(row, column);
 127:.\Generated_Source\PSoC5/lcd_test_BarGraph.c **** 
 128:.\Generated_Source\PSoC5/lcd_test_BarGraph.c ****         /* Write full characters */
 129:.\Generated_Source\PSoC5/lcd_test_BarGraph.c ****         for(count8 = 0u; count8 < fullChars; count8++)
 130:.\Generated_Source\PSoC5/lcd_test_BarGraph.c ****         {
 131:.\Generated_Source\PSoC5/lcd_test_BarGraph.c ****             lcd_test_WriteData(lcd_test_CUSTOM_5);
 132:.\Generated_Source\PSoC5/lcd_test_BarGraph.c ****         }
 133:.\Generated_Source\PSoC5/lcd_test_BarGraph.c **** 
 134:.\Generated_Source\PSoC5/lcd_test_BarGraph.c ****         if(fullChars < maxCharacters)
 135:.\Generated_Source\PSoC5/lcd_test_BarGraph.c ****         {
 136:.\Generated_Source\PSoC5/lcd_test_BarGraph.c ****             /* Write remaining pixels */
 137:.\Generated_Source\PSoC5/lcd_test_BarGraph.c ****             lcd_test_WriteData(remainingPixels);
 138:.\Generated_Source\PSoC5/lcd_test_BarGraph.c **** 
 139:.\Generated_Source\PSoC5/lcd_test_BarGraph.c ****             if(fullChars < (maxCharacters - 1u))
 140:.\Generated_Source\PSoC5/lcd_test_BarGraph.c ****             {
 141:.\Generated_Source\PSoC5/lcd_test_BarGraph.c ****                 /* Fill with whitespace to end of bar graph */
 142:.\Generated_Source\PSoC5/lcd_test_BarGraph.c ****                 for(count8 = 0u; count8 < (maxCharacters - fullChars - 1u); count8++)
 143:.\Generated_Source\PSoC5/lcd_test_BarGraph.c ****                 {
 144:.\Generated_Source\PSoC5/lcd_test_BarGraph.c ****                     lcd_test_WriteData(lcd_test_CUSTOM_0);
ARM GAS  C:\Users\JohnP\AppData\Local\Temp\ccHd1jkV.s 			page 5


 145:.\Generated_Source\PSoC5/lcd_test_BarGraph.c ****                 }
 146:.\Generated_Source\PSoC5/lcd_test_BarGraph.c ****             }
 147:.\Generated_Source\PSoC5/lcd_test_BarGraph.c ****         }
 148:.\Generated_Source\PSoC5/lcd_test_BarGraph.c ****     }
 149:.\Generated_Source\PSoC5/lcd_test_BarGraph.c **** 
 150:.\Generated_Source\PSoC5/lcd_test_BarGraph.c **** #endif /* lcd_test_CUSTOM_CHAR_SET == lcd_test_HORIZONTAL_BG */
 151:.\Generated_Source\PSoC5/lcd_test_BarGraph.c **** 
 152:.\Generated_Source\PSoC5/lcd_test_BarGraph.c **** 
 153:.\Generated_Source\PSoC5/lcd_test_BarGraph.c **** #if (lcd_test_CUSTOM_CHAR_SET == lcd_test_VERTICAL_BG)
 154:.\Generated_Source\PSoC5/lcd_test_BarGraph.c **** 
 155:.\Generated_Source\PSoC5/lcd_test_BarGraph.c ****     /*******************************************************************************
 156:.\Generated_Source\PSoC5/lcd_test_BarGraph.c ****     *  Function Name: lcd_test_DrawVerticalBG
 157:.\Generated_Source\PSoC5/lcd_test_BarGraph.c ****     ********************************************************************************
 158:.\Generated_Source\PSoC5/lcd_test_BarGraph.c ****     *
 159:.\Generated_Source\PSoC5/lcd_test_BarGraph.c ****     * Summary:
 160:.\Generated_Source\PSoC5/lcd_test_BarGraph.c ****     *  Draws the vertical bargraph.
 161:.\Generated_Source\PSoC5/lcd_test_BarGraph.c ****     *
 162:.\Generated_Source\PSoC5/lcd_test_BarGraph.c ****     * Parameters:
 163:.\Generated_Source\PSoC5/lcd_test_BarGraph.c ****     *  row:            The row in which the bar graph starts.
 164:.\Generated_Source\PSoC5/lcd_test_BarGraph.c ****     *  column:         The column in which the bar graph starts.
 165:.\Generated_Source\PSoC5/lcd_test_BarGraph.c ****     *  maxCharacters:  The max height of the graph in whole characters.
 166:.\Generated_Source\PSoC5/lcd_test_BarGraph.c ****     *  value:          The current length or height of the graph in pixels.
 167:.\Generated_Source\PSoC5/lcd_test_BarGraph.c ****     *
 168:.\Generated_Source\PSoC5/lcd_test_BarGraph.c ****     * Return:
 169:.\Generated_Source\PSoC5/lcd_test_BarGraph.c ****     *  void.
 170:.\Generated_Source\PSoC5/lcd_test_BarGraph.c ****     *
 171:.\Generated_Source\PSoC5/lcd_test_BarGraph.c ****     *******************************************************************************/
 172:.\Generated_Source\PSoC5/lcd_test_BarGraph.c ****     void lcd_test_DrawVerticalBG(uint8 row, uint8 column, uint8 maxCharacters, uint8 value) \
 173:.\Generated_Source\PSoC5/lcd_test_BarGraph.c ****                                                             
 174:.\Generated_Source\PSoC5/lcd_test_BarGraph.c ****     {
  83              		.loc 1 174 0
  84              		.cfi_startproc
  85              		@ args = 0, pretend = 0, frame = 0
  86              		@ frame_needed = 0, uses_anonymous_args = 0
  87              	.LVL9:
  88 0000 2DE9F84F 		push	{r3, r4, r5, r6, r7, r8, r9, r10, fp, lr}
  89              		.cfi_def_cfa_offset 40
  90              		.cfi_offset 3, -40
  91              		.cfi_offset 4, -36
  92              		.cfi_offset 5, -32
  93              		.cfi_offset 6, -28
  94              		.cfi_offset 7, -24
  95              		.cfi_offset 8, -20
  96              		.cfi_offset 9, -16
  97              		.cfi_offset 10, -12
  98              		.cfi_offset 11, -8
  99              		.cfi_offset 14, -4
 100 0004 0746     		mov	r7, r0
 101 0006 0D46     		mov	r5, r1
 102 0008 9246     		mov	r10, r2
 103              	.LVL10:
 175:.\Generated_Source\PSoC5/lcd_test_BarGraph.c ****         /* 8-bit Counter */
 176:.\Generated_Source\PSoC5/lcd_test_BarGraph.c ****         uint8 count8 = 0u;
 177:.\Generated_Source\PSoC5/lcd_test_BarGraph.c ****         /* Current Row Tracker */
 178:.\Generated_Source\PSoC5/lcd_test_BarGraph.c ****         int8 currentRow;
 179:.\Generated_Source\PSoC5/lcd_test_BarGraph.c ****         uint8 fullChars;
 180:.\Generated_Source\PSoC5/lcd_test_BarGraph.c ****         uint8 remainingPixels;
ARM GAS  C:\Users\JohnP\AppData\Local\Temp\ccHd1jkV.s 			page 6


 181:.\Generated_Source\PSoC5/lcd_test_BarGraph.c **** 
 182:.\Generated_Source\PSoC5/lcd_test_BarGraph.c ****         /* Number of full characters to draw */
 183:.\Generated_Source\PSoC5/lcd_test_BarGraph.c ****         fullChars = value / lcd_test_CHARACTER_HEIGHT;
 104              		.loc 1 183 0
 105 000a DE08     		lsrs	r6, r3, #3
 106              	.LVL11:
 184:.\Generated_Source\PSoC5/lcd_test_BarGraph.c **** 
 185:.\Generated_Source\PSoC5/lcd_test_BarGraph.c ****         /* Number of remaining pixels to draw */
 186:.\Generated_Source\PSoC5/lcd_test_BarGraph.c ****         remainingPixels = value % lcd_test_CHARACTER_HEIGHT;
 107              		.loc 1 186 0
 108 000c 03F0070B 		and	fp, r3, #7
 109              	.LVL12:
 187:.\Generated_Source\PSoC5/lcd_test_BarGraph.c **** 
 188:.\Generated_Source\PSoC5/lcd_test_BarGraph.c ****         /* Put Cursor at start position */
 189:.\Generated_Source\PSoC5/lcd_test_BarGraph.c ****         lcd_test_Position(row, column);
 110              		.loc 1 189 0
 111 0010 FFF7FEFF 		bl	lcd_test_Position
 112              	.LVL13:
 190:.\Generated_Source\PSoC5/lcd_test_BarGraph.c **** 
 191:.\Generated_Source\PSoC5/lcd_test_BarGraph.c ****         /* Make sure the bar graph fits inside the space allotted */
 192:.\Generated_Source\PSoC5/lcd_test_BarGraph.c ****         if(fullChars >= maxCharacters)
 113              		.loc 1 192 0
 114 0014 5645     		cmp	r6, r10
 115 0016 00D3     		bcc	.L5
 193:.\Generated_Source\PSoC5/lcd_test_BarGraph.c ****         {
 194:.\Generated_Source\PSoC5/lcd_test_BarGraph.c ****             fullChars = maxCharacters;
 116              		.loc 1 194 0
 117 0018 5646     		mov	r6, r10
 118              	.LVL14:
 119              	.L5:
 120              		.loc 1 194 0 is_stmt 0 discriminator 1
 121 001a 0024     		movs	r4, #0
 195:.\Generated_Source\PSoC5/lcd_test_BarGraph.c ****         }
 196:.\Generated_Source\PSoC5/lcd_test_BarGraph.c **** 
 197:.\Generated_Source\PSoC5/lcd_test_BarGraph.c ****         /*  Write full characters */
 198:.\Generated_Source\PSoC5/lcd_test_BarGraph.c ****         while(count8 < fullChars)
 199:.\Generated_Source\PSoC5/lcd_test_BarGraph.c ****         {
 200:.\Generated_Source\PSoC5/lcd_test_BarGraph.c ****             lcd_test_WriteData(lcd_test_CUSTOM_7);
 122              		.loc 1 200 0 is_stmt 1 discriminator 1
 123 001c 4FF00709 		mov	r9, #7
 201:.\Generated_Source\PSoC5/lcd_test_BarGraph.c **** 
 202:.\Generated_Source\PSoC5/lcd_test_BarGraph.c ****             count8++;
 203:.\Generated_Source\PSoC5/lcd_test_BarGraph.c **** 
 204:.\Generated_Source\PSoC5/lcd_test_BarGraph.c ****             /* Each pass through, move one row higher */
 205:.\Generated_Source\PSoC5/lcd_test_BarGraph.c ****             if((((int8) row) - ((int8) count8)) >= 0)
 124              		.loc 1 205 0 discriminator 1
 125 0020 4FFA87F8 		sxtb	r8, r7
 126 0024 0EE0     		b	.L6
 127              	.LVL15:
 128              	.L8:
 200:.\Generated_Source\PSoC5/lcd_test_BarGraph.c ****             lcd_test_WriteData(lcd_test_CUSTOM_7);
 129              		.loc 1 200 0
 130 0026 4846     		mov	r0, r9
 131 0028 FFF7FEFF 		bl	lcd_test_WriteData
 132              	.LVL16:
 202:.\Generated_Source\PSoC5/lcd_test_BarGraph.c ****             count8++;
 133              		.loc 1 202 0
ARM GAS  C:\Users\JohnP\AppData\Local\Temp\ccHd1jkV.s 			page 7


 134 002c 0134     		adds	r4, r4, #1
 135              	.LVL17:
 136 002e E4B2     		uxtb	r4, r4
 137              	.LVL18:
 138              		.loc 1 205 0
 139 0030 63B2     		sxtb	r3, r4
 140 0032 C3EB0803 		rsb	r3, r3, r8
 141 0036 002B     		cmp	r3, #0
 142 0038 06DB     		blt	.L7
 206:.\Generated_Source\PSoC5/lcd_test_BarGraph.c ****             {
 207:.\Generated_Source\PSoC5/lcd_test_BarGraph.c ****                 lcd_test_Position(row - count8, column);
 143              		.loc 1 207 0
 144 003a 381B     		subs	r0, r7, r4
 145 003c C0B2     		uxtb	r0, r0
 146 003e 2946     		mov	r1, r5
 147 0040 FFF7FEFF 		bl	lcd_test_Position
 148              	.LVL19:
 149              	.L6:
 198:.\Generated_Source\PSoC5/lcd_test_BarGraph.c ****         while(count8 < fullChars)
 150              		.loc 1 198 0 discriminator 1
 151 0044 B442     		cmp	r4, r6
 152 0046 EED3     		bcc	.L8
 153              	.LVL20:
 154              	.L7:
 208:.\Generated_Source\PSoC5/lcd_test_BarGraph.c ****             }
 209:.\Generated_Source\PSoC5/lcd_test_BarGraph.c ****             else
 210:.\Generated_Source\PSoC5/lcd_test_BarGraph.c ****             {
 211:.\Generated_Source\PSoC5/lcd_test_BarGraph.c ****                 break;
 212:.\Generated_Source\PSoC5/lcd_test_BarGraph.c ****             }
 213:.\Generated_Source\PSoC5/lcd_test_BarGraph.c ****         }
 214:.\Generated_Source\PSoC5/lcd_test_BarGraph.c **** 
 215:.\Generated_Source\PSoC5/lcd_test_BarGraph.c ****         if(((((int8) row) - ((int8) count8)) >= 0) && (fullChars < maxCharacters))
 155              		.loc 1 215 0
 156 0048 7BB2     		sxtb	r3, r7
 157 004a 62B2     		sxtb	r2, r4
 158 004c 9B1A     		subs	r3, r3, r2
 159 004e 002B     		cmp	r3, #0
 160 0050 29DB     		blt	.L4
 161              		.loc 1 215 0 is_stmt 0 discriminator 1
 162 0052 B245     		cmp	r10, r6
 163 0054 27D9     		bls	.L4
 216:.\Generated_Source\PSoC5/lcd_test_BarGraph.c ****         {
 217:.\Generated_Source\PSoC5/lcd_test_BarGraph.c ****             /* Write remaining pixels */
 218:.\Generated_Source\PSoC5/lcd_test_BarGraph.c ****             if(remainingPixels == 0u)
 164              		.loc 1 218 0 is_stmt 1
 165 0056 BBF1000F 		cmp	fp, #0
 166 005a 03D1     		bne	.L10
 219:.\Generated_Source\PSoC5/lcd_test_BarGraph.c ****             {
 220:.\Generated_Source\PSoC5/lcd_test_BarGraph.c ****                 lcd_test_WriteData((uint8) ' ');
 167              		.loc 1 220 0
 168 005c 2020     		movs	r0, #32
 169 005e FFF7FEFF 		bl	lcd_test_WriteData
 170              	.LVL21:
 171 0062 04E0     		b	.L11
 172              	.L10:
 221:.\Generated_Source\PSoC5/lcd_test_BarGraph.c ****             }
 222:.\Generated_Source\PSoC5/lcd_test_BarGraph.c ****             else
ARM GAS  C:\Users\JohnP\AppData\Local\Temp\ccHd1jkV.s 			page 8


 223:.\Generated_Source\PSoC5/lcd_test_BarGraph.c ****             {
 224:.\Generated_Source\PSoC5/lcd_test_BarGraph.c ****                 lcd_test_WriteData(remainingPixels - 1u);
 173              		.loc 1 224 0
 174 0064 0BF1FF30 		add	r0, fp, #-1
 175 0068 C0B2     		uxtb	r0, r0
 176 006a FFF7FEFF 		bl	lcd_test_WriteData
 177              	.LVL22:
 178              	.L11:
 225:.\Generated_Source\PSoC5/lcd_test_BarGraph.c ****             }
 226:.\Generated_Source\PSoC5/lcd_test_BarGraph.c **** 
 227:.\Generated_Source\PSoC5/lcd_test_BarGraph.c ****             currentRow = ((int8) row) - ((int8) count8) - 1;
 179              		.loc 1 227 0
 180 006e 3C1B     		subs	r4, r7, r4
 181              	.LVL23:
 182 0070 013C     		subs	r4, r4, #1
 183 0072 E4B2     		uxtb	r4, r4
 184              	.LVL24:
 228:.\Generated_Source\PSoC5/lcd_test_BarGraph.c **** 
 229:.\Generated_Source\PSoC5/lcd_test_BarGraph.c ****             if(currentRow >= 0)
 185              		.loc 1 229 0
 186 0074 14F0800F 		tst	r4, #128
 187 0078 0DD0     		beq	.L15
 188 007a BDE8F88F 		pop	{r3, r4, r5, r6, r7, r8, r9, r10, fp, pc}
 189              	.LVL25:
 190              	.L13:
 230:.\Generated_Source\PSoC5/lcd_test_BarGraph.c ****             {
 231:.\Generated_Source\PSoC5/lcd_test_BarGraph.c ****                 /* Move up one row and fill with whitespace till top of bar graph */
 232:.\Generated_Source\PSoC5/lcd_test_BarGraph.c ****                 for(count8 = 0u; count8 < (maxCharacters - fullChars - 1u); count8++)
 233:.\Generated_Source\PSoC5/lcd_test_BarGraph.c ****                 {
 234:.\Generated_Source\PSoC5/lcd_test_BarGraph.c ****                     lcd_test_Position((uint8)currentRow, column);
 191              		.loc 1 234 0 discriminator 2
 192 007e 2046     		mov	r0, r4
 193 0080 2946     		mov	r1, r5
 194 0082 FFF7FEFF 		bl	lcd_test_Position
 195              	.LVL26:
 235:.\Generated_Source\PSoC5/lcd_test_BarGraph.c ****                     lcd_test_WriteData((uint8) ' ');
 196              		.loc 1 235 0 discriminator 2
 197 0086 4046     		mov	r0, r8
 198 0088 FFF7FEFF 		bl	lcd_test_WriteData
 199              	.LVL27:
 236:.\Generated_Source\PSoC5/lcd_test_BarGraph.c ****                     currentRow --;
 200              		.loc 1 236 0 discriminator 2
 201 008c 013C     		subs	r4, r4, #1
 202              	.LVL28:
 203 008e E4B2     		uxtb	r4, r4
 204              	.LVL29:
 232:.\Generated_Source\PSoC5/lcd_test_BarGraph.c ****                 for(count8 = 0u; count8 < (maxCharacters - fullChars - 1u); count8++)
 205              		.loc 1 232 0 discriminator 2
 206 0090 0137     		adds	r7, r7, #1
 207              	.LVL30:
 208 0092 FFB2     		uxtb	r7, r7
 209              	.LVL31:
 210 0094 05E0     		b	.L12
 211              	.LVL32:
 212              	.L15:
 213 0096 0027     		movs	r7, #0
 232:.\Generated_Source\PSoC5/lcd_test_BarGraph.c ****                 for(count8 = 0u; count8 < (maxCharacters - fullChars - 1u); count8++)
ARM GAS  C:\Users\JohnP\AppData\Local\Temp\ccHd1jkV.s 			page 9


 214              		.loc 1 232 0 is_stmt 0
 215 0098 C6EB0A06 		rsb	r6, r6, r10
 216              	.LVL33:
 217 009c 013E     		subs	r6, r6, #1
 235:.\Generated_Source\PSoC5/lcd_test_BarGraph.c ****                     lcd_test_WriteData((uint8) ' ');
 218              		.loc 1 235 0 is_stmt 1
 219 009e 4FF02008 		mov	r8, #32
 220              	.LVL34:
 221              	.L12:
 232:.\Generated_Source\PSoC5/lcd_test_BarGraph.c ****                 for(count8 = 0u; count8 < (maxCharacters - fullChars - 1u); count8++)
 222              		.loc 1 232 0 discriminator 1
 223 00a2 B742     		cmp	r7, r6
 224 00a4 EBD3     		bcc	.L13
 225              	.LVL35:
 226              	.L4:
 227 00a6 BDE8F88F 		pop	{r3, r4, r5, r6, r7, r8, r9, r10, fp, pc}
 228              		.cfi_endproc
 229              	.LFE1:
 230              		.size	lcd_test_DrawVerticalBG, .-lcd_test_DrawVerticalBG
 231              		.global	lcd_test_customFonts
 232 00aa 00BF     		.section	.rodata
 233              		.align	2
 234              		.type	lcd_test_customFonts, %object
 235              		.size	lcd_test_customFonts, 64
 236              	lcd_test_customFonts:
 237 0000 00       		.byte	0
 238 0001 00       		.byte	0
 239 0002 00       		.byte	0
 240 0003 00       		.byte	0
 241 0004 00       		.byte	0
 242 0005 00       		.byte	0
 243 0006 00       		.byte	0
 244 0007 1F       		.byte	31
 245 0008 00       		.byte	0
 246 0009 00       		.byte	0
 247 000a 00       		.byte	0
 248 000b 00       		.byte	0
 249 000c 00       		.byte	0
 250 000d 00       		.byte	0
 251 000e 1F       		.byte	31
 252 000f 1F       		.byte	31
 253 0010 00       		.byte	0
 254 0011 00       		.byte	0
 255 0012 00       		.byte	0
 256 0013 00       		.byte	0
 257 0014 00       		.byte	0
 258 0015 1F       		.byte	31
 259 0016 1F       		.byte	31
 260 0017 1F       		.byte	31
 261 0018 00       		.byte	0
 262 0019 00       		.byte	0
 263 001a 00       		.byte	0
 264 001b 00       		.byte	0
 265 001c 1F       		.byte	31
 266 001d 1F       		.byte	31
 267 001e 1F       		.byte	31
 268 001f 1F       		.byte	31
ARM GAS  C:\Users\JohnP\AppData\Local\Temp\ccHd1jkV.s 			page 10


 269 0020 00       		.byte	0
 270 0021 00       		.byte	0
 271 0022 00       		.byte	0
 272 0023 1F       		.byte	31
 273 0024 1F       		.byte	31
 274 0025 1F       		.byte	31
 275 0026 1F       		.byte	31
 276 0027 1F       		.byte	31
 277 0028 00       		.byte	0
 278 0029 00       		.byte	0
 279 002a 1F       		.byte	31
 280 002b 1F       		.byte	31
 281 002c 1F       		.byte	31
 282 002d 1F       		.byte	31
 283 002e 1F       		.byte	31
 284 002f 1F       		.byte	31
 285 0030 00       		.byte	0
 286 0031 1F       		.byte	31
 287 0032 1F       		.byte	31
 288 0033 1F       		.byte	31
 289 0034 1F       		.byte	31
 290 0035 1F       		.byte	31
 291 0036 1F       		.byte	31
 292 0037 1F       		.byte	31
 293 0038 1F       		.byte	31
 294 0039 1F       		.byte	31
 295 003a 1F       		.byte	31
 296 003b 1F       		.byte	31
 297 003c 1F       		.byte	31
 298 003d 1F       		.byte	31
 299 003e 1F       		.byte	31
 300 003f 1F       		.byte	31
 301              		.text
 302              	.Letext0:
 303              		.file 2 ".\\Generated_Source\\PSoC5\\cytypes.h"
 304              		.file 3 ".\\Generated_Source\\PSoC5\\lcd_test.h"