ARM GAS  C:\Users\JohnP\AppData\Local\Temp\ccY3SaEc.s 			page 1


   1              		.syntax unified
   2              		.cpu cortex-m3
   3              		.fpu softvfp
   4              		.eabi_attribute 20, 1
   5              		.eabi_attribute 21, 1
   6              		.eabi_attribute 23, 3
   7              		.eabi_attribute 24, 1
   8              		.eabi_attribute 25, 1
   9              		.eabi_attribute 26, 1
  10              		.eabi_attribute 30, 1
  11              		.eabi_attribute 34, 1
  12              		.eabi_attribute 18, 4
  13              		.thumb
  14              		.file	"LCD_BarGraph.c"
  15              		.text
  16              	.Ltext0:
  17              		.cfi_sections	.debug_frame
  18              		.section	.text.LCD_LoadCustomFonts,"ax",%progbits
  19              		.align	2
  20              		.global	LCD_LoadCustomFonts
  21              		.thumb
  22              		.thumb_func
  23              		.type	LCD_LoadCustomFonts, %function
  24              	LCD_LoadCustomFonts:
  25              	.LFB0:
  26              		.file 1 ".\\Generated_Source\\PSoC5\\LCD_BarGraph.c"
   1:.\Generated_Source\PSoC5/LCD_BarGraph.c **** /*******************************************************************************
   2:.\Generated_Source\PSoC5/LCD_BarGraph.c **** * File Name: LCD_BarGraph.c
   3:.\Generated_Source\PSoC5/LCD_BarGraph.c **** * Version 2.10
   4:.\Generated_Source\PSoC5/LCD_BarGraph.c **** *
   5:.\Generated_Source\PSoC5/LCD_BarGraph.c **** * Description:
   6:.\Generated_Source\PSoC5/LCD_BarGraph.c **** *  This file provides the custom character data and API for creating and using
   7:.\Generated_Source\PSoC5/LCD_BarGraph.c **** *  bar graphs with the Character LCD component.
   8:.\Generated_Source\PSoC5/LCD_BarGraph.c **** *
   9:.\Generated_Source\PSoC5/LCD_BarGraph.c **** * Note:
  10:.\Generated_Source\PSoC5/LCD_BarGraph.c **** *
  11:.\Generated_Source\PSoC5/LCD_BarGraph.c **** ********************************************************************************
  12:.\Generated_Source\PSoC5/LCD_BarGraph.c **** * Copyright 2008-2014, Cypress Semiconductor Corporation.  All rights reserved.
  13:.\Generated_Source\PSoC5/LCD_BarGraph.c **** * You may use this file only in accordance with the license, terms, conditions,
  14:.\Generated_Source\PSoC5/LCD_BarGraph.c **** * disclaimers, and limitations in the end user license agreement accompanying
  15:.\Generated_Source\PSoC5/LCD_BarGraph.c **** * the software package with which this file was provided.
  16:.\Generated_Source\PSoC5/LCD_BarGraph.c **** *******************************************************************************/
  17:.\Generated_Source\PSoC5/LCD_BarGraph.c **** 
  18:.\Generated_Source\PSoC5/LCD_BarGraph.c **** #include "LCD.h"
  19:.\Generated_Source\PSoC5/LCD_BarGraph.c **** 
  20:.\Generated_Source\PSoC5/LCD_BarGraph.c **** 
  21:.\Generated_Source\PSoC5/LCD_BarGraph.c **** uint8 const CYCODE LCD_customFonts[] = \
  22:.\Generated_Source\PSoC5/LCD_BarGraph.c **** {
  23:.\Generated_Source\PSoC5/LCD_BarGraph.c ****     /* Character LCD_CUSTOM_0   */
  24:.\Generated_Source\PSoC5/LCD_BarGraph.c ****     0x00u,    0x00u,    0x00u,    0x00u,    0x00u,    0x00u,    0x00u,    0x00u, \
  25:.\Generated_Source\PSoC5/LCD_BarGraph.c ****     /* Character LCD_CUSTOM_1   */
  26:.\Generated_Source\PSoC5/LCD_BarGraph.c ****     0x10u,    0x10u,    0x10u,    0x10u,    0x10u,    0x10u,    0x10u,    0x10u, \
  27:.\Generated_Source\PSoC5/LCD_BarGraph.c ****     /* Character LCD_CUSTOM_2   */
  28:.\Generated_Source\PSoC5/LCD_BarGraph.c ****     0x18u,    0x18u,    0x18u,    0x18u,    0x18u,    0x18u,    0x18u,    0x18u, \
  29:.\Generated_Source\PSoC5/LCD_BarGraph.c ****     /* Character LCD_CUSTOM_3   */
  30:.\Generated_Source\PSoC5/LCD_BarGraph.c ****     0x1Cu,    0x1Cu,    0x1Cu,    0x1Cu,    0x1Cu,    0x1Cu,    0x1Cu,    0x1Cu, \
  31:.\Generated_Source\PSoC5/LCD_BarGraph.c ****     /* Character LCD_CUSTOM_4   */
ARM GAS  C:\Users\JohnP\AppData\Local\Temp\ccY3SaEc.s 			page 2


  32:.\Generated_Source\PSoC5/LCD_BarGraph.c ****     0x1Eu,    0x1Eu,    0x1Eu,    0x1Eu,    0x1Eu,    0x1Eu,    0x1Eu,    0x1Eu, \
  33:.\Generated_Source\PSoC5/LCD_BarGraph.c ****     /* Character LCD_CUSTOM_5   */
  34:.\Generated_Source\PSoC5/LCD_BarGraph.c ****     0x1Fu,    0x1Fu,    0x1Fu,    0x1Fu,    0x1Fu,    0x1Fu,    0x1Fu,    0x1Fu, \
  35:.\Generated_Source\PSoC5/LCD_BarGraph.c ****     /* Character LCD_CUSTOM_6   */
  36:.\Generated_Source\PSoC5/LCD_BarGraph.c ****     0x00u,    0x00u,    0x00u,    0x00u,    0x00u,    0x00u,    0x00u,    0x00u, \
  37:.\Generated_Source\PSoC5/LCD_BarGraph.c ****     /* Character LCD_CUSTOM_7   */
  38:.\Generated_Source\PSoC5/LCD_BarGraph.c ****     0x00u,    0x00u,    0x00u,    0x00u,    0x00u,    0x00u,    0x00u,    0x00u \
  39:.\Generated_Source\PSoC5/LCD_BarGraph.c **** };
  40:.\Generated_Source\PSoC5/LCD_BarGraph.c **** 
  41:.\Generated_Source\PSoC5/LCD_BarGraph.c **** 
  42:.\Generated_Source\PSoC5/LCD_BarGraph.c **** /*******************************************************************************
  43:.\Generated_Source\PSoC5/LCD_BarGraph.c **** * Function Name: LCD_LoadCustomFonts
  44:.\Generated_Source\PSoC5/LCD_BarGraph.c **** ********************************************************************************
  45:.\Generated_Source\PSoC5/LCD_BarGraph.c **** *
  46:.\Generated_Source\PSoC5/LCD_BarGraph.c **** * Summary:
  47:.\Generated_Source\PSoC5/LCD_BarGraph.c **** *  Loads 8 custom font characters into the LCD Module for use.  Cannot use
  48:.\Generated_Source\PSoC5/LCD_BarGraph.c **** *  characters from two different font sets at once, but font sets can be
  49:.\Generated_Source\PSoC5/LCD_BarGraph.c **** *  switched out during runtime.
  50:.\Generated_Source\PSoC5/LCD_BarGraph.c **** *
  51:.\Generated_Source\PSoC5/LCD_BarGraph.c **** * Parameters:
  52:.\Generated_Source\PSoC5/LCD_BarGraph.c **** *  customData:  pointer to a constant array of 64 bytes representing 8 custom
  53:.\Generated_Source\PSoC5/LCD_BarGraph.c **** *               font characters.
  54:.\Generated_Source\PSoC5/LCD_BarGraph.c **** * Return:
  55:.\Generated_Source\PSoC5/LCD_BarGraph.c **** *  None.
  56:.\Generated_Source\PSoC5/LCD_BarGraph.c **** *
  57:.\Generated_Source\PSoC5/LCD_BarGraph.c **** * Theory:
  58:.\Generated_Source\PSoC5/LCD_BarGraph.c **** *  Prior to using this function user need to import the pointer to custom
  59:.\Generated_Source\PSoC5/LCD_BarGraph.c **** *  font array to your project by writting the following in the source code file
  60:.\Generated_Source\PSoC5/LCD_BarGraph.c **** *  where custom font will be used:
  61:.\Generated_Source\PSoC5/LCD_BarGraph.c **** *       extern uint8 const CYCODE LCD_Char_customFonts[];
  62:.\Generated_Source\PSoC5/LCD_BarGraph.c **** *  This function is not automatically called by the Start() routine and must be
  63:.\Generated_Source\PSoC5/LCD_BarGraph.c **** *  called manually by the user.
  64:.\Generated_Source\PSoC5/LCD_BarGraph.c **** *******************************************************************************/
  65:.\Generated_Source\PSoC5/LCD_BarGraph.c **** void LCD_LoadCustomFonts(uint8 const customData[]) 
  66:.\Generated_Source\PSoC5/LCD_BarGraph.c **** {
  27              		.loc 1 66 0
  28              		.cfi_startproc
  29              		@ args = 0, pretend = 0, frame = 0
  30              		@ frame_needed = 0, uses_anonymous_args = 0
  31              	.LVL0:
  32 0000 38B5     		push	{r3, r4, r5, lr}
  33              		.cfi_def_cfa_offset 16
  34              		.cfi_offset 3, -16
  35              		.cfi_offset 4, -12
  36              		.cfi_offset 5, -8
  37              		.cfi_offset 14, -4
  38 0002 0546     		mov	r5, r0
  67:.\Generated_Source\PSoC5/LCD_BarGraph.c ****     uint8 indexU8;
  68:.\Generated_Source\PSoC5/LCD_BarGraph.c **** 
  69:.\Generated_Source\PSoC5/LCD_BarGraph.c ****     LCD_IsReady();
  39              		.loc 1 69 0
  40 0004 FFF7FEFF 		bl	LCD_IsReady
  41              	.LVL1:
  70:.\Generated_Source\PSoC5/LCD_BarGraph.c ****     /* Set starting address in the LCD Module */
  71:.\Generated_Source\PSoC5/LCD_BarGraph.c ****     /* Optionally: Read the current address to restore at a later time */
  72:.\Generated_Source\PSoC5/LCD_BarGraph.c ****     LCD_WriteControl(LCD_CGRAM_0);
  42              		.loc 1 72 0
ARM GAS  C:\Users\JohnP\AppData\Local\Temp\ccY3SaEc.s 			page 3


  43 0008 4020     		movs	r0, #64
  44 000a FFF7FEFF 		bl	LCD_WriteControl
  45              	.LVL2:
  73:.\Generated_Source\PSoC5/LCD_BarGraph.c **** 
  74:.\Generated_Source\PSoC5/LCD_BarGraph.c ****     /* Load in the 64 bytes of CustomChar Data */
  75:.\Generated_Source\PSoC5/LCD_BarGraph.c ****     for(indexU8 = 0u; indexU8 < LCD_CUSTOM_CHAR_SET_LEN; indexU8++)
  46              		.loc 1 75 0
  47 000e 0024     		movs	r4, #0
  48 0010 04E0     		b	.L2
  49              	.LVL3:
  50              	.L3:
  76:.\Generated_Source\PSoC5/LCD_BarGraph.c ****     {
  77:.\Generated_Source\PSoC5/LCD_BarGraph.c ****         /* Delay between each write */
  78:.\Generated_Source\PSoC5/LCD_BarGraph.c ****         LCD_WriteData(customData[indexU8]);
  51              		.loc 1 78 0 discriminator 2
  52 0012 285D     		ldrb	r0, [r5, r4]	@ zero_extendqisi2
  53 0014 FFF7FEFF 		bl	LCD_WriteData
  54              	.LVL4:
  75:.\Generated_Source\PSoC5/LCD_BarGraph.c ****     for(indexU8 = 0u; indexU8 < LCD_CUSTOM_CHAR_SET_LEN; indexU8++)
  55              		.loc 1 75 0 discriminator 2
  56 0018 0134     		adds	r4, r4, #1
  57              	.LVL5:
  58 001a E4B2     		uxtb	r4, r4
  59              	.LVL6:
  60              	.L2:
  75:.\Generated_Source\PSoC5/LCD_BarGraph.c ****     for(indexU8 = 0u; indexU8 < LCD_CUSTOM_CHAR_SET_LEN; indexU8++)
  61              		.loc 1 75 0 is_stmt 0 discriminator 1
  62 001c 3F2C     		cmp	r4, #63
  63 001e F8D9     		bls	.L3
  79:.\Generated_Source\PSoC5/LCD_BarGraph.c ****     }
  80:.\Generated_Source\PSoC5/LCD_BarGraph.c **** 
  81:.\Generated_Source\PSoC5/LCD_BarGraph.c ****     LCD_IsReady();
  64              		.loc 1 81 0 is_stmt 1
  65 0020 FFF7FEFF 		bl	LCD_IsReady
  66              	.LVL7:
  82:.\Generated_Source\PSoC5/LCD_BarGraph.c ****     LCD_WriteControl(LCD_DDRAM_0);
  67              		.loc 1 82 0
  68 0024 8020     		movs	r0, #128
  69 0026 FFF7FEFF 		bl	LCD_WriteControl
  70              	.LVL8:
  71 002a 38BD     		pop	{r3, r4, r5, pc}
  72              		.cfi_endproc
  73              	.LFE0:
  74              		.size	LCD_LoadCustomFonts, .-LCD_LoadCustomFonts
  75              		.section	.text.LCD_DrawHorizontalBG,"ax",%progbits
  76              		.align	2
  77              		.global	LCD_DrawHorizontalBG
  78              		.thumb
  79              		.thumb_func
  80              		.type	LCD_DrawHorizontalBG, %function
  81              	LCD_DrawHorizontalBG:
  82              	.LFB1:
  83:.\Generated_Source\PSoC5/LCD_BarGraph.c **** }
  84:.\Generated_Source\PSoC5/LCD_BarGraph.c **** 
  85:.\Generated_Source\PSoC5/LCD_BarGraph.c **** 
  86:.\Generated_Source\PSoC5/LCD_BarGraph.c **** #if (LCD_CUSTOM_CHAR_SET == LCD_HORIZONTAL_BG)
  87:.\Generated_Source\PSoC5/LCD_BarGraph.c **** 
ARM GAS  C:\Users\JohnP\AppData\Local\Temp\ccY3SaEc.s 			page 4


  88:.\Generated_Source\PSoC5/LCD_BarGraph.c ****     /*******************************************************************************
  89:.\Generated_Source\PSoC5/LCD_BarGraph.c ****     * Function Name: LCD_DrawHorizontalBG
  90:.\Generated_Source\PSoC5/LCD_BarGraph.c ****     ********************************************************************************
  91:.\Generated_Source\PSoC5/LCD_BarGraph.c ****     *
  92:.\Generated_Source\PSoC5/LCD_BarGraph.c ****     * Summary:
  93:.\Generated_Source\PSoC5/LCD_BarGraph.c ****     *  Draws the horizontal bargraph.
  94:.\Generated_Source\PSoC5/LCD_BarGraph.c ****     *
  95:.\Generated_Source\PSoC5/LCD_BarGraph.c ****     * Parameters:
  96:.\Generated_Source\PSoC5/LCD_BarGraph.c ****     *  row:            The row in which the bar graph starts.
  97:.\Generated_Source\PSoC5/LCD_BarGraph.c ****     *  column:         The column in which the bar graph starts.
  98:.\Generated_Source\PSoC5/LCD_BarGraph.c ****     *  maxCharacters:  The max length of the graph in whole characters.
  99:.\Generated_Source\PSoC5/LCD_BarGraph.c ****     *  value:          The current length or height of the graph in pixels.
 100:.\Generated_Source\PSoC5/LCD_BarGraph.c ****     *
 101:.\Generated_Source\PSoC5/LCD_BarGraph.c ****     * Return:
 102:.\Generated_Source\PSoC5/LCD_BarGraph.c ****     *  void.
 103:.\Generated_Source\PSoC5/LCD_BarGraph.c ****     *
 104:.\Generated_Source\PSoC5/LCD_BarGraph.c ****     *******************************************************************************/
 105:.\Generated_Source\PSoC5/LCD_BarGraph.c ****     void LCD_DrawHorizontalBG(uint8 row, uint8 column, uint8 maxCharacters, uint8 value) \
 106:.\Generated_Source\PSoC5/LCD_BarGraph.c ****                                                             
 107:.\Generated_Source\PSoC5/LCD_BarGraph.c ****     {
  83              		.loc 1 107 0
  84              		.cfi_startproc
  85              		@ args = 0, pretend = 0, frame = 0
  86              		@ frame_needed = 0, uses_anonymous_args = 0
  87              	.LVL9:
  88 0000 2DE9F041 		push	{r4, r5, r6, r7, r8, lr}
  89              		.cfi_def_cfa_offset 24
  90              		.cfi_offset 4, -24
  91              		.cfi_offset 5, -20
  92              		.cfi_offset 6, -16
  93              		.cfi_offset 7, -12
  94              		.cfi_offset 8, -8
  95              		.cfi_offset 14, -4
  96 0004 1746     		mov	r7, r2
 108:.\Generated_Source\PSoC5/LCD_BarGraph.c ****         /* 8-bit Counter */
 109:.\Generated_Source\PSoC5/LCD_BarGraph.c ****         uint8 count8;
 110:.\Generated_Source\PSoC5/LCD_BarGraph.c ****         uint8 fullChars;
 111:.\Generated_Source\PSoC5/LCD_BarGraph.c ****         uint8 remainingPixels;
 112:.\Generated_Source\PSoC5/LCD_BarGraph.c **** 
 113:.\Generated_Source\PSoC5/LCD_BarGraph.c ****         /* Number of full characters to draw */
 114:.\Generated_Source\PSoC5/LCD_BarGraph.c ****         fullChars = value / LCD_CHARACTER_WIDTH;
  97              		.loc 1 114 0
  98 0006 184A     		ldr	r2, .L13
  99              	.LVL10:
 100 0008 A2FB0342 		umull	r4, r2, r2, r3
 101 000c 9208     		lsrs	r2, r2, #2
 102 000e D5B2     		uxtb	r5, r2
 103              	.LVL11:
 115:.\Generated_Source\PSoC5/LCD_BarGraph.c **** 
 116:.\Generated_Source\PSoC5/LCD_BarGraph.c ****         /* Number of remaining pixels to draw */
 117:.\Generated_Source\PSoC5/LCD_BarGraph.c ****         remainingPixels = value % LCD_CHARACTER_WIDTH;
 104              		.loc 1 117 0
 105 0010 02EB8202 		add	r2, r2, r2, lsl #2
 106              	.LVL12:
 107 0014 9B1A     		subs	r3, r3, r2
 108              	.LVL13:
 109 0016 5FFA83F8 		uxtb	r8, r3
ARM GAS  C:\Users\JohnP\AppData\Local\Temp\ccY3SaEc.s 			page 5


 110              	.LVL14:
 118:.\Generated_Source\PSoC5/LCD_BarGraph.c **** 
 119:.\Generated_Source\PSoC5/LCD_BarGraph.c ****         /* Ensure that the maximum character limit is followed. */
 120:.\Generated_Source\PSoC5/LCD_BarGraph.c ****         if(fullChars >= maxCharacters)
 111              		.loc 1 120 0
 112 001a BD42     		cmp	r5, r7
 113 001c 00D3     		bcc	.L5
 121:.\Generated_Source\PSoC5/LCD_BarGraph.c ****         {
 122:.\Generated_Source\PSoC5/LCD_BarGraph.c ****             fullChars = maxCharacters;
 114              		.loc 1 122 0
 115 001e 3D46     		mov	r5, r7
 116              	.LVL15:
 117              	.L5:
 123:.\Generated_Source\PSoC5/LCD_BarGraph.c ****         }
 124:.\Generated_Source\PSoC5/LCD_BarGraph.c **** 
 125:.\Generated_Source\PSoC5/LCD_BarGraph.c ****         /* Put Cursor at start position */
 126:.\Generated_Source\PSoC5/LCD_BarGraph.c ****         LCD_Position(row, column);
 118              		.loc 1 126 0
 119 0020 FFF7FEFF 		bl	LCD_Position
 120              	.LVL16:
 127:.\Generated_Source\PSoC5/LCD_BarGraph.c **** 
 128:.\Generated_Source\PSoC5/LCD_BarGraph.c ****         /* Write full characters */
 129:.\Generated_Source\PSoC5/LCD_BarGraph.c ****         for(count8 = 0u; count8 < fullChars; count8++)
 121              		.loc 1 129 0
 122 0024 0024     		movs	r4, #0
 130:.\Generated_Source\PSoC5/LCD_BarGraph.c ****         {
 131:.\Generated_Source\PSoC5/LCD_BarGraph.c ****             LCD_WriteData(LCD_CUSTOM_5);
 123              		.loc 1 131 0
 124 0026 0526     		movs	r6, #5
 129:.\Generated_Source\PSoC5/LCD_BarGraph.c ****         for(count8 = 0u; count8 < fullChars; count8++)
 125              		.loc 1 129 0
 126 0028 04E0     		b	.L6
 127              	.LVL17:
 128              	.L7:
 129              		.loc 1 131 0 discriminator 2
 130 002a 3046     		mov	r0, r6
 131 002c FFF7FEFF 		bl	LCD_WriteData
 132              	.LVL18:
 129:.\Generated_Source\PSoC5/LCD_BarGraph.c ****         for(count8 = 0u; count8 < fullChars; count8++)
 133              		.loc 1 129 0 discriminator 2
 134 0030 0134     		adds	r4, r4, #1
 135              	.LVL19:
 136 0032 E4B2     		uxtb	r4, r4
 137              	.LVL20:
 138              	.L6:
 129:.\Generated_Source\PSoC5/LCD_BarGraph.c ****         for(count8 = 0u; count8 < fullChars; count8++)
 139              		.loc 1 129 0 is_stmt 0 discriminator 1
 140 0034 AC42     		cmp	r4, r5
 141 0036 F8D3     		bcc	.L7
 132:.\Generated_Source\PSoC5/LCD_BarGraph.c ****         }
 133:.\Generated_Source\PSoC5/LCD_BarGraph.c **** 
 134:.\Generated_Source\PSoC5/LCD_BarGraph.c ****         if(fullChars < maxCharacters)
 142              		.loc 1 134 0 is_stmt 1
 143 0038 BD42     		cmp	r5, r7
 144 003a 13D2     		bcs	.L4
 135:.\Generated_Source\PSoC5/LCD_BarGraph.c ****         {
 136:.\Generated_Source\PSoC5/LCD_BarGraph.c ****             /* Write remaining pixels */
ARM GAS  C:\Users\JohnP\AppData\Local\Temp\ccY3SaEc.s 			page 6


 137:.\Generated_Source\PSoC5/LCD_BarGraph.c ****             LCD_WriteData(remainingPixels);
 145              		.loc 1 137 0
 146 003c 4046     		mov	r0, r8
 147 003e FFF7FEFF 		bl	LCD_WriteData
 148              	.LVL21:
 138:.\Generated_Source\PSoC5/LCD_BarGraph.c **** 
 139:.\Generated_Source\PSoC5/LCD_BarGraph.c ****             if(fullChars < (maxCharacters - 1u))
 149              		.loc 1 139 0
 150 0042 7B1E     		subs	r3, r7, #1
 151 0044 9D42     		cmp	r5, r3
 152 0046 07D3     		bcc	.L12
 153 0048 BDE8F081 		pop	{r4, r5, r6, r7, r8, pc}
 154              	.LVL22:
 155              	.L10:
 140:.\Generated_Source\PSoC5/LCD_BarGraph.c ****             {
 141:.\Generated_Source\PSoC5/LCD_BarGraph.c ****                 /* Fill with whitespace to end of bar graph */
 142:.\Generated_Source\PSoC5/LCD_BarGraph.c ****                 for(count8 = 0u; count8 < (maxCharacters - fullChars - 1u); count8++)
 143:.\Generated_Source\PSoC5/LCD_BarGraph.c ****                 {
 144:.\Generated_Source\PSoC5/LCD_BarGraph.c ****                     LCD_WriteData(LCD_CUSTOM_0);
 156              		.loc 1 144 0 discriminator 2
 157 004c 3046     		mov	r0, r6
 158 004e FFF7FEFF 		bl	LCD_WriteData
 159              	.LVL23:
 142:.\Generated_Source\PSoC5/LCD_BarGraph.c ****                 for(count8 = 0u; count8 < (maxCharacters - fullChars - 1u); count8++)
 160              		.loc 1 142 0 discriminator 2
 161 0052 0134     		adds	r4, r4, #1
 162              	.LVL24:
 163 0054 E4B2     		uxtb	r4, r4
 164              	.LVL25:
 165 0056 03E0     		b	.L9
 166              	.LVL26:
 167              	.L12:
 168 0058 0024     		movs	r4, #0
 169              	.LVL27:
 142:.\Generated_Source\PSoC5/LCD_BarGraph.c ****                 for(count8 = 0u; count8 < (maxCharacters - fullChars - 1u); count8++)
 170              		.loc 1 142 0 is_stmt 0
 171 005a 7D1B     		subs	r5, r7, r5
 172              	.LVL28:
 173 005c 013D     		subs	r5, r5, #1
 174              		.loc 1 144 0 is_stmt 1
 175 005e 2646     		mov	r6, r4
 176              	.L9:
 177              	.LVL29:
 142:.\Generated_Source\PSoC5/LCD_BarGraph.c ****                 for(count8 = 0u; count8 < (maxCharacters - fullChars - 1u); count8++)
 178              		.loc 1 142 0 discriminator 1
 179 0060 AC42     		cmp	r4, r5
 180 0062 F3D3     		bcc	.L10
 181              	.LVL30:
 182              	.L4:
 183 0064 BDE8F081 		pop	{r4, r5, r6, r7, r8, pc}
 184              	.LVL31:
 185              	.L14:
 186              		.align	2
 187              	.L13:
 188 0068 CDCCCCCC 		.word	-858993459
 189              		.cfi_endproc
 190              	.LFE1:
ARM GAS  C:\Users\JohnP\AppData\Local\Temp\ccY3SaEc.s 			page 7


 191              		.size	LCD_DrawHorizontalBG, .-LCD_DrawHorizontalBG
 192              		.global	LCD_customFonts
 193              		.section	.rodata
 194              		.align	2
 195              		.type	LCD_customFonts, %object
 196              		.size	LCD_customFonts, 64
 197              	LCD_customFonts:
 198 0000 00       		.byte	0
 199 0001 00       		.byte	0
 200 0002 00       		.byte	0
 201 0003 00       		.byte	0
 202 0004 00       		.byte	0
 203 0005 00       		.byte	0
 204 0006 00       		.byte	0
 205 0007 00       		.byte	0
 206 0008 10       		.byte	16
 207 0009 10       		.byte	16
 208 000a 10       		.byte	16
 209 000b 10       		.byte	16
 210 000c 10       		.byte	16
 211 000d 10       		.byte	16
 212 000e 10       		.byte	16
 213 000f 10       		.byte	16
 214 0010 18       		.byte	24
 215 0011 18       		.byte	24
 216 0012 18       		.byte	24
 217 0013 18       		.byte	24
 218 0014 18       		.byte	24
 219 0015 18       		.byte	24
 220 0016 18       		.byte	24
 221 0017 18       		.byte	24
 222 0018 1C       		.byte	28
 223 0019 1C       		.byte	28
 224 001a 1C       		.byte	28
 225 001b 1C       		.byte	28
 226 001c 1C       		.byte	28
 227 001d 1C       		.byte	28
 228 001e 1C       		.byte	28
 229 001f 1C       		.byte	28
 230 0020 1E       		.byte	30
 231 0021 1E       		.byte	30
 232 0022 1E       		.byte	30
 233 0023 1E       		.byte	30
 234 0024 1E       		.byte	30
 235 0025 1E       		.byte	30
 236 0026 1E       		.byte	30
 237 0027 1E       		.byte	30
 238 0028 1F       		.byte	31
 239 0029 1F       		.byte	31
 240 002a 1F       		.byte	31
 241 002b 1F       		.byte	31
 242 002c 1F       		.byte	31
 243 002d 1F       		.byte	31
 244 002e 1F       		.byte	31
 245 002f 1F       		.byte	31
 246 0030 00       		.byte	0
 247 0031 00       		.byte	0
ARM GAS  C:\Users\JohnP\AppData\Local\Temp\ccY3SaEc.s 			page 8


 248 0032 00       		.byte	0
 249 0033 00       		.byte	0
 250 0034 00       		.byte	0
 251 0035 00       		.byte	0
 252 0036 00       		.byte	0
 253 0037 00       		.byte	0
 254 0038 00       		.byte	0
 255 0039 00       		.byte	0
 256 003a 00       		.byte	0
 257 003b 00       		.byte	0
 258 003c 00       		.byte	0
 259 003d 00       		.byte	0
 260 003e 00       		.byte	0
 261 003f 00       		.byte	0
 262              		.text
 263              	.Letext0:
 264              		.file 2 ".\\Generated_Source\\PSoC5\\LCD.h"
 265              		.file 3 ".\\Generated_Source\\PSoC5\\cytypes.h"