ARM GAS  C:\Users\JohnP\AppData\Local\Temp\ccDDlOGa.s 			page 1


   1              		.syntax unified
   2              		.cpu cortex-m3
   3              		.fpu softvfp
   4              		.eabi_attribute 20, 1
   5              		.eabi_attribute 21, 1
   6              		.eabi_attribute 23, 3
   7              		.eabi_attribute 24, 1
   8              		.eabi_attribute 25, 1
   9              		.eabi_attribute 26, 1
  10              		.eabi_attribute 30, 1
  11              		.eabi_attribute 34, 1
  12              		.eabi_attribute 18, 4
  13              		.thumb
  14              		.file	"motor.c"
  15              		.text
  16              	.Ltext0:
  17              		.cfi_sections	.debug_frame
  18              		.section	.text.Move_motor,"ax",%progbits
  19              		.align	2
  20              		.global	Move_motor
  21              		.thumb
  22              		.thumb_func
  23              		.type	Move_motor, %function
  24              	Move_motor:
  25              	.LFB3:
  26              		.file 1 ".\\motor.c"
   1:.\motor.c     **** /* ========================================
   2:.\motor.c     ****  *
   3:.\motor.c     ****  * Copyright YOUR COMPANY, THE YEAR
   4:.\motor.c     ****  * All Rights Reserved
   5:.\motor.c     ****  * UNPUBLISHED, LICENSED SOFTWARE.
   6:.\motor.c     ****  *
   7:.\motor.c     ****  * CONFIDENTIAL AND PROPRIETARY INFORMATION
   8:.\motor.c     ****  * WHICH IS THE PROPERTY OF your company.
   9:.\motor.c     ****  *
  10:.\motor.c     ****  * ========================================
  11:.\motor.c     **** */
  12:.\motor.c     **** 
  13:.\motor.c     **** #include "motor.h"
  14:.\motor.c     **** 
  15:.\motor.c     **** void Start_motor(){
  16:.\motor.c     ****     PWM_Start();
  17:.\motor.c     ****     Move_motor(100);
  18:.\motor.c     **** }
  19:.\motor.c     **** 
  20:.\motor.c     **** void Motor_rampUp(int topSpeed){
  21:.\motor.c     ****     int i;
  22:.\motor.c     ****     if (speed < topSpeed){
  23:.\motor.c     ****         for(i=speed; i<topSpeed; i++){
  24:.\motor.c     ****             Move_motor(i);
  25:.\motor.c     ****             CyDelay(10);
  26:.\motor.c     ****         }
  27:.\motor.c     ****     } else {
  28:.\motor.c     ****         for(i=speed; i>topSpeed; i--){
  29:.\motor.c     ****             Move_motor(i);
  30:.\motor.c     ****             CyDelay(10);
  31:.\motor.c     ****         }   
ARM GAS  C:\Users\JohnP\AppData\Local\Temp\ccDDlOGa.s 			page 2


  32:.\motor.c     ****     }
  33:.\motor.c     **** }
  34:.\motor.c     **** 
  35:.\motor.c     **** /*
  36:.\motor.c     ****     stops motor over 2 seconds
  37:.\motor.c     **** */
  38:.\motor.c     **** void Motor_stop(){    
  39:.\motor.c     ****     int delay = 100;        // 100ms delay between each decrement
  40:.\motor.c     ****     int time = 2000;        // 2 seconds total motor stop time
  41:.\motor.c     ****     int decrementer = speed/(time/delay);
  42:.\motor.c     ****     int i;
  43:.\motor.c     ****     for (i=speed; i>0; (i-=decrementer)){
  44:.\motor.c     ****         Move_motor(i);
  45:.\motor.c     ****         CyDelay(delay);
  46:.\motor.c     ****     }
  47:.\motor.c     ****     Move_motor(0);          // just to ensure it's stopped
  48:.\motor.c     ****     LCD_Position(1,0);
  49:.\motor.c     **** }
  50:.\motor.c     **** 
  51:.\motor.c     **** void Move_motor(int motorSpeed){
  27              		.loc 1 51 0
  28              		.cfi_startproc
  29              		@ args = 0, pretend = 0, frame = 0
  30              		@ frame_needed = 0, uses_anonymous_args = 0
  31              	.LVL0:
  32 0000 08B5     		push	{r3, lr}
  33              		.cfi_def_cfa_offset 8
  34              		.cfi_offset 3, -8
  35              		.cfi_offset 14, -4
  52:.\motor.c     ****     speed = motorSpeed;
  36              		.loc 1 52 0
  37 0002 034B     		ldr	r3, .L2
  38 0004 1860     		str	r0, [r3]
  53:.\motor.c     ****     PWM_WriteCompare(motorSpeed);
  39              		.loc 1 53 0
  40 0006 80B2     		uxth	r0, r0
  41              	.LVL1:
  42 0008 FFF7FEFF 		bl	PWM_WriteCompare
  43              	.LVL2:
  44 000c 08BD     		pop	{r3, pc}
  45              	.L3:
  46 000e 00BF     		.align	2
  47              	.L2:
  48 0010 00000000 		.word	speed
  49              		.cfi_endproc
  50              	.LFE3:
  51              		.size	Move_motor, .-Move_motor
  52              		.section	.text.Start_motor,"ax",%progbits
  53              		.align	2
  54              		.global	Start_motor
  55              		.thumb
  56              		.thumb_func
  57              		.type	Start_motor, %function
  58              	Start_motor:
  59              	.LFB0:
  15:.\motor.c     **** void Start_motor(){
  60              		.loc 1 15 0
ARM GAS  C:\Users\JohnP\AppData\Local\Temp\ccDDlOGa.s 			page 3


  61              		.cfi_startproc
  62              		@ args = 0, pretend = 0, frame = 0
  63              		@ frame_needed = 0, uses_anonymous_args = 0
  64 0000 08B5     		push	{r3, lr}
  65              		.cfi_def_cfa_offset 8
  66              		.cfi_offset 3, -8
  67              		.cfi_offset 14, -4
  16:.\motor.c     ****     PWM_Start();
  68              		.loc 1 16 0
  69 0002 FFF7FEFF 		bl	PWM_Start
  70              	.LVL3:
  17:.\motor.c     ****     Move_motor(100);
  71              		.loc 1 17 0
  72 0006 6420     		movs	r0, #100
  73 0008 FFF7FEFF 		bl	Move_motor
  74              	.LVL4:
  75 000c 08BD     		pop	{r3, pc}
  76              		.cfi_endproc
  77              	.LFE0:
  78              		.size	Start_motor, .-Start_motor
  79 000e 00BF     		.section	.text.Motor_rampUp,"ax",%progbits
  80              		.align	2
  81              		.global	Motor_rampUp
  82              		.thumb
  83              		.thumb_func
  84              		.type	Motor_rampUp, %function
  85              	Motor_rampUp:
  86              	.LFB1:
  20:.\motor.c     **** void Motor_rampUp(int topSpeed){
  87              		.loc 1 20 0
  88              		.cfi_startproc
  89              		@ args = 0, pretend = 0, frame = 0
  90              		@ frame_needed = 0, uses_anonymous_args = 0
  91              	.LVL5:
  92 0000 70B5     		push	{r4, r5, r6, lr}
  93              		.cfi_def_cfa_offset 16
  94              		.cfi_offset 4, -16
  95              		.cfi_offset 5, -12
  96              		.cfi_offset 6, -8
  97              		.cfi_offset 14, -4
  98 0002 0546     		mov	r5, r0
  22:.\motor.c     ****     if (speed < topSpeed){
  99              		.loc 1 22 0
 100 0004 0E4B     		ldr	r3, .L14
 101 0006 1C68     		ldr	r4, [r3]
 102 0008 8442     		cmp	r4, r0
 103 000a 08DB     		blt	.L6
 104 000c 13E0     		b	.L11
 105              	.LVL6:
 106              	.L8:
  24:.\motor.c     ****             Move_motor(i);
 107              		.loc 1 24 0 discriminator 2
 108 000e 2046     		mov	r0, r4
 109 0010 FFF7FEFF 		bl	Move_motor
 110              	.LVL7:
  25:.\motor.c     ****             CyDelay(10);
 111              		.loc 1 25 0 discriminator 2
ARM GAS  C:\Users\JohnP\AppData\Local\Temp\ccDDlOGa.s 			page 4


 112 0014 3046     		mov	r0, r6
 113 0016 FFF7FEFF 		bl	CyDelay
 114              	.LVL8:
  23:.\motor.c     ****         for(i=speed; i<topSpeed; i++){
 115              		.loc 1 23 0 discriminator 2
 116 001a 0134     		adds	r4, r4, #1
 117              	.LVL9:
 118 001c 00E0     		b	.L12
 119              	.LVL10:
 120              	.L6:
  25:.\motor.c     ****             CyDelay(10);
 121              		.loc 1 25 0 discriminator 1
 122 001e 0A26     		movs	r6, #10
 123              	.LVL11:
 124              	.L12:
  23:.\motor.c     ****         for(i=speed; i<topSpeed; i++){
 125              		.loc 1 23 0 discriminator 1
 126 0020 AC42     		cmp	r4, r5
 127 0022 F4DB     		blt	.L8
 128 0024 70BD     		pop	{r4, r5, r6, pc}
 129              	.LVL12:
 130              	.L10:
  29:.\motor.c     ****             Move_motor(i);
 131              		.loc 1 29 0 discriminator 2
 132 0026 2046     		mov	r0, r4
 133 0028 FFF7FEFF 		bl	Move_motor
 134              	.LVL13:
  30:.\motor.c     ****             CyDelay(10);
 135              		.loc 1 30 0 discriminator 2
 136 002c 3046     		mov	r0, r6
 137 002e FFF7FEFF 		bl	CyDelay
 138              	.LVL14:
  28:.\motor.c     ****         for(i=speed; i>topSpeed; i--){
 139              		.loc 1 28 0 discriminator 2
 140 0032 013C     		subs	r4, r4, #1
 141              	.LVL15:
 142 0034 00E0     		b	.L13
 143              	.LVL16:
 144              	.L11:
  30:.\motor.c     ****             CyDelay(10);
 145              		.loc 1 30 0 discriminator 1
 146 0036 0A26     		movs	r6, #10
 147              	.LVL17:
 148              	.L13:
  28:.\motor.c     ****         for(i=speed; i>topSpeed; i--){
 149              		.loc 1 28 0 discriminator 1
 150 0038 AC42     		cmp	r4, r5
 151 003a F4DC     		bgt	.L10
 152 003c 70BD     		pop	{r4, r5, r6, pc}
 153              	.LVL18:
 154              	.L15:
 155 003e 00BF     		.align	2
 156              	.L14:
 157 0040 00000000 		.word	speed
 158              		.cfi_endproc
 159              	.LFE1:
 160              		.size	Motor_rampUp, .-Motor_rampUp
ARM GAS  C:\Users\JohnP\AppData\Local\Temp\ccDDlOGa.s 			page 5


 161              		.section	.text.Motor_stop,"ax",%progbits
 162              		.align	2
 163              		.global	Motor_stop
 164              		.thumb
 165              		.thumb_func
 166              		.type	Motor_stop, %function
 167              	Motor_stop:
 168              	.LFB2:
  38:.\motor.c     **** void Motor_stop(){    
 169              		.loc 1 38 0
 170              		.cfi_startproc
 171              		@ args = 0, pretend = 0, frame = 0
 172              		@ frame_needed = 0, uses_anonymous_args = 0
 173 0000 70B5     		push	{r4, r5, r6, lr}
 174              		.cfi_def_cfa_offset 16
 175              		.cfi_offset 4, -16
 176              		.cfi_offset 5, -12
 177              		.cfi_offset 6, -8
 178              		.cfi_offset 14, -4
 179              	.LVL19:
  41:.\motor.c     ****     int decrementer = speed/(time/delay);
 180              		.loc 1 41 0
 181 0002 0D4B     		ldr	r3, .L19
 182 0004 1C68     		ldr	r4, [r3]
 183 0006 0D4E     		ldr	r6, .L19+4
 184 0008 86FB0436 		smull	r3, r6, r6, r4
 185 000c E317     		asrs	r3, r4, #31
 186 000e C3EBE606 		rsb	r6, r3, r6, asr #3
 187              	.LVL20:
  45:.\motor.c     ****         CyDelay(delay);
 188              		.loc 1 45 0
 189 0012 6425     		movs	r5, #100
  43:.\motor.c     ****     for (i=speed; i>0; (i-=decrementer)){
 190              		.loc 1 43 0
 191 0014 06E0     		b	.L17
 192              	.L18:
  44:.\motor.c     ****         Move_motor(i);
 193              		.loc 1 44 0 discriminator 2
 194 0016 2046     		mov	r0, r4
 195 0018 FFF7FEFF 		bl	Move_motor
 196              	.LVL21:
  45:.\motor.c     ****         CyDelay(delay);
 197              		.loc 1 45 0 discriminator 2
 198 001c 2846     		mov	r0, r5
 199 001e FFF7FEFF 		bl	CyDelay
 200              	.LVL22:
  43:.\motor.c     ****     for (i=speed; i>0; (i-=decrementer)){
 201              		.loc 1 43 0 discriminator 2
 202 0022 A41B     		subs	r4, r4, r6
 203              	.LVL23:
 204              	.L17:
  43:.\motor.c     ****     for (i=speed; i>0; (i-=decrementer)){
 205              		.loc 1 43 0 is_stmt 0 discriminator 1
 206 0024 002C     		cmp	r4, #0
 207 0026 F6DC     		bgt	.L18
  47:.\motor.c     ****     Move_motor(0);          // just to ensure it's stopped
 208              		.loc 1 47 0 is_stmt 1
ARM GAS  C:\Users\JohnP\AppData\Local\Temp\ccDDlOGa.s 			page 6


 209 0028 0020     		movs	r0, #0
 210 002a FFF7FEFF 		bl	Move_motor
 211              	.LVL24:
  48:.\motor.c     ****     LCD_Position(1,0);
 212              		.loc 1 48 0
 213 002e 0120     		movs	r0, #1
 214 0030 0021     		movs	r1, #0
 215 0032 FFF7FEFF 		bl	LCD_Position
 216              	.LVL25:
 217 0036 70BD     		pop	{r4, r5, r6, pc}
 218              	.LVL26:
 219              	.L20:
 220              		.align	2
 221              	.L19:
 222 0038 00000000 		.word	speed
 223 003c 67666666 		.word	1717986919
 224              		.cfi_endproc
 225              	.LFE2:
 226              		.size	Motor_stop, .-Motor_stop
 227              		.comm	speed,4,4
 228              		.comm	timer_value,4,4
 229              		.comm	timer_status,4,4
 230              		.comm	heartbeatCounter,4,4
 231              		.comm	heartrate,4,4
 232              		.comm	Prev_state,4,4
 233              		.comm	currentState,4,4
 234              		.comm	PROFILE,4,4
 235              		.comm	increasingHr,4,4
 236              		.comm	average,4,4
 237              		.text
 238              	.Letext0:
 239              		.file 2 "Generated_Source\\PSoC5/cytypes.h"
 240              		.file 3 ".\\states.h"
 241              		.file 4 ".\\heartrate.h"
 242              		.file 5 ".\\motor.h"
 243              		.file 6 "Generated_Source\\PSoC5/PWM.h"
 244              		.file 7 "Generated_Source\\PSoC5/CyLib.h"
 245              		.file 8 "Generated_Source\\PSoC5/LCD.h"