ARM GAS  C:\Users\JohnP\AppData\Local\Temp\cciU9Cgh.s 			page 1


   1              		.syntax unified
   2              		.cpu cortex-m3
   3              		.fpu softvfp
   4              		.eabi_attribute 20, 1
   5              		.eabi_attribute 21, 1
   6              		.eabi_attribute 23, 3
   7              		.eabi_attribute 24, 1
   8              		.eabi_attribute 25, 1
   9              		.eabi_attribute 26, 1
  10              		.eabi_attribute 30, 1
  11              		.eabi_attribute 34, 1
  12              		.eabi_attribute 18, 4
  13              		.thumb
  14              		.file	"PGA_1.c"
  15              		.text
  16              	.Ltext0:
  17              		.cfi_sections	.debug_frame
  18              		.section	.text.PGA_1_Enable,"ax",%progbits
  19              		.align	2
  20              		.global	PGA_1_Enable
  21              		.thumb
  22              		.thumb_func
  23              		.type	PGA_1_Enable, %function
  24              	PGA_1_Enable:
  25              	.LFB1:
  26              		.file 1 ".\\Generated_Source\\PSoC5\\PGA_1.c"
   1:.\Generated_Source\PSoC5/PGA_1.c **** /*******************************************************************************
   2:.\Generated_Source\PSoC5/PGA_1.c **** * File Name: PGA_1.c  
   3:.\Generated_Source\PSoC5/PGA_1.c **** * Version 2.0
   4:.\Generated_Source\PSoC5/PGA_1.c **** *
   5:.\Generated_Source\PSoC5/PGA_1.c **** * Description:
   6:.\Generated_Source\PSoC5/PGA_1.c **** *  This file provides the source code to the API for the PGA 
   7:.\Generated_Source\PSoC5/PGA_1.c **** *  User Module.
   8:.\Generated_Source\PSoC5/PGA_1.c **** *
   9:.\Generated_Source\PSoC5/PGA_1.c **** * Note:
  10:.\Generated_Source\PSoC5/PGA_1.c **** *
  11:.\Generated_Source\PSoC5/PGA_1.c **** ********************************************************************************
  12:.\Generated_Source\PSoC5/PGA_1.c **** * Copyright 2008-2012, Cypress Semiconductor Corporation.  All rights reserved.
  13:.\Generated_Source\PSoC5/PGA_1.c **** * You may use this file only in accordance with the license, terms, conditions, 
  14:.\Generated_Source\PSoC5/PGA_1.c **** * disclaimers, and limitations in the end user license agreement accompanying 
  15:.\Generated_Source\PSoC5/PGA_1.c **** * the software package with which this file was provided.
  16:.\Generated_Source\PSoC5/PGA_1.c **** *******************************************************************************/
  17:.\Generated_Source\PSoC5/PGA_1.c **** 
  18:.\Generated_Source\PSoC5/PGA_1.c **** #include "PGA_1.h"
  19:.\Generated_Source\PSoC5/PGA_1.c **** 
  20:.\Generated_Source\PSoC5/PGA_1.c **** #if (!CY_PSOC5A)
  21:.\Generated_Source\PSoC5/PGA_1.c ****     #if (CYDEV_VARIABLE_VDDA == 1u)
  22:.\Generated_Source\PSoC5/PGA_1.c ****         #include "CyScBoostClk.h"
  23:.\Generated_Source\PSoC5/PGA_1.c ****     #endif /* (CYDEV_VARIABLE_VDDA == 1u) */
  24:.\Generated_Source\PSoC5/PGA_1.c **** #endif /* (!CY_PSOC5A) */
  25:.\Generated_Source\PSoC5/PGA_1.c **** 
  26:.\Generated_Source\PSoC5/PGA_1.c **** #if (CY_PSOC5A)
  27:.\Generated_Source\PSoC5/PGA_1.c ****     static PGA_1_BACKUP_STRUCT  PGA_1_P5backup;
  28:.\Generated_Source\PSoC5/PGA_1.c **** #endif /* (CY_ PSOC5A) */
  29:.\Generated_Source\PSoC5/PGA_1.c **** 
  30:.\Generated_Source\PSoC5/PGA_1.c **** uint8 PGA_1_initVar = 0u;
  31:.\Generated_Source\PSoC5/PGA_1.c **** 
ARM GAS  C:\Users\JohnP\AppData\Local\Temp\cciU9Cgh.s 			page 2


  32:.\Generated_Source\PSoC5/PGA_1.c **** 
  33:.\Generated_Source\PSoC5/PGA_1.c **** /*******************************************************************************   
  34:.\Generated_Source\PSoC5/PGA_1.c **** * Function Name: PGA_1_Init
  35:.\Generated_Source\PSoC5/PGA_1.c **** ********************************************************************************
  36:.\Generated_Source\PSoC5/PGA_1.c **** *
  37:.\Generated_Source\PSoC5/PGA_1.c **** * Summary:
  38:.\Generated_Source\PSoC5/PGA_1.c **** *  Initialize component's parameters to the parameters set by user in the 
  39:.\Generated_Source\PSoC5/PGA_1.c **** *  customizer of the component placed onto schematic. Usually called in 
  40:.\Generated_Source\PSoC5/PGA_1.c **** *  PGA_1_Start().
  41:.\Generated_Source\PSoC5/PGA_1.c **** *
  42:.\Generated_Source\PSoC5/PGA_1.c **** * Parameters:
  43:.\Generated_Source\PSoC5/PGA_1.c **** *  void
  44:.\Generated_Source\PSoC5/PGA_1.c **** *
  45:.\Generated_Source\PSoC5/PGA_1.c **** * Return:
  46:.\Generated_Source\PSoC5/PGA_1.c **** *  void
  47:.\Generated_Source\PSoC5/PGA_1.c **** *
  48:.\Generated_Source\PSoC5/PGA_1.c **** *******************************************************************************/
  49:.\Generated_Source\PSoC5/PGA_1.c **** void PGA_1_Init(void) 
  50:.\Generated_Source\PSoC5/PGA_1.c **** {
  51:.\Generated_Source\PSoC5/PGA_1.c ****     /* Set PGA mode */
  52:.\Generated_Source\PSoC5/PGA_1.c ****     PGA_1_CR0_REG = PGA_1_MODE_PGA;      
  53:.\Generated_Source\PSoC5/PGA_1.c ****     /* Set non-inverting PGA mode and reference mode */
  54:.\Generated_Source\PSoC5/PGA_1.c ****     PGA_1_CR1_REG |= PGA_1_PGA_NINV;  
  55:.\Generated_Source\PSoC5/PGA_1.c ****     /* Set default gain and ref mode */
  56:.\Generated_Source\PSoC5/PGA_1.c ****     PGA_1_CR2_REG = PGA_1_VREF_MODE;
  57:.\Generated_Source\PSoC5/PGA_1.c ****     /* Set gain and compensation */
  58:.\Generated_Source\PSoC5/PGA_1.c ****     PGA_1_SetGain(PGA_1_DEFAULT_GAIN);
  59:.\Generated_Source\PSoC5/PGA_1.c ****     /* Set power */
  60:.\Generated_Source\PSoC5/PGA_1.c ****     PGA_1_SetPower(PGA_1_DEFAULT_POWER);
  61:.\Generated_Source\PSoC5/PGA_1.c **** }
  62:.\Generated_Source\PSoC5/PGA_1.c **** 
  63:.\Generated_Source\PSoC5/PGA_1.c **** 
  64:.\Generated_Source\PSoC5/PGA_1.c **** /*******************************************************************************   
  65:.\Generated_Source\PSoC5/PGA_1.c **** * Function Name: PGA_1_Enable
  66:.\Generated_Source\PSoC5/PGA_1.c **** ********************************************************************************
  67:.\Generated_Source\PSoC5/PGA_1.c **** *
  68:.\Generated_Source\PSoC5/PGA_1.c **** * Summary:
  69:.\Generated_Source\PSoC5/PGA_1.c **** *  Enables the PGA block operation.
  70:.\Generated_Source\PSoC5/PGA_1.c **** *
  71:.\Generated_Source\PSoC5/PGA_1.c **** * Parameters:
  72:.\Generated_Source\PSoC5/PGA_1.c **** *  void
  73:.\Generated_Source\PSoC5/PGA_1.c **** *
  74:.\Generated_Source\PSoC5/PGA_1.c **** * Return:
  75:.\Generated_Source\PSoC5/PGA_1.c **** *  void
  76:.\Generated_Source\PSoC5/PGA_1.c **** *
  77:.\Generated_Source\PSoC5/PGA_1.c **** *******************************************************************************/
  78:.\Generated_Source\PSoC5/PGA_1.c **** void PGA_1_Enable(void) 
  79:.\Generated_Source\PSoC5/PGA_1.c **** {
  27              		.loc 1 79 0
  28              		.cfi_startproc
  29              		@ args = 0, pretend = 0, frame = 0
  30              		@ frame_needed = 0, uses_anonymous_args = 0
  31              		@ link register save eliminated.
  80:.\Generated_Source\PSoC5/PGA_1.c ****     /* This is to restore the value of register CR1 and CR2 which is saved 
  81:.\Generated_Source\PSoC5/PGA_1.c ****       in prior to the modifications in stop() API */
  82:.\Generated_Source\PSoC5/PGA_1.c ****     #if (CY_PSOC5A)
  83:.\Generated_Source\PSoC5/PGA_1.c ****         if(PGA_1_P5backup.enableState == 1u)
ARM GAS  C:\Users\JohnP\AppData\Local\Temp\cciU9Cgh.s 			page 3


  84:.\Generated_Source\PSoC5/PGA_1.c ****         {
  85:.\Generated_Source\PSoC5/PGA_1.c ****             PGA_1_CR1_REG = PGA_1_P5backup.scCR1Reg;
  86:.\Generated_Source\PSoC5/PGA_1.c ****             PGA_1_CR2_REG = PGA_1_P5backup.scCR2Reg;
  87:.\Generated_Source\PSoC5/PGA_1.c ****             PGA_1_P5backup.enableState = 0u;
  88:.\Generated_Source\PSoC5/PGA_1.c ****         }
  89:.\Generated_Source\PSoC5/PGA_1.c ****     #endif /* CY_PSOC5A */   
  90:.\Generated_Source\PSoC5/PGA_1.c **** 
  91:.\Generated_Source\PSoC5/PGA_1.c ****     /* Enable power to the Amp in Active mode*/
  92:.\Generated_Source\PSoC5/PGA_1.c ****     PGA_1_PM_ACT_CFG_REG |= PGA_1_ACT_PWR_EN;
  32              		.loc 1 92 0
  33 0000 084B     		ldr	r3, .L2
  34 0002 1A78     		ldrb	r2, [r3]	@ zero_extendqisi2
  35 0004 42F00102 		orr	r2, r2, #1
  36 0008 1A70     		strb	r2, [r3]
  93:.\Generated_Source\PSoC5/PGA_1.c **** 
  94:.\Generated_Source\PSoC5/PGA_1.c ****     /* Enable power to the Amp in Alternative Active mode*/
  95:.\Generated_Source\PSoC5/PGA_1.c ****     PGA_1_PM_STBY_CFG_REG |= PGA_1_STBY_PWR_EN;
  37              		.loc 1 95 0
  38 000a 1033     		adds	r3, r3, #16
  39 000c 1A78     		ldrb	r2, [r3]	@ zero_extendqisi2
  40 000e 42F00102 		orr	r2, r2, #1
  41 0012 1A70     		strb	r2, [r3]
  96:.\Generated_Source\PSoC5/PGA_1.c ****     
  97:.\Generated_Source\PSoC5/PGA_1.c ****     PGA_1_PUMP_CR1_REG |= PGA_1_PUMP_CR1_SC_CLKSEL;
  42              		.loc 1 97 0
  43 0014 03F5A553 		add	r3, r3, #5280
  44 0018 1E33     		adds	r3, r3, #30
  45 001a 1A78     		ldrb	r2, [r3]	@ zero_extendqisi2
  46 001c 42F08002 		orr	r2, r2, #128
  47 0020 1A70     		strb	r2, [r3]
  48 0022 7047     		bx	lr
  49              	.L3:
  50              		.align	2
  51              	.L2:
  52 0024 A9430040 		.word	1073759145
  53              		.cfi_endproc
  54              	.LFE1:
  55              		.size	PGA_1_Enable, .-PGA_1_Enable
  56              		.section	.text.PGA_1_Stop,"ax",%progbits
  57              		.align	2
  58              		.global	PGA_1_Stop
  59              		.thumb
  60              		.thumb_func
  61              		.type	PGA_1_Stop, %function
  62              	PGA_1_Stop:
  63              	.LFB3:
  98:.\Generated_Source\PSoC5/PGA_1.c ****     
  99:.\Generated_Source\PSoC5/PGA_1.c ****     #if (!CY_PSOC5A)
 100:.\Generated_Source\PSoC5/PGA_1.c ****         #if (CYDEV_VARIABLE_VDDA == 1u)
 101:.\Generated_Source\PSoC5/PGA_1.c ****             if(CyScPumpEnabled == 1u)
 102:.\Generated_Source\PSoC5/PGA_1.c ****             {
 103:.\Generated_Source\PSoC5/PGA_1.c ****                 PGA_1_BSTCLK_REG &= (uint8)(~PGA_1_BST_CLK_INDEX_MASK);
 104:.\Generated_Source\PSoC5/PGA_1.c ****                 PGA_1_BSTCLK_REG |= PGA_1_BST_CLK_EN | CyScBoostClk__INDEX;
 105:.\Generated_Source\PSoC5/PGA_1.c ****                 PGA_1_SC_MISC_REG |= PGA_1_PUMP_FORCE;
 106:.\Generated_Source\PSoC5/PGA_1.c ****                 CyScBoostClk_Start();
 107:.\Generated_Source\PSoC5/PGA_1.c ****             }
 108:.\Generated_Source\PSoC5/PGA_1.c ****             else
ARM GAS  C:\Users\JohnP\AppData\Local\Temp\cciU9Cgh.s 			page 4


 109:.\Generated_Source\PSoC5/PGA_1.c ****             {
 110:.\Generated_Source\PSoC5/PGA_1.c ****                 PGA_1_BSTCLK_REG &= (uint8)(~PGA_1_BST_CLK_EN);
 111:.\Generated_Source\PSoC5/PGA_1.c ****                 PGA_1_SC_MISC_REG &= (uint8)(~PGA_1_PUMP_FORCE);
 112:.\Generated_Source\PSoC5/PGA_1.c ****             }
 113:.\Generated_Source\PSoC5/PGA_1.c ****         #endif /* (CYDEV_VARIABLE_VDDA == 1u) */
 114:.\Generated_Source\PSoC5/PGA_1.c ****     #endif /* (!CY_PSOC5A) */
 115:.\Generated_Source\PSoC5/PGA_1.c **** }
 116:.\Generated_Source\PSoC5/PGA_1.c **** 
 117:.\Generated_Source\PSoC5/PGA_1.c **** 
 118:.\Generated_Source\PSoC5/PGA_1.c **** /*******************************************************************************
 119:.\Generated_Source\PSoC5/PGA_1.c **** * Function Name: PGA_1_Start
 120:.\Generated_Source\PSoC5/PGA_1.c **** ********************************************************************************
 121:.\Generated_Source\PSoC5/PGA_1.c **** *
 122:.\Generated_Source\PSoC5/PGA_1.c **** * Summary:
 123:.\Generated_Source\PSoC5/PGA_1.c **** *  The start function initializes the PGA with the default values and sets
 124:.\Generated_Source\PSoC5/PGA_1.c **** *  the power to the given level. A power level of 0, is same as executing
 125:.\Generated_Source\PSoC5/PGA_1.c **** *  the stop function.
 126:.\Generated_Source\PSoC5/PGA_1.c **** *
 127:.\Generated_Source\PSoC5/PGA_1.c **** * Parameters:
 128:.\Generated_Source\PSoC5/PGA_1.c **** *  void
 129:.\Generated_Source\PSoC5/PGA_1.c **** *
 130:.\Generated_Source\PSoC5/PGA_1.c **** * Return:
 131:.\Generated_Source\PSoC5/PGA_1.c **** *  void
 132:.\Generated_Source\PSoC5/PGA_1.c **** *
 133:.\Generated_Source\PSoC5/PGA_1.c **** *******************************************************************************/
 134:.\Generated_Source\PSoC5/PGA_1.c **** void PGA_1_Start(void) 
 135:.\Generated_Source\PSoC5/PGA_1.c **** {
 136:.\Generated_Source\PSoC5/PGA_1.c **** 
 137:.\Generated_Source\PSoC5/PGA_1.c ****     /* This is to restore the value of register CR1 and CR2 which is saved 
 138:.\Generated_Source\PSoC5/PGA_1.c ****       in prior to the modification in stop() API */
 139:.\Generated_Source\PSoC5/PGA_1.c **** 
 140:.\Generated_Source\PSoC5/PGA_1.c ****     if(PGA_1_initVar == 0u)
 141:.\Generated_Source\PSoC5/PGA_1.c ****     {
 142:.\Generated_Source\PSoC5/PGA_1.c ****         PGA_1_Init();
 143:.\Generated_Source\PSoC5/PGA_1.c ****         PGA_1_initVar = 1u;
 144:.\Generated_Source\PSoC5/PGA_1.c ****     }
 145:.\Generated_Source\PSoC5/PGA_1.c **** 
 146:.\Generated_Source\PSoC5/PGA_1.c ****     PGA_1_Enable();
 147:.\Generated_Source\PSoC5/PGA_1.c **** }
 148:.\Generated_Source\PSoC5/PGA_1.c **** 
 149:.\Generated_Source\PSoC5/PGA_1.c **** 
 150:.\Generated_Source\PSoC5/PGA_1.c **** /*******************************************************************************
 151:.\Generated_Source\PSoC5/PGA_1.c **** * Function Name: PGA_1_Stop
 152:.\Generated_Source\PSoC5/PGA_1.c **** ********************************************************************************
 153:.\Generated_Source\PSoC5/PGA_1.c **** *
 154:.\Generated_Source\PSoC5/PGA_1.c **** * Summary:
 155:.\Generated_Source\PSoC5/PGA_1.c **** *  Powers down amplifier to lowest power state.
 156:.\Generated_Source\PSoC5/PGA_1.c **** *
 157:.\Generated_Source\PSoC5/PGA_1.c **** * Parameters:
 158:.\Generated_Source\PSoC5/PGA_1.c **** *  void
 159:.\Generated_Source\PSoC5/PGA_1.c **** *
 160:.\Generated_Source\PSoC5/PGA_1.c **** * Return:
 161:.\Generated_Source\PSoC5/PGA_1.c **** *  void
 162:.\Generated_Source\PSoC5/PGA_1.c **** *
 163:.\Generated_Source\PSoC5/PGA_1.c **** *******************************************************************************/
 164:.\Generated_Source\PSoC5/PGA_1.c **** void PGA_1_Stop(void) 
 165:.\Generated_Source\PSoC5/PGA_1.c **** { 
ARM GAS  C:\Users\JohnP\AppData\Local\Temp\cciU9Cgh.s 			page 5


  64              		.loc 1 165 0
  65              		.cfi_startproc
  66              		@ args = 0, pretend = 0, frame = 0
  67              		@ frame_needed = 0, uses_anonymous_args = 0
  68              		@ link register save eliminated.
 166:.\Generated_Source\PSoC5/PGA_1.c ****     /* Disble power to the Amp in Active mode template */
 167:.\Generated_Source\PSoC5/PGA_1.c ****     PGA_1_PM_ACT_CFG_REG &= (uint8)(~PGA_1_ACT_PWR_EN);
  69              		.loc 1 167 0
  70 0000 054B     		ldr	r3, .L5
  71 0002 1A78     		ldrb	r2, [r3]	@ zero_extendqisi2
  72 0004 02F0FE02 		and	r2, r2, #254
  73 0008 1A70     		strb	r2, [r3]
 168:.\Generated_Source\PSoC5/PGA_1.c **** 
 169:.\Generated_Source\PSoC5/PGA_1.c ****     /* Disble power to the Amp in Alternative Active mode template */
 170:.\Generated_Source\PSoC5/PGA_1.c ****     PGA_1_PM_STBY_CFG_REG &= (uint8)(~PGA_1_STBY_PWR_EN);
  74              		.loc 1 170 0
  75 000a 1033     		adds	r3, r3, #16
  76 000c 1A78     		ldrb	r2, [r3]	@ zero_extendqisi2
  77 000e 02F0FE02 		and	r2, r2, #254
  78 0012 1A70     		strb	r2, [r3]
  79 0014 7047     		bx	lr
  80              	.L6:
  81 0016 00BF     		.align	2
  82              	.L5:
  83 0018 A9430040 		.word	1073759145
  84              		.cfi_endproc
  85              	.LFE3:
  86              		.size	PGA_1_Stop, .-PGA_1_Stop
  87              		.section	.text.PGA_1_SetPower,"ax",%progbits
  88              		.align	2
  89              		.global	PGA_1_SetPower
  90              		.thumb
  91              		.thumb_func
  92              		.type	PGA_1_SetPower, %function
  93              	PGA_1_SetPower:
  94              	.LFB4:
 171:.\Generated_Source\PSoC5/PGA_1.c **** 
 172:.\Generated_Source\PSoC5/PGA_1.c ****     #if (!CY_PSOC5A)
 173:.\Generated_Source\PSoC5/PGA_1.c ****         #if (CYDEV_VARIABLE_VDDA == 1u)
 174:.\Generated_Source\PSoC5/PGA_1.c ****             PGA_1_BSTCLK_REG &= (uint8)(~PGA_1_BST_CLK_EN);
 175:.\Generated_Source\PSoC5/PGA_1.c ****             /* Disable pumps only if there aren't any SC block in use */
 176:.\Generated_Source\PSoC5/PGA_1.c ****             if ((PGA_1_PM_ACT_CFG_REG & PGA_1_PM_ACT_CFG_MASK) == 0u)
 177:.\Generated_Source\PSoC5/PGA_1.c ****             {
 178:.\Generated_Source\PSoC5/PGA_1.c ****                 PGA_1_SC_MISC_REG &= (uint8)(~PGA_1_PUMP_FORCE);
 179:.\Generated_Source\PSoC5/PGA_1.c ****                 PGA_1_PUMP_CR1_REG &= (uint8)(~PGA_1_PUMP_CR1_SC_CLKSEL);
 180:.\Generated_Source\PSoC5/PGA_1.c ****                 CyScBoostClk_Stop();
 181:.\Generated_Source\PSoC5/PGA_1.c ****             }
 182:.\Generated_Source\PSoC5/PGA_1.c ****         #endif /* CYDEV_VARIABLE_VDDA == 1u */
 183:.\Generated_Source\PSoC5/PGA_1.c ****     #endif /* (CY_PSOC3 || CY_PSOC5LP) */
 184:.\Generated_Source\PSoC5/PGA_1.c **** 
 185:.\Generated_Source\PSoC5/PGA_1.c ****     /* This sets PGA in zero current mode and output routes are valid */
 186:.\Generated_Source\PSoC5/PGA_1.c ****     #if (CY_PSOC5A)
 187:.\Generated_Source\PSoC5/PGA_1.c ****         PGA_1_P5backup.scCR1Reg = PGA_1_CR1_REG;
 188:.\Generated_Source\PSoC5/PGA_1.c ****         PGA_1_P5backup.scCR2Reg = PGA_1_CR2_REG;
 189:.\Generated_Source\PSoC5/PGA_1.c ****         PGA_1_CR1_REG = 0x00u;
 190:.\Generated_Source\PSoC5/PGA_1.c ****         PGA_1_CR2_REG = 0x00u;
 191:.\Generated_Source\PSoC5/PGA_1.c ****         PGA_1_P5backup.enableState = 1u;
ARM GAS  C:\Users\JohnP\AppData\Local\Temp\cciU9Cgh.s 			page 6


 192:.\Generated_Source\PSoC5/PGA_1.c ****     #endif /* CY_PSOC5A */
 193:.\Generated_Source\PSoC5/PGA_1.c **** }
 194:.\Generated_Source\PSoC5/PGA_1.c **** 
 195:.\Generated_Source\PSoC5/PGA_1.c **** 
 196:.\Generated_Source\PSoC5/PGA_1.c **** /*******************************************************************************
 197:.\Generated_Source\PSoC5/PGA_1.c **** * Function Name: PGA_1_SetPower
 198:.\Generated_Source\PSoC5/PGA_1.c **** ********************************************************************************
 199:.\Generated_Source\PSoC5/PGA_1.c **** *
 200:.\Generated_Source\PSoC5/PGA_1.c **** * Summary:
 201:.\Generated_Source\PSoC5/PGA_1.c **** *  Set the power of the PGA.
 202:.\Generated_Source\PSoC5/PGA_1.c **** *
 203:.\Generated_Source\PSoC5/PGA_1.c **** * Parameters:
 204:.\Generated_Source\PSoC5/PGA_1.c **** *  power: Sets power level between (0) and (3) high power
 205:.\Generated_Source\PSoC5/PGA_1.c **** *
 206:.\Generated_Source\PSoC5/PGA_1.c **** * Return:
 207:.\Generated_Source\PSoC5/PGA_1.c **** *  void
 208:.\Generated_Source\PSoC5/PGA_1.c **** *
 209:.\Generated_Source\PSoC5/PGA_1.c **** *******************************************************************************/
 210:.\Generated_Source\PSoC5/PGA_1.c **** void PGA_1_SetPower(uint8 power) 
 211:.\Generated_Source\PSoC5/PGA_1.c **** {
  95              		.loc 1 211 0
  96              		.cfi_startproc
  97              		@ args = 0, pretend = 0, frame = 0
  98              		@ frame_needed = 0, uses_anonymous_args = 0
  99              		@ link register save eliminated.
 100              	.LVL0:
 212:.\Generated_Source\PSoC5/PGA_1.c ****     uint8 tmpCR;
 213:.\Generated_Source\PSoC5/PGA_1.c **** 
 214:.\Generated_Source\PSoC5/PGA_1.c ****     tmpCR = PGA_1_CR1_REG & (uint8)(~PGA_1_DRIVE_MASK);
 101              		.loc 1 214 0
 102 0000 044B     		ldr	r3, .L8
 103 0002 1A78     		ldrb	r2, [r3]	@ zero_extendqisi2
 104 0004 02F0FC02 		and	r2, r2, #252
 105              	.LVL1:
 215:.\Generated_Source\PSoC5/PGA_1.c ****     tmpCR |= (power & PGA_1_DRIVE_MASK);
 106              		.loc 1 215 0
 107 0008 00F00300 		and	r0, r0, #3
 108              	.LVL2:
 109 000c 0243     		orrs	r2, r2, r0
 110              	.LVL3:
 216:.\Generated_Source\PSoC5/PGA_1.c ****     PGA_1_CR1_REG = tmpCR;  
 111              		.loc 1 216 0
 112 000e 1A70     		strb	r2, [r3]
 113 0010 7047     		bx	lr
 114              	.L9:
 115 0012 00BF     		.align	2
 116              	.L8:
 117 0014 01580040 		.word	1073764353
 118              		.cfi_endproc
 119              	.LFE4:
 120              		.size	PGA_1_SetPower, .-PGA_1_SetPower
 121              		.section	.text.PGA_1_SetGain,"ax",%progbits
 122              		.align	2
 123              		.global	PGA_1_SetGain
 124              		.thumb
 125              		.thumb_func
 126              		.type	PGA_1_SetGain, %function
ARM GAS  C:\Users\JohnP\AppData\Local\Temp\cciU9Cgh.s 			page 7


 127              	PGA_1_SetGain:
 128              	.LFB5:
 217:.\Generated_Source\PSoC5/PGA_1.c **** }
 218:.\Generated_Source\PSoC5/PGA_1.c **** 
 219:.\Generated_Source\PSoC5/PGA_1.c **** 
 220:.\Generated_Source\PSoC5/PGA_1.c **** /*******************************************************************************
 221:.\Generated_Source\PSoC5/PGA_1.c **** * Function Name: PGA_1_SetGain
 222:.\Generated_Source\PSoC5/PGA_1.c **** ********************************************************************************
 223:.\Generated_Source\PSoC5/PGA_1.c **** *
 224:.\Generated_Source\PSoC5/PGA_1.c **** * Summary:
 225:.\Generated_Source\PSoC5/PGA_1.c **** *  This function sets values of the input and feedback resistors to set a 
 226:.\Generated_Source\PSoC5/PGA_1.c **** *  specific gain of the amplifier.
 227:.\Generated_Source\PSoC5/PGA_1.c **** *
 228:.\Generated_Source\PSoC5/PGA_1.c **** * Parameters:
 229:.\Generated_Source\PSoC5/PGA_1.c **** *  gain: Gain value of PGA (See header file for gain values.)
 230:.\Generated_Source\PSoC5/PGA_1.c **** *
 231:.\Generated_Source\PSoC5/PGA_1.c **** * Return:
 232:.\Generated_Source\PSoC5/PGA_1.c **** *  void 
 233:.\Generated_Source\PSoC5/PGA_1.c **** *
 234:.\Generated_Source\PSoC5/PGA_1.c **** *******************************************************************************/
 235:.\Generated_Source\PSoC5/PGA_1.c **** void PGA_1_SetGain(uint8 gain) 
 236:.\Generated_Source\PSoC5/PGA_1.c **** {
 129              		.loc 1 236 0
 130              		.cfi_startproc
 131              		@ args = 0, pretend = 0, frame = 24
 132              		@ frame_needed = 0, uses_anonymous_args = 0
 133              		@ link register save eliminated.
 134              	.LVL4:
 135 0000 10B4     		push	{r4}
 136              		.cfi_def_cfa_offset 4
 137              		.cfi_offset 4, -4
 138 0002 87B0     		sub	sp, sp, #28
 139              		.cfi_def_cfa_offset 32
 140 0004 0446     		mov	r4, r0
 237:.\Generated_Source\PSoC5/PGA_1.c ****     /* Constant array for gain settings */
 238:.\Generated_Source\PSoC5/PGA_1.c ****     const uint8 PGA_1_GainArray[9] = { 
 141              		.loc 1 238 0
 142 0006 194A     		ldr	r2, .L12
 143 0008 03AB     		add	r3, sp, #12
 144 000a 1068     		ldr	r0, [r2]	@ unaligned
 145              	.LVL5:
 146 000c 5168     		ldr	r1, [r2, #4]	@ unaligned
 147 000e 03C3     		stmia	r3!, {r0, r1}
 148 0010 117A     		ldrb	r1, [r2, #8]	@ zero_extendqisi2
 149 0012 1970     		strb	r1, [r3]
 239:.\Generated_Source\PSoC5/PGA_1.c ****         (PGA_1_RVAL_0K   | PGA_1_R20_40B_40K | PGA_1_BIAS_LOW), /* G=1  */
 240:.\Generated_Source\PSoC5/PGA_1.c ****         (PGA_1_RVAL_40K  | PGA_1_R20_40B_40K | PGA_1_BIAS_LOW), /* G=2  */
 241:.\Generated_Source\PSoC5/PGA_1.c ****         (PGA_1_RVAL_120K | PGA_1_R20_40B_40K | PGA_1_BIAS_LOW), /* G=4  */
 242:.\Generated_Source\PSoC5/PGA_1.c ****         (PGA_1_RVAL_280K | PGA_1_R20_40B_40K | PGA_1_BIAS_LOW), /* G=8  */
 243:.\Generated_Source\PSoC5/PGA_1.c ****         (PGA_1_RVAL_600K | PGA_1_R20_40B_40K | PGA_1_BIAS_LOW), /* G=16 */
 244:.\Generated_Source\PSoC5/PGA_1.c ****         (PGA_1_RVAL_460K | PGA_1_R20_40B_40K | PGA_1_BIAS_LOW), /* G=24, Sets Rin as 20k */
 245:.\Generated_Source\PSoC5/PGA_1.c ****         (PGA_1_RVAL_620K | PGA_1_R20_40B_20K | PGA_1_BIAS_LOW), /* G=32 */
 246:.\Generated_Source\PSoC5/PGA_1.c ****         (PGA_1_RVAL_470K | PGA_1_R20_40B_20K | PGA_1_BIAS_LOW), /* G=48, Sets Rin as 10k */
 247:.\Generated_Source\PSoC5/PGA_1.c ****         (PGA_1_RVAL_490K | PGA_1_R20_40B_20K | PGA_1_BIAS_LOW)  /* G=50, Sets Rin as 10k */
 248:.\Generated_Source\PSoC5/PGA_1.c ****     };
 249:.\Generated_Source\PSoC5/PGA_1.c ****     
 250:.\Generated_Source\PSoC5/PGA_1.c ****     /* Constant array for gain compenstion settings */
ARM GAS  C:\Users\JohnP\AppData\Local\Temp\cciU9Cgh.s 			page 8


 251:.\Generated_Source\PSoC5/PGA_1.c ****     const uint8 PGA_1_GainComp[9] = { 
 150              		.loc 1 251 0
 151 0014 6B46     		mov	r3, sp
 152 0016 52F80C0F 		ldr	r0, [r2, #12]!	@ unaligned
 153 001a 5168     		ldr	r1, [r2, #4]	@ unaligned
 154 001c 03C3     		stmia	r3!, {r0, r1}
 155 001e 127A     		ldrb	r2, [r2, #8]	@ zero_extendqisi2
 156 0020 1A70     		strb	r2, [r3]
 252:.\Generated_Source\PSoC5/PGA_1.c ****         ( PGA_1_COMP_4P35PF  | (uint8)( PGA_1_REDC_00 >> 2 )), /* G=1  */
 253:.\Generated_Source\PSoC5/PGA_1.c ****         ( PGA_1_COMP_4P35PF  | (uint8)( PGA_1_REDC_01 >> 2 )), /* G=2  */
 254:.\Generated_Source\PSoC5/PGA_1.c ****         ( PGA_1_COMP_3P0PF   | (uint8)( PGA_1_REDC_01 >> 2 )), /* G=4  */
 255:.\Generated_Source\PSoC5/PGA_1.c ****         ( PGA_1_COMP_3P0PF   | (uint8)( PGA_1_REDC_01 >> 2 )), /* G=8  */
 256:.\Generated_Source\PSoC5/PGA_1.c ****         ( PGA_1_COMP_3P6PF   | (uint8)( PGA_1_REDC_01 >> 2 )), /* G=16 */
 257:.\Generated_Source\PSoC5/PGA_1.c ****         ( PGA_1_COMP_3P6PF   | (uint8)( PGA_1_REDC_11 >> 2 )), /* G=24 */
 258:.\Generated_Source\PSoC5/PGA_1.c ****         ( PGA_1_COMP_3P6PF   | (uint8)( PGA_1_REDC_11 >> 2 )), /* G=32 */
 259:.\Generated_Source\PSoC5/PGA_1.c ****         ( PGA_1_COMP_3P6PF   | (uint8)( PGA_1_REDC_00 >> 2 )), /* G=48 */
 260:.\Generated_Source\PSoC5/PGA_1.c ****         ( PGA_1_COMP_3P6PF   | (uint8)( PGA_1_REDC_00 >> 2 ))  /* G=50 */
 261:.\Generated_Source\PSoC5/PGA_1.c ****     };
 262:.\Generated_Source\PSoC5/PGA_1.c ****     
 263:.\Generated_Source\PSoC5/PGA_1.c ****     /* Only set new gain if it is a valid gain */
 264:.\Generated_Source\PSoC5/PGA_1.c ****     if( gain <= PGA_1_GAIN_MAX)
 157              		.loc 1 264 0
 158 0022 082C     		cmp	r4, #8
 159 0024 1ED8     		bhi	.L10
 265:.\Generated_Source\PSoC5/PGA_1.c ****     {
 266:.\Generated_Source\PSoC5/PGA_1.c ****         /* Clear resistors, redc, and bias */
 267:.\Generated_Source\PSoC5/PGA_1.c ****         PGA_1_CR2_REG &= (uint8)(~(PGA_1_RVAL_MASK | PGA_1_R20_40B_MASK | 
 160              		.loc 1 267 0
 161 0026 124B     		ldr	r3, .L12+4
 162 0028 1A78     		ldrb	r2, [r3]	@ zero_extendqisi2
 163 002a 02F08002 		and	r2, r2, #128
 164 002e D2B2     		uxtb	r2, r2
 165 0030 1A70     		strb	r2, [r3]
 268:.\Generated_Source\PSoC5/PGA_1.c ****                                 PGA_1_REDC_MASK | PGA_1_BIAS_MASK ));
 269:.\Generated_Source\PSoC5/PGA_1.c **** 
 270:.\Generated_Source\PSoC5/PGA_1.c ****         /* Set gain value resistors, redc comp, and bias */
 271:.\Generated_Source\PSoC5/PGA_1.c ****         PGA_1_CR2_REG |= (PGA_1_GainArray[gain] |
 166              		.loc 1 271 0
 167 0032 1978     		ldrb	r1, [r3]	@ zero_extendqisi2
 168 0034 06AA     		add	r2, sp, #24
 169 0036 1444     		add	r4, r4, r2
 170 0038 14F80C0C 		ldrb	r0, [r4, #-12]	@ zero_extendqisi2
 272:.\Generated_Source\PSoC5/PGA_1.c ****                                 ((uint8)(PGA_1_GainComp[gain] << 2 ) & PGA_1_REDC_MASK));
 171              		.loc 1 272 0
 172 003c 14F8182C 		ldrb	r2, [r4, #-24]	@ zero_extendqisi2
 173 0040 9200     		lsls	r2, r2, #2
 271:.\Generated_Source\PSoC5/PGA_1.c ****         PGA_1_CR2_REG |= (PGA_1_GainArray[gain] |
 174              		.loc 1 271 0
 175 0042 02F00C02 		and	r2, r2, #12
 176 0046 0243     		orrs	r2, r2, r0
 177 0048 0A43     		orrs	r2, r2, r1
 178 004a 1A70     		strb	r2, [r3]
 273:.\Generated_Source\PSoC5/PGA_1.c **** 
 274:.\Generated_Source\PSoC5/PGA_1.c ****         /* Clear sc_comp  */
 275:.\Generated_Source\PSoC5/PGA_1.c ****         PGA_1_CR1_REG &= (uint8)(~PGA_1_COMP_MASK);
 179              		.loc 1 275 0
 180 004c 013B     		subs	r3, r3, #1
ARM GAS  C:\Users\JohnP\AppData\Local\Temp\cciU9Cgh.s 			page 9


 181 004e 1A78     		ldrb	r2, [r3]	@ zero_extendqisi2
 182 0050 02F0F302 		and	r2, r2, #243
 183 0054 1A70     		strb	r2, [r3]
 276:.\Generated_Source\PSoC5/PGA_1.c ****         /* Set sc_comp  */
 277:.\Generated_Source\PSoC5/PGA_1.c ****         PGA_1_CR1_REG |= ( PGA_1_GainComp[gain] | PGA_1_COMP_MASK );
 184              		.loc 1 277 0
 185 0056 1978     		ldrb	r1, [r3]	@ zero_extendqisi2
 186 0058 14F8182C 		ldrb	r2, [r4, #-24]	@ zero_extendqisi2
 187 005c 0A43     		orrs	r2, r2, r1
 188 005e 42F00C02 		orr	r2, r2, #12
 189 0062 1A70     		strb	r2, [r3]
 190              	.L10:
 278:.\Generated_Source\PSoC5/PGA_1.c ****     }
 279:.\Generated_Source\PSoC5/PGA_1.c **** }
 191              		.loc 1 279 0
 192 0064 07B0     		add	sp, sp, #28
 193              		@ sp needed
 194 0066 5DF8044B 		ldr	r4, [sp], #4
 195 006a 7047     		bx	lr
 196              	.L13:
 197              		.align	2
 198              	.L12:
 199 006c 00000000 		.word	.LANCHOR0
 200 0070 02580040 		.word	1073764354
 201              		.cfi_endproc
 202              	.LFE5:
 203              		.size	PGA_1_SetGain, .-PGA_1_SetGain
 204              		.section	.text.PGA_1_Init,"ax",%progbits
 205              		.align	2
 206              		.global	PGA_1_Init
 207              		.thumb
 208              		.thumb_func
 209              		.type	PGA_1_Init, %function
 210              	PGA_1_Init:
 211              	.LFB0:
  50:.\Generated_Source\PSoC5/PGA_1.c **** {
 212              		.loc 1 50 0
 213              		.cfi_startproc
 214              		@ args = 0, pretend = 0, frame = 0
 215              		@ frame_needed = 0, uses_anonymous_args = 0
 216 0000 08B5     		push	{r3, lr}
 217              		.cfi_def_cfa_offset 8
 218              		.cfi_offset 3, -8
 219              		.cfi_offset 14, -4
  52:.\Generated_Source\PSoC5/PGA_1.c ****     PGA_1_CR0_REG = PGA_1_MODE_PGA;      
 220              		.loc 1 52 0
 221 0002 0C22     		movs	r2, #12
 222 0004 084B     		ldr	r3, .L15
 223 0006 1A70     		strb	r2, [r3]
  54:.\Generated_Source\PSoC5/PGA_1.c ****     PGA_1_CR1_REG |= PGA_1_PGA_NINV;  
 224              		.loc 1 54 0
 225 0008 0133     		adds	r3, r3, #1
 226 000a 1A78     		ldrb	r2, [r3]	@ zero_extendqisi2
 227 000c 42F02002 		orr	r2, r2, #32
 228 0010 1A70     		strb	r2, [r3]
  56:.\Generated_Source\PSoC5/PGA_1.c ****     PGA_1_CR2_REG = PGA_1_VREF_MODE;
 229              		.loc 1 56 0
ARM GAS  C:\Users\JohnP\AppData\Local\Temp\cciU9Cgh.s 			page 10


 230 0012 8022     		movs	r2, #128
 231 0014 0133     		adds	r3, r3, #1
 232 0016 1A70     		strb	r2, [r3]
  58:.\Generated_Source\PSoC5/PGA_1.c ****     PGA_1_SetGain(PGA_1_DEFAULT_GAIN);
 233              		.loc 1 58 0
 234 0018 0620     		movs	r0, #6
 235 001a FFF7FEFF 		bl	PGA_1_SetGain
 236              	.LVL6:
  60:.\Generated_Source\PSoC5/PGA_1.c ****     PGA_1_SetPower(PGA_1_DEFAULT_POWER);
 237              		.loc 1 60 0
 238 001e 0320     		movs	r0, #3
 239 0020 FFF7FEFF 		bl	PGA_1_SetPower
 240              	.LVL7:
 241 0024 08BD     		pop	{r3, pc}
 242              	.L16:
 243 0026 00BF     		.align	2
 244              	.L15:
 245 0028 00580040 		.word	1073764352
 246              		.cfi_endproc
 247              	.LFE0:
 248              		.size	PGA_1_Init, .-PGA_1_Init
 249              		.section	.text.PGA_1_Start,"ax",%progbits
 250              		.align	2
 251              		.global	PGA_1_Start
 252              		.thumb
 253              		.thumb_func
 254              		.type	PGA_1_Start, %function
 255              	PGA_1_Start:
 256              	.LFB2:
 135:.\Generated_Source\PSoC5/PGA_1.c **** {
 257              		.loc 1 135 0
 258              		.cfi_startproc
 259              		@ args = 0, pretend = 0, frame = 0
 260              		@ frame_needed = 0, uses_anonymous_args = 0
 261 0000 08B5     		push	{r3, lr}
 262              		.cfi_def_cfa_offset 8
 263              		.cfi_offset 3, -8
 264              		.cfi_offset 14, -4
 140:.\Generated_Source\PSoC5/PGA_1.c ****     if(PGA_1_initVar == 0u)
 265              		.loc 1 140 0
 266 0002 054B     		ldr	r3, .L19
 267 0004 1B78     		ldrb	r3, [r3]	@ zero_extendqisi2
 268 0006 23B9     		cbnz	r3, .L18
 142:.\Generated_Source\PSoC5/PGA_1.c ****         PGA_1_Init();
 269              		.loc 1 142 0
 270 0008 FFF7FEFF 		bl	PGA_1_Init
 271              	.LVL8:
 143:.\Generated_Source\PSoC5/PGA_1.c ****         PGA_1_initVar = 1u;
 272              		.loc 1 143 0
 273 000c 0122     		movs	r2, #1
 274 000e 024B     		ldr	r3, .L19
 275 0010 1A70     		strb	r2, [r3]
 276              	.L18:
 146:.\Generated_Source\PSoC5/PGA_1.c ****     PGA_1_Enable();
 277              		.loc 1 146 0
 278 0012 FFF7FEFF 		bl	PGA_1_Enable
 279              	.LVL9:
ARM GAS  C:\Users\JohnP\AppData\Local\Temp\cciU9Cgh.s 			page 11


 280 0016 08BD     		pop	{r3, pc}
 281              	.L20:
 282              		.align	2
 283              	.L19:
 284 0018 00000000 		.word	.LANCHOR1
 285              		.cfi_endproc
 286              	.LFE2:
 287              		.size	PGA_1_Start, .-PGA_1_Start
 288              		.global	PGA_1_initVar
 289              		.section	.rodata
 290              		.align	2
 291              		.set	.LANCHOR0,. + 0
 292              	.LC0:
 293 0000 01       		.byte	1
 294 0001 11       		.byte	17
 295 0002 21       		.byte	33
 296 0003 31       		.byte	49
 297 0004 41       		.byte	65
 298 0005 61       		.byte	97
 299 0006 53       		.byte	83
 300 0007 63       		.byte	99
 301 0008 73       		.byte	115
 302 0009 000000   		.space	3
 303              	.LC1:
 304 000c 08       		.byte	8
 305 000d 09       		.byte	9
 306 000e 01       		.byte	1
 307 000f 01       		.byte	1
 308 0010 05       		.byte	5
 309 0011 07       		.byte	7
 310 0012 07       		.byte	7
 311 0013 04       		.byte	4
 312 0014 04       		.byte	4
 313 0015 000000   		.bss
 314              		.set	.LANCHOR1,. + 0
 315              		.type	PGA_1_initVar, %object
 316              		.size	PGA_1_initVar, 1
 317              	PGA_1_initVar:
 318 0000 00       		.space	1
 319              		.text
 320              	.Letext0:
 321              		.file 2 ".\\Generated_Source\\PSoC5\\cytypes.h"