ARM GAS  C:\Users\JohnP\AppData\Local\Temp\cchwgjoG.s 			page 1


   1              		.syntax unified
   2              		.cpu cortex-m3
   3              		.fpu softvfp
   4              		.eabi_attribute 20, 1
   5              		.eabi_attribute 21, 1
   6              		.eabi_attribute 23, 3
   7              		.eabi_attribute 24, 1
   8              		.eabi_attribute 25, 1
   9              		.eabi_attribute 26, 1
  10              		.eabi_attribute 30, 1
  11              		.eabi_attribute 34, 1
  12              		.eabi_attribute 18, 4
  13              		.thumb
  14              		.file	"states.c"
  15              		.text
  16              	.Ltext0:
  17              		.cfi_sections	.debug_frame
  18              		.section	.text.State_sleep,"ax",%progbits
  19              		.align	2
  20              		.global	State_sleep
  21              		.thumb
  22              		.thumb_func
  23              		.type	State_sleep, %function
  24              	State_sleep:
  25              	.LFB0:
  26              		.file 1 ".\\states.c"
   1:.\states.c    **** /* ========================================
   2:.\states.c    ****  *
   3:.\states.c    ****  * Copyright YOUR COMPANY, THE YEAR
   4:.\states.c    ****  * All Rights Reserved
   5:.\states.c    ****  * UNPUBLISHED, LICENSED SOFTWARE.
   6:.\states.c    ****  *
   7:.\states.c    ****  * CONFIDENTIAL AND PROPRIETARY INFORMATION
   8:.\states.c    ****  * WHICH IS THE PROPERTY OF your company.
   9:.\states.c    ****  *
  10:.\states.c    ****  * ========================================
  11:.\states.c    **** */
  12:.\states.c    **** #include "states.h"
  13:.\states.c    **** 
  14:.\states.c    **** int selectedProfile = 0;
  15:.\states.c    **** extern float heartbeatCounter;
  16:.\states.c    **** 
  17:.\states.c    **** int MOTOR_RUNNING_SPEED = 50;
  18:.\states.c    **** int MOTOR_WALKING_SPEED = 300;
  19:.\states.c    **** int MOTOR_FAST_WALKING_SPEED = 200;
  20:.\states.c    **** float movingAverage[] =  {0,0,0,0,0,0,0,0,0,0}; 
  21:.\states.c    **** 
  22:.\states.c    **** 
  23:.\states.c    **** STATE State_sleep(){
  27              		.loc 1 23 0
  28              		.cfi_startproc
  29              		@ args = 0, pretend = 0, frame = 0
  30              		@ frame_needed = 0, uses_anonymous_args = 0
  31 0000 F8B5     		push	{r3, r4, r5, r6, r7, lr}
  32              		.cfi_def_cfa_offset 24
  33              		.cfi_offset 3, -24
  34              		.cfi_offset 4, -20
ARM GAS  C:\Users\JohnP\AppData\Local\Temp\cchwgjoG.s 			page 2


  35              		.cfi_offset 5, -16
  36              		.cfi_offset 6, -12
  37              		.cfi_offset 7, -8
  38              		.cfi_offset 14, -4
  24:.\states.c    ****     LCD_ClearDisplay();
  39              		.loc 1 24 0
  40 0002 0120     		movs	r0, #1
  41 0004 FFF7FEFF 		bl	LCD_WriteControl
  42              	.LVL0:
  25:.\states.c    ****     Display_sleep();
  43              		.loc 1 25 0
  44 0008 FFF7FEFF 		bl	Display_sleep
  45              	.LVL1:
  26:.\states.c    ****     CapSense_UpdateEnabledBaselines();
  46              		.loc 1 26 0
  47 000c FFF7FEFF 		bl	CapSense_UpdateEnabledBaselines
  48              	.LVL2:
  27:.\states.c    ****     CapSense_ScanEnabledWidgets();
  49              		.loc 1 27 0
  50 0010 FFF7FEFF 		bl	CapSense_ScanEnabledWidgets
  51              	.LVL3:
  52              	.L2:
  28:.\states.c    **** 	while(CapSense_IsBusy() != 0);
  53              		.loc 1 28 0 discriminator 1
  54 0014 FFF7FEFF 		bl	CapSense_IsBusy
  55              	.LVL4:
  56 0018 0028     		cmp	r0, #0
  57 001a FBD1     		bne	.L2
  29:.\states.c    ****     if (CapSense_ReadSensorRaw(CapSense_SENSOR_LINEARSLIDER0_E0__LS) > 15000){
  58              		.loc 1 29 0
  59 001c 0220     		movs	r0, #2
  60 001e FFF7FEFF 		bl	CapSense_ReadSensorRaw
  61              	.LVL5:
  62 0022 43F69823 		movw	r3, #15000
  63 0026 9842     		cmp	r0, r3
  64 0028 16D8     		bhi	.L8
  65              	.LBB2:
  66 002a 1BE0     		b	.L4
  67              	.LVL6:
  68              	.L7:
  30:.\states.c    ****         int countDown;
  31:.\states.c    ****         for (countDown = 10; countDown > 0; countDown--) {
  32:.\states.c    ****             CapSense_ScanEnabledWidgets();
  69              		.loc 1 32 0
  70 002c FFF7FEFF 		bl	CapSense_ScanEnabledWidgets
  71              	.LVL7:
  33:.\states.c    ****             if (CapSense_ReadSensorRaw(CapSense_SENSOR_LINEARSLIDER0_E4__LS) > 15000){
  72              		.loc 1 33 0
  73 0030 2846     		mov	r0, r5
  74 0032 FFF7FEFF 		bl	CapSense_ReadSensorRaw
  75              	.LVL8:
  76 0036 43F69823 		movw	r3, #15000
  77 003a 9842     		cmp	r0, r3
  78 003c 07D9     		bls	.L5
  34:.\states.c    ****                 Prev_state = STATE_SLEEP;
  79              		.loc 1 34 0
  80 003e 0023     		movs	r3, #0
ARM GAS  C:\Users\JohnP\AppData\Local\Temp\cchwgjoG.s 			page 3


  81 0040 3B60     		str	r3, [r7]
  35:.\states.c    ****                 LCD_ClearDisplay();
  82              		.loc 1 35 0
  83 0042 0120     		movs	r0, #1
  84 0044 FFF7FEFF 		bl	LCD_WriteControl
  85              	.LVL9:
  36:.\states.c    ****                 currentState = STATE_PROFILE_SELECTION;
  86              		.loc 1 36 0
  87 0048 0323     		movs	r3, #3
  88 004a 3360     		str	r3, [r6]
  89 004c 02E0     		b	.L6
  90              	.L5:
  37:.\states.c    ****             }
  38:.\states.c    ****             else {
  39:.\states.c    ****                 CyDelay(10);        
  91              		.loc 1 39 0
  92 004e 0A20     		movs	r0, #10
  93 0050 FFF7FEFF 		bl	CyDelay
  94              	.LVL10:
  95              	.L6:
  31:.\states.c    ****         for (countDown = 10; countDown > 0; countDown--) {
  96              		.loc 1 31 0
  97 0054 013C     		subs	r4, r4, #1
  98              	.LVL11:
  99 0056 03E0     		b	.L3
 100              	.LVL12:
 101              	.L8:
 102              	.LBE2:
 103 0058 0A24     		movs	r4, #10
 104              	.LBB3:
  33:.\states.c    ****             if (CapSense_ReadSensorRaw(CapSense_SENSOR_LINEARSLIDER0_E4__LS) > 15000){
 105              		.loc 1 33 0
 106 005a 0625     		movs	r5, #6
  34:.\states.c    ****                 Prev_state = STATE_SLEEP;
 107              		.loc 1 34 0
 108 005c 034F     		ldr	r7, .L10
  36:.\states.c    ****                 currentState = STATE_PROFILE_SELECTION;
 109              		.loc 1 36 0
 110 005e 044E     		ldr	r6, .L10+4
 111              	.L3:
 112              	.LVL13:
  31:.\states.c    ****         for (countDown = 10; countDown > 0; countDown--) {
 113              		.loc 1 31 0 discriminator 1
 114 0060 002C     		cmp	r4, #0
 115 0062 E3DC     		bgt	.L7
 116              	.LVL14:
 117              	.L4:
 118              	.LBE3:
  40:.\states.c    ****             }
  41:.\states.c    ****         }
  42:.\states.c    ****     }
  43:.\states.c    ****     return currentState;
  44:.\states.c    **** }
 119              		.loc 1 44 0
 120 0064 024B     		ldr	r3, .L10+4
 121 0066 1868     		ldr	r0, [r3]
 122 0068 F8BD     		pop	{r3, r4, r5, r6, r7, pc}
ARM GAS  C:\Users\JohnP\AppData\Local\Temp\cchwgjoG.s 			page 4


 123              	.L11:
 124 006a 00BF     		.align	2
 125              	.L10:
 126 006c 00000000 		.word	Prev_state
 127 0070 00000000 		.word	currentState
 128              		.cfi_endproc
 129              	.LFE0:
 130              		.size	State_sleep, .-State_sleep
 131              		.section	.text.State_reset,"ax",%progbits
 132              		.align	2
 133              		.global	State_reset
 134              		.thumb
 135              		.thumb_func
 136              		.type	State_reset, %function
 137              	State_reset:
 138              	.LFB1:
  45:.\states.c    **** 
  46:.\states.c    **** STATE State_reset(){
 139              		.loc 1 46 0
 140              		.cfi_startproc
 141              		@ args = 0, pretend = 0, frame = 0
 142              		@ frame_needed = 0, uses_anonymous_args = 0
 143 0000 08B5     		push	{r3, lr}
 144              		.cfi_def_cfa_offset 8
 145              		.cfi_offset 3, -8
 146              		.cfi_offset 14, -4
  47:.\states.c    ****     System_init();
 147              		.loc 1 47 0
 148 0002 FFF7FEFF 		bl	System_init
 149              	.LVL15:
  48:.\states.c    ****     Display_welcome_message();
 150              		.loc 1 48 0
 151 0006 FFF7FEFF 		bl	Display_welcome_message
 152              	.LVL16:
  49:.\states.c    ****     Play_startup_music();
 153              		.loc 1 49 0
 154 000a FFF7FEFF 		bl	Play_startup_music
 155              	.LVL17:
  50:.\states.c    ****     Prev_state = STATE_RESET;
 156              		.loc 1 50 0
 157 000e 0122     		movs	r2, #1
 158 0010 054B     		ldr	r3, .L13
 159 0012 1A60     		str	r2, [r3]
  51:.\states.c    ****     LCD_Position(0,0);
 160              		.loc 1 51 0
 161 0014 0020     		movs	r0, #0
 162 0016 0146     		mov	r1, r0
 163 0018 FFF7FEFF 		bl	LCD_Position
 164              	.LVL18:
  52:.\states.c    ****     LCD_PrintString("RESET");
 165              		.loc 1 52 0
 166 001c 0348     		ldr	r0, .L13+4
 167 001e FFF7FEFF 		bl	LCD_PrintString
 168              	.LVL19:
  53:.\states.c    ****     return STATE_START;
  54:.\states.c    **** }
 169              		.loc 1 54 0
ARM GAS  C:\Users\JohnP\AppData\Local\Temp\cchwgjoG.s 			page 5


 170 0022 0220     		movs	r0, #2
 171 0024 08BD     		pop	{r3, pc}
 172              	.L14:
 173 0026 00BF     		.align	2
 174              	.L13:
 175 0028 00000000 		.word	Prev_state
 176 002c 00000000 		.word	.LC0
 177              		.cfi_endproc
 178              	.LFE1:
 179              		.size	State_reset, .-State_reset
 180              		.section	.text.State_start,"ax",%progbits
 181              		.align	2
 182              		.global	State_start
 183              		.thumb
 184              		.thumb_func
 185              		.type	State_start, %function
 186              	State_start:
 187              	.LFB2:
  55:.\states.c    **** 
  56:.\states.c    **** STATE State_start(){
 188              		.loc 1 56 0
 189              		.cfi_startproc
 190              		@ args = 0, pretend = 0, frame = 0
 191              		@ frame_needed = 0, uses_anonymous_args = 0
 192 0000 08B5     		push	{r3, lr}
 193              		.cfi_def_cfa_offset 8
 194              		.cfi_offset 3, -8
 195              		.cfi_offset 14, -4
  57:.\states.c    ****     LCD_PrintString("START");
 196              		.loc 1 57 0
 197 0002 0448     		ldr	r0, .L16
 198 0004 FFF7FEFF 		bl	LCD_PrintString
 199              	.LVL20:
  58:.\states.c    ****     Prev_state = STATE_START;
 200              		.loc 1 58 0
 201 0008 0222     		movs	r2, #2
 202 000a 034B     		ldr	r3, .L16+4
 203 000c 1A60     		str	r2, [r3]
  59:.\states.c    ****     return STATE_PROFILE_SELECTION;   
  60:.\states.c    **** }
 204              		.loc 1 60 0
 205 000e 0320     		movs	r0, #3
 206 0010 08BD     		pop	{r3, pc}
 207              	.L17:
 208 0012 00BF     		.align	2
 209              	.L16:
 210 0014 08000000 		.word	.LC1
 211 0018 00000000 		.word	Prev_state
 212              		.cfi_endproc
 213              	.LFE2:
 214              		.size	State_start, .-State_start
 215              		.section	.text.State_profile_selection,"ax",%progbits
 216              		.align	2
 217              		.global	State_profile_selection
 218              		.thumb
 219              		.thumb_func
 220              		.type	State_profile_selection, %function
ARM GAS  C:\Users\JohnP\AppData\Local\Temp\cchwgjoG.s 			page 6


 221              	State_profile_selection:
 222              	.LFB3:
  61:.\states.c    **** 
  62:.\states.c    **** STATE State_profile_selection(){
 223              		.loc 1 62 0
 224              		.cfi_startproc
 225              		@ args = 0, pretend = 0, frame = 0
 226              		@ frame_needed = 0, uses_anonymous_args = 0
 227 0000 08B5     		push	{r3, lr}
 228              		.cfi_def_cfa_offset 8
 229              		.cfi_offset 3, -8
 230              		.cfi_offset 14, -4
  63:.\states.c    ****     if(Prev_state == STATE_PROFILE_SELECTION) {
 231              		.loc 1 63 0
 232 0002 304B     		ldr	r3, .L32
 233 0004 1B68     		ldr	r3, [r3]
 234 0006 032B     		cmp	r3, #3
 235 0008 04D1     		bne	.L19
  64:.\states.c    ****         LCD_Position(0,0); 
 236              		.loc 1 64 0
 237 000a 0020     		movs	r0, #0
 238 000c 0146     		mov	r1, r0
 239 000e FFF7FEFF 		bl	LCD_Position
 240              	.LVL21:
 241 0012 08E0     		b	.L20
 242              	.L19:
  65:.\states.c    ****     }
  66:.\states.c    ****     else {
  67:.\states.c    ****         LCD_ClearDisplay();  
 243              		.loc 1 67 0
 244 0014 0120     		movs	r0, #1
 245 0016 FFF7FEFF 		bl	LCD_WriteControl
 246              	.LVL22:
  68:.\states.c    ****         LCD_PrintString("Select a profile..");
 247              		.loc 1 68 0
 248 001a 2B48     		ldr	r0, .L32+4
 249 001c FFF7FEFF 		bl	LCD_PrintString
 250              	.LVL23:
  69:.\states.c    ****         Prev_state = STATE_PROFILE_SELECTION;
 251              		.loc 1 69 0
 252 0020 0322     		movs	r2, #3
 253 0022 284B     		ldr	r3, .L32
 254 0024 1A60     		str	r2, [r3]
 255              	.L20:
  70:.\states.c    ****         
  71:.\states.c    ****     }
  72:.\states.c    ****     LCD_Position(1,0);
 256              		.loc 1 72 0
 257 0026 0120     		movs	r0, #1
 258 0028 0021     		movs	r1, #0
 259 002a FFF7FEFF 		bl	LCD_Position
 260              	.LVL24:
  73:.\states.c    ****     CapSense_UpdateEnabledBaselines();
 261              		.loc 1 73 0
 262 002e FFF7FEFF 		bl	CapSense_UpdateEnabledBaselines
 263              	.LVL25:
  74:.\states.c    ****     CapSense_ScanEnabledWidgets();
ARM GAS  C:\Users\JohnP\AppData\Local\Temp\cchwgjoG.s 			page 7


 264              		.loc 1 74 0
 265 0032 FFF7FEFF 		bl	CapSense_ScanEnabledWidgets
 266              	.LVL26:
 267              	.L21:
  75:.\states.c    ****     while(CapSense_IsBusy() != 0);
 268              		.loc 1 75 0 discriminator 1
 269 0036 FFF7FEFF 		bl	CapSense_IsBusy
 270              	.LVL27:
 271 003a 0028     		cmp	r0, #0
 272 003c FBD1     		bne	.L21
  76:.\states.c    ****     
  77:.\states.c    ****     if (CapSense_CheckIsWidgetActive(CapSense_BUTTON0__BTN)) {
 273              		.loc 1 77 0
 274 003e 0120     		movs	r0, #1
 275 0040 FFF7FEFF 		bl	CapSense_CheckIsWidgetActive
 276              	.LVL28:
 277 0044 78B1     		cbz	r0, .L22
  78:.\states.c    ****         if (selectedProfile >= 0) {
 278              		.loc 1 78 0
 279 0046 214B     		ldr	r3, .L32+8
 280 0048 1B68     		ldr	r3, [r3]
 281 004a 002B     		cmp	r3, #0
 282 004c 07DB     		blt	.L23
  79:.\states.c    ****             selectedProfile--;
 283              		.loc 1 79 0
 284 004e 013B     		subs	r3, r3, #1
 285 0050 1E4A     		ldr	r2, .L32+8
 286 0052 1360     		str	r3, [r2]
  80:.\states.c    ****             CyDelay(500);
 287              		.loc 1 80 0
 288 0054 4FF4FA70 		mov	r0, #500
 289 0058 FFF7FEFF 		bl	CyDelay
 290              	.LVL29:
 291 005c 0DE0     		b	.L24
 292              	.L23:
  81:.\states.c    ****         }
  82:.\states.c    ****         else {
  83:.\states.c    ****             selectedProfile = 2;   
 293              		.loc 1 83 0
 294 005e 0222     		movs	r2, #2
 295 0060 1A4B     		ldr	r3, .L32+8
 296 0062 1A60     		str	r2, [r3]
 297 0064 09E0     		b	.L24
 298              	.L22:
  84:.\states.c    ****         }
  85:.\states.c    ****     }
  86:.\states.c    ****     else if (CapSense_CheckIsWidgetActive(CapSense_BUTTON1__BTN)) {
 299              		.loc 1 86 0
 300 0066 0220     		movs	r0, #2
 301 0068 FFF7FEFF 		bl	CapSense_CheckIsWidgetActive
 302              	.LVL30:
 303 006c 28B1     		cbz	r0, .L24
  87:.\states.c    ****             Display_profile_selection(selectedProfile);
 304              		.loc 1 87 0
 305 006e 174B     		ldr	r3, .L32+8
 306 0070 1868     		ldr	r0, [r3]
 307 0072 FFF7FEFF 		bl	Display_profile_selection
ARM GAS  C:\Users\JohnP\AppData\Local\Temp\cchwgjoG.s 			page 8


 308              	.LVL31:
  88:.\states.c    ****             return STATE_MOVING;
 309              		.loc 1 88 0
 310 0076 0420     		movs	r0, #4
 311 0078 08BD     		pop	{r3, pc}
 312              	.L24:
  89:.\states.c    ****     }
  90:.\states.c    ****     switch (selectedProfile){
 313              		.loc 1 90 0
 314 007a 144B     		ldr	r3, .L32+8
 315 007c 1B68     		ldr	r3, [r3]
 316 007e 012B     		cmp	r3, #1
 317 0080 14D0     		beq	.L26
 318 0082 022B     		cmp	r3, #2
 319 0084 09D0     		beq	.L27
 320 0086 D3B9     		cbnz	r3, .L31
  91:.\states.c    ****         case PROFILE_REGULAR:
  92:.\states.c    ****             LCD_Position(1,0);
 321              		.loc 1 92 0
 322 0088 0120     		movs	r0, #1
 323 008a 0021     		movs	r1, #0
 324 008c FFF7FEFF 		bl	LCD_Position
 325              	.LVL32:
  93:.\states.c    ****             LCD_PrintString("Regular   ");
 326              		.loc 1 93 0
 327 0090 0F48     		ldr	r0, .L32+12
 328 0092 FFF7FEFF 		bl	LCD_PrintString
 329              	.LVL33:
  94:.\states.c    ****             break;
  95:.\states.c    ****         case PROFILE_CARDIO:
  96:.\states.c    ****             LCD_Position(1,0);
  97:.\states.c    ****             LCD_PrintString("Cardio    ");
  98:.\states.c    ****             break;
  99:.\states.c    ****         case PROFILE_FATBURN:
 100:.\states.c    ****             LCD_Position(1,0);
 101:.\states.c    ****             LCD_PrintString("Fat Burn  ");
 102:.\states.c    ****             break;
 103:.\states.c    ****         default:
 104:.\states.c    ****             break;
 105:.\states.c    ****     }
 106:.\states.c    ****     return STATE_PROFILE_SELECTION;   
 330              		.loc 1 106 0
 331 0096 0320     		movs	r0, #3
  94:.\states.c    ****             break;
 332              		.loc 1 94 0
 333 0098 08BD     		pop	{r3, pc}
 334              	.L27:
  96:.\states.c    ****             LCD_Position(1,0);
 335              		.loc 1 96 0
 336 009a 0120     		movs	r0, #1
 337 009c 0021     		movs	r1, #0
 338 009e FFF7FEFF 		bl	LCD_Position
 339              	.LVL34:
  97:.\states.c    ****             LCD_PrintString("Cardio    ");
 340              		.loc 1 97 0
 341 00a2 0C48     		ldr	r0, .L32+16
 342 00a4 FFF7FEFF 		bl	LCD_PrintString
ARM GAS  C:\Users\JohnP\AppData\Local\Temp\cchwgjoG.s 			page 9


 343              	.LVL35:
 344              		.loc 1 106 0
 345 00a8 0320     		movs	r0, #3
  98:.\states.c    ****             break;
 346              		.loc 1 98 0
 347 00aa 08BD     		pop	{r3, pc}
 348              	.L26:
 100:.\states.c    ****             LCD_Position(1,0);
 349              		.loc 1 100 0
 350 00ac 0120     		movs	r0, #1
 351 00ae 0021     		movs	r1, #0
 352 00b0 FFF7FEFF 		bl	LCD_Position
 353              	.LVL36:
 101:.\states.c    ****             LCD_PrintString("Fat Burn  ");
 354              		.loc 1 101 0
 355 00b4 0848     		ldr	r0, .L32+20
 356 00b6 FFF7FEFF 		bl	LCD_PrintString
 357              	.LVL37:
 358              		.loc 1 106 0
 359 00ba 0320     		movs	r0, #3
 102:.\states.c    ****             break;
 360              		.loc 1 102 0
 361 00bc 08BD     		pop	{r3, pc}
 362              	.L31:
 363              		.loc 1 106 0
 364 00be 0320     		movs	r0, #3
 107:.\states.c    **** }
 365              		.loc 1 107 0
 366 00c0 08BD     		pop	{r3, pc}
 367              	.L33:
 368 00c2 00BF     		.align	2
 369              	.L32:
 370 00c4 00000000 		.word	Prev_state
 371 00c8 10000000 		.word	.LC2
 372 00cc 00000000 		.word	.LANCHOR0
 373 00d0 24000000 		.word	.LC3
 374 00d4 30000000 		.word	.LC4
 375 00d8 3C000000 		.word	.LC5
 376              		.cfi_endproc
 377              	.LFE3:
 378              		.size	State_profile_selection, .-State_profile_selection
 379              		.global	__aeabi_fsub
 380              		.global	__aeabi_f2iz
 381              		.section	.text.State_moving,"ax",%progbits
 382              		.align	2
 383              		.global	State_moving
 384              		.thumb
 385              		.thumb_func
 386              		.type	State_moving, %function
 387              	State_moving:
 388              	.LFB4:
 108:.\states.c    **** 
 109:.\states.c    **** STATE State_moving(){
 389              		.loc 1 109 0
 390              		.cfi_startproc
 391              		@ args = 0, pretend = 0, frame = 0
 392              		@ frame_needed = 0, uses_anonymous_args = 0
ARM GAS  C:\Users\JohnP\AppData\Local\Temp\cchwgjoG.s 			page 10


 393 0000 38B5     		push	{r3, r4, r5, lr}
 394              		.cfi_def_cfa_offset 16
 395              		.cfi_offset 3, -16
 396              		.cfi_offset 4, -12
 397              		.cfi_offset 5, -8
 398              		.cfi_offset 14, -4
 110:.\states.c    ****     Prev_state = STATE_MOVING;
 399              		.loc 1 110 0
 400 0002 0422     		movs	r2, #4
 401 0004 234B     		ldr	r3, .L42
 402 0006 1A60     		str	r2, [r3]
 111:.\states.c    ****     Detect_heartrate();
 403              		.loc 1 111 0
 404 0008 FFF7FEFF 		bl	Detect_heartrate
 405              	.LVL38:
 112:.\states.c    ****     int i;
 113:.\states.c    ****     for (i=0; i<9; i++){ 
 406              		.loc 1 113 0
 407 000c 0023     		movs	r3, #0
 114:.\states.c    ****         movingAverage[i]=movingAverage[i+1];
 408              		.loc 1 114 0
 409 000e 2249     		ldr	r1, .L42+4
 113:.\states.c    ****     for (i=0; i<9; i++){ 
 410              		.loc 1 113 0
 411 0010 07E0     		b	.L35
 412              	.LVL39:
 413              	.L36:
 414              		.loc 1 114 0 discriminator 2
 415 0012 5A1C     		adds	r2, r3, #1
 416 0014 01EB8200 		add	r0, r1, r2, lsl #2
 417 0018 4068     		ldr	r0, [r0, #4]	@ float
 418 001a 01EB8303 		add	r3, r1, r3, lsl #2
 419              	.LVL40:
 420 001e 5860     		str	r0, [r3, #4]	@ float
 421              	.LVL41:
 113:.\states.c    ****     for (i=0; i<9; i++){ 
 422              		.loc 1 113 0 discriminator 2
 423 0020 1346     		mov	r3, r2
 424              	.LVL42:
 425              	.L35:
 113:.\states.c    ****     for (i=0; i<9; i++){ 
 426              		.loc 1 113 0 is_stmt 0 discriminator 1
 427 0022 082B     		cmp	r3, #8
 428 0024 F5DD     		ble	.L36
 115:.\states.c    ****     }
 116:.\states.c    ****     movingAverage[9]=heartrate;
 429              		.loc 1 116 0 is_stmt 1
 430 0026 1D4B     		ldr	r3, .L42+8
 431              	.LVL43:
 432 0028 1968     		ldr	r1, [r3]	@ float
 433 002a 1B4B     		ldr	r3, .L42+4
 434 002c 9962     		str	r1, [r3, #40]	@ float
 117:.\states.c    ****     int difference = movingAverage[0]-heartrate;
 435              		.loc 1 117 0
 436 002e 5868     		ldr	r0, [r3, #4]	@ float
 437 0030 FFF7FEFF 		bl	__aeabi_fsub
 438              	.LVL44:
ARM GAS  C:\Users\JohnP\AppData\Local\Temp\cchwgjoG.s 			page 11


 439 0034 FFF7FEFF 		bl	__aeabi_f2iz
 440              	.LVL45:
 441 0038 0446     		mov	r4, r0
 442              	.LVL46:
 118:.\states.c    ****     int change = (difference*difference);
 443              		.loc 1 118 0
 444 003a 00FB00F5 		mul	r5, r0, r0
 445              	.LVL47:
 119:.\states.c    ****     LCD_Position(0,0);
 446              		.loc 1 119 0
 447 003e 0020     		movs	r0, #0
 448              	.LVL48:
 449 0040 0146     		mov	r1, r0
 450 0042 FFF7FEFF 		bl	LCD_Position
 451              	.LVL49:
 120:.\states.c    ****     int average=0;
 121:.\states.c    ****     for (i=0; i<10; i++){
 452              		.loc 1 121 0
 453 0046 0023     		movs	r3, #0
 454 0048 00E0     		b	.L37
 455              	.LVL50:
 456              	.L38:
 457              		.loc 1 121 0 is_stmt 0 discriminator 2
 458 004a 0133     		adds	r3, r3, #1
 459              	.LVL51:
 460              	.L37:
 461              		.loc 1 121 0 discriminator 1
 462 004c 092B     		cmp	r3, #9
 463 004e FCDD     		ble	.L38
 122:.\states.c    ****         average +=movingAverage[i];
 123:.\states.c    ****     }
 124:.\states.c    ****     average /= 10;
 125:.\states.c    ****     LCD_PrintNumber(difference);
 464              		.loc 1 125 0 is_stmt 1
 465 0050 A0B2     		uxth	r0, r4
 466 0052 FFF7FEFF 		bl	LCD_PrintU32Number
 467              	.LVL52:
 126:.\states.c    ****     LCD_PrintString("      ");
 468              		.loc 1 126 0
 469 0056 1248     		ldr	r0, .L42+12
 470 0058 FFF7FEFF 		bl	LCD_PrintString
 471              	.LVL53:
 127:.\states.c    ****     if ((change)>=100){
 472              		.loc 1 127 0
 473 005c 632D     		cmp	r5, #99
 474 005e 13DD     		ble	.L39
 128:.\states.c    ****         if(difference>0){
 475              		.loc 1 128 0
 476 0060 002C     		cmp	r4, #0
 477 0062 03DD     		ble	.L40
 129:.\states.c    ****             increasingHr = 0;   
 478              		.loc 1 129 0
 479 0064 0022     		movs	r2, #0
 480 0066 0F4B     		ldr	r3, .L42+16
 481 0068 1A60     		str	r2, [r3]
 482 006a 02E0     		b	.L41
 483              	.L40:
ARM GAS  C:\Users\JohnP\AppData\Local\Temp\cchwgjoG.s 			page 12


 130:.\states.c    ****         }
 131:.\states.c    ****         else{
 132:.\states.c    ****             increasingHr = 1;
 484              		.loc 1 132 0
 485 006c 0122     		movs	r2, #1
 486 006e 0D4B     		ldr	r3, .L42+16
 487 0070 1A60     		str	r2, [r3]
 488              	.L41:
 133:.\states.c    ****         }
 134:.\states.c    ****         LCD_Position(1,5);
 489              		.loc 1 134 0
 490 0072 0120     		movs	r0, #1
 491 0074 0521     		movs	r1, #5
 492 0076 FFF7FEFF 		bl	LCD_Position
 493              	.LVL54:
 135:.\states.c    ****         LCD_PrintNumber(increasingHr);
 494              		.loc 1 135 0
 495 007a 0A4B     		ldr	r3, .L42+16
 496 007c 1888     		ldrh	r0, [r3]
 497 007e FFF7FEFF 		bl	LCD_PrintU32Number
 498              	.LVL55:
 136:.\states.c    ****         currentState = STATE_HEARTRATE_CHANGE;
 499              		.loc 1 136 0
 500 0082 0522     		movs	r2, #5
 501 0084 084B     		ldr	r3, .L42+20
 502 0086 1A60     		str	r2, [r3]
 503              	.L39:
 137:.\states.c    ****     }
 138:.\states.c    ****     CyDelay(100);
 504              		.loc 1 138 0
 505 0088 6420     		movs	r0, #100
 506 008a FFF7FEFF 		bl	CyDelay
 507              	.LVL56:
 139:.\states.c    ****     return currentState;   
 140:.\states.c    **** }
 508              		.loc 1 140 0
 509 008e 064B     		ldr	r3, .L42+20
 510 0090 1868     		ldr	r0, [r3]
 511 0092 38BD     		pop	{r3, r4, r5, pc}
 512              	.LVL57:
 513              	.L43:
 514              		.align	2
 515              	.L42:
 516 0094 00000000 		.word	Prev_state
 517 0098 00000000 		.word	.LANCHOR0
 518 009c 00000000 		.word	heartrate
 519 00a0 48000000 		.word	.LC6
 520 00a4 00000000 		.word	increasingHr
 521 00a8 00000000 		.word	currentState
 522              		.cfi_endproc
 523              	.LFE4:
 524              		.size	State_moving, .-State_moving
 525              		.global	__aeabi_fcmpgt
 526              		.global	__aeabi_fcmplt
 527              		.section	.text.State_heartrate_change,"ax",%progbits
 528              		.align	2
 529              		.global	State_heartrate_change
ARM GAS  C:\Users\JohnP\AppData\Local\Temp\cchwgjoG.s 			page 13


 530              		.thumb
 531              		.thumb_func
 532              		.type	State_heartrate_change, %function
 533              	State_heartrate_change:
 534              	.LFB5:
 141:.\states.c    **** 
 142:.\states.c    **** STATE State_heartrate_change(){
 535              		.loc 1 142 0
 536              		.cfi_startproc
 537              		@ args = 0, pretend = 0, frame = 0
 538              		@ frame_needed = 0, uses_anonymous_args = 0
 539 0000 10B5     		push	{r4, lr}
 540              		.cfi_def_cfa_offset 8
 541              		.cfi_offset 4, -8
 542              		.cfi_offset 14, -4
 143:.\states.c    ****     Prev_state = STATE_HEARTRATE_CHANGE;
 543              		.loc 1 143 0
 544 0002 0522     		movs	r2, #5
 545 0004 314B     		ldr	r3, .L67
 546 0006 1A60     		str	r2, [r3]
 144:.\states.c    ****     LCD_Position(0,9);
 547              		.loc 1 144 0
 548 0008 0020     		movs	r0, #0
 549 000a 0921     		movs	r1, #9
 550 000c FFF7FEFF 		bl	LCD_Position
 551              	.LVL58:
 145:.\states.c    ****     LCD_PrintNumber(selectedProfile);
 552              		.loc 1 145 0
 553 0010 2F4C     		ldr	r4, .L67+4
 554 0012 2088     		ldrh	r0, [r4]
 555 0014 FFF7FEFF 		bl	LCD_PrintU32Number
 556              	.LVL59:
 146:.\states.c    ****     switch (selectedProfile){
 557              		.loc 1 146 0
 558 0018 2368     		ldr	r3, [r4]
 559 001a 012B     		cmp	r3, #1
 560 001c 3ED0     		beq	.L46
 561 001e 022B     		cmp	r3, #2
 562 0020 26D0     		beq	.L47
 563 0022 002B     		cmp	r3, #0
 564 0024 4FD1     		bne	.L45
 147:.\states.c    ****         case PROFILE_REGULAR:
 148:.\states.c    ****             if (heartrate>100){
 565              		.loc 1 148 0
 566 0026 2B4B     		ldr	r3, .L67+8
 567 0028 1C68     		ldr	r4, [r3]	@ float
 568 002a 2046     		mov	r0, r4
 569 002c 2A49     		ldr	r1, .L67+12
 570 002e FFF7FEFF 		bl	__aeabi_fcmpgt
 571              	.LVL60:
 572 0032 58B1     		cbz	r0, .L64
 149:.\states.c    ****                 Motor_rampUp(MOTOR_WALKING_SPEED);
 573              		.loc 1 149 0
 574 0034 294B     		ldr	r3, .L67+16
 575 0036 1868     		ldr	r0, [r3]
 576 0038 FFF7FEFF 		bl	Motor_rampUp
 577              	.LVL61:
ARM GAS  C:\Users\JohnP\AppData\Local\Temp\cchwgjoG.s 			page 14


 150:.\states.c    ****                 LCD_Position(0,0);
 578              		.loc 1 150 0
 579 003c 0020     		movs	r0, #0
 580 003e 0146     		mov	r1, r0
 581 0040 FFF7FEFF 		bl	LCD_Position
 582              	.LVL62:
 151:.\states.c    ****                 LCD_PrintString("Walking");
 583              		.loc 1 151 0
 584 0044 2648     		ldr	r0, .L67+20
 585 0046 FFF7FEFF 		bl	LCD_PrintString
 586              	.LVL63:
 587 004a 3CE0     		b	.L45
 588              	.L64:
 152:.\states.c    ****             }
 153:.\states.c    ****             else if (heartrate<80){
 589              		.loc 1 153 0
 590 004c 2046     		mov	r0, r4
 591 004e 2549     		ldr	r1, .L67+24
 592 0050 FFF7FEFF 		bl	__aeabi_fcmplt
 593              	.LVL64:
 594 0054 0028     		cmp	r0, #0
 595 0056 36D0     		beq	.L45
 154:.\states.c    ****                 Motor_rampUp(MOTOR_RUNNING_SPEED);
 596              		.loc 1 154 0
 597 0058 204B     		ldr	r3, .L67+16
 598 005a 5868     		ldr	r0, [r3, #4]
 599 005c FFF7FEFF 		bl	Motor_rampUp
 600              	.LVL65:
 155:.\states.c    ****                 LCD_Position(0,0);
 601              		.loc 1 155 0
 602 0060 0020     		movs	r0, #0
 603 0062 0146     		mov	r1, r0
 604 0064 FFF7FEFF 		bl	LCD_Position
 605              	.LVL66:
 156:.\states.c    ****                 LCD_PrintString("Running");
 606              		.loc 1 156 0
 607 0068 1F48     		ldr	r0, .L67+28
 608 006a FFF7FEFF 		bl	LCD_PrintString
 609              	.LVL67:
 610 006e 2AE0     		b	.L45
 611              	.L47:
 157:.\states.c    ****             }
 158:.\states.c    ****             break;
 159:.\states.c    ****         case PROFILE_CARDIO:
 160:.\states.c    ****             if (heartrate>180){
 612              		.loc 1 160 0
 613 0070 184B     		ldr	r3, .L67+8
 614 0072 1C68     		ldr	r4, [r3]	@ float
 615 0074 2046     		mov	r0, r4
 616 0076 1D49     		ldr	r1, .L67+32
 617 0078 FFF7FEFF 		bl	__aeabi_fcmpgt
 618              	.LVL68:
 619 007c 20B1     		cbz	r0, .L65
 161:.\states.c    ****                 Motor_rampUp(MOTOR_WALKING_SPEED);
 620              		.loc 1 161 0
 621 007e 174B     		ldr	r3, .L67+16
 622 0080 1868     		ldr	r0, [r3]
ARM GAS  C:\Users\JohnP\AppData\Local\Temp\cchwgjoG.s 			page 15


 623 0082 FFF7FEFF 		bl	Motor_rampUp
 624              	.LVL69:
 625 0086 1EE0     		b	.L45
 626              	.L65:
 162:.\states.c    ****             }
 163:.\states.c    ****             else if (heartrate<120){
 627              		.loc 1 163 0
 628 0088 2046     		mov	r0, r4
 629 008a 1949     		ldr	r1, .L67+36
 630 008c FFF7FEFF 		bl	__aeabi_fcmplt
 631              	.LVL70:
 632 0090 C8B1     		cbz	r0, .L45
 164:.\states.c    ****                 Motor_rampUp(MOTOR_RUNNING_SPEED);
 633              		.loc 1 164 0
 634 0092 124B     		ldr	r3, .L67+16
 635 0094 5868     		ldr	r0, [r3, #4]
 636 0096 FFF7FEFF 		bl	Motor_rampUp
 637              	.LVL71:
 638 009a 14E0     		b	.L45
 639              	.L46:
 165:.\states.c    ****             }
 166:.\states.c    ****             break;
 167:.\states.c    ****         case PROFILE_FATBURN:
 168:.\states.c    ****             if (heartrate>100){
 640              		.loc 1 168 0
 641 009c 0D4B     		ldr	r3, .L67+8
 642 009e 1C68     		ldr	r4, [r3]	@ float
 643 00a0 2046     		mov	r0, r4
 644 00a2 0D49     		ldr	r1, .L67+12
 645 00a4 FFF7FEFF 		bl	__aeabi_fcmpgt
 646              	.LVL72:
 647 00a8 20B1     		cbz	r0, .L66
 169:.\states.c    ****                 Motor_rampUp(MOTOR_FAST_WALKING_SPEED);
 648              		.loc 1 169 0
 649 00aa 0C4B     		ldr	r3, .L67+16
 650 00ac 9868     		ldr	r0, [r3, #8]
 651 00ae FFF7FEFF 		bl	Motor_rampUp
 652              	.LVL73:
 653 00b2 08E0     		b	.L45
 654              	.L66:
 170:.\states.c    ****             }
 171:.\states.c    ****             else if (heartrate<60){
 655              		.loc 1 171 0
 656 00b4 2046     		mov	r0, r4
 657 00b6 0F49     		ldr	r1, .L67+40
 658 00b8 FFF7FEFF 		bl	__aeabi_fcmplt
 659              	.LVL74:
 660 00bc 18B1     		cbz	r0, .L45
 172:.\states.c    ****                 Motor_rampUp(MOTOR_RUNNING_SPEED);
 661              		.loc 1 172 0
 662 00be 074B     		ldr	r3, .L67+16
 663 00c0 5868     		ldr	r0, [r3, #4]
 664 00c2 FFF7FEFF 		bl	Motor_rampUp
 665              	.LVL75:
 666              	.L45:
 173:.\states.c    ****             }
 174:.\states.c    ****             break;
ARM GAS  C:\Users\JohnP\AppData\Local\Temp\cchwgjoG.s 			page 16


 175:.\states.c    ****         default:
 176:.\states.c    ****             break;
 177:.\states.c    ****     }
 178:.\states.c    ****     return STATE_MOVING;   
 179:.\states.c    **** }
 667              		.loc 1 179 0
 668 00c6 0420     		movs	r0, #4
 669 00c8 10BD     		pop	{r4, pc}
 670              	.L68:
 671 00ca 00BF     		.align	2
 672              	.L67:
 673 00cc 00000000 		.word	Prev_state
 674 00d0 00000000 		.word	.LANCHOR0
 675 00d4 00000000 		.word	heartrate
 676 00d8 0000C842 		.word	1120403456
 677 00dc 00000000 		.word	.LANCHOR1
 678 00e0 50000000 		.word	.LC7
 679 00e4 0000A042 		.word	1117782016
 680 00e8 58000000 		.word	.LC8
 681 00ec 00003443 		.word	1127481344
 682 00f0 0000F042 		.word	1123024896
 683 00f4 00007042 		.word	1114636288
 684              		.cfi_endproc
 685              	.LFE5:
 686              		.size	State_heartrate_change, .-State_heartrate_change
 687              		.section	.text.State_stop,"ax",%progbits
 688              		.align	2
 689              		.global	State_stop
 690              		.thumb
 691              		.thumb_func
 692              		.type	State_stop, %function
 693              	State_stop:
 694              	.LFB6:
 180:.\states.c    **** 
 181:.\states.c    **** STATE State_stop(){
 695              		.loc 1 181 0
 696              		.cfi_startproc
 697              		@ args = 0, pretend = 0, frame = 0
 698              		@ frame_needed = 0, uses_anonymous_args = 0
 699 0000 08B5     		push	{r3, lr}
 700              		.cfi_def_cfa_offset 8
 701              		.cfi_offset 3, -8
 702              		.cfi_offset 14, -4
 182:.\states.c    ****     Prev_state = STATE_STOP;
 703              		.loc 1 182 0
 704 0002 0622     		movs	r2, #6
 705 0004 024B     		ldr	r3, .L70
 706 0006 1A60     		str	r2, [r3]
 183:.\states.c    ****     Motor_stop();
 707              		.loc 1 183 0
 708 0008 FFF7FEFF 		bl	Motor_stop
 709              	.LVL76:
 184:.\states.c    ****     return STATE_SLEEP; 
 185:.\states.c    **** }
 710              		.loc 1 185 0
 711 000c 0020     		movs	r0, #0
 712 000e 08BD     		pop	{r3, pc}
ARM GAS  C:\Users\JohnP\AppData\Local\Temp\cchwgjoG.s 			page 17


 713              	.L71:
 714              		.align	2
 715              	.L70:
 716 0010 00000000 		.word	Prev_state
 717              		.cfi_endproc
 718              	.LFE6:
 719              		.size	State_stop, .-State_stop
 720              		.global	movingAverage
 721              		.global	MOTOR_FAST_WALKING_SPEED
 722              		.global	MOTOR_WALKING_SPEED
 723              		.global	MOTOR_RUNNING_SPEED
 724              		.global	selectedProfile
 725              		.comm	Prev_state,4,4
 726              		.comm	currentState,4,4
 727              		.comm	PROFILE,4,4
 728              		.comm	increasingHr,4,4
 729              		.comm	average,4,4
 730              		.comm	timer_value,4,4
 731              		.comm	timer_status,4,4
 732              		.comm	heartbeatCounter,4,4
 733              		.comm	heartrate,4,4
 734              		.comm	speed,4,4
 735              		.data
 736              		.align	2
 737              		.set	.LANCHOR1,. + 0
 738              		.type	MOTOR_WALKING_SPEED, %object
 739              		.size	MOTOR_WALKING_SPEED, 4
 740              	MOTOR_WALKING_SPEED:
 741 0000 2C010000 		.word	300
 742              		.type	MOTOR_RUNNING_SPEED, %object
 743              		.size	MOTOR_RUNNING_SPEED, 4
 744              	MOTOR_RUNNING_SPEED:
 745 0004 32000000 		.word	50
 746              		.type	MOTOR_FAST_WALKING_SPEED, %object
 747              		.size	MOTOR_FAST_WALKING_SPEED, 4
 748              	MOTOR_FAST_WALKING_SPEED:
 749 0008 C8000000 		.word	200
 750              		.section	.rodata.str1.4,"aMS",%progbits,1
 751              		.align	2
 752              	.LC0:
 753 0000 52455345 		.ascii	"RESET\000"
 753      5400
 754 0006 0000     		.space	2
 755              	.LC1:
 756 0008 53544152 		.ascii	"START\000"
 756      5400
 757 000e 0000     		.space	2
 758              	.LC2:
 759 0010 53656C65 		.ascii	"Select a profile..\000"
 759      63742061 
 759      2070726F 
 759      66696C65 
 759      2E2E00
 760 0023 00       		.space	1
 761              	.LC3:
 762 0024 52656775 		.ascii	"Regular   \000"
 762      6C617220 
ARM GAS  C:\Users\JohnP\AppData\Local\Temp\cchwgjoG.s 			page 18


 762      202000
 763 002f 00       		.space	1
 764              	.LC4:
 765 0030 43617264 		.ascii	"Cardio    \000"
 765      696F2020 
 765      202000
 766 003b 00       		.space	1
 767              	.LC5:
 768 003c 46617420 		.ascii	"Fat Burn  \000"
 768      4275726E 
 768      202000
 769 0047 00       		.space	1
 770              	.LC6:
 771 0048 20202020 		.ascii	"      \000"
 771      202000
 772 004f 00       		.space	1
 773              	.LC7:
 774 0050 57616C6B 		.ascii	"Walking\000"
 774      696E6700 
 775              	.LC8:
 776 0058 52756E6E 		.ascii	"Running\000"
 776      696E6700 
 777              		.bss
 778              		.align	2
 779              		.set	.LANCHOR0,. + 0
 780              		.type	selectedProfile, %object
 781              		.size	selectedProfile, 4
 782              	selectedProfile:
 783 0000 00000000 		.space	4
 784              		.type	movingAverage, %object
 785              		.size	movingAverage, 40
 786              	movingAverage:
 787 0004 00000000 		.space	40
 787      00000000 
 787      00000000 
 787      00000000 
 787      00000000 
 788              		.text
 789              	.Letext0:
 790              		.file 2 "Generated_Source\\PSoC5/cytypes.h"
 791              		.file 3 ".\\states.h"
 792              		.file 4 ".\\motor.h"
 793              		.file 5 ".\\heartrate.h"
 794              		.file 6 "Generated_Source\\PSoC5/LCD.h"
 795              		.file 7 "Generated_Source\\PSoC5/CyLib.h"
 796              		.file 8 "Generated_Source\\PSoC5/CapSense.h"
 797              		.file 9 "Generated_Source\\PSoC5/CapSense_CSHL.h"
 798              		.file 10 ".\\display.h"
 799              		.file 11 ".\\system.h"
 800              		.file 12 ".\\speaker.h"