ARM GAS  C:\Users\JohnP\AppData\Local\Temp\ccoqyWui.s 			page 1


   1              		.syntax unified
   2              		.cpu cortex-m3
   3              		.fpu softvfp
   4              		.eabi_attribute 20, 1
   5              		.eabi_attribute 21, 1
   6              		.eabi_attribute 23, 3
   7              		.eabi_attribute 24, 1
   8              		.eabi_attribute 25, 1
   9              		.eabi_attribute 26, 1
  10              		.eabi_attribute 30, 1
  11              		.eabi_attribute 34, 1
  12              		.eabi_attribute 18, 4
  13              		.thumb
  14              		.file	"STOP.c"
  15              		.text
  16              	.Ltext0:
  17              		.cfi_sections	.debug_frame
  18              		.section	.text.STOP_Interrupt,"ax",%progbits
  19              		.align	2
  20              		.global	STOP_Interrupt
  21              		.thumb
  22              		.thumb_func
  23              		.type	STOP_Interrupt, %function
  24              	STOP_Interrupt:
  25              	.LFB3:
  26              		.file 1 ".\\Generated_Source\\PSoC5\\STOP.c"
   1:.\Generated_Source\PSoC5/STOP.c **** /*******************************************************************************
   2:.\Generated_Source\PSoC5/STOP.c **** * File Name: STOP.c  
   3:.\Generated_Source\PSoC5/STOP.c **** * Version 1.70
   4:.\Generated_Source\PSoC5/STOP.c **** *
   5:.\Generated_Source\PSoC5/STOP.c **** *  Description:
   6:.\Generated_Source\PSoC5/STOP.c **** *   API for controlling the state of an interrupt.
   7:.\Generated_Source\PSoC5/STOP.c **** *
   8:.\Generated_Source\PSoC5/STOP.c **** *
   9:.\Generated_Source\PSoC5/STOP.c **** *  Note:
  10:.\Generated_Source\PSoC5/STOP.c **** *
  11:.\Generated_Source\PSoC5/STOP.c **** ********************************************************************************
  12:.\Generated_Source\PSoC5/STOP.c **** * Copyright 2008-2015, Cypress Semiconductor Corporation.  All rights reserved.
  13:.\Generated_Source\PSoC5/STOP.c **** * You may use this file only in accordance with the license, terms, conditions, 
  14:.\Generated_Source\PSoC5/STOP.c **** * disclaimers, and limitations in the end user license agreement accompanying 
  15:.\Generated_Source\PSoC5/STOP.c **** * the software package with which this file was provided.
  16:.\Generated_Source\PSoC5/STOP.c **** *******************************************************************************/
  17:.\Generated_Source\PSoC5/STOP.c **** 
  18:.\Generated_Source\PSoC5/STOP.c **** 
  19:.\Generated_Source\PSoC5/STOP.c **** #include <cydevice_trm.h>
  20:.\Generated_Source\PSoC5/STOP.c **** #include <CyLib.h>
  21:.\Generated_Source\PSoC5/STOP.c **** #include <STOP.h>
  22:.\Generated_Source\PSoC5/STOP.c **** 
  23:.\Generated_Source\PSoC5/STOP.c **** #if !defined(STOP__REMOVED) /* Check for removal by optimization */
  24:.\Generated_Source\PSoC5/STOP.c **** 
  25:.\Generated_Source\PSoC5/STOP.c **** /*******************************************************************************
  26:.\Generated_Source\PSoC5/STOP.c **** *  Place your includes, defines and code here 
  27:.\Generated_Source\PSoC5/STOP.c **** ********************************************************************************/
  28:.\Generated_Source\PSoC5/STOP.c **** /* `#START STOP_intc` */
  29:.\Generated_Source\PSoC5/STOP.c **** #include "system.h"
  30:.\Generated_Source\PSoC5/STOP.c **** /* `#END` */
  31:.\Generated_Source\PSoC5/STOP.c **** 
ARM GAS  C:\Users\JohnP\AppData\Local\Temp\ccoqyWui.s 			page 2


  32:.\Generated_Source\PSoC5/STOP.c **** #ifndef CYINT_IRQ_BASE
  33:.\Generated_Source\PSoC5/STOP.c **** #define CYINT_IRQ_BASE      16
  34:.\Generated_Source\PSoC5/STOP.c **** #endif /* CYINT_IRQ_BASE */
  35:.\Generated_Source\PSoC5/STOP.c **** #ifndef CYINT_VECT_TABLE
  36:.\Generated_Source\PSoC5/STOP.c **** #define CYINT_VECT_TABLE    ((cyisraddress **) CYREG_NVIC_VECT_OFFSET)
  37:.\Generated_Source\PSoC5/STOP.c **** #endif /* CYINT_VECT_TABLE */
  38:.\Generated_Source\PSoC5/STOP.c **** 
  39:.\Generated_Source\PSoC5/STOP.c **** /* Declared in startup, used to set unused interrupts to. */
  40:.\Generated_Source\PSoC5/STOP.c **** CY_ISR_PROTO(IntDefaultHandler);
  41:.\Generated_Source\PSoC5/STOP.c **** 
  42:.\Generated_Source\PSoC5/STOP.c **** 
  43:.\Generated_Source\PSoC5/STOP.c **** /*******************************************************************************
  44:.\Generated_Source\PSoC5/STOP.c **** * Function Name: STOP_Start
  45:.\Generated_Source\PSoC5/STOP.c **** ********************************************************************************
  46:.\Generated_Source\PSoC5/STOP.c **** *
  47:.\Generated_Source\PSoC5/STOP.c **** * Summary:
  48:.\Generated_Source\PSoC5/STOP.c **** *  Set up the interrupt and enable it. This function disables the interrupt, 
  49:.\Generated_Source\PSoC5/STOP.c **** *  sets the default interrupt vector, sets the priority from the value in the
  50:.\Generated_Source\PSoC5/STOP.c **** *  Design Wide Resources Interrupt Editor, then enables the interrupt to the 
  51:.\Generated_Source\PSoC5/STOP.c **** *  interrupt controller.
  52:.\Generated_Source\PSoC5/STOP.c **** *
  53:.\Generated_Source\PSoC5/STOP.c **** * Parameters:  
  54:.\Generated_Source\PSoC5/STOP.c **** *   None
  55:.\Generated_Source\PSoC5/STOP.c **** *
  56:.\Generated_Source\PSoC5/STOP.c **** * Return:
  57:.\Generated_Source\PSoC5/STOP.c **** *   None
  58:.\Generated_Source\PSoC5/STOP.c **** *
  59:.\Generated_Source\PSoC5/STOP.c **** *******************************************************************************/
  60:.\Generated_Source\PSoC5/STOP.c **** void STOP_Start(void)
  61:.\Generated_Source\PSoC5/STOP.c **** {
  62:.\Generated_Source\PSoC5/STOP.c ****     /* For all we know the interrupt is active. */
  63:.\Generated_Source\PSoC5/STOP.c ****     STOP_Disable();
  64:.\Generated_Source\PSoC5/STOP.c **** 
  65:.\Generated_Source\PSoC5/STOP.c ****     /* Set the ISR to point to the STOP Interrupt. */
  66:.\Generated_Source\PSoC5/STOP.c ****     STOP_SetVector(&STOP_Interrupt);
  67:.\Generated_Source\PSoC5/STOP.c **** 
  68:.\Generated_Source\PSoC5/STOP.c ****     /* Set the priority. */
  69:.\Generated_Source\PSoC5/STOP.c ****     STOP_SetPriority((uint8)STOP_INTC_PRIOR_NUMBER);
  70:.\Generated_Source\PSoC5/STOP.c **** 
  71:.\Generated_Source\PSoC5/STOP.c ****     /* Enable it. */
  72:.\Generated_Source\PSoC5/STOP.c ****     STOP_Enable();
  73:.\Generated_Source\PSoC5/STOP.c **** }
  74:.\Generated_Source\PSoC5/STOP.c **** 
  75:.\Generated_Source\PSoC5/STOP.c **** 
  76:.\Generated_Source\PSoC5/STOP.c **** /*******************************************************************************
  77:.\Generated_Source\PSoC5/STOP.c **** * Function Name: STOP_StartEx
  78:.\Generated_Source\PSoC5/STOP.c **** ********************************************************************************
  79:.\Generated_Source\PSoC5/STOP.c **** *
  80:.\Generated_Source\PSoC5/STOP.c **** * Summary:
  81:.\Generated_Source\PSoC5/STOP.c **** *  Sets up the interrupt and enables it. This function disables the interrupt,
  82:.\Generated_Source\PSoC5/STOP.c **** *  sets the interrupt vector based on the address passed in, sets the priority 
  83:.\Generated_Source\PSoC5/STOP.c **** *  from the value in the Design Wide Resources Interrupt Editor, then enables 
  84:.\Generated_Source\PSoC5/STOP.c **** *  the interrupt to the interrupt controller.
  85:.\Generated_Source\PSoC5/STOP.c **** *  
  86:.\Generated_Source\PSoC5/STOP.c **** *  When defining ISR functions, the CY_ISR and CY_ISR_PROTO macros should be 
  87:.\Generated_Source\PSoC5/STOP.c **** *  used to provide consistent definition across compilers:
  88:.\Generated_Source\PSoC5/STOP.c **** *  
ARM GAS  C:\Users\JohnP\AppData\Local\Temp\ccoqyWui.s 			page 3


  89:.\Generated_Source\PSoC5/STOP.c **** *  Function definition example:
  90:.\Generated_Source\PSoC5/STOP.c **** *   CY_ISR(MyISR)
  91:.\Generated_Source\PSoC5/STOP.c **** *   {
  92:.\Generated_Source\PSoC5/STOP.c **** *   }
  93:.\Generated_Source\PSoC5/STOP.c **** *   Function prototype example:
  94:.\Generated_Source\PSoC5/STOP.c **** *   CY_ISR_PROTO(MyISR);
  95:.\Generated_Source\PSoC5/STOP.c **** *
  96:.\Generated_Source\PSoC5/STOP.c **** * Parameters:  
  97:.\Generated_Source\PSoC5/STOP.c **** *   address: Address of the ISR to set in the interrupt vector table.
  98:.\Generated_Source\PSoC5/STOP.c **** *
  99:.\Generated_Source\PSoC5/STOP.c **** * Return:
 100:.\Generated_Source\PSoC5/STOP.c **** *   None
 101:.\Generated_Source\PSoC5/STOP.c **** *
 102:.\Generated_Source\PSoC5/STOP.c **** *******************************************************************************/
 103:.\Generated_Source\PSoC5/STOP.c **** void STOP_StartEx(cyisraddress address)
 104:.\Generated_Source\PSoC5/STOP.c **** {
 105:.\Generated_Source\PSoC5/STOP.c ****     /* For all we know the interrupt is active. */
 106:.\Generated_Source\PSoC5/STOP.c ****     STOP_Disable();
 107:.\Generated_Source\PSoC5/STOP.c **** 
 108:.\Generated_Source\PSoC5/STOP.c ****     /* Set the ISR to point to the STOP Interrupt. */
 109:.\Generated_Source\PSoC5/STOP.c ****     STOP_SetVector(address);
 110:.\Generated_Source\PSoC5/STOP.c **** 
 111:.\Generated_Source\PSoC5/STOP.c ****     /* Set the priority. */
 112:.\Generated_Source\PSoC5/STOP.c ****     STOP_SetPriority((uint8)STOP_INTC_PRIOR_NUMBER);
 113:.\Generated_Source\PSoC5/STOP.c **** 
 114:.\Generated_Source\PSoC5/STOP.c ****     /* Enable it. */
 115:.\Generated_Source\PSoC5/STOP.c ****     STOP_Enable();
 116:.\Generated_Source\PSoC5/STOP.c **** }
 117:.\Generated_Source\PSoC5/STOP.c **** 
 118:.\Generated_Source\PSoC5/STOP.c **** 
 119:.\Generated_Source\PSoC5/STOP.c **** /*******************************************************************************
 120:.\Generated_Source\PSoC5/STOP.c **** * Function Name: STOP_Stop
 121:.\Generated_Source\PSoC5/STOP.c **** ********************************************************************************
 122:.\Generated_Source\PSoC5/STOP.c **** *
 123:.\Generated_Source\PSoC5/STOP.c **** * Summary:
 124:.\Generated_Source\PSoC5/STOP.c **** *   Disables and removes the interrupt.
 125:.\Generated_Source\PSoC5/STOP.c **** *
 126:.\Generated_Source\PSoC5/STOP.c **** * Parameters:  
 127:.\Generated_Source\PSoC5/STOP.c **** *   None
 128:.\Generated_Source\PSoC5/STOP.c **** *
 129:.\Generated_Source\PSoC5/STOP.c **** * Return:
 130:.\Generated_Source\PSoC5/STOP.c **** *   None
 131:.\Generated_Source\PSoC5/STOP.c **** *
 132:.\Generated_Source\PSoC5/STOP.c **** *******************************************************************************/
 133:.\Generated_Source\PSoC5/STOP.c **** void STOP_Stop(void)
 134:.\Generated_Source\PSoC5/STOP.c **** {
 135:.\Generated_Source\PSoC5/STOP.c ****     /* Disable this interrupt. */
 136:.\Generated_Source\PSoC5/STOP.c ****     STOP_Disable();
 137:.\Generated_Source\PSoC5/STOP.c **** 
 138:.\Generated_Source\PSoC5/STOP.c ****     /* Set the ISR to point to the passive one. */
 139:.\Generated_Source\PSoC5/STOP.c ****     STOP_SetVector(&IntDefaultHandler);
 140:.\Generated_Source\PSoC5/STOP.c **** }
 141:.\Generated_Source\PSoC5/STOP.c **** 
 142:.\Generated_Source\PSoC5/STOP.c **** 
 143:.\Generated_Source\PSoC5/STOP.c **** /*******************************************************************************
 144:.\Generated_Source\PSoC5/STOP.c **** * Function Name: STOP_Interrupt
 145:.\Generated_Source\PSoC5/STOP.c **** ********************************************************************************
ARM GAS  C:\Users\JohnP\AppData\Local\Temp\ccoqyWui.s 			page 4


 146:.\Generated_Source\PSoC5/STOP.c **** *
 147:.\Generated_Source\PSoC5/STOP.c **** * Summary:
 148:.\Generated_Source\PSoC5/STOP.c **** *   The default Interrupt Service Routine for STOP.
 149:.\Generated_Source\PSoC5/STOP.c **** *
 150:.\Generated_Source\PSoC5/STOP.c **** *   Add custom code between the coments to keep the next version of this file
 151:.\Generated_Source\PSoC5/STOP.c **** *   from over writting your code.
 152:.\Generated_Source\PSoC5/STOP.c **** *
 153:.\Generated_Source\PSoC5/STOP.c **** * Parameters:  
 154:.\Generated_Source\PSoC5/STOP.c **** *
 155:.\Generated_Source\PSoC5/STOP.c **** * Return:
 156:.\Generated_Source\PSoC5/STOP.c **** *   None
 157:.\Generated_Source\PSoC5/STOP.c **** *
 158:.\Generated_Source\PSoC5/STOP.c **** *******************************************************************************/
 159:.\Generated_Source\PSoC5/STOP.c **** CY_ISR(STOP_Interrupt)
 160:.\Generated_Source\PSoC5/STOP.c **** {
  27              		.loc 1 160 0
  28              		.cfi_startproc
  29              		@ args = 0, pretend = 0, frame = 0
  30              		@ frame_needed = 0, uses_anonymous_args = 0
  31              		@ link register save eliminated.
 161:.\Generated_Source\PSoC5/STOP.c ****     /*  Place your Interrupt code here. */
 162:.\Generated_Source\PSoC5/STOP.c ****     /* `#START STOP_Interrupt` */
 163:.\Generated_Source\PSoC5/STOP.c ****     currentState = STATE_STOP;
  32              		.loc 1 163 0
  33 0000 0622     		movs	r2, #6
  34 0002 014B     		ldr	r3, .L2
  35 0004 1A60     		str	r2, [r3]
  36 0006 7047     		bx	lr
  37              	.L3:
  38              		.align	2
  39              	.L2:
  40 0008 00000000 		.word	currentState
  41              		.cfi_endproc
  42              	.LFE3:
  43              		.size	STOP_Interrupt, .-STOP_Interrupt
  44              		.section	.text.STOP_SetVector,"ax",%progbits
  45              		.align	2
  46              		.global	STOP_SetVector
  47              		.thumb
  48              		.thumb_func
  49              		.type	STOP_SetVector, %function
  50              	STOP_SetVector:
  51              	.LFB4:
 164:.\Generated_Source\PSoC5/STOP.c ****     /* `#END` */
 165:.\Generated_Source\PSoC5/STOP.c **** }
 166:.\Generated_Source\PSoC5/STOP.c **** 
 167:.\Generated_Source\PSoC5/STOP.c **** 
 168:.\Generated_Source\PSoC5/STOP.c **** /*******************************************************************************
 169:.\Generated_Source\PSoC5/STOP.c **** * Function Name: STOP_SetVector
 170:.\Generated_Source\PSoC5/STOP.c **** ********************************************************************************
 171:.\Generated_Source\PSoC5/STOP.c **** *
 172:.\Generated_Source\PSoC5/STOP.c **** * Summary:
 173:.\Generated_Source\PSoC5/STOP.c **** *   Change the ISR vector for the Interrupt. Note calling STOP_Start
 174:.\Generated_Source\PSoC5/STOP.c **** *   will override any effect this method would have had. To set the vector 
 175:.\Generated_Source\PSoC5/STOP.c **** *   before the component has been started use STOP_StartEx instead.
 176:.\Generated_Source\PSoC5/STOP.c **** * 
 177:.\Generated_Source\PSoC5/STOP.c **** *   When defining ISR functions, the CY_ISR and CY_ISR_PROTO macros should be 
ARM GAS  C:\Users\JohnP\AppData\Local\Temp\ccoqyWui.s 			page 5


 178:.\Generated_Source\PSoC5/STOP.c **** *   used to provide consistent definition across compilers:
 179:.\Generated_Source\PSoC5/STOP.c **** *
 180:.\Generated_Source\PSoC5/STOP.c **** *   Function definition example:
 181:.\Generated_Source\PSoC5/STOP.c **** *   CY_ISR(MyISR)
 182:.\Generated_Source\PSoC5/STOP.c **** *   {
 183:.\Generated_Source\PSoC5/STOP.c **** *   }
 184:.\Generated_Source\PSoC5/STOP.c **** *
 185:.\Generated_Source\PSoC5/STOP.c **** *   Function prototype example:
 186:.\Generated_Source\PSoC5/STOP.c **** *     CY_ISR_PROTO(MyISR);
 187:.\Generated_Source\PSoC5/STOP.c **** *
 188:.\Generated_Source\PSoC5/STOP.c **** * Parameters:
 189:.\Generated_Source\PSoC5/STOP.c **** *   address: Address of the ISR to set in the interrupt vector table.
 190:.\Generated_Source\PSoC5/STOP.c **** *
 191:.\Generated_Source\PSoC5/STOP.c **** * Return:
 192:.\Generated_Source\PSoC5/STOP.c **** *   None
 193:.\Generated_Source\PSoC5/STOP.c **** *
 194:.\Generated_Source\PSoC5/STOP.c **** *******************************************************************************/
 195:.\Generated_Source\PSoC5/STOP.c **** void STOP_SetVector(cyisraddress address)
 196:.\Generated_Source\PSoC5/STOP.c **** {
  52              		.loc 1 196 0
  53              		.cfi_startproc
  54              		@ args = 0, pretend = 0, frame = 0
  55              		@ frame_needed = 0, uses_anonymous_args = 0
  56              		@ link register save eliminated.
  57              	.LVL0:
 197:.\Generated_Source\PSoC5/STOP.c ****     cyisraddress * ramVectorTable;
 198:.\Generated_Source\PSoC5/STOP.c **** 
 199:.\Generated_Source\PSoC5/STOP.c ****     ramVectorTable = (cyisraddress *) *CYINT_VECT_TABLE;
  58              		.loc 1 199 0
  59 0000 014B     		ldr	r3, .L5
  60 0002 1B68     		ldr	r3, [r3]
  61              	.LVL1:
 200:.\Generated_Source\PSoC5/STOP.c **** 
 201:.\Generated_Source\PSoC5/STOP.c ****     ramVectorTable[CYINT_IRQ_BASE + (uint32)STOP__INTC_NUMBER] = address;
  62              		.loc 1 201 0
  63 0004 5864     		str	r0, [r3, #68]
  64 0006 7047     		bx	lr
  65              	.L6:
  66              		.align	2
  67              	.L5:
  68 0008 08ED00E0 		.word	-536810232
  69              		.cfi_endproc
  70              	.LFE4:
  71              		.size	STOP_SetVector, .-STOP_SetVector
  72              		.section	.text.STOP_GetVector,"ax",%progbits
  73              		.align	2
  74              		.global	STOP_GetVector
  75              		.thumb
  76              		.thumb_func
  77              		.type	STOP_GetVector, %function
  78              	STOP_GetVector:
  79              	.LFB5:
 202:.\Generated_Source\PSoC5/STOP.c **** }
 203:.\Generated_Source\PSoC5/STOP.c **** 
 204:.\Generated_Source\PSoC5/STOP.c **** 
 205:.\Generated_Source\PSoC5/STOP.c **** /*******************************************************************************
 206:.\Generated_Source\PSoC5/STOP.c **** * Function Name: STOP_GetVector
ARM GAS  C:\Users\JohnP\AppData\Local\Temp\ccoqyWui.s 			page 6


 207:.\Generated_Source\PSoC5/STOP.c **** ********************************************************************************
 208:.\Generated_Source\PSoC5/STOP.c **** *
 209:.\Generated_Source\PSoC5/STOP.c **** * Summary:
 210:.\Generated_Source\PSoC5/STOP.c **** *   Gets the "address" of the current ISR vector for the Interrupt.
 211:.\Generated_Source\PSoC5/STOP.c **** *
 212:.\Generated_Source\PSoC5/STOP.c **** * Parameters:
 213:.\Generated_Source\PSoC5/STOP.c **** *   None
 214:.\Generated_Source\PSoC5/STOP.c **** *
 215:.\Generated_Source\PSoC5/STOP.c **** * Return:
 216:.\Generated_Source\PSoC5/STOP.c **** *   Address of the ISR in the interrupt vector table.
 217:.\Generated_Source\PSoC5/STOP.c **** *
 218:.\Generated_Source\PSoC5/STOP.c **** *******************************************************************************/
 219:.\Generated_Source\PSoC5/STOP.c **** cyisraddress STOP_GetVector(void)
 220:.\Generated_Source\PSoC5/STOP.c **** {
  80              		.loc 1 220 0
  81              		.cfi_startproc
  82              		@ args = 0, pretend = 0, frame = 0
  83              		@ frame_needed = 0, uses_anonymous_args = 0
  84              		@ link register save eliminated.
 221:.\Generated_Source\PSoC5/STOP.c ****     cyisraddress * ramVectorTable;
 222:.\Generated_Source\PSoC5/STOP.c **** 
 223:.\Generated_Source\PSoC5/STOP.c ****     ramVectorTable = (cyisraddress *) *CYINT_VECT_TABLE;
  85              		.loc 1 223 0
  86 0000 014B     		ldr	r3, .L8
  87 0002 1B68     		ldr	r3, [r3]
  88              	.LVL2:
 224:.\Generated_Source\PSoC5/STOP.c **** 
 225:.\Generated_Source\PSoC5/STOP.c ****     return ramVectorTable[CYINT_IRQ_BASE + (uint32)STOP__INTC_NUMBER];
 226:.\Generated_Source\PSoC5/STOP.c **** }
  89              		.loc 1 226 0
  90 0004 586C     		ldr	r0, [r3, #68]
  91 0006 7047     		bx	lr
  92              	.L9:
  93              		.align	2
  94              	.L8:
  95 0008 08ED00E0 		.word	-536810232
  96              		.cfi_endproc
  97              	.LFE5:
  98              		.size	STOP_GetVector, .-STOP_GetVector
  99              		.section	.text.STOP_SetPriority,"ax",%progbits
 100              		.align	2
 101              		.global	STOP_SetPriority
 102              		.thumb
 103              		.thumb_func
 104              		.type	STOP_SetPriority, %function
 105              	STOP_SetPriority:
 106              	.LFB6:
 227:.\Generated_Source\PSoC5/STOP.c **** 
 228:.\Generated_Source\PSoC5/STOP.c **** 
 229:.\Generated_Source\PSoC5/STOP.c **** /*******************************************************************************
 230:.\Generated_Source\PSoC5/STOP.c **** * Function Name: STOP_SetPriority
 231:.\Generated_Source\PSoC5/STOP.c **** ********************************************************************************
 232:.\Generated_Source\PSoC5/STOP.c **** *
 233:.\Generated_Source\PSoC5/STOP.c **** * Summary:
 234:.\Generated_Source\PSoC5/STOP.c **** *   Sets the Priority of the Interrupt. 
 235:.\Generated_Source\PSoC5/STOP.c **** *
 236:.\Generated_Source\PSoC5/STOP.c **** *   Note calling STOP_Start or STOP_StartEx will 
ARM GAS  C:\Users\JohnP\AppData\Local\Temp\ccoqyWui.s 			page 7


 237:.\Generated_Source\PSoC5/STOP.c **** *   override any effect this API would have had. This API should only be called
 238:.\Generated_Source\PSoC5/STOP.c **** *   after STOP_Start or STOP_StartEx has been called. 
 239:.\Generated_Source\PSoC5/STOP.c **** *   To set the initial priority for the component, use the Design-Wide Resources
 240:.\Generated_Source\PSoC5/STOP.c **** *   Interrupt Editor.
 241:.\Generated_Source\PSoC5/STOP.c **** *
 242:.\Generated_Source\PSoC5/STOP.c **** *   Note This API has no effect on Non-maskable interrupt NMI).
 243:.\Generated_Source\PSoC5/STOP.c **** *
 244:.\Generated_Source\PSoC5/STOP.c **** * Parameters:
 245:.\Generated_Source\PSoC5/STOP.c **** *   priority: Priority of the interrupt, 0 being the highest priority
 246:.\Generated_Source\PSoC5/STOP.c **** *             PSoC 3 and PSoC 5LP: Priority is from 0 to 7.
 247:.\Generated_Source\PSoC5/STOP.c **** *             PSoC 4: Priority is from 0 to 3.
 248:.\Generated_Source\PSoC5/STOP.c **** *
 249:.\Generated_Source\PSoC5/STOP.c **** * Return:
 250:.\Generated_Source\PSoC5/STOP.c **** *   None
 251:.\Generated_Source\PSoC5/STOP.c **** *
 252:.\Generated_Source\PSoC5/STOP.c **** *******************************************************************************/
 253:.\Generated_Source\PSoC5/STOP.c **** void STOP_SetPriority(uint8 priority)
 254:.\Generated_Source\PSoC5/STOP.c **** {
 107              		.loc 1 254 0
 108              		.cfi_startproc
 109              		@ args = 0, pretend = 0, frame = 0
 110              		@ frame_needed = 0, uses_anonymous_args = 0
 111              		@ link register save eliminated.
 112              	.LVL3:
 255:.\Generated_Source\PSoC5/STOP.c ****     *STOP_INTC_PRIOR = priority << 5;
 113              		.loc 1 255 0
 114 0000 4001     		lsls	r0, r0, #5
 115              	.LVL4:
 116 0002 C0B2     		uxtb	r0, r0
 117 0004 014B     		ldr	r3, .L11
 118 0006 1870     		strb	r0, [r3]
 119 0008 7047     		bx	lr
 120              	.L12:
 121 000a 00BF     		.align	2
 122              	.L11:
 123 000c 01E400E0 		.word	-536812543
 124              		.cfi_endproc
 125              	.LFE6:
 126              		.size	STOP_SetPriority, .-STOP_SetPriority
 127              		.section	.text.STOP_GetPriority,"ax",%progbits
 128              		.align	2
 129              		.global	STOP_GetPriority
 130              		.thumb
 131              		.thumb_func
 132              		.type	STOP_GetPriority, %function
 133              	STOP_GetPriority:
 134              	.LFB7:
 256:.\Generated_Source\PSoC5/STOP.c **** }
 257:.\Generated_Source\PSoC5/STOP.c **** 
 258:.\Generated_Source\PSoC5/STOP.c **** 
 259:.\Generated_Source\PSoC5/STOP.c **** /*******************************************************************************
 260:.\Generated_Source\PSoC5/STOP.c **** * Function Name: STOP_GetPriority
 261:.\Generated_Source\PSoC5/STOP.c **** ********************************************************************************
 262:.\Generated_Source\PSoC5/STOP.c **** *
 263:.\Generated_Source\PSoC5/STOP.c **** * Summary:
 264:.\Generated_Source\PSoC5/STOP.c **** *   Gets the Priority of the Interrupt.
 265:.\Generated_Source\PSoC5/STOP.c **** *
ARM GAS  C:\Users\JohnP\AppData\Local\Temp\ccoqyWui.s 			page 8


 266:.\Generated_Source\PSoC5/STOP.c **** * Parameters:
 267:.\Generated_Source\PSoC5/STOP.c **** *   None
 268:.\Generated_Source\PSoC5/STOP.c **** *
 269:.\Generated_Source\PSoC5/STOP.c **** * Return:
 270:.\Generated_Source\PSoC5/STOP.c **** *   Priority of the interrupt, 0 being the highest priority
 271:.\Generated_Source\PSoC5/STOP.c **** *    PSoC 3 and PSoC 5LP: Priority is from 0 to 7.
 272:.\Generated_Source\PSoC5/STOP.c **** *    PSoC 4: Priority is from 0 to 3.
 273:.\Generated_Source\PSoC5/STOP.c **** *
 274:.\Generated_Source\PSoC5/STOP.c **** *******************************************************************************/
 275:.\Generated_Source\PSoC5/STOP.c **** uint8 STOP_GetPriority(void)
 276:.\Generated_Source\PSoC5/STOP.c **** {
 135              		.loc 1 276 0
 136              		.cfi_startproc
 137              		@ args = 0, pretend = 0, frame = 0
 138              		@ frame_needed = 0, uses_anonymous_args = 0
 139              		@ link register save eliminated.
 277:.\Generated_Source\PSoC5/STOP.c ****     uint8 priority;
 278:.\Generated_Source\PSoC5/STOP.c **** 
 279:.\Generated_Source\PSoC5/STOP.c **** 
 280:.\Generated_Source\PSoC5/STOP.c ****     priority = *STOP_INTC_PRIOR >> 5;
 140              		.loc 1 280 0
 141 0000 014B     		ldr	r3, .L14
 142 0002 1878     		ldrb	r0, [r3]	@ zero_extendqisi2
 143              	.LVL5:
 281:.\Generated_Source\PSoC5/STOP.c **** 
 282:.\Generated_Source\PSoC5/STOP.c ****     return priority;
 283:.\Generated_Source\PSoC5/STOP.c **** }
 144              		.loc 1 283 0
 145 0004 4009     		lsrs	r0, r0, #5
 146              	.LVL6:
 147 0006 7047     		bx	lr
 148              	.L15:
 149              		.align	2
 150              	.L14:
 151 0008 01E400E0 		.word	-536812543
 152              		.cfi_endproc
 153              	.LFE7:
 154              		.size	STOP_GetPriority, .-STOP_GetPriority
 155              		.section	.text.STOP_Enable,"ax",%progbits
 156              		.align	2
 157              		.global	STOP_Enable
 158              		.thumb
 159              		.thumb_func
 160              		.type	STOP_Enable, %function
 161              	STOP_Enable:
 162              	.LFB8:
 284:.\Generated_Source\PSoC5/STOP.c **** 
 285:.\Generated_Source\PSoC5/STOP.c **** 
 286:.\Generated_Source\PSoC5/STOP.c **** /*******************************************************************************
 287:.\Generated_Source\PSoC5/STOP.c **** * Function Name: STOP_Enable
 288:.\Generated_Source\PSoC5/STOP.c **** ********************************************************************************
 289:.\Generated_Source\PSoC5/STOP.c **** *
 290:.\Generated_Source\PSoC5/STOP.c **** * Summary:
 291:.\Generated_Source\PSoC5/STOP.c **** *   Enables the interrupt to the interrupt controller. Do not call this function
 292:.\Generated_Source\PSoC5/STOP.c **** *   unless ISR_Start() has been called or the functionality of the ISR_Start() 
 293:.\Generated_Source\PSoC5/STOP.c **** *   function, which sets the vector and the priority, has been called.
 294:.\Generated_Source\PSoC5/STOP.c **** *
ARM GAS  C:\Users\JohnP\AppData\Local\Temp\ccoqyWui.s 			page 9


 295:.\Generated_Source\PSoC5/STOP.c **** * Parameters:
 296:.\Generated_Source\PSoC5/STOP.c **** *   None
 297:.\Generated_Source\PSoC5/STOP.c **** *
 298:.\Generated_Source\PSoC5/STOP.c **** * Return:
 299:.\Generated_Source\PSoC5/STOP.c **** *   None
 300:.\Generated_Source\PSoC5/STOP.c **** *
 301:.\Generated_Source\PSoC5/STOP.c **** *******************************************************************************/
 302:.\Generated_Source\PSoC5/STOP.c **** void STOP_Enable(void)
 303:.\Generated_Source\PSoC5/STOP.c **** {
 163              		.loc 1 303 0
 164              		.cfi_startproc
 165              		@ args = 0, pretend = 0, frame = 0
 166              		@ frame_needed = 0, uses_anonymous_args = 0
 167              		@ link register save eliminated.
 304:.\Generated_Source\PSoC5/STOP.c ****     /* Enable the general interrupt. */
 305:.\Generated_Source\PSoC5/STOP.c ****     *STOP_INTC_SET_EN = STOP__INTC_MASK;
 168              		.loc 1 305 0
 169 0000 0222     		movs	r2, #2
 170 0002 014B     		ldr	r3, .L17
 171 0004 1A60     		str	r2, [r3]
 172 0006 7047     		bx	lr
 173              	.L18:
 174              		.align	2
 175              	.L17:
 176 0008 00E100E0 		.word	-536813312
 177              		.cfi_endproc
 178              	.LFE8:
 179              		.size	STOP_Enable, .-STOP_Enable
 180              		.section	.text.STOP_GetState,"ax",%progbits
 181              		.align	2
 182              		.global	STOP_GetState
 183              		.thumb
 184              		.thumb_func
 185              		.type	STOP_GetState, %function
 186              	STOP_GetState:
 187              	.LFB9:
 306:.\Generated_Source\PSoC5/STOP.c **** }
 307:.\Generated_Source\PSoC5/STOP.c **** 
 308:.\Generated_Source\PSoC5/STOP.c **** 
 309:.\Generated_Source\PSoC5/STOP.c **** /*******************************************************************************
 310:.\Generated_Source\PSoC5/STOP.c **** * Function Name: STOP_GetState
 311:.\Generated_Source\PSoC5/STOP.c **** ********************************************************************************
 312:.\Generated_Source\PSoC5/STOP.c **** *
 313:.\Generated_Source\PSoC5/STOP.c **** * Summary:
 314:.\Generated_Source\PSoC5/STOP.c **** *   Gets the state (enabled, disabled) of the Interrupt.
 315:.\Generated_Source\PSoC5/STOP.c **** *
 316:.\Generated_Source\PSoC5/STOP.c **** * Parameters:
 317:.\Generated_Source\PSoC5/STOP.c **** *   None
 318:.\Generated_Source\PSoC5/STOP.c **** *
 319:.\Generated_Source\PSoC5/STOP.c **** * Return:
 320:.\Generated_Source\PSoC5/STOP.c **** *   1 if enabled, 0 if disabled.
 321:.\Generated_Source\PSoC5/STOP.c **** *
 322:.\Generated_Source\PSoC5/STOP.c **** *******************************************************************************/
 323:.\Generated_Source\PSoC5/STOP.c **** uint8 STOP_GetState(void)
 324:.\Generated_Source\PSoC5/STOP.c **** {
 188              		.loc 1 324 0
 189              		.cfi_startproc
ARM GAS  C:\Users\JohnP\AppData\Local\Temp\ccoqyWui.s 			page 10


 190              		@ args = 0, pretend = 0, frame = 0
 191              		@ frame_needed = 0, uses_anonymous_args = 0
 192              		@ link register save eliminated.
 325:.\Generated_Source\PSoC5/STOP.c ****     /* Get the state of the general interrupt. */
 326:.\Generated_Source\PSoC5/STOP.c ****     return ((*STOP_INTC_SET_EN & (uint32)STOP__INTC_MASK) != 0u) ? 1u:0u;
 193              		.loc 1 326 0
 194 0000 044B     		ldr	r3, .L22
 195 0002 1B68     		ldr	r3, [r3]
 196 0004 13F0020F 		tst	r3, #2
 197 0008 01D0     		beq	.L21
 198 000a 0120     		movs	r0, #1
 199 000c 7047     		bx	lr
 200              	.L21:
 201 000e 0020     		movs	r0, #0
 327:.\Generated_Source\PSoC5/STOP.c **** }
 202              		.loc 1 327 0
 203 0010 7047     		bx	lr
 204              	.L23:
 205 0012 00BF     		.align	2
 206              	.L22:
 207 0014 00E100E0 		.word	-536813312
 208              		.cfi_endproc
 209              	.LFE9:
 210              		.size	STOP_GetState, .-STOP_GetState
 211              		.section	.text.STOP_Disable,"ax",%progbits
 212              		.align	2
 213              		.global	STOP_Disable
 214              		.thumb
 215              		.thumb_func
 216              		.type	STOP_Disable, %function
 217              	STOP_Disable:
 218              	.LFB10:
 328:.\Generated_Source\PSoC5/STOP.c **** 
 329:.\Generated_Source\PSoC5/STOP.c **** 
 330:.\Generated_Source\PSoC5/STOP.c **** /*******************************************************************************
 331:.\Generated_Source\PSoC5/STOP.c **** * Function Name: STOP_Disable
 332:.\Generated_Source\PSoC5/STOP.c **** ********************************************************************************
 333:.\Generated_Source\PSoC5/STOP.c **** *
 334:.\Generated_Source\PSoC5/STOP.c **** * Summary:
 335:.\Generated_Source\PSoC5/STOP.c **** *   Disables the Interrupt in the interrupt controller.
 336:.\Generated_Source\PSoC5/STOP.c **** *
 337:.\Generated_Source\PSoC5/STOP.c **** * Parameters:
 338:.\Generated_Source\PSoC5/STOP.c **** *   None
 339:.\Generated_Source\PSoC5/STOP.c **** *
 340:.\Generated_Source\PSoC5/STOP.c **** * Return:
 341:.\Generated_Source\PSoC5/STOP.c **** *   None
 342:.\Generated_Source\PSoC5/STOP.c **** *
 343:.\Generated_Source\PSoC5/STOP.c **** *******************************************************************************/
 344:.\Generated_Source\PSoC5/STOP.c **** void STOP_Disable(void)
 345:.\Generated_Source\PSoC5/STOP.c **** {
 219              		.loc 1 345 0
 220              		.cfi_startproc
 221              		@ args = 0, pretend = 0, frame = 0
 222              		@ frame_needed = 0, uses_anonymous_args = 0
 223              		@ link register save eliminated.
 346:.\Generated_Source\PSoC5/STOP.c ****     /* Disable the general interrupt. */
 347:.\Generated_Source\PSoC5/STOP.c ****     *STOP_INTC_CLR_EN = STOP__INTC_MASK;
ARM GAS  C:\Users\JohnP\AppData\Local\Temp\ccoqyWui.s 			page 11


 224              		.loc 1 347 0
 225 0000 0222     		movs	r2, #2
 226 0002 014B     		ldr	r3, .L25
 227 0004 1A60     		str	r2, [r3]
 228 0006 7047     		bx	lr
 229              	.L26:
 230              		.align	2
 231              	.L25:
 232 0008 80E100E0 		.word	-536813184
 233              		.cfi_endproc
 234              	.LFE10:
 235              		.size	STOP_Disable, .-STOP_Disable
 236              		.section	.text.STOP_Start,"ax",%progbits
 237              		.align	2
 238              		.global	STOP_Start
 239              		.thumb
 240              		.thumb_func
 241              		.type	STOP_Start, %function
 242              	STOP_Start:
 243              	.LFB0:
  61:.\Generated_Source\PSoC5/STOP.c **** {
 244              		.loc 1 61 0
 245              		.cfi_startproc
 246              		@ args = 0, pretend = 0, frame = 0
 247              		@ frame_needed = 0, uses_anonymous_args = 0
 248 0000 08B5     		push	{r3, lr}
 249              		.cfi_def_cfa_offset 8
 250              		.cfi_offset 3, -8
 251              		.cfi_offset 14, -4
  63:.\Generated_Source\PSoC5/STOP.c ****     STOP_Disable();
 252              		.loc 1 63 0
 253 0002 FFF7FEFF 		bl	STOP_Disable
 254              	.LVL7:
  66:.\Generated_Source\PSoC5/STOP.c ****     STOP_SetVector(&STOP_Interrupt);
 255              		.loc 1 66 0
 256 0006 0448     		ldr	r0, .L28
 257 0008 FFF7FEFF 		bl	STOP_SetVector
 258              	.LVL8:
  69:.\Generated_Source\PSoC5/STOP.c ****     STOP_SetPriority((uint8)STOP_INTC_PRIOR_NUMBER);
 259              		.loc 1 69 0
 260 000c 0720     		movs	r0, #7
 261 000e FFF7FEFF 		bl	STOP_SetPriority
 262              	.LVL9:
  72:.\Generated_Source\PSoC5/STOP.c ****     STOP_Enable();
 263              		.loc 1 72 0
 264 0012 FFF7FEFF 		bl	STOP_Enable
 265              	.LVL10:
 266 0016 08BD     		pop	{r3, pc}
 267              	.L29:
 268              		.align	2
 269              	.L28:
 270 0018 00000000 		.word	STOP_Interrupt
 271              		.cfi_endproc
 272              	.LFE0:
 273              		.size	STOP_Start, .-STOP_Start
 274              		.section	.text.STOP_StartEx,"ax",%progbits
 275              		.align	2
ARM GAS  C:\Users\JohnP\AppData\Local\Temp\ccoqyWui.s 			page 12


 276              		.global	STOP_StartEx
 277              		.thumb
 278              		.thumb_func
 279              		.type	STOP_StartEx, %function
 280              	STOP_StartEx:
 281              	.LFB1:
 104:.\Generated_Source\PSoC5/STOP.c **** {
 282              		.loc 1 104 0
 283              		.cfi_startproc
 284              		@ args = 0, pretend = 0, frame = 0
 285              		@ frame_needed = 0, uses_anonymous_args = 0
 286              	.LVL11:
 287 0000 10B5     		push	{r4, lr}
 288              		.cfi_def_cfa_offset 8
 289              		.cfi_offset 4, -8
 290              		.cfi_offset 14, -4
 291 0002 0446     		mov	r4, r0
 106:.\Generated_Source\PSoC5/STOP.c ****     STOP_Disable();
 292              		.loc 1 106 0
 293 0004 FFF7FEFF 		bl	STOP_Disable
 294              	.LVL12:
 109:.\Generated_Source\PSoC5/STOP.c ****     STOP_SetVector(address);
 295              		.loc 1 109 0
 296 0008 2046     		mov	r0, r4
 297 000a FFF7FEFF 		bl	STOP_SetVector
 298              	.LVL13:
 112:.\Generated_Source\PSoC5/STOP.c ****     STOP_SetPriority((uint8)STOP_INTC_PRIOR_NUMBER);
 299              		.loc 1 112 0
 300 000e 0720     		movs	r0, #7
 301 0010 FFF7FEFF 		bl	STOP_SetPriority
 302              	.LVL14:
 115:.\Generated_Source\PSoC5/STOP.c ****     STOP_Enable();
 303              		.loc 1 115 0
 304 0014 FFF7FEFF 		bl	STOP_Enable
 305              	.LVL15:
 306 0018 10BD     		pop	{r4, pc}
 307              		.cfi_endproc
 308              	.LFE1:
 309              		.size	STOP_StartEx, .-STOP_StartEx
 310 001a 00BF     		.section	.text.STOP_Stop,"ax",%progbits
 311              		.align	2
 312              		.global	STOP_Stop
 313              		.thumb
 314              		.thumb_func
 315              		.type	STOP_Stop, %function
 316              	STOP_Stop:
 317              	.LFB2:
 134:.\Generated_Source\PSoC5/STOP.c **** {
 318              		.loc 1 134 0
 319              		.cfi_startproc
 320              		@ args = 0, pretend = 0, frame = 0
 321              		@ frame_needed = 0, uses_anonymous_args = 0
 322 0000 08B5     		push	{r3, lr}
 323              		.cfi_def_cfa_offset 8
 324              		.cfi_offset 3, -8
 325              		.cfi_offset 14, -4
 136:.\Generated_Source\PSoC5/STOP.c ****     STOP_Disable();
ARM GAS  C:\Users\JohnP\AppData\Local\Temp\ccoqyWui.s 			page 13


 326              		.loc 1 136 0
 327 0002 FFF7FEFF 		bl	STOP_Disable
 328              	.LVL16:
 139:.\Generated_Source\PSoC5/STOP.c ****     STOP_SetVector(&IntDefaultHandler);
 329              		.loc 1 139 0
 330 0006 0248     		ldr	r0, .L32
 331 0008 FFF7FEFF 		bl	STOP_SetVector
 332              	.LVL17:
 333 000c 08BD     		pop	{r3, pc}
 334              	.L33:
 335 000e 00BF     		.align	2
 336              	.L32:
 337 0010 00000000 		.word	IntDefaultHandler
 338              		.cfi_endproc
 339              	.LFE2:
 340              		.size	STOP_Stop, .-STOP_Stop
 341              		.section	.text.STOP_SetPending,"ax",%progbits
 342              		.align	2
 343              		.global	STOP_SetPending
 344              		.thumb
 345              		.thumb_func
 346              		.type	STOP_SetPending, %function
 347              	STOP_SetPending:
 348              	.LFB11:
 348:.\Generated_Source\PSoC5/STOP.c **** }
 349:.\Generated_Source\PSoC5/STOP.c **** 
 350:.\Generated_Source\PSoC5/STOP.c **** 
 351:.\Generated_Source\PSoC5/STOP.c **** /*******************************************************************************
 352:.\Generated_Source\PSoC5/STOP.c **** * Function Name: STOP_SetPending
 353:.\Generated_Source\PSoC5/STOP.c **** ********************************************************************************
 354:.\Generated_Source\PSoC5/STOP.c **** *
 355:.\Generated_Source\PSoC5/STOP.c **** * Summary:
 356:.\Generated_Source\PSoC5/STOP.c **** *   Causes the Interrupt to enter the pending state, a software method of
 357:.\Generated_Source\PSoC5/STOP.c **** *   generating the interrupt.
 358:.\Generated_Source\PSoC5/STOP.c **** *
 359:.\Generated_Source\PSoC5/STOP.c **** * Parameters:
 360:.\Generated_Source\PSoC5/STOP.c **** *   None
 361:.\Generated_Source\PSoC5/STOP.c **** *
 362:.\Generated_Source\PSoC5/STOP.c **** * Return:
 363:.\Generated_Source\PSoC5/STOP.c **** *   None
 364:.\Generated_Source\PSoC5/STOP.c **** *
 365:.\Generated_Source\PSoC5/STOP.c **** * Side Effects:
 366:.\Generated_Source\PSoC5/STOP.c **** *   If interrupts are enabled and the interrupt is set up properly, the ISR is
 367:.\Generated_Source\PSoC5/STOP.c **** *   entered (depending on the priority of this interrupt and other pending 
 368:.\Generated_Source\PSoC5/STOP.c **** *   interrupts).
 369:.\Generated_Source\PSoC5/STOP.c **** *
 370:.\Generated_Source\PSoC5/STOP.c **** *******************************************************************************/
 371:.\Generated_Source\PSoC5/STOP.c **** void STOP_SetPending(void)
 372:.\Generated_Source\PSoC5/STOP.c **** {
 349              		.loc 1 372 0
 350              		.cfi_startproc
 351              		@ args = 0, pretend = 0, frame = 0
 352              		@ frame_needed = 0, uses_anonymous_args = 0
 353              		@ link register save eliminated.
 373:.\Generated_Source\PSoC5/STOP.c ****     *STOP_INTC_SET_PD = STOP__INTC_MASK;
 354              		.loc 1 373 0
 355 0000 0222     		movs	r2, #2
ARM GAS  C:\Users\JohnP\AppData\Local\Temp\ccoqyWui.s 			page 14


 356 0002 014B     		ldr	r3, .L35
 357 0004 1A60     		str	r2, [r3]
 358 0006 7047     		bx	lr
 359              	.L36:
 360              		.align	2
 361              	.L35:
 362 0008 00E200E0 		.word	-536813056
 363              		.cfi_endproc
 364              	.LFE11:
 365              		.size	STOP_SetPending, .-STOP_SetPending
 366              		.section	.text.STOP_ClearPending,"ax",%progbits
 367              		.align	2
 368              		.global	STOP_ClearPending
 369              		.thumb
 370              		.thumb_func
 371              		.type	STOP_ClearPending, %function
 372              	STOP_ClearPending:
 373              	.LFB12:
 374:.\Generated_Source\PSoC5/STOP.c **** }
 375:.\Generated_Source\PSoC5/STOP.c **** 
 376:.\Generated_Source\PSoC5/STOP.c **** 
 377:.\Generated_Source\PSoC5/STOP.c **** /*******************************************************************************
 378:.\Generated_Source\PSoC5/STOP.c **** * Function Name: STOP_ClearPending
 379:.\Generated_Source\PSoC5/STOP.c **** ********************************************************************************
 380:.\Generated_Source\PSoC5/STOP.c **** *
 381:.\Generated_Source\PSoC5/STOP.c **** * Summary:
 382:.\Generated_Source\PSoC5/STOP.c **** *   Clears a pending interrupt in the interrupt controller.
 383:.\Generated_Source\PSoC5/STOP.c **** *
 384:.\Generated_Source\PSoC5/STOP.c **** *   Note Some interrupt sources are clear-on-read and require the block 
 385:.\Generated_Source\PSoC5/STOP.c **** *   interrupt/status register to be read/cleared with the appropriate block API 
 386:.\Generated_Source\PSoC5/STOP.c **** *   (GPIO, UART, and so on). Otherwise the ISR will continue to remain in 
 387:.\Generated_Source\PSoC5/STOP.c **** *   pending state even though the interrupt itself is cleared using this API.
 388:.\Generated_Source\PSoC5/STOP.c **** *
 389:.\Generated_Source\PSoC5/STOP.c **** * Parameters:
 390:.\Generated_Source\PSoC5/STOP.c **** *   None
 391:.\Generated_Source\PSoC5/STOP.c **** *
 392:.\Generated_Source\PSoC5/STOP.c **** * Return:
 393:.\Generated_Source\PSoC5/STOP.c **** *   None
 394:.\Generated_Source\PSoC5/STOP.c **** *
 395:.\Generated_Source\PSoC5/STOP.c **** *******************************************************************************/
 396:.\Generated_Source\PSoC5/STOP.c **** void STOP_ClearPending(void)
 397:.\Generated_Source\PSoC5/STOP.c **** {
 374              		.loc 1 397 0
 375              		.cfi_startproc
 376              		@ args = 0, pretend = 0, frame = 0
 377              		@ frame_needed = 0, uses_anonymous_args = 0
 378              		@ link register save eliminated.
 398:.\Generated_Source\PSoC5/STOP.c ****     *STOP_INTC_CLR_PD = STOP__INTC_MASK;
 379              		.loc 1 398 0
 380 0000 0222     		movs	r2, #2
 381 0002 014B     		ldr	r3, .L38
 382 0004 1A60     		str	r2, [r3]
 383 0006 7047     		bx	lr
 384              	.L39:
 385              		.align	2
 386              	.L38:
 387 0008 80E200E0 		.word	-536812928
ARM GAS  C:\Users\JohnP\AppData\Local\Temp\ccoqyWui.s 			page 15


 388              		.cfi_endproc
 389              	.LFE12:
 390              		.size	STOP_ClearPending, .-STOP_ClearPending
 391              		.comm	timer_value,4,4
 392              		.comm	timer_status,4,4
 393              		.comm	heartbeatCounter,4,4
 394              		.comm	heartrate,4,4
 395              		.comm	speed,4,4
 396              		.comm	Prev_state,4,4
 397              		.comm	currentState,4,4
 398              		.comm	PROFILE,4,4
 399              		.comm	increasingHr,4,4
 400              		.comm	average,4,4
 401              		.text
 402              	.Letext0:
 403              		.file 2 "Generated_Source\\PSoC5/cytypes.h"
 404              		.file 3 "./states.h"
 405              		.file 4 "./heartrate.h"
 406              		.file 5 "./motor.h"