ARM GAS  C:\Users\JohnP\AppData\Local\Temp\cczMLUdb.s 			page 1


   1              		.syntax unified
   2              		.cpu cortex-m3
   3              		.fpu softvfp
   4              		.eabi_attribute 20, 1
   5              		.eabi_attribute 21, 1
   6              		.eabi_attribute 23, 3
   7              		.eabi_attribute 24, 1
   8              		.eabi_attribute 25, 1
   9              		.eabi_attribute 26, 1
  10              		.eabi_attribute 30, 1
  11              		.eabi_attribute 34, 1
  12              		.eabi_attribute 18, 4
  13              		.thumb
  14              		.file	"terminal.c"
  15              		.text
  16              	.Ltext0:
  17              		.cfi_sections	.debug_frame
  18              		.section	.text.TERMINAL_WriteString,"ax",%progbits
  19              		.align	2
  20              		.global	TERMINAL_WriteString
  21              		.thumb
  22              		.thumb_func
  23              		.type	TERMINAL_WriteString, %function
  24              	TERMINAL_WriteString:
  25              	.LFB0:
  26              		.file 1 ".\\terminal.c"
   1:.\terminal.c  **** /* ========================================
   2:.\terminal.c  ****  *
   3:.\terminal.c  ****  * Copyright YOUR COMPANY, THE YEAR
   4:.\terminal.c  ****  * All Rights Reserved
   5:.\terminal.c  ****  * UNPUBLISHED, LICENSED SOFTWARE.
   6:.\terminal.c  ****  *
   7:.\terminal.c  ****  * CONFIDENTIAL AND PROPRIETARY INFORMATION
   8:.\terminal.c  ****  * WHICH IS THE PROPERTY OF your company.
   9:.\terminal.c  ****  *
  10:.\terminal.c  ****  * ========================================
  11:.\terminal.c  **** */
  12:.\terminal.c  **** #include "terminal.h"
  13:.\terminal.c  **** 
  14:.\terminal.c  **** void TERMINAL_WriteString(const char8 string[]) {
  27              		.loc 1 14 0
  28              		.cfi_startproc
  29              		@ args = 0, pretend = 0, frame = 0
  30              		@ frame_needed = 0, uses_anonymous_args = 0
  31              	.LVL0:
  32 0000 10B5     		push	{r4, lr}
  33              		.cfi_def_cfa_offset 8
  34              		.cfi_offset 4, -8
  35              		.cfi_offset 14, -4
  36 0002 0446     		mov	r4, r0
  37              	.LVL1:
  38              	.L2:
  15:.\terminal.c  ****     while(USBUART_CDCIsReady() == 0);
  39              		.loc 1 15 0 discriminator 1
  40 0004 FFF7FEFF 		bl	USBUART_CDCIsReady
  41              	.LVL2:
  42 0008 0028     		cmp	r0, #0
ARM GAS  C:\Users\JohnP\AppData\Local\Temp\cczMLUdb.s 			page 2


  43 000a FBD0     		beq	.L2
  16:.\terminal.c  ****     USBUART_PutString(string);
  44              		.loc 1 16 0
  45 000c 2046     		mov	r0, r4
  46 000e FFF7FEFF 		bl	USBUART_PutString
  47              	.LVL3:
  48 0012 10BD     		pop	{r4, pc}
  49              		.cfi_endproc
  50              	.LFE0:
  51              		.size	TERMINAL_WriteString, .-TERMINAL_WriteString
  52              		.global	__aeabi_f2iz
  53              		.section	.text.TERMINAL_WriteNumber,"ax",%progbits
  54              		.align	2
  55              		.global	TERMINAL_WriteNumber
  56              		.thumb
  57              		.thumb_func
  58              		.type	TERMINAL_WriteNumber, %function
  59              	TERMINAL_WriteNumber:
  60              	.LFB1:
  17:.\terminal.c  **** }
  18:.\terminal.c  **** 
  19:.\terminal.c  **** void TERMINAL_WriteNumber(float number) {
  61              		.loc 1 19 0
  62              		.cfi_startproc
  63              		@ args = 0, pretend = 0, frame = 56
  64              		@ frame_needed = 0, uses_anonymous_args = 0
  65              	.LVL4:
  66 0000 00B5     		push	{lr}
  67              		.cfi_def_cfa_offset 4
  68              		.cfi_offset 14, -4
  69 0002 8FB0     		sub	sp, sp, #60
  70              		.cfi_def_cfa_offset 64
  20:.\terminal.c  ****     char8 str2[50];
  21:.\terminal.c  ****     sprintf(str2, "Your heartrate: %i    \r",(int)number);
  71              		.loc 1 21 0
  72 0004 FFF7FEFF 		bl	__aeabi_f2iz
  73              	.LVL5:
  74 0008 0246     		mov	r2, r0
  75 000a 01A8     		add	r0, sp, #4
  76 000c 0649     		ldr	r1, .L7
  77 000e FFF7FEFF 		bl	sprintf
  78              	.LVL6:
  79              	.L5:
  22:.\terminal.c  ****     while(USBUART_CDCIsReady() == 0);
  80              		.loc 1 22 0 discriminator 1
  81 0012 FFF7FEFF 		bl	USBUART_CDCIsReady
  82              	.LVL7:
  83 0016 0028     		cmp	r0, #0
  84 0018 FBD0     		beq	.L5
  23:.\terminal.c  ****     USBUART_PutString(str2);
  85              		.loc 1 23 0
  86 001a 01A8     		add	r0, sp, #4
  87 001c FFF7FEFF 		bl	USBUART_PutString
  88              	.LVL8:
  24:.\terminal.c  **** }
  89              		.loc 1 24 0
  90 0020 0FB0     		add	sp, sp, #60
ARM GAS  C:\Users\JohnP\AppData\Local\Temp\cczMLUdb.s 			page 3


  91              		@ sp needed
  92 0022 5DF804FB 		ldr	pc, [sp], #4
  93              	.L8:
  94 0026 00BF     		.align	2
  95              	.L7:
  96 0028 00000000 		.word	.LC0
  97              		.cfi_endproc
  98              	.LFE1:
  99              		.size	TERMINAL_WriteNumber, .-TERMINAL_WriteNumber
 100              		.comm	timer_value,4,4
 101              		.comm	timer_status,4,4
 102              		.comm	heartbeatCounter,4,4
 103              		.comm	heartrate,4,4
 104              		.comm	speed,4,4
 105              		.comm	Prev_state,4,4
 106              		.comm	currentState,4,4
 107              		.comm	PROFILE,4,4
 108              		.comm	increasingHr,4,4
 109              		.comm	average,4,4
 110              		.section	.rodata.str1.4,"aMS",%progbits,1
 111              		.align	2
 112              	.LC0:
 113 0000 596F7572 		.ascii	"Your heartrate: %i    \015\000"
 113      20686561 
 113      72747261 
 113      74653A20 
 113      25692020 
 114              		.text
 115              	.Letext0:
 116              		.file 2 "Generated_Source\\PSoC5/cytypes.h"
 117              		.file 3 ".\\states.h"
 118              		.file 4 ".\\heartrate.h"
 119              		.file 5 ".\\motor.h"
 120              		.file 6 "c:\\program files (x86)\\cypress\\psoc creator\\3.2\\psoc creator\\import\\gnu\\arm\\4.8.