ARM GAS  C:\Users\JohnP\AppData\Local\Temp\ccgFc5FZ.s 			page 1


   1              		.syntax unified
   2              		.cpu cortex-m3
   3              		.fpu softvfp
   4              		.eabi_attribute 20, 1
   5              		.eabi_attribute 21, 1
   6              		.eabi_attribute 23, 3
   7              		.eabi_attribute 24, 1
   8              		.eabi_attribute 25, 1
   9              		.eabi_attribute 26, 1
  10              		.eabi_attribute 30, 1
  11              		.eabi_attribute 34, 1
  12              		.eabi_attribute 18, 4
  13              		.thumb
  14              		.file	"USBUART_PM.c"
  15              		.text
  16              	.Ltext0:
  17              		.cfi_sections	.debug_frame
  18              		.section	.text.USBUART_DP_ISR,"ax",%progbits
  19              		.align	2
  20              		.global	USBUART_DP_ISR
  21              		.thumb
  22              		.thumb_func
  23              		.type	USBUART_DP_ISR, %function
  24              	USBUART_DP_ISR:
  25              	.LFB63:
  26              		.file 1 ".\\Generated_Source\\PSoC5\\USBUART_PM.c"
   1:.\Generated_Source\PSoC5/USBUART_PM.c **** /*******************************************************************************
   2:.\Generated_Source\PSoC5/USBUART_PM.c **** * File Name: USBUART_pm.c
   3:.\Generated_Source\PSoC5/USBUART_PM.c **** * Version 2.80
   4:.\Generated_Source\PSoC5/USBUART_PM.c **** *
   5:.\Generated_Source\PSoC5/USBUART_PM.c **** * Description:
   6:.\Generated_Source\PSoC5/USBUART_PM.c **** *  This file provides Suspend/Resume APIs functionality.
   7:.\Generated_Source\PSoC5/USBUART_PM.c **** *
   8:.\Generated_Source\PSoC5/USBUART_PM.c **** * Note:
   9:.\Generated_Source\PSoC5/USBUART_PM.c **** *
  10:.\Generated_Source\PSoC5/USBUART_PM.c **** ********************************************************************************
  11:.\Generated_Source\PSoC5/USBUART_PM.c **** * Copyright 2008-2014, Cypress Semiconductor Corporation.  All rights reserved.
  12:.\Generated_Source\PSoC5/USBUART_PM.c **** * You may use this file only in accordance with the license, terms, conditions,
  13:.\Generated_Source\PSoC5/USBUART_PM.c **** * disclaimers, and limitations in the end user license agreement accompanying
  14:.\Generated_Source\PSoC5/USBUART_PM.c **** * the software package with which this file was provided.
  15:.\Generated_Source\PSoC5/USBUART_PM.c **** *******************************************************************************/
  16:.\Generated_Source\PSoC5/USBUART_PM.c **** 
  17:.\Generated_Source\PSoC5/USBUART_PM.c **** #include "project.h"
  18:.\Generated_Source\PSoC5/USBUART_PM.c **** #include "USBUART.h"
  19:.\Generated_Source\PSoC5/USBUART_PM.c **** #include "USBUART_pvt.h"
  20:.\Generated_Source\PSoC5/USBUART_PM.c **** 
  21:.\Generated_Source\PSoC5/USBUART_PM.c **** 
  22:.\Generated_Source\PSoC5/USBUART_PM.c **** /***************************************
  23:.\Generated_Source\PSoC5/USBUART_PM.c **** * Custom Declarations
  24:.\Generated_Source\PSoC5/USBUART_PM.c **** ***************************************/
  25:.\Generated_Source\PSoC5/USBUART_PM.c **** /* `#START PM_CUSTOM_DECLARATIONS` Place your declaration here */
  26:.\Generated_Source\PSoC5/USBUART_PM.c **** 
  27:.\Generated_Source\PSoC5/USBUART_PM.c **** /* `#END` */
  28:.\Generated_Source\PSoC5/USBUART_PM.c **** 
  29:.\Generated_Source\PSoC5/USBUART_PM.c **** 
  30:.\Generated_Source\PSoC5/USBUART_PM.c **** /***************************************
  31:.\Generated_Source\PSoC5/USBUART_PM.c **** * Local data allocation
ARM GAS  C:\Users\JohnP\AppData\Local\Temp\ccgFc5FZ.s 			page 2


  32:.\Generated_Source\PSoC5/USBUART_PM.c **** ***************************************/
  33:.\Generated_Source\PSoC5/USBUART_PM.c **** 
  34:.\Generated_Source\PSoC5/USBUART_PM.c **** static USBUART_BACKUP_STRUCT  USBUART_backup;
  35:.\Generated_Source\PSoC5/USBUART_PM.c **** 
  36:.\Generated_Source\PSoC5/USBUART_PM.c **** 
  37:.\Generated_Source\PSoC5/USBUART_PM.c **** #if(USBUART_DP_ISR_REMOVE == 0u)
  38:.\Generated_Source\PSoC5/USBUART_PM.c **** 
  39:.\Generated_Source\PSoC5/USBUART_PM.c ****     /*******************************************************************************
  40:.\Generated_Source\PSoC5/USBUART_PM.c ****     * Function Name: USBUART_DP_Interrupt
  41:.\Generated_Source\PSoC5/USBUART_PM.c ****     ********************************************************************************
  42:.\Generated_Source\PSoC5/USBUART_PM.c ****     *
  43:.\Generated_Source\PSoC5/USBUART_PM.c ****     * Summary:
  44:.\Generated_Source\PSoC5/USBUART_PM.c ****     *  This Interrupt Service Routine handles DP pin changes for wake-up from
  45:.\Generated_Source\PSoC5/USBUART_PM.c ****     *  the sleep mode.
  46:.\Generated_Source\PSoC5/USBUART_PM.c ****     *
  47:.\Generated_Source\PSoC5/USBUART_PM.c ****     * Parameters:
  48:.\Generated_Source\PSoC5/USBUART_PM.c ****     *  None.
  49:.\Generated_Source\PSoC5/USBUART_PM.c ****     *
  50:.\Generated_Source\PSoC5/USBUART_PM.c ****     * Return:
  51:.\Generated_Source\PSoC5/USBUART_PM.c ****     *  None.
  52:.\Generated_Source\PSoC5/USBUART_PM.c ****     *
  53:.\Generated_Source\PSoC5/USBUART_PM.c ****     *******************************************************************************/
  54:.\Generated_Source\PSoC5/USBUART_PM.c ****     CY_ISR(USBUART_DP_ISR)
  55:.\Generated_Source\PSoC5/USBUART_PM.c ****     {
  27              		.loc 1 55 0
  28              		.cfi_startproc
  29              		@ args = 0, pretend = 0, frame = 0
  30              		@ frame_needed = 0, uses_anonymous_args = 0
  31              		@ link register save eliminated.
  56:.\Generated_Source\PSoC5/USBUART_PM.c ****         /* `#START DP_USER_CODE` Place your code here */
  57:.\Generated_Source\PSoC5/USBUART_PM.c **** 
  58:.\Generated_Source\PSoC5/USBUART_PM.c ****         /* `#END` */
  59:.\Generated_Source\PSoC5/USBUART_PM.c **** 
  60:.\Generated_Source\PSoC5/USBUART_PM.c ****         /* Clears active interrupt */
  61:.\Generated_Source\PSoC5/USBUART_PM.c ****         CY_GET_REG8(USBUART_DP_INTSTAT_PTR);
  32              		.loc 1 61 0
  33 0000 014B     		ldr	r3, .L2
  34 0002 1B78     		ldrb	r3, [r3]	@ zero_extendqisi2
  35 0004 7047     		bx	lr
  36              	.L3:
  37 0006 00BF     		.align	2
  38              	.L2:
  39 0008 8F450040 		.word	1073759631
  40              		.cfi_endproc
  41              	.LFE63:
  42              		.size	USBUART_DP_ISR, .-USBUART_DP_ISR
  43              		.section	.text.USBUART_SaveConfig,"ax",%progbits
  44              		.align	2
  45              		.global	USBUART_SaveConfig
  46              		.thumb
  47              		.thumb_func
  48              		.type	USBUART_SaveConfig, %function
  49              	USBUART_SaveConfig:
  50              	.LFB64:
  62:.\Generated_Source\PSoC5/USBUART_PM.c ****     }
  63:.\Generated_Source\PSoC5/USBUART_PM.c **** 
  64:.\Generated_Source\PSoC5/USBUART_PM.c **** #endif /* (USBUART_DP_ISR_REMOVE == 0u) */
ARM GAS  C:\Users\JohnP\AppData\Local\Temp\ccgFc5FZ.s 			page 3


  65:.\Generated_Source\PSoC5/USBUART_PM.c **** 
  66:.\Generated_Source\PSoC5/USBUART_PM.c **** 
  67:.\Generated_Source\PSoC5/USBUART_PM.c **** /*******************************************************************************
  68:.\Generated_Source\PSoC5/USBUART_PM.c **** * Function Name: USBUART_SaveConfig
  69:.\Generated_Source\PSoC5/USBUART_PM.c **** ********************************************************************************
  70:.\Generated_Source\PSoC5/USBUART_PM.c **** *
  71:.\Generated_Source\PSoC5/USBUART_PM.c **** * Summary:
  72:.\Generated_Source\PSoC5/USBUART_PM.c **** *  Saves the current user configuration.
  73:.\Generated_Source\PSoC5/USBUART_PM.c **** *
  74:.\Generated_Source\PSoC5/USBUART_PM.c **** * Parameters:
  75:.\Generated_Source\PSoC5/USBUART_PM.c **** *  None.
  76:.\Generated_Source\PSoC5/USBUART_PM.c **** *
  77:.\Generated_Source\PSoC5/USBUART_PM.c **** * Return:
  78:.\Generated_Source\PSoC5/USBUART_PM.c **** *  None.
  79:.\Generated_Source\PSoC5/USBUART_PM.c **** *
  80:.\Generated_Source\PSoC5/USBUART_PM.c **** * Reentrant:
  81:.\Generated_Source\PSoC5/USBUART_PM.c **** *  No.
  82:.\Generated_Source\PSoC5/USBUART_PM.c **** *
  83:.\Generated_Source\PSoC5/USBUART_PM.c **** *******************************************************************************/
  84:.\Generated_Source\PSoC5/USBUART_PM.c **** void USBUART_SaveConfig(void) 
  85:.\Generated_Source\PSoC5/USBUART_PM.c **** {
  51              		.loc 1 85 0
  52              		.cfi_startproc
  53              		@ args = 0, pretend = 0, frame = 0
  54              		@ frame_needed = 0, uses_anonymous_args = 0
  55              		@ link register save eliminated.
  56 0000 7047     		bx	lr
  57              		.cfi_endproc
  58              	.LFE64:
  59              		.size	USBUART_SaveConfig, .-USBUART_SaveConfig
  60 0002 00BF     		.section	.text.USBUART_RestoreConfig,"ax",%progbits
  61              		.align	2
  62              		.global	USBUART_RestoreConfig
  63              		.thumb
  64              		.thumb_func
  65              		.type	USBUART_RestoreConfig, %function
  66              	USBUART_RestoreConfig:
  67              	.LFB65:
  86:.\Generated_Source\PSoC5/USBUART_PM.c **** 
  87:.\Generated_Source\PSoC5/USBUART_PM.c **** }
  88:.\Generated_Source\PSoC5/USBUART_PM.c **** 
  89:.\Generated_Source\PSoC5/USBUART_PM.c **** 
  90:.\Generated_Source\PSoC5/USBUART_PM.c **** /*******************************************************************************
  91:.\Generated_Source\PSoC5/USBUART_PM.c **** * Function Name: USBUART_RestoreConfig
  92:.\Generated_Source\PSoC5/USBUART_PM.c **** ********************************************************************************
  93:.\Generated_Source\PSoC5/USBUART_PM.c **** *
  94:.\Generated_Source\PSoC5/USBUART_PM.c **** * Summary:
  95:.\Generated_Source\PSoC5/USBUART_PM.c **** *  Restores the current user configuration.
  96:.\Generated_Source\PSoC5/USBUART_PM.c **** *
  97:.\Generated_Source\PSoC5/USBUART_PM.c **** * Parameters:
  98:.\Generated_Source\PSoC5/USBUART_PM.c **** *  None.
  99:.\Generated_Source\PSoC5/USBUART_PM.c **** *
 100:.\Generated_Source\PSoC5/USBUART_PM.c **** * Return:
 101:.\Generated_Source\PSoC5/USBUART_PM.c **** *  None.
 102:.\Generated_Source\PSoC5/USBUART_PM.c **** *
 103:.\Generated_Source\PSoC5/USBUART_PM.c **** * Reentrant:
 104:.\Generated_Source\PSoC5/USBUART_PM.c **** *  No.
ARM GAS  C:\Users\JohnP\AppData\Local\Temp\ccgFc5FZ.s 			page 4


 105:.\Generated_Source\PSoC5/USBUART_PM.c **** *
 106:.\Generated_Source\PSoC5/USBUART_PM.c **** *******************************************************************************/
 107:.\Generated_Source\PSoC5/USBUART_PM.c **** void USBUART_RestoreConfig(void) 
 108:.\Generated_Source\PSoC5/USBUART_PM.c **** {
  68              		.loc 1 108 0
  69              		.cfi_startproc
  70              		@ args = 0, pretend = 0, frame = 0
  71              		@ frame_needed = 0, uses_anonymous_args = 0
  72              		.loc 1 108 0
  73 0000 08B5     		push	{r3, lr}
  74              		.cfi_def_cfa_offset 8
  75              		.cfi_offset 3, -8
  76              		.cfi_offset 14, -4
 109:.\Generated_Source\PSoC5/USBUART_PM.c ****     if(USBUART_configuration != 0u)
  77              		.loc 1 109 0
  78 0002 044B     		ldr	r3, .L7
  79 0004 1B78     		ldrb	r3, [r3]	@ zero_extendqisi2
  80 0006 13F0FF0F 		tst	r3, #255
  81 000a 01D0     		beq	.L5
 110:.\Generated_Source\PSoC5/USBUART_PM.c ****     {
 111:.\Generated_Source\PSoC5/USBUART_PM.c ****         USBUART_ConfigReg();
  82              		.loc 1 111 0
  83 000c FFF7FEFF 		bl	USBUART_ConfigReg
  84              	.LVL0:
  85              	.L5:
  86 0010 08BD     		pop	{r3, pc}
  87              	.L8:
  88 0012 00BF     		.align	2
  89              	.L7:
  90 0014 00000000 		.word	USBUART_configuration
  91              		.cfi_endproc
  92              	.LFE65:
  93              		.size	USBUART_RestoreConfig, .-USBUART_RestoreConfig
  94              		.section	.text.USBUART_Suspend,"ax",%progbits
  95              		.align	2
  96              		.global	USBUART_Suspend
  97              		.thumb
  98              		.thumb_func
  99              		.type	USBUART_Suspend, %function
 100              	USBUART_Suspend:
 101              	.LFB66:
 112:.\Generated_Source\PSoC5/USBUART_PM.c ****     }
 113:.\Generated_Source\PSoC5/USBUART_PM.c **** }
 114:.\Generated_Source\PSoC5/USBUART_PM.c **** 
 115:.\Generated_Source\PSoC5/USBUART_PM.c **** 
 116:.\Generated_Source\PSoC5/USBUART_PM.c **** /*******************************************************************************
 117:.\Generated_Source\PSoC5/USBUART_PM.c **** * Function Name: USBUART_Suspend
 118:.\Generated_Source\PSoC5/USBUART_PM.c **** ********************************************************************************
 119:.\Generated_Source\PSoC5/USBUART_PM.c **** *
 120:.\Generated_Source\PSoC5/USBUART_PM.c **** * Summary:
 121:.\Generated_Source\PSoC5/USBUART_PM.c **** *  This function disables the USBFS block and prepares for power down mode.
 122:.\Generated_Source\PSoC5/USBUART_PM.c **** *
 123:.\Generated_Source\PSoC5/USBUART_PM.c **** * Parameters:
 124:.\Generated_Source\PSoC5/USBUART_PM.c **** *  None.
 125:.\Generated_Source\PSoC5/USBUART_PM.c **** *
 126:.\Generated_Source\PSoC5/USBUART_PM.c **** * Return:
 127:.\Generated_Source\PSoC5/USBUART_PM.c **** *   None.
ARM GAS  C:\Users\JohnP\AppData\Local\Temp\ccgFc5FZ.s 			page 5


 128:.\Generated_Source\PSoC5/USBUART_PM.c **** *
 129:.\Generated_Source\PSoC5/USBUART_PM.c **** * Global variables:
 130:.\Generated_Source\PSoC5/USBUART_PM.c **** *  USBUART_backup.enable:  modified.
 131:.\Generated_Source\PSoC5/USBUART_PM.c **** *
 132:.\Generated_Source\PSoC5/USBUART_PM.c **** * Reentrant:
 133:.\Generated_Source\PSoC5/USBUART_PM.c **** *  No.
 134:.\Generated_Source\PSoC5/USBUART_PM.c **** *
 135:.\Generated_Source\PSoC5/USBUART_PM.c **** *******************************************************************************/
 136:.\Generated_Source\PSoC5/USBUART_PM.c **** void USBUART_Suspend(void) 
 137:.\Generated_Source\PSoC5/USBUART_PM.c **** {
 102              		.loc 1 137 0
 103              		.cfi_startproc
 104              		@ args = 0, pretend = 0, frame = 0
 105              		@ frame_needed = 0, uses_anonymous_args = 0
 106 0000 F8B5     		push	{r3, r4, r5, r6, r7, lr}
 107              		.cfi_def_cfa_offset 24
 108              		.cfi_offset 3, -24
 109              		.cfi_offset 4, -20
 110              		.cfi_offset 5, -16
 111              		.cfi_offset 6, -12
 112              		.cfi_offset 7, -8
 113              		.cfi_offset 14, -4
 138:.\Generated_Source\PSoC5/USBUART_PM.c ****     uint8 enableInterrupts;
 139:.\Generated_Source\PSoC5/USBUART_PM.c ****     enableInterrupts = CyEnterCriticalSection();
 114              		.loc 1 139 0
 115 0002 FFF7FEFF 		bl	CyEnterCriticalSection
 116              	.LVL1:
 117 0006 0446     		mov	r4, r0
 118              	.LVL2:
 140:.\Generated_Source\PSoC5/USBUART_PM.c **** 
 141:.\Generated_Source\PSoC5/USBUART_PM.c ****     if((CY_GET_REG8(USBUART_CR0_PTR) & USBUART_CR0_ENABLE) != 0u)
 119              		.loc 1 141 0
 120 0008 2B4B     		ldr	r3, .L12
 121 000a 1B78     		ldrb	r3, [r3]	@ zero_extendqisi2
 122 000c 13F0800F 		tst	r3, #128
 123 0010 3BD0     		beq	.L10
 142:.\Generated_Source\PSoC5/USBUART_PM.c ****     {   /* USB block is enabled */
 143:.\Generated_Source\PSoC5/USBUART_PM.c ****         USBUART_backup.enableState = 1u;
 124              		.loc 1 143 0
 125 0012 2A4F     		ldr	r7, .L12+4
 126 0014 0126     		movs	r6, #1
 127 0016 3E70     		strb	r6, [r7]
 144:.\Generated_Source\PSoC5/USBUART_PM.c **** 
 145:.\Generated_Source\PSoC5/USBUART_PM.c ****         #if(USBUART_EP_MM != USBUART__EP_MANUAL)
 146:.\Generated_Source\PSoC5/USBUART_PM.c ****             USBUART_Stop_DMA(USBUART_MAX_EP);     /* Stop all DMAs */
 147:.\Generated_Source\PSoC5/USBUART_PM.c ****         #endif   /*  USBUART_EP_MM != USBUART__EP_MANUAL */
 148:.\Generated_Source\PSoC5/USBUART_PM.c **** 
 149:.\Generated_Source\PSoC5/USBUART_PM.c ****         /* Ensure USB transmit enable is low (USB_USBIO_CR0.ten). - Manual Transmission - Disabled 
 150:.\Generated_Source\PSoC5/USBUART_PM.c ****         USBUART_USBIO_CR0_REG &= (uint8)~USBUART_USBIO_CR0_TEN;
 128              		.loc 1 150 0
 129 0018 294B     		ldr	r3, .L12+8
 130 001a 1A78     		ldrb	r2, [r3]	@ zero_extendqisi2
 131 001c 02F07F02 		and	r2, r2, #127
 132 0020 1A70     		strb	r2, [r3]
 151:.\Generated_Source\PSoC5/USBUART_PM.c ****         CyDelayUs(0u);  /*~50ns delay */
 133              		.loc 1 151 0
 134 0022 0020     		movs	r0, #0
ARM GAS  C:\Users\JohnP\AppData\Local\Temp\ccgFc5FZ.s 			page 6


 135              	.LVL3:
 136 0024 FFF7FEFF 		bl	CyDelayUs
 137              	.LVL4:
 152:.\Generated_Source\PSoC5/USBUART_PM.c **** 
 153:.\Generated_Source\PSoC5/USBUART_PM.c ****         /* Disable the USBIO by asserting PM.USB_CR0.fsusbio_pd_n(Inverted) and pd_pullup_hv(Invert
 154:.\Generated_Source\PSoC5/USBUART_PM.c ****         USBUART_PM_USB_CR0_REG &=
 138              		.loc 1 154 0
 139 0028 264D     		ldr	r5, .L12+12
 140 002a 2B78     		ldrb	r3, [r5]	@ zero_extendqisi2
 141 002c 03F0F903 		and	r3, r3, #249
 142 0030 2B70     		strb	r3, [r5]
 155:.\Generated_Source\PSoC5/USBUART_PM.c ****                                 (uint8)~(USBUART_PM_USB_CR0_PD_N | USBUART_PM_USB_CR0_PD_PULLUP_N);
 156:.\Generated_Source\PSoC5/USBUART_PM.c **** 
 157:.\Generated_Source\PSoC5/USBUART_PM.c ****         /* Disable the SIE */
 158:.\Generated_Source\PSoC5/USBUART_PM.c ****         USBUART_CR0_REG &= (uint8)~USBUART_CR0_ENABLE;
 143              		.loc 1 158 0
 144 0032 214B     		ldr	r3, .L12
 145 0034 1A78     		ldrb	r2, [r3]	@ zero_extendqisi2
 146 0036 02F07F02 		and	r2, r2, #127
 147 003a 1A70     		strb	r2, [r3]
 159:.\Generated_Source\PSoC5/USBUART_PM.c **** 
 160:.\Generated_Source\PSoC5/USBUART_PM.c ****         CyDelayUs(0u);  /* ~50ns delay */
 148              		.loc 1 160 0
 149 003c 0020     		movs	r0, #0
 150 003e FFF7FEFF 		bl	CyDelayUs
 151              	.LVL5:
 161:.\Generated_Source\PSoC5/USBUART_PM.c ****         /* Store mode and Disable VRegulator*/
 162:.\Generated_Source\PSoC5/USBUART_PM.c ****         USBUART_backup.mode = USBUART_CR1_REG & USBUART_CR1_REG_ENABLE;
 152              		.loc 1 162 0
 153 0042 214B     		ldr	r3, .L12+16
 154 0044 1A78     		ldrb	r2, [r3]	@ zero_extendqisi2
 155 0046 3240     		ands	r2, r2, r6
 156 0048 7A70     		strb	r2, [r7, #1]
 163:.\Generated_Source\PSoC5/USBUART_PM.c ****         USBUART_CR1_REG &= (uint8)~USBUART_CR1_REG_ENABLE;
 157              		.loc 1 163 0
 158 004a 1A78     		ldrb	r2, [r3]	@ zero_extendqisi2
 159 004c 02F0FE02 		and	r2, r2, #254
 160 0050 1A70     		strb	r2, [r3]
 164:.\Generated_Source\PSoC5/USBUART_PM.c **** 
 165:.\Generated_Source\PSoC5/USBUART_PM.c ****         CyDelayUs(1u);  /* 0.5 us min delay */
 161              		.loc 1 165 0
 162 0052 3046     		mov	r0, r6
 163 0054 FFF7FEFF 		bl	CyDelayUs
 164              	.LVL6:
 166:.\Generated_Source\PSoC5/USBUART_PM.c ****         /* Disable the USBIO reference by setting PM.USB_CR0.fsusbio_ref_en.*/
 167:.\Generated_Source\PSoC5/USBUART_PM.c ****         USBUART_PM_USB_CR0_REG &= (uint8)~USBUART_PM_USB_CR0_REF_EN;
 165              		.loc 1 167 0
 166 0058 2B78     		ldrb	r3, [r5]	@ zero_extendqisi2
 167 005a 03F0FE03 		and	r3, r3, #254
 168 005e 2B70     		strb	r3, [r5]
 168:.\Generated_Source\PSoC5/USBUART_PM.c **** 
 169:.\Generated_Source\PSoC5/USBUART_PM.c ****         /* Switch DP and DM terminals to GPIO mode and disconnect 1.5k pullup*/
 170:.\Generated_Source\PSoC5/USBUART_PM.c ****         USBUART_USBIO_CR1_REG |= USBUART_USBIO_CR1_IOMODE;
 169              		.loc 1 170 0
 170 0060 1A4B     		ldr	r3, .L12+20
 171 0062 1A78     		ldrb	r2, [r3]	@ zero_extendqisi2
 172 0064 42F02002 		orr	r2, r2, #32
ARM GAS  C:\Users\JohnP\AppData\Local\Temp\ccgFc5FZ.s 			page 7


 173 0068 1A70     		strb	r2, [r3]
 171:.\Generated_Source\PSoC5/USBUART_PM.c **** 
 172:.\Generated_Source\PSoC5/USBUART_PM.c ****         /* Disable USB in ACT PM */
 173:.\Generated_Source\PSoC5/USBUART_PM.c ****         USBUART_PM_ACT_CFG_REG &= (uint8)~USBUART_PM_ACT_EN_FSUSB;
 174              		.loc 1 173 0
 175 006a A3F5E353 		sub	r3, r3, #7264
 176 006e 0D3B     		subs	r3, r3, #13
 177 0070 1A78     		ldrb	r2, [r3]	@ zero_extendqisi2
 178 0072 02F0FE02 		and	r2, r2, #254
 179 0076 1A70     		strb	r2, [r3]
 174:.\Generated_Source\PSoC5/USBUART_PM.c ****         /* Disable USB block for Standby Power Mode */
 175:.\Generated_Source\PSoC5/USBUART_PM.c ****         USBUART_PM_STBY_CFG_REG &= (uint8)~USBUART_PM_STBY_EN_FSUSB;
 180              		.loc 1 175 0
 181 0078 1033     		adds	r3, r3, #16
 182 007a 1A78     		ldrb	r2, [r3]	@ zero_extendqisi2
 183 007c 02F0FE02 		and	r2, r2, #254
 184 0080 1A70     		strb	r2, [r3]
 176:.\Generated_Source\PSoC5/USBUART_PM.c ****         CyDelayUs(1u); /* min  0.5us delay required */
 185              		.loc 1 176 0
 186 0082 3046     		mov	r0, r6
 187 0084 FFF7FEFF 		bl	CyDelayUs
 188              	.LVL7:
 189 0088 02E0     		b	.L11
 190              	.LVL8:
 191              	.L10:
 177:.\Generated_Source\PSoC5/USBUART_PM.c **** 
 178:.\Generated_Source\PSoC5/USBUART_PM.c ****     }
 179:.\Generated_Source\PSoC5/USBUART_PM.c ****     else
 180:.\Generated_Source\PSoC5/USBUART_PM.c ****     {
 181:.\Generated_Source\PSoC5/USBUART_PM.c ****         USBUART_backup.enableState = 0u;
 192              		.loc 1 181 0
 193 008a 0022     		movs	r2, #0
 194 008c 0B4B     		ldr	r3, .L12+4
 195 008e 1A70     		strb	r2, [r3]
 196              	.LVL9:
 197              	.L11:
 182:.\Generated_Source\PSoC5/USBUART_PM.c ****     }
 183:.\Generated_Source\PSoC5/USBUART_PM.c **** 
 184:.\Generated_Source\PSoC5/USBUART_PM.c ****     CyExitCriticalSection(enableInterrupts);
 198              		.loc 1 184 0
 199 0090 2046     		mov	r0, r4
 200 0092 FFF7FEFF 		bl	CyExitCriticalSection
 201              	.LVL10:
 185:.\Generated_Source\PSoC5/USBUART_PM.c **** 
 186:.\Generated_Source\PSoC5/USBUART_PM.c ****     /* Set the DP Interrupt for wake-up from sleep mode. */
 187:.\Generated_Source\PSoC5/USBUART_PM.c ****     #if(USBUART_DP_ISR_REMOVE == 0u)
 188:.\Generated_Source\PSoC5/USBUART_PM.c ****         (void) CyIntSetVector(USBUART_DP_INTC_VECT_NUM, &USBUART_DP_ISR);
 202              		.loc 1 188 0
 203 0096 0C20     		movs	r0, #12
 204 0098 0D49     		ldr	r1, .L12+24
 205 009a FFF7FEFF 		bl	CyIntSetVector
 206              	.LVL11:
 189:.\Generated_Source\PSoC5/USBUART_PM.c ****         CyIntSetPriority(USBUART_DP_INTC_VECT_NUM, USBUART_DP_INTC_PRIOR);
 207              		.loc 1 189 0
 208 009e 0C20     		movs	r0, #12
 209 00a0 0721     		movs	r1, #7
 210 00a2 FFF7FEFF 		bl	CyIntSetPriority
ARM GAS  C:\Users\JohnP\AppData\Local\Temp\ccgFc5FZ.s 			page 8


 211              	.LVL12:
 190:.\Generated_Source\PSoC5/USBUART_PM.c ****         CyIntClearPending(USBUART_DP_INTC_VECT_NUM);
 212              		.loc 1 190 0
 213 00a6 4FF48053 		mov	r3, #4096
 214 00aa 0A4A     		ldr	r2, .L12+28
 215 00ac 1360     		str	r3, [r2]
 191:.\Generated_Source\PSoC5/USBUART_PM.c ****         CyIntEnable(USBUART_DP_INTC_VECT_NUM);
 216              		.loc 1 191 0
 217 00ae A2F5C072 		sub	r2, r2, #384
 218 00b2 1360     		str	r3, [r2]
 219 00b4 F8BD     		pop	{r3, r4, r5, r6, r7, pc}
 220              	.LVL13:
 221              	.L13:
 222 00b6 00BF     		.align	2
 223              	.L12:
 224 00b8 08600040 		.word	1073766408
 225 00bc 00000000 		.word	.LANCHOR0
 226 00c0 10600040 		.word	1073766416
 227 00c4 94430040 		.word	1073759124
 228 00c8 09600040 		.word	1073766409
 229 00cc 12600040 		.word	1073766418
 230 00d0 00000000 		.word	USBUART_DP_ISR
 231 00d4 80E200E0 		.word	-536812928
 232              		.cfi_endproc
 233              	.LFE66:
 234              		.size	USBUART_Suspend, .-USBUART_Suspend
 235              		.section	.text.USBUART_Resume,"ax",%progbits
 236              		.align	2
 237              		.global	USBUART_Resume
 238              		.thumb
 239              		.thumb_func
 240              		.type	USBUART_Resume, %function
 241              	USBUART_Resume:
 242              	.LFB67:
 192:.\Generated_Source\PSoC5/USBUART_PM.c ****     #endif /* (USBUART_DP_ISR_REMOVE == 0u) */
 193:.\Generated_Source\PSoC5/USBUART_PM.c **** }
 194:.\Generated_Source\PSoC5/USBUART_PM.c **** 
 195:.\Generated_Source\PSoC5/USBUART_PM.c **** 
 196:.\Generated_Source\PSoC5/USBUART_PM.c **** /*******************************************************************************
 197:.\Generated_Source\PSoC5/USBUART_PM.c **** * Function Name: USBUART_Resume
 198:.\Generated_Source\PSoC5/USBUART_PM.c **** ********************************************************************************
 199:.\Generated_Source\PSoC5/USBUART_PM.c **** *
 200:.\Generated_Source\PSoC5/USBUART_PM.c **** * Summary:
 201:.\Generated_Source\PSoC5/USBUART_PM.c **** *  This function enables the USBFS block after power down mode.
 202:.\Generated_Source\PSoC5/USBUART_PM.c **** *
 203:.\Generated_Source\PSoC5/USBUART_PM.c **** * Parameters:
 204:.\Generated_Source\PSoC5/USBUART_PM.c **** *  None.
 205:.\Generated_Source\PSoC5/USBUART_PM.c **** *
 206:.\Generated_Source\PSoC5/USBUART_PM.c **** * Return:
 207:.\Generated_Source\PSoC5/USBUART_PM.c **** *  None.
 208:.\Generated_Source\PSoC5/USBUART_PM.c **** *
 209:.\Generated_Source\PSoC5/USBUART_PM.c **** * Global variables:
 210:.\Generated_Source\PSoC5/USBUART_PM.c **** *  USBUART_backup - checked.
 211:.\Generated_Source\PSoC5/USBUART_PM.c **** *
 212:.\Generated_Source\PSoC5/USBUART_PM.c **** * Reentrant:
 213:.\Generated_Source\PSoC5/USBUART_PM.c **** *  No.
 214:.\Generated_Source\PSoC5/USBUART_PM.c **** *
ARM GAS  C:\Users\JohnP\AppData\Local\Temp\ccgFc5FZ.s 			page 9


 215:.\Generated_Source\PSoC5/USBUART_PM.c **** *******************************************************************************/
 216:.\Generated_Source\PSoC5/USBUART_PM.c **** void USBUART_Resume(void) 
 217:.\Generated_Source\PSoC5/USBUART_PM.c **** {
 243              		.loc 1 217 0
 244              		.cfi_startproc
 245              		@ args = 0, pretend = 0, frame = 0
 246              		@ frame_needed = 0, uses_anonymous_args = 0
 247 0000 38B5     		push	{r3, r4, r5, lr}
 248              		.cfi_def_cfa_offset 16
 249              		.cfi_offset 3, -16
 250              		.cfi_offset 4, -12
 251              		.cfi_offset 5, -8
 252              		.cfi_offset 14, -4
 218:.\Generated_Source\PSoC5/USBUART_PM.c ****     uint8 enableInterrupts;
 219:.\Generated_Source\PSoC5/USBUART_PM.c ****     enableInterrupts = CyEnterCriticalSection();
 253              		.loc 1 219 0
 254 0002 FFF7FEFF 		bl	CyEnterCriticalSection
 255              	.LVL14:
 256 0006 0546     		mov	r5, r0
 257              	.LVL15:
 220:.\Generated_Source\PSoC5/USBUART_PM.c **** 
 221:.\Generated_Source\PSoC5/USBUART_PM.c ****     if(USBUART_backup.enableState != 0u)
 258              		.loc 1 221 0
 259 0008 244B     		ldr	r3, .L16
 260 000a 1B78     		ldrb	r3, [r3]	@ zero_extendqisi2
 261 000c 002B     		cmp	r3, #0
 262 000e 40D0     		beq	.L15
 222:.\Generated_Source\PSoC5/USBUART_PM.c ****     {
 223:.\Generated_Source\PSoC5/USBUART_PM.c ****         #if(USBUART_DP_ISR_REMOVE == 0u)
 224:.\Generated_Source\PSoC5/USBUART_PM.c ****             CyIntDisable(USBUART_DP_INTC_VECT_NUM);
 263              		.loc 1 224 0
 264 0010 4FF48052 		mov	r2, #4096
 265 0014 224B     		ldr	r3, .L16+4
 266 0016 1A60     		str	r2, [r3]
 225:.\Generated_Source\PSoC5/USBUART_PM.c ****         #endif /*  USBUART_DP_ISR_REMOVE */
 226:.\Generated_Source\PSoC5/USBUART_PM.c **** 
 227:.\Generated_Source\PSoC5/USBUART_PM.c ****         /* Enable USB block */
 228:.\Generated_Source\PSoC5/USBUART_PM.c ****         USBUART_PM_ACT_CFG_REG |= USBUART_PM_ACT_EN_FSUSB;
 267              		.loc 1 228 0
 268 0018 224B     		ldr	r3, .L16+8
 269 001a 1A78     		ldrb	r2, [r3]	@ zero_extendqisi2
 270 001c 42F00102 		orr	r2, r2, #1
 271 0020 1A70     		strb	r2, [r3]
 229:.\Generated_Source\PSoC5/USBUART_PM.c ****         /* Enable USB block for Standby Power Mode */
 230:.\Generated_Source\PSoC5/USBUART_PM.c ****         USBUART_PM_STBY_CFG_REG |= USBUART_PM_STBY_EN_FSUSB;
 272              		.loc 1 230 0
 273 0022 1033     		adds	r3, r3, #16
 274 0024 1A78     		ldrb	r2, [r3]	@ zero_extendqisi2
 275 0026 42F00102 		orr	r2, r2, #1
 276 002a 1A70     		strb	r2, [r3]
 231:.\Generated_Source\PSoC5/USBUART_PM.c ****         /* Enable core clock */
 232:.\Generated_Source\PSoC5/USBUART_PM.c ****         USBUART_USB_CLK_EN_REG |= USBUART_USB_CLK_ENABLE;
 277              		.loc 1 232 0
 278 002c 03F5E753 		add	r3, r3, #7392
 279 0030 0833     		adds	r3, r3, #8
 280 0032 1A78     		ldrb	r2, [r3]	@ zero_extendqisi2
 281 0034 42F00102 		orr	r2, r2, #1
ARM GAS  C:\Users\JohnP\AppData\Local\Temp\ccgFc5FZ.s 			page 10


 282 0038 1A70     		strb	r2, [r3]
 233:.\Generated_Source\PSoC5/USBUART_PM.c **** 
 234:.\Generated_Source\PSoC5/USBUART_PM.c ****         /* Enable the USBIO reference by setting PM.USB_CR0.fsusbio_ref_en.*/
 235:.\Generated_Source\PSoC5/USBUART_PM.c ****         USBUART_PM_USB_CR0_REG |= USBUART_PM_USB_CR0_REF_EN;
 283              		.loc 1 235 0
 284 003a 1B4C     		ldr	r4, .L16+12
 285 003c 2378     		ldrb	r3, [r4]	@ zero_extendqisi2
 286 003e 43F00103 		orr	r3, r3, #1
 287 0042 2370     		strb	r3, [r4]
 236:.\Generated_Source\PSoC5/USBUART_PM.c ****         /* The reference will be available ~40us after power restored */
 237:.\Generated_Source\PSoC5/USBUART_PM.c ****         CyDelayUs(40u);
 288              		.loc 1 237 0
 289 0044 2820     		movs	r0, #40
 290              	.LVL16:
 291 0046 FFF7FEFF 		bl	CyDelayUs
 292              	.LVL17:
 238:.\Generated_Source\PSoC5/USBUART_PM.c ****         /* Return VRegulator*/
 239:.\Generated_Source\PSoC5/USBUART_PM.c ****         USBUART_CR1_REG |= USBUART_backup.mode;
 293              		.loc 1 239 0
 294 004a 184B     		ldr	r3, .L16+16
 295 004c 1978     		ldrb	r1, [r3]	@ zero_extendqisi2
 296 004e 134A     		ldr	r2, .L16
 297 0050 5278     		ldrb	r2, [r2, #1]	@ zero_extendqisi2
 298 0052 0A43     		orrs	r2, r2, r1
 299 0054 1A70     		strb	r2, [r3]
 240:.\Generated_Source\PSoC5/USBUART_PM.c ****         CyDelayUs(0u);  /*~50ns delay */
 300              		.loc 1 240 0
 301 0056 0020     		movs	r0, #0
 302 0058 FFF7FEFF 		bl	CyDelayUs
 303              	.LVL18:
 241:.\Generated_Source\PSoC5/USBUART_PM.c ****         /* Enable USBIO */
 242:.\Generated_Source\PSoC5/USBUART_PM.c ****         USBUART_PM_USB_CR0_REG |= USBUART_PM_USB_CR0_PD_N;
 304              		.loc 1 242 0
 305 005c 2378     		ldrb	r3, [r4]	@ zero_extendqisi2
 306 005e 43F00203 		orr	r3, r3, #2
 307 0062 2370     		strb	r3, [r4]
 243:.\Generated_Source\PSoC5/USBUART_PM.c ****         CyDelayUs(2u);
 308              		.loc 1 243 0
 309 0064 0220     		movs	r0, #2
 310 0066 FFF7FEFF 		bl	CyDelayUs
 311              	.LVL19:
 244:.\Generated_Source\PSoC5/USBUART_PM.c ****         /* Set the USBIO pull-up enable */
 245:.\Generated_Source\PSoC5/USBUART_PM.c ****         USBUART_PM_USB_CR0_REG |= USBUART_PM_USB_CR0_PD_PULLUP_N;
 312              		.loc 1 245 0
 313 006a 2378     		ldrb	r3, [r4]	@ zero_extendqisi2
 314 006c 43F00403 		orr	r3, r3, #4
 315 0070 2370     		strb	r3, [r4]
 246:.\Generated_Source\PSoC5/USBUART_PM.c **** 
 247:.\Generated_Source\PSoC5/USBUART_PM.c ****         /* Re-init Arbiter configuration for DMA transfers */
 248:.\Generated_Source\PSoC5/USBUART_PM.c ****         #if(USBUART_EP_MM != USBUART__EP_MANUAL)
 249:.\Generated_Source\PSoC5/USBUART_PM.c ****             /* Usb arb interrupt enable */
 250:.\Generated_Source\PSoC5/USBUART_PM.c ****             USBUART_ARB_INT_EN_REG = USBUART_ARB_INT_MASK;
 251:.\Generated_Source\PSoC5/USBUART_PM.c ****             #if(USBUART_EP_MM == USBUART__EP_DMAMANUAL)
 252:.\Generated_Source\PSoC5/USBUART_PM.c ****                 USBUART_ARB_CFG_REG = USBUART_ARB_CFG_MANUAL_DMA;
 253:.\Generated_Source\PSoC5/USBUART_PM.c ****             #endif   /*  USBUART_EP_MM == USBUART__EP_DMAMANUAL */
 254:.\Generated_Source\PSoC5/USBUART_PM.c ****             #if(USBUART_EP_MM == USBUART__EP_DMAAUTO)
 255:.\Generated_Source\PSoC5/USBUART_PM.c ****                 /*Set cfg cmplt this rises DMA request when the full configuration is done */
ARM GAS  C:\Users\JohnP\AppData\Local\Temp\ccgFc5FZ.s 			page 11


 256:.\Generated_Source\PSoC5/USBUART_PM.c ****                 USBUART_ARB_CFG_REG = USBUART_ARB_CFG_AUTO_DMA | USBUART_ARB_CFG_AUTO_MEM;
 257:.\Generated_Source\PSoC5/USBUART_PM.c ****             #endif   /*  USBUART_EP_MM == USBUART__EP_DMAAUTO */
 258:.\Generated_Source\PSoC5/USBUART_PM.c ****         #endif   /*  USBUART_EP_MM != USBUART__EP_MANUAL */
 259:.\Generated_Source\PSoC5/USBUART_PM.c **** 
 260:.\Generated_Source\PSoC5/USBUART_PM.c ****         /* STALL_IN_OUT */
 261:.\Generated_Source\PSoC5/USBUART_PM.c ****         CY_SET_REG8(USBUART_EP0_CR_PTR, USBUART_MODE_STALL_IN_OUT);
 316              		.loc 1 261 0
 317 0072 0322     		movs	r2, #3
 318 0074 0E4B     		ldr	r3, .L16+20
 319 0076 1A70     		strb	r2, [r3]
 262:.\Generated_Source\PSoC5/USBUART_PM.c ****         /* Enable the SIE with a last address */
 263:.\Generated_Source\PSoC5/USBUART_PM.c ****         USBUART_CR0_REG |= USBUART_CR0_ENABLE;
 320              		.loc 1 263 0
 321 0078 203B     		subs	r3, r3, #32
 322 007a 1A78     		ldrb	r2, [r3]	@ zero_extendqisi2
 323 007c 42F08002 		orr	r2, r2, #128
 324 0080 1A70     		strb	r2, [r3]
 264:.\Generated_Source\PSoC5/USBUART_PM.c ****         CyDelayCycles(1u);
 325              		.loc 1 264 0
 326 0082 0120     		movs	r0, #1
 327 0084 FFF7FEFF 		bl	CyDelayCycles
 328              	.LVL20:
 265:.\Generated_Source\PSoC5/USBUART_PM.c ****         /* Finally, Enable d+ pullup and select iomode to USB mode*/
 266:.\Generated_Source\PSoC5/USBUART_PM.c ****         CY_SET_REG8(USBUART_USBIO_CR1_PTR, USBUART_USBIO_CR1_USBPUEN);
 329              		.loc 1 266 0
 330 0088 0422     		movs	r2, #4
 331 008a 0A4B     		ldr	r3, .L16+24
 332 008c 1A70     		strb	r2, [r3]
 267:.\Generated_Source\PSoC5/USBUART_PM.c **** 
 268:.\Generated_Source\PSoC5/USBUART_PM.c ****         /* Restore USB register settings */
 269:.\Generated_Source\PSoC5/USBUART_PM.c ****         USBUART_RestoreConfig();
 333              		.loc 1 269 0
 334 008e FFF7FEFF 		bl	USBUART_RestoreConfig
 335              	.LVL21:
 336              	.L15:
 270:.\Generated_Source\PSoC5/USBUART_PM.c ****     }
 271:.\Generated_Source\PSoC5/USBUART_PM.c **** 
 272:.\Generated_Source\PSoC5/USBUART_PM.c ****     CyExitCriticalSection(enableInterrupts);
 337              		.loc 1 272 0
 338 0092 2846     		mov	r0, r5
 339 0094 FFF7FEFF 		bl	CyExitCriticalSection
 340              	.LVL22:
 341 0098 38BD     		pop	{r3, r4, r5, pc}
 342              	.LVL23:
 343              	.L17:
 344 009a 00BF     		.align	2
 345              	.L16:
 346 009c 00000000 		.word	.LANCHOR0
 347 00a0 80E100E0 		.word	-536813184
 348 00a4 A5430040 		.word	1073759141
 349 00a8 94430040 		.word	1073759124
 350 00ac 09600040 		.word	1073766409
 351 00b0 28600040 		.word	1073766440
 352 00b4 12600040 		.word	1073766418
 353              		.cfi_endproc
 354              	.LFE67:
 355              		.size	USBUART_Resume, .-USBUART_Resume
ARM GAS  C:\Users\JohnP\AppData\Local\Temp\ccgFc5FZ.s 			page 12


 356              		.bss
 357              		.align	2
 358              		.set	.LANCHOR0,. + 0
 359              		.type	USBUART_backup, %object
 360              		.size	USBUART_backup, 2
 361              	USBUART_backup:
 362 0000 0000     		.space	2
 363 0002 0000     		.text
 364              	.Letext0:
 365              		.file 2 "c:\\program files (x86)\\cypress\\psoc creator\\3.2\\psoc creator\\import\\gnu\\arm\\4.8.
 366              		.file 3 "c:\\program files (x86)\\cypress\\psoc creator\\3.2\\psoc creator\\import\\gnu\\arm\\4.8.
 367              		.file 4 ".\\Generated_Source\\PSoC5\\cytypes.h"
 368              		.file 5 ".\\Generated_Source\\PSoC5\\USBUART.h"
 369              		.file 6 "Generated_Source\\PSoC5/core_cm3.h"
 370              		.file 7 ".\\Generated_Source\\PSoC5\\CyLib.h"
 371              		.file 8 ".\\Generated_Source\\PSoC5\\USBUART_pvt.h"