ARM GAS  C:\Users\JohnP\AppData\Local\Temp\ccW8ACZv.s 			page 1


   1              		.syntax unified
   2              		.cpu cortex-m3
   3              		.fpu softvfp
   4              		.eabi_attribute 20, 1
   5              		.eabi_attribute 21, 1
   6              		.eabi_attribute 23, 3
   7              		.eabi_attribute 24, 1
   8              		.eabi_attribute 25, 1
   9              		.eabi_attribute 26, 1
  10              		.eabi_attribute 30, 1
  11              		.eabi_attribute 34, 1
  12              		.eabi_attribute 18, 4
  13              		.thumb
  14              		.file	"USBUART_drv.c"
  15              		.text
  16              	.Ltext0:
  17              		.cfi_sections	.debug_frame
  18              		.section	.text.USBUART_LoadEP0,"ax",%progbits
  19              		.align	2
  20              		.global	USBUART_LoadEP0
  21              		.thumb
  22              		.thumb_func
  23              		.type	USBUART_LoadEP0, %function
  24              	USBUART_LoadEP0:
  25              	.LFB4:
  26              		.file 1 ".\\Generated_Source\\PSoC5\\USBUART_drv.c"
   1:.\Generated_Source\PSoC5/USBUART_drv.c **** /*******************************************************************************
   2:.\Generated_Source\PSoC5/USBUART_drv.c **** * File Name: USBUART_drv.c
   3:.\Generated_Source\PSoC5/USBUART_drv.c **** * Version 2.80
   4:.\Generated_Source\PSoC5/USBUART_drv.c **** *
   5:.\Generated_Source\PSoC5/USBUART_drv.c **** * Description:
   6:.\Generated_Source\PSoC5/USBUART_drv.c **** *  Endpoint 0 Driver for the USBFS Component.
   7:.\Generated_Source\PSoC5/USBUART_drv.c **** *
   8:.\Generated_Source\PSoC5/USBUART_drv.c **** * Note:
   9:.\Generated_Source\PSoC5/USBUART_drv.c **** *
  10:.\Generated_Source\PSoC5/USBUART_drv.c **** ********************************************************************************
  11:.\Generated_Source\PSoC5/USBUART_drv.c **** * Copyright 2008-2014, Cypress Semiconductor Corporation.  All rights reserved.
  12:.\Generated_Source\PSoC5/USBUART_drv.c **** * You may use this file only in accordance with the license, terms, conditions,
  13:.\Generated_Source\PSoC5/USBUART_drv.c **** * disclaimers, and limitations in the end user license agreement accompanying
  14:.\Generated_Source\PSoC5/USBUART_drv.c **** * the software package with which this file was provided.
  15:.\Generated_Source\PSoC5/USBUART_drv.c **** *******************************************************************************/
  16:.\Generated_Source\PSoC5/USBUART_drv.c **** 
  17:.\Generated_Source\PSoC5/USBUART_drv.c **** #include "USBUART.h"
  18:.\Generated_Source\PSoC5/USBUART_drv.c **** #include "USBUART_pvt.h"
  19:.\Generated_Source\PSoC5/USBUART_drv.c **** 
  20:.\Generated_Source\PSoC5/USBUART_drv.c **** 
  21:.\Generated_Source\PSoC5/USBUART_drv.c **** /***************************************
  22:.\Generated_Source\PSoC5/USBUART_drv.c **** * Global data allocation
  23:.\Generated_Source\PSoC5/USBUART_drv.c **** ***************************************/
  24:.\Generated_Source\PSoC5/USBUART_drv.c **** 
  25:.\Generated_Source\PSoC5/USBUART_drv.c **** volatile T_USBUART_EP_CTL_BLOCK USBUART_EP[USBUART_MAX_EP];
  26:.\Generated_Source\PSoC5/USBUART_drv.c **** volatile uint8 USBUART_configuration;
  27:.\Generated_Source\PSoC5/USBUART_drv.c **** volatile uint8 USBUART_interfaceNumber;
  28:.\Generated_Source\PSoC5/USBUART_drv.c **** volatile uint8 USBUART_configurationChanged;
  29:.\Generated_Source\PSoC5/USBUART_drv.c **** volatile uint8 USBUART_deviceAddress;
  30:.\Generated_Source\PSoC5/USBUART_drv.c **** volatile uint8 USBUART_deviceStatus;
  31:.\Generated_Source\PSoC5/USBUART_drv.c **** volatile uint8 USBUART_interfaceSetting[USBUART_MAX_INTERFACES_NUMBER];
ARM GAS  C:\Users\JohnP\AppData\Local\Temp\ccW8ACZv.s 			page 2


  32:.\Generated_Source\PSoC5/USBUART_drv.c **** volatile uint8 USBUART_interfaceSetting_last[USBUART_MAX_INTERFACES_NUMBER];
  33:.\Generated_Source\PSoC5/USBUART_drv.c **** volatile uint8 USBUART_interfaceStatus[USBUART_MAX_INTERFACES_NUMBER];
  34:.\Generated_Source\PSoC5/USBUART_drv.c **** volatile uint8 USBUART_device;
  35:.\Generated_Source\PSoC5/USBUART_drv.c **** const uint8 CYCODE *USBUART_interfaceClass;
  36:.\Generated_Source\PSoC5/USBUART_drv.c **** 
  37:.\Generated_Source\PSoC5/USBUART_drv.c **** 
  38:.\Generated_Source\PSoC5/USBUART_drv.c **** /***************************************
  39:.\Generated_Source\PSoC5/USBUART_drv.c **** * Local data allocation
  40:.\Generated_Source\PSoC5/USBUART_drv.c **** ***************************************/
  41:.\Generated_Source\PSoC5/USBUART_drv.c **** 
  42:.\Generated_Source\PSoC5/USBUART_drv.c **** volatile uint8 USBUART_ep0Toggle;
  43:.\Generated_Source\PSoC5/USBUART_drv.c **** volatile uint8 USBUART_lastPacketSize;
  44:.\Generated_Source\PSoC5/USBUART_drv.c **** volatile uint8 USBUART_transferState;
  45:.\Generated_Source\PSoC5/USBUART_drv.c **** volatile T_USBUART_TD USBUART_currentTD;
  46:.\Generated_Source\PSoC5/USBUART_drv.c **** volatile uint8 USBUART_ep0Mode;
  47:.\Generated_Source\PSoC5/USBUART_drv.c **** volatile uint8 USBUART_ep0Count;
  48:.\Generated_Source\PSoC5/USBUART_drv.c **** volatile uint16 USBUART_transferByteCount;
  49:.\Generated_Source\PSoC5/USBUART_drv.c **** 
  50:.\Generated_Source\PSoC5/USBUART_drv.c **** 
  51:.\Generated_Source\PSoC5/USBUART_drv.c **** /*******************************************************************************
  52:.\Generated_Source\PSoC5/USBUART_drv.c **** * Function Name: USBUART_ep_0_Interrupt
  53:.\Generated_Source\PSoC5/USBUART_drv.c **** ********************************************************************************
  54:.\Generated_Source\PSoC5/USBUART_drv.c **** *
  55:.\Generated_Source\PSoC5/USBUART_drv.c **** * Summary:
  56:.\Generated_Source\PSoC5/USBUART_drv.c **** *  This Interrupt Service Routine handles Endpoint 0 (Control Pipe) traffic.
  57:.\Generated_Source\PSoC5/USBUART_drv.c **** *  It dispatches setup requests and handles the data and status stages.
  58:.\Generated_Source\PSoC5/USBUART_drv.c **** *
  59:.\Generated_Source\PSoC5/USBUART_drv.c **** * Parameters:
  60:.\Generated_Source\PSoC5/USBUART_drv.c **** *  None.
  61:.\Generated_Source\PSoC5/USBUART_drv.c **** *
  62:.\Generated_Source\PSoC5/USBUART_drv.c **** * Return:
  63:.\Generated_Source\PSoC5/USBUART_drv.c **** *  None.
  64:.\Generated_Source\PSoC5/USBUART_drv.c **** *
  65:.\Generated_Source\PSoC5/USBUART_drv.c **** *******************************************************************************/
  66:.\Generated_Source\PSoC5/USBUART_drv.c **** CY_ISR(USBUART_EP_0_ISR)
  67:.\Generated_Source\PSoC5/USBUART_drv.c **** {
  68:.\Generated_Source\PSoC5/USBUART_drv.c ****     uint8 bRegTemp;
  69:.\Generated_Source\PSoC5/USBUART_drv.c ****     uint8 modifyReg;
  70:.\Generated_Source\PSoC5/USBUART_drv.c **** 
  71:.\Generated_Source\PSoC5/USBUART_drv.c **** 
  72:.\Generated_Source\PSoC5/USBUART_drv.c ****     bRegTemp = CY_GET_REG8(USBUART_EP0_CR_PTR);
  73:.\Generated_Source\PSoC5/USBUART_drv.c ****     if ((bRegTemp & USBUART_MODE_ACKD) != 0u)
  74:.\Generated_Source\PSoC5/USBUART_drv.c ****     {
  75:.\Generated_Source\PSoC5/USBUART_drv.c ****         modifyReg = 1u;
  76:.\Generated_Source\PSoC5/USBUART_drv.c ****         if ((bRegTemp & USBUART_MODE_SETUP_RCVD) != 0u)
  77:.\Generated_Source\PSoC5/USBUART_drv.c ****         {
  78:.\Generated_Source\PSoC5/USBUART_drv.c ****             if((bRegTemp & USBUART_MODE_MASK) != USBUART_MODE_NAK_IN_OUT)
  79:.\Generated_Source\PSoC5/USBUART_drv.c ****             {
  80:.\Generated_Source\PSoC5/USBUART_drv.c ****                 modifyReg = 0u;                                     /* When mode not NAK_IN_OUT => 
  81:.\Generated_Source\PSoC5/USBUART_drv.c ****             }
  82:.\Generated_Source\PSoC5/USBUART_drv.c ****             else
  83:.\Generated_Source\PSoC5/USBUART_drv.c ****             {
  84:.\Generated_Source\PSoC5/USBUART_drv.c ****                 USBUART_HandleSetup();
  85:.\Generated_Source\PSoC5/USBUART_drv.c ****                 if((USBUART_ep0Mode & USBUART_MODE_SETUP_RCVD) != 0u)
  86:.\Generated_Source\PSoC5/USBUART_drv.c ****                 {
  87:.\Generated_Source\PSoC5/USBUART_drv.c ****                     modifyReg = 0u;                         /* if SETUP bit set -> exit without mod
  88:.\Generated_Source\PSoC5/USBUART_drv.c ****                 }
ARM GAS  C:\Users\JohnP\AppData\Local\Temp\ccW8ACZv.s 			page 3


  89:.\Generated_Source\PSoC5/USBUART_drv.c **** 
  90:.\Generated_Source\PSoC5/USBUART_drv.c ****             }
  91:.\Generated_Source\PSoC5/USBUART_drv.c ****         }
  92:.\Generated_Source\PSoC5/USBUART_drv.c ****         else if ((bRegTemp & USBUART_MODE_IN_RCVD) != 0u)
  93:.\Generated_Source\PSoC5/USBUART_drv.c ****         {
  94:.\Generated_Source\PSoC5/USBUART_drv.c ****             USBUART_HandleIN();
  95:.\Generated_Source\PSoC5/USBUART_drv.c ****         }
  96:.\Generated_Source\PSoC5/USBUART_drv.c ****         else if ((bRegTemp & USBUART_MODE_OUT_RCVD) != 0u)
  97:.\Generated_Source\PSoC5/USBUART_drv.c ****         {
  98:.\Generated_Source\PSoC5/USBUART_drv.c ****             USBUART_HandleOUT();
  99:.\Generated_Source\PSoC5/USBUART_drv.c ****         }
 100:.\Generated_Source\PSoC5/USBUART_drv.c ****         else
 101:.\Generated_Source\PSoC5/USBUART_drv.c ****         {
 102:.\Generated_Source\PSoC5/USBUART_drv.c ****             modifyReg = 0u;
 103:.\Generated_Source\PSoC5/USBUART_drv.c ****         }
 104:.\Generated_Source\PSoC5/USBUART_drv.c ****         if(modifyReg != 0u)
 105:.\Generated_Source\PSoC5/USBUART_drv.c ****         {
 106:.\Generated_Source\PSoC5/USBUART_drv.c ****             bRegTemp = CY_GET_REG8(USBUART_EP0_CR_PTR);    /* unlock registers */
 107:.\Generated_Source\PSoC5/USBUART_drv.c ****             if((bRegTemp & USBUART_MODE_SETUP_RCVD) == 0u)  /* Check if SETUP bit is not set, other
 108:.\Generated_Source\PSoC5/USBUART_drv.c ****             {
 109:.\Generated_Source\PSoC5/USBUART_drv.c ****                 /* Update the count register */
 110:.\Generated_Source\PSoC5/USBUART_drv.c ****                 bRegTemp = USBUART_ep0Toggle | USBUART_ep0Count;
 111:.\Generated_Source\PSoC5/USBUART_drv.c ****                 CY_SET_REG8(USBUART_EP0_CNT_PTR, bRegTemp);
 112:.\Generated_Source\PSoC5/USBUART_drv.c ****                 if(bRegTemp == CY_GET_REG8(USBUART_EP0_CNT_PTR))   /* continue if writing was succe
 113:.\Generated_Source\PSoC5/USBUART_drv.c ****                 {
 114:.\Generated_Source\PSoC5/USBUART_drv.c ****                     do
 115:.\Generated_Source\PSoC5/USBUART_drv.c ****                     {
 116:.\Generated_Source\PSoC5/USBUART_drv.c ****                         modifyReg = USBUART_ep0Mode;       /* Init temporary variable */
 117:.\Generated_Source\PSoC5/USBUART_drv.c ****                         /* Unlock registers */
 118:.\Generated_Source\PSoC5/USBUART_drv.c ****                         bRegTemp = CY_GET_REG8(USBUART_EP0_CR_PTR) & USBUART_MODE_SETUP_RCVD;
 119:.\Generated_Source\PSoC5/USBUART_drv.c ****                         if(bRegTemp == 0u)                          /* Check if SETUP bit is not se
 120:.\Generated_Source\PSoC5/USBUART_drv.c ****                         {
 121:.\Generated_Source\PSoC5/USBUART_drv.c ****                             /* Set the Mode Register  */
 122:.\Generated_Source\PSoC5/USBUART_drv.c ****                             CY_SET_REG8(USBUART_EP0_CR_PTR, USBUART_ep0Mode);
 123:.\Generated_Source\PSoC5/USBUART_drv.c ****                             /* Writing check */
 124:.\Generated_Source\PSoC5/USBUART_drv.c ****                             modifyReg = CY_GET_REG8(USBUART_EP0_CR_PTR) & USBUART_MODE_MASK;
 125:.\Generated_Source\PSoC5/USBUART_drv.c ****                         }
 126:.\Generated_Source\PSoC5/USBUART_drv.c ****                     }while(modifyReg != USBUART_ep0Mode);  /* Repeat if writing was not successful 
 127:.\Generated_Source\PSoC5/USBUART_drv.c ****                 }
 128:.\Generated_Source\PSoC5/USBUART_drv.c ****             }
 129:.\Generated_Source\PSoC5/USBUART_drv.c ****         }
 130:.\Generated_Source\PSoC5/USBUART_drv.c ****     }
 131:.\Generated_Source\PSoC5/USBUART_drv.c **** }
 132:.\Generated_Source\PSoC5/USBUART_drv.c **** 
 133:.\Generated_Source\PSoC5/USBUART_drv.c **** 
 134:.\Generated_Source\PSoC5/USBUART_drv.c **** /*******************************************************************************
 135:.\Generated_Source\PSoC5/USBUART_drv.c **** * Function Name: USBUART_HandleSetup
 136:.\Generated_Source\PSoC5/USBUART_drv.c **** ********************************************************************************
 137:.\Generated_Source\PSoC5/USBUART_drv.c **** *
 138:.\Generated_Source\PSoC5/USBUART_drv.c **** * Summary:
 139:.\Generated_Source\PSoC5/USBUART_drv.c **** *  This Routine dispatches requests for the four USB request types
 140:.\Generated_Source\PSoC5/USBUART_drv.c **** *
 141:.\Generated_Source\PSoC5/USBUART_drv.c **** * Parameters:
 142:.\Generated_Source\PSoC5/USBUART_drv.c **** *  None.
 143:.\Generated_Source\PSoC5/USBUART_drv.c **** *
 144:.\Generated_Source\PSoC5/USBUART_drv.c **** * Return:
 145:.\Generated_Source\PSoC5/USBUART_drv.c **** *  None.
ARM GAS  C:\Users\JohnP\AppData\Local\Temp\ccW8ACZv.s 			page 4


 146:.\Generated_Source\PSoC5/USBUART_drv.c **** *
 147:.\Generated_Source\PSoC5/USBUART_drv.c **** * Reentrant:
 148:.\Generated_Source\PSoC5/USBUART_drv.c **** *  No.
 149:.\Generated_Source\PSoC5/USBUART_drv.c **** *
 150:.\Generated_Source\PSoC5/USBUART_drv.c **** *******************************************************************************/
 151:.\Generated_Source\PSoC5/USBUART_drv.c **** void USBUART_HandleSetup(void) 
 152:.\Generated_Source\PSoC5/USBUART_drv.c **** {
 153:.\Generated_Source\PSoC5/USBUART_drv.c ****     uint8 requestHandled;
 154:.\Generated_Source\PSoC5/USBUART_drv.c **** 
 155:.\Generated_Source\PSoC5/USBUART_drv.c ****     requestHandled = CY_GET_REG8(USBUART_EP0_CR_PTR);      /* unlock registers */
 156:.\Generated_Source\PSoC5/USBUART_drv.c ****     CY_SET_REG8(USBUART_EP0_CR_PTR, requestHandled);       /* clear setup bit */
 157:.\Generated_Source\PSoC5/USBUART_drv.c ****     requestHandled = CY_GET_REG8(USBUART_EP0_CR_PTR);      /* reread register */
 158:.\Generated_Source\PSoC5/USBUART_drv.c ****     if((requestHandled & USBUART_MODE_SETUP_RCVD) != 0u)
 159:.\Generated_Source\PSoC5/USBUART_drv.c ****     {
 160:.\Generated_Source\PSoC5/USBUART_drv.c ****         USBUART_ep0Mode = requestHandled;        /* if SETUP bit set -> exit without modifying the 
 161:.\Generated_Source\PSoC5/USBUART_drv.c ****     }
 162:.\Generated_Source\PSoC5/USBUART_drv.c ****     else
 163:.\Generated_Source\PSoC5/USBUART_drv.c ****     {
 164:.\Generated_Source\PSoC5/USBUART_drv.c ****         /* In case the previous transfer did not complete, close it out */
 165:.\Generated_Source\PSoC5/USBUART_drv.c ****         USBUART_UpdateStatusBlock(USBUART_XFER_PREMATURE);
 166:.\Generated_Source\PSoC5/USBUART_drv.c **** 
 167:.\Generated_Source\PSoC5/USBUART_drv.c ****         switch (CY_GET_REG8(USBUART_bmRequestType) & USBUART_RQST_TYPE_MASK)
 168:.\Generated_Source\PSoC5/USBUART_drv.c ****         {
 169:.\Generated_Source\PSoC5/USBUART_drv.c ****             case USBUART_RQST_TYPE_STD:
 170:.\Generated_Source\PSoC5/USBUART_drv.c ****                 requestHandled = USBUART_HandleStandardRqst();
 171:.\Generated_Source\PSoC5/USBUART_drv.c ****                 break;
 172:.\Generated_Source\PSoC5/USBUART_drv.c ****             case USBUART_RQST_TYPE_CLS:
 173:.\Generated_Source\PSoC5/USBUART_drv.c ****                 requestHandled = USBUART_DispatchClassRqst();
 174:.\Generated_Source\PSoC5/USBUART_drv.c ****                 break;
 175:.\Generated_Source\PSoC5/USBUART_drv.c ****             case USBUART_RQST_TYPE_VND:
 176:.\Generated_Source\PSoC5/USBUART_drv.c ****                 requestHandled = USBUART_HandleVendorRqst();
 177:.\Generated_Source\PSoC5/USBUART_drv.c ****                 break;
 178:.\Generated_Source\PSoC5/USBUART_drv.c ****             default:
 179:.\Generated_Source\PSoC5/USBUART_drv.c ****                 requestHandled = USBUART_FALSE;
 180:.\Generated_Source\PSoC5/USBUART_drv.c ****                 break;
 181:.\Generated_Source\PSoC5/USBUART_drv.c ****         }
 182:.\Generated_Source\PSoC5/USBUART_drv.c ****         if (requestHandled == USBUART_FALSE)
 183:.\Generated_Source\PSoC5/USBUART_drv.c ****         {
 184:.\Generated_Source\PSoC5/USBUART_drv.c ****             USBUART_ep0Mode = USBUART_MODE_STALL_IN_OUT;
 185:.\Generated_Source\PSoC5/USBUART_drv.c ****         }
 186:.\Generated_Source\PSoC5/USBUART_drv.c ****     }
 187:.\Generated_Source\PSoC5/USBUART_drv.c **** }
 188:.\Generated_Source\PSoC5/USBUART_drv.c **** 
 189:.\Generated_Source\PSoC5/USBUART_drv.c **** 
 190:.\Generated_Source\PSoC5/USBUART_drv.c **** /*******************************************************************************
 191:.\Generated_Source\PSoC5/USBUART_drv.c **** * Function Name: USBUART_HandleIN
 192:.\Generated_Source\PSoC5/USBUART_drv.c **** ********************************************************************************
 193:.\Generated_Source\PSoC5/USBUART_drv.c **** *
 194:.\Generated_Source\PSoC5/USBUART_drv.c **** * Summary:
 195:.\Generated_Source\PSoC5/USBUART_drv.c **** *  This routine handles EP0 IN transfers.
 196:.\Generated_Source\PSoC5/USBUART_drv.c **** *
 197:.\Generated_Source\PSoC5/USBUART_drv.c **** * Parameters:
 198:.\Generated_Source\PSoC5/USBUART_drv.c **** *  None.
 199:.\Generated_Source\PSoC5/USBUART_drv.c **** *
 200:.\Generated_Source\PSoC5/USBUART_drv.c **** * Return:
 201:.\Generated_Source\PSoC5/USBUART_drv.c **** *  None.
 202:.\Generated_Source\PSoC5/USBUART_drv.c **** *
ARM GAS  C:\Users\JohnP\AppData\Local\Temp\ccW8ACZv.s 			page 5


 203:.\Generated_Source\PSoC5/USBUART_drv.c **** * Reentrant:
 204:.\Generated_Source\PSoC5/USBUART_drv.c **** *  No.
 205:.\Generated_Source\PSoC5/USBUART_drv.c **** *
 206:.\Generated_Source\PSoC5/USBUART_drv.c **** *******************************************************************************/
 207:.\Generated_Source\PSoC5/USBUART_drv.c **** void USBUART_HandleIN(void) 
 208:.\Generated_Source\PSoC5/USBUART_drv.c **** {
 209:.\Generated_Source\PSoC5/USBUART_drv.c ****     switch (USBUART_transferState)
 210:.\Generated_Source\PSoC5/USBUART_drv.c ****     {
 211:.\Generated_Source\PSoC5/USBUART_drv.c ****         case USBUART_TRANS_STATE_IDLE:
 212:.\Generated_Source\PSoC5/USBUART_drv.c ****             break;
 213:.\Generated_Source\PSoC5/USBUART_drv.c ****         case USBUART_TRANS_STATE_CONTROL_READ:
 214:.\Generated_Source\PSoC5/USBUART_drv.c ****             USBUART_ControlReadDataStage();
 215:.\Generated_Source\PSoC5/USBUART_drv.c ****             break;
 216:.\Generated_Source\PSoC5/USBUART_drv.c ****         case USBUART_TRANS_STATE_CONTROL_WRITE:
 217:.\Generated_Source\PSoC5/USBUART_drv.c ****             USBUART_ControlWriteStatusStage();
 218:.\Generated_Source\PSoC5/USBUART_drv.c ****             break;
 219:.\Generated_Source\PSoC5/USBUART_drv.c ****         case USBUART_TRANS_STATE_NO_DATA_CONTROL:
 220:.\Generated_Source\PSoC5/USBUART_drv.c ****             USBUART_NoDataControlStatusStage();
 221:.\Generated_Source\PSoC5/USBUART_drv.c ****             break;
 222:.\Generated_Source\PSoC5/USBUART_drv.c ****         default:    /* there are no more states */
 223:.\Generated_Source\PSoC5/USBUART_drv.c ****             break;
 224:.\Generated_Source\PSoC5/USBUART_drv.c ****     }
 225:.\Generated_Source\PSoC5/USBUART_drv.c **** }
 226:.\Generated_Source\PSoC5/USBUART_drv.c **** 
 227:.\Generated_Source\PSoC5/USBUART_drv.c **** 
 228:.\Generated_Source\PSoC5/USBUART_drv.c **** /*******************************************************************************
 229:.\Generated_Source\PSoC5/USBUART_drv.c **** * Function Name: USBUART_HandleOUT
 230:.\Generated_Source\PSoC5/USBUART_drv.c **** ********************************************************************************
 231:.\Generated_Source\PSoC5/USBUART_drv.c **** *
 232:.\Generated_Source\PSoC5/USBUART_drv.c **** * Summary:
 233:.\Generated_Source\PSoC5/USBUART_drv.c **** *  This routine handles EP0 OUT transfers.
 234:.\Generated_Source\PSoC5/USBUART_drv.c **** *
 235:.\Generated_Source\PSoC5/USBUART_drv.c **** * Parameters:
 236:.\Generated_Source\PSoC5/USBUART_drv.c **** *  None.
 237:.\Generated_Source\PSoC5/USBUART_drv.c **** *
 238:.\Generated_Source\PSoC5/USBUART_drv.c **** * Return:
 239:.\Generated_Source\PSoC5/USBUART_drv.c **** *  None.
 240:.\Generated_Source\PSoC5/USBUART_drv.c **** *
 241:.\Generated_Source\PSoC5/USBUART_drv.c **** * Reentrant:
 242:.\Generated_Source\PSoC5/USBUART_drv.c **** *  No.
 243:.\Generated_Source\PSoC5/USBUART_drv.c **** *
 244:.\Generated_Source\PSoC5/USBUART_drv.c **** *******************************************************************************/
 245:.\Generated_Source\PSoC5/USBUART_drv.c **** void USBUART_HandleOUT(void) 
 246:.\Generated_Source\PSoC5/USBUART_drv.c **** {
 247:.\Generated_Source\PSoC5/USBUART_drv.c ****     switch (USBUART_transferState)
 248:.\Generated_Source\PSoC5/USBUART_drv.c ****     {
 249:.\Generated_Source\PSoC5/USBUART_drv.c ****         case USBUART_TRANS_STATE_IDLE:
 250:.\Generated_Source\PSoC5/USBUART_drv.c ****             break;
 251:.\Generated_Source\PSoC5/USBUART_drv.c ****         case USBUART_TRANS_STATE_CONTROL_READ:
 252:.\Generated_Source\PSoC5/USBUART_drv.c ****             USBUART_ControlReadStatusStage();
 253:.\Generated_Source\PSoC5/USBUART_drv.c ****             break;
 254:.\Generated_Source\PSoC5/USBUART_drv.c ****         case USBUART_TRANS_STATE_CONTROL_WRITE:
 255:.\Generated_Source\PSoC5/USBUART_drv.c ****             USBUART_ControlWriteDataStage();
 256:.\Generated_Source\PSoC5/USBUART_drv.c ****             break;
 257:.\Generated_Source\PSoC5/USBUART_drv.c ****         case USBUART_TRANS_STATE_NO_DATA_CONTROL:
 258:.\Generated_Source\PSoC5/USBUART_drv.c ****             /* Update the completion block */
 259:.\Generated_Source\PSoC5/USBUART_drv.c ****             USBUART_UpdateStatusBlock(USBUART_XFER_ERROR);
ARM GAS  C:\Users\JohnP\AppData\Local\Temp\ccW8ACZv.s 			page 6


 260:.\Generated_Source\PSoC5/USBUART_drv.c ****             /* We expect no more data, so stall INs and OUTs */
 261:.\Generated_Source\PSoC5/USBUART_drv.c ****             USBUART_ep0Mode = USBUART_MODE_STALL_IN_OUT;
 262:.\Generated_Source\PSoC5/USBUART_drv.c ****             break;
 263:.\Generated_Source\PSoC5/USBUART_drv.c ****         default:    /* There are no more states */
 264:.\Generated_Source\PSoC5/USBUART_drv.c ****             break;
 265:.\Generated_Source\PSoC5/USBUART_drv.c ****     }
 266:.\Generated_Source\PSoC5/USBUART_drv.c **** }
 267:.\Generated_Source\PSoC5/USBUART_drv.c **** 
 268:.\Generated_Source\PSoC5/USBUART_drv.c **** 
 269:.\Generated_Source\PSoC5/USBUART_drv.c **** /*******************************************************************************
 270:.\Generated_Source\PSoC5/USBUART_drv.c **** * Function Name: USBUART_LoadEP0
 271:.\Generated_Source\PSoC5/USBUART_drv.c **** ********************************************************************************
 272:.\Generated_Source\PSoC5/USBUART_drv.c **** *
 273:.\Generated_Source\PSoC5/USBUART_drv.c **** * Summary:
 274:.\Generated_Source\PSoC5/USBUART_drv.c **** *  This routine loads the EP0 data registers for OUT transfers.  It uses the
 275:.\Generated_Source\PSoC5/USBUART_drv.c **** *  currentTD (previously initialized by the _InitControlWrite function and
 276:.\Generated_Source\PSoC5/USBUART_drv.c **** *  updated for each OUT transfer, and the bLastPacketSize) to determine how
 277:.\Generated_Source\PSoC5/USBUART_drv.c **** *  many uint8s to transfer on the current OUT.
 278:.\Generated_Source\PSoC5/USBUART_drv.c **** *
 279:.\Generated_Source\PSoC5/USBUART_drv.c **** *  If the number of uint8s remaining is zero and the last transfer was full,
 280:.\Generated_Source\PSoC5/USBUART_drv.c **** *  we need to send a zero length packet.  Otherwise we send the minimum
 281:.\Generated_Source\PSoC5/USBUART_drv.c **** *  of the control endpoint size (8) or remaining number of uint8s for the
 282:.\Generated_Source\PSoC5/USBUART_drv.c **** *  transaction.
 283:.\Generated_Source\PSoC5/USBUART_drv.c **** *
 284:.\Generated_Source\PSoC5/USBUART_drv.c **** * Parameters:
 285:.\Generated_Source\PSoC5/USBUART_drv.c **** *  None.
 286:.\Generated_Source\PSoC5/USBUART_drv.c **** *
 287:.\Generated_Source\PSoC5/USBUART_drv.c **** * Return:
 288:.\Generated_Source\PSoC5/USBUART_drv.c **** *  None.
 289:.\Generated_Source\PSoC5/USBUART_drv.c **** *
 290:.\Generated_Source\PSoC5/USBUART_drv.c **** * Global variables:
 291:.\Generated_Source\PSoC5/USBUART_drv.c **** *  USBUART_transferByteCount - Update the transfer byte count from the
 292:.\Generated_Source\PSoC5/USBUART_drv.c **** *     last transaction.
 293:.\Generated_Source\PSoC5/USBUART_drv.c **** *  USBUART_ep0Count - counts the data loaded to the SIE memory in
 294:.\Generated_Source\PSoC5/USBUART_drv.c **** *     current packet.
 295:.\Generated_Source\PSoC5/USBUART_drv.c **** *  USBUART_lastPacketSize - remembers the USBFS_ep0Count value for the
 296:.\Generated_Source\PSoC5/USBUART_drv.c **** *     next packet.
 297:.\Generated_Source\PSoC5/USBUART_drv.c **** *  USBUART_transferByteCount - sum of the previous bytes transferred
 298:.\Generated_Source\PSoC5/USBUART_drv.c **** *     on previous packets(sum of USBFS_lastPacketSize)
 299:.\Generated_Source\PSoC5/USBUART_drv.c **** *  USBUART_ep0Toggle - inverted
 300:.\Generated_Source\PSoC5/USBUART_drv.c **** *  USBUART_ep0Mode  - prepare for mode register content.
 301:.\Generated_Source\PSoC5/USBUART_drv.c **** *  USBUART_transferState - set to TRANS_STATE_CONTROL_READ
 302:.\Generated_Source\PSoC5/USBUART_drv.c **** *
 303:.\Generated_Source\PSoC5/USBUART_drv.c **** * Reentrant:
 304:.\Generated_Source\PSoC5/USBUART_drv.c **** *  No.
 305:.\Generated_Source\PSoC5/USBUART_drv.c **** *
 306:.\Generated_Source\PSoC5/USBUART_drv.c **** *******************************************************************************/
 307:.\Generated_Source\PSoC5/USBUART_drv.c **** void USBUART_LoadEP0(void) 
 308:.\Generated_Source\PSoC5/USBUART_drv.c **** {
  27              		.loc 1 308 0
  28              		.cfi_startproc
  29              		@ args = 0, pretend = 0, frame = 0
  30              		@ frame_needed = 0, uses_anonymous_args = 0
  31              		@ link register save eliminated.
  32              	.LVL0:
 309:.\Generated_Source\PSoC5/USBUART_drv.c ****     uint8 ep0Count = 0u;
 310:.\Generated_Source\PSoC5/USBUART_drv.c **** 
ARM GAS  C:\Users\JohnP\AppData\Local\Temp\ccW8ACZv.s 			page 7


 311:.\Generated_Source\PSoC5/USBUART_drv.c ****     /* Update the transfer byte count from the last transaction */
 312:.\Generated_Source\PSoC5/USBUART_drv.c ****     USBUART_transferByteCount += USBUART_lastPacketSize;
  33              		.loc 1 312 0
  34 0000 1D4B     		ldr	r3, .L8
  35 0002 1978     		ldrb	r1, [r3]	@ zero_extendqisi2
  36 0004 1D4B     		ldr	r3, .L8+4
  37 0006 1A88     		ldrh	r2, [r3]
  38 0008 0A44     		add	r2, r2, r1
  39 000a 92B2     		uxth	r2, r2
  40 000c 1A80     		strh	r2, [r3]	@ movhi
 309:.\Generated_Source\PSoC5/USBUART_drv.c ****     uint8 ep0Count = 0u;
  41              		.loc 1 309 0
  42 000e 0022     		movs	r2, #0
 313:.\Generated_Source\PSoC5/USBUART_drv.c ****     /* Now load the next transaction */
 314:.\Generated_Source\PSoC5/USBUART_drv.c ****     while ((USBUART_currentTD.count > 0u) && (ep0Count < 8u))
  43              		.loc 1 314 0
  44 0010 1B4B     		ldr	r3, .L8+8
  45 0012 10E0     		b	.L2
  46              	.LVL1:
  47              	.L4:
 315:.\Generated_Source\PSoC5/USBUART_drv.c ****     {
 316:.\Generated_Source\PSoC5/USBUART_drv.c ****         CY_SET_REG8((reg8 *)(USBUART_EP0_DR0_IND + ep0Count), *USBUART_currentTD.pData);
  48              		.loc 1 316 0
  49 0014 02F18041 		add	r1, r2, #1073741824
  50 0018 01F5C041 		add	r1, r1, #24576
  51 001c 5868     		ldr	r0, [r3, #4]
  52 001e 0078     		ldrb	r0, [r0]	@ zero_extendqisi2
  53 0020 C0B2     		uxtb	r0, r0
  54 0022 0870     		strb	r0, [r1]
 317:.\Generated_Source\PSoC5/USBUART_drv.c ****         USBUART_currentTD.pData = &USBUART_currentTD.pData[1u];
  55              		.loc 1 317 0
  56 0024 5968     		ldr	r1, [r3, #4]
  57 0026 0131     		adds	r1, r1, #1
  58 0028 5960     		str	r1, [r3, #4]
 318:.\Generated_Source\PSoC5/USBUART_drv.c ****         ep0Count++;
  59              		.loc 1 318 0
  60 002a 0132     		adds	r2, r2, #1
  61              	.LVL2:
  62 002c D2B2     		uxtb	r2, r2
  63              	.LVL3:
 319:.\Generated_Source\PSoC5/USBUART_drv.c ****         USBUART_currentTD.count--;
  64              		.loc 1 319 0
  65 002e 1988     		ldrh	r1, [r3]
  66 0030 0139     		subs	r1, r1, #1
  67 0032 89B2     		uxth	r1, r1
  68 0034 1980     		strh	r1, [r3]	@ movhi
  69              	.LVL4:
  70              	.L2:
 314:.\Generated_Source\PSoC5/USBUART_drv.c ****     while ((USBUART_currentTD.count > 0u) && (ep0Count < 8u))
  71              		.loc 1 314 0 discriminator 1
  72 0036 1988     		ldrh	r1, [r3]
  73 0038 89B2     		uxth	r1, r1
  74 003a 09B1     		cbz	r1, .L3
 314:.\Generated_Source\PSoC5/USBUART_drv.c ****     while ((USBUART_currentTD.count > 0u) && (ep0Count < 8u))
  75              		.loc 1 314 0 is_stmt 0 discriminator 2
  76 003c 072A     		cmp	r2, #7
  77 003e E9D9     		bls	.L4
ARM GAS  C:\Users\JohnP\AppData\Local\Temp\ccW8ACZv.s 			page 8


  78              	.L3:
 320:.\Generated_Source\PSoC5/USBUART_drv.c ****     }
 321:.\Generated_Source\PSoC5/USBUART_drv.c ****     /* Support zero-length packet*/
 322:.\Generated_Source\PSoC5/USBUART_drv.c ****     if( (USBUART_lastPacketSize == 8u) || (ep0Count > 0u) )
  79              		.loc 1 322 0 is_stmt 1
  80 0040 0D4B     		ldr	r3, .L8
  81 0042 1B78     		ldrb	r3, [r3]	@ zero_extendqisi2
  82 0044 DBB2     		uxtb	r3, r3
  83 0046 082B     		cmp	r3, #8
  84 0048 00D0     		beq	.L5
  85              		.loc 1 322 0 is_stmt 0 discriminator 1
  86 004a 5AB1     		cbz	r2, .L6
  87              	.L5:
 323:.\Generated_Source\PSoC5/USBUART_drv.c ****     {
 324:.\Generated_Source\PSoC5/USBUART_drv.c ****         /* Update the data toggle */
 325:.\Generated_Source\PSoC5/USBUART_drv.c ****         USBUART_ep0Toggle ^= USBUART_EP0_CNT_DATA_TOGGLE;
  88              		.loc 1 325 0 is_stmt 1
  89 004c 0D4B     		ldr	r3, .L8+12
  90 004e 1978     		ldrb	r1, [r3]	@ zero_extendqisi2
  91 0050 81F08001 		eor	r1, r1, #128
  92 0054 1970     		strb	r1, [r3]
 326:.\Generated_Source\PSoC5/USBUART_drv.c ****         /* Set the Mode Register  */
 327:.\Generated_Source\PSoC5/USBUART_drv.c ****         USBUART_ep0Mode = USBUART_MODE_ACK_IN_STATUS_OUT;
  93              		.loc 1 327 0
  94 0056 0F21     		movs	r1, #15
  95 0058 0B4B     		ldr	r3, .L8+16
  96 005a 1970     		strb	r1, [r3]
 328:.\Generated_Source\PSoC5/USBUART_drv.c ****         /* Update the state (or stay the same) */
 329:.\Generated_Source\PSoC5/USBUART_drv.c ****         USBUART_transferState = USBUART_TRANS_STATE_CONTROL_READ;
  97              		.loc 1 329 0
  98 005c 0221     		movs	r1, #2
  99 005e 0B4B     		ldr	r3, .L8+20
 100 0060 1970     		strb	r1, [r3]
 101 0062 04E0     		b	.L7
 102              	.L6:
 330:.\Generated_Source\PSoC5/USBUART_drv.c ****     }
 331:.\Generated_Source\PSoC5/USBUART_drv.c ****     else
 332:.\Generated_Source\PSoC5/USBUART_drv.c ****     {
 333:.\Generated_Source\PSoC5/USBUART_drv.c ****         /* Expect Status Stage Out */
 334:.\Generated_Source\PSoC5/USBUART_drv.c ****         USBUART_ep0Mode = USBUART_MODE_STATUS_OUT_ONLY;
 103              		.loc 1 334 0
 104 0064 0223     		movs	r3, #2
 105 0066 0849     		ldr	r1, .L8+16
 106 0068 0B70     		strb	r3, [r1]
 335:.\Generated_Source\PSoC5/USBUART_drv.c ****         /* Update the state (or stay the same) */
 336:.\Generated_Source\PSoC5/USBUART_drv.c ****         USBUART_transferState = USBUART_TRANS_STATE_CONTROL_READ;
 107              		.loc 1 336 0
 108 006a 0849     		ldr	r1, .L8+20
 109 006c 0B70     		strb	r3, [r1]
 110              	.L7:
 337:.\Generated_Source\PSoC5/USBUART_drv.c ****     }
 338:.\Generated_Source\PSoC5/USBUART_drv.c **** 
 339:.\Generated_Source\PSoC5/USBUART_drv.c ****     /* Save the packet size for next time */
 340:.\Generated_Source\PSoC5/USBUART_drv.c ****     USBUART_lastPacketSize = ep0Count;
 111              		.loc 1 340 0
 112 006e 024B     		ldr	r3, .L8
 113 0070 1A70     		strb	r2, [r3]
ARM GAS  C:\Users\JohnP\AppData\Local\Temp\ccW8ACZv.s 			page 9


 341:.\Generated_Source\PSoC5/USBUART_drv.c ****     USBUART_ep0Count = ep0Count;
 114              		.loc 1 341 0
 115 0072 074B     		ldr	r3, .L8+24
 116 0074 1A70     		strb	r2, [r3]
 117 0076 7047     		bx	lr
 118              	.L9:
 119              		.align	2
 120              	.L8:
 121 0078 00000000 		.word	USBUART_lastPacketSize
 122 007c 00000000 		.word	USBUART_transferByteCount
 123 0080 00000000 		.word	USBUART_currentTD
 124 0084 00000000 		.word	USBUART_ep0Toggle
 125 0088 00000000 		.word	USBUART_ep0Mode
 126 008c 00000000 		.word	USBUART_transferState
 127 0090 00000000 		.word	USBUART_ep0Count
 128              		.cfi_endproc
 129              	.LFE4:
 130              		.size	USBUART_LoadEP0, .-USBUART_LoadEP0
 131              		.section	.text.USBUART_InitZeroLengthControlTransfer,"ax",%progbits
 132              		.align	2
 133              		.global	USBUART_InitZeroLengthControlTransfer
 134              		.thumb
 135              		.thumb_func
 136              		.type	USBUART_InitZeroLengthControlTransfer, %function
 137              	USBUART_InitZeroLengthControlTransfer:
 138              	.LFB6:
 342:.\Generated_Source\PSoC5/USBUART_drv.c **** }
 343:.\Generated_Source\PSoC5/USBUART_drv.c **** 
 344:.\Generated_Source\PSoC5/USBUART_drv.c **** 
 345:.\Generated_Source\PSoC5/USBUART_drv.c **** /*******************************************************************************
 346:.\Generated_Source\PSoC5/USBUART_drv.c **** * Function Name: USBUART_InitControlRead
 347:.\Generated_Source\PSoC5/USBUART_drv.c **** ********************************************************************************
 348:.\Generated_Source\PSoC5/USBUART_drv.c **** *
 349:.\Generated_Source\PSoC5/USBUART_drv.c **** * Summary:
 350:.\Generated_Source\PSoC5/USBUART_drv.c **** *  Initialize a control read transaction, usable to send data to the host.
 351:.\Generated_Source\PSoC5/USBUART_drv.c **** *  The following global variables should be initialized before this function
 352:.\Generated_Source\PSoC5/USBUART_drv.c **** *  called. To send zero length packet use InitZeroLengthControlTransfer
 353:.\Generated_Source\PSoC5/USBUART_drv.c **** *  function.
 354:.\Generated_Source\PSoC5/USBUART_drv.c **** *
 355:.\Generated_Source\PSoC5/USBUART_drv.c **** * Parameters:
 356:.\Generated_Source\PSoC5/USBUART_drv.c **** *  None.
 357:.\Generated_Source\PSoC5/USBUART_drv.c **** *
 358:.\Generated_Source\PSoC5/USBUART_drv.c **** * Return:
 359:.\Generated_Source\PSoC5/USBUART_drv.c **** *  requestHandled state.
 360:.\Generated_Source\PSoC5/USBUART_drv.c **** *
 361:.\Generated_Source\PSoC5/USBUART_drv.c **** * Global variables:
 362:.\Generated_Source\PSoC5/USBUART_drv.c **** *  USBUART_currentTD.count - counts of data to be sent.
 363:.\Generated_Source\PSoC5/USBUART_drv.c **** *  USBUART_currentTD.pData - data pointer.
 364:.\Generated_Source\PSoC5/USBUART_drv.c **** *
 365:.\Generated_Source\PSoC5/USBUART_drv.c **** * Reentrant:
 366:.\Generated_Source\PSoC5/USBUART_drv.c **** *  No.
 367:.\Generated_Source\PSoC5/USBUART_drv.c **** *
 368:.\Generated_Source\PSoC5/USBUART_drv.c **** *******************************************************************************/
 369:.\Generated_Source\PSoC5/USBUART_drv.c **** uint8 USBUART_InitControlRead(void) 
 370:.\Generated_Source\PSoC5/USBUART_drv.c **** {
 371:.\Generated_Source\PSoC5/USBUART_drv.c ****     uint16 xferCount;
 372:.\Generated_Source\PSoC5/USBUART_drv.c ****     if(USBUART_currentTD.count == 0u)
ARM GAS  C:\Users\JohnP\AppData\Local\Temp\ccW8ACZv.s 			page 10


 373:.\Generated_Source\PSoC5/USBUART_drv.c ****     {
 374:.\Generated_Source\PSoC5/USBUART_drv.c ****         (void) USBUART_InitZeroLengthControlTransfer();
 375:.\Generated_Source\PSoC5/USBUART_drv.c ****     }
 376:.\Generated_Source\PSoC5/USBUART_drv.c ****     else
 377:.\Generated_Source\PSoC5/USBUART_drv.c ****     {
 378:.\Generated_Source\PSoC5/USBUART_drv.c ****         /* Set up the state machine */
 379:.\Generated_Source\PSoC5/USBUART_drv.c ****         USBUART_transferState = USBUART_TRANS_STATE_CONTROL_READ;
 380:.\Generated_Source\PSoC5/USBUART_drv.c ****         /* Set the toggle, it gets updated in LoadEP */
 381:.\Generated_Source\PSoC5/USBUART_drv.c ****         USBUART_ep0Toggle = 0u;
 382:.\Generated_Source\PSoC5/USBUART_drv.c ****         /* Initialize the Status Block */
 383:.\Generated_Source\PSoC5/USBUART_drv.c ****         USBUART_InitializeStatusBlock();
 384:.\Generated_Source\PSoC5/USBUART_drv.c ****         xferCount = (((uint16)CY_GET_REG8(USBUART_lengthHi) << 8u) | (CY_GET_REG8(USBUART_lengthLo)
 385:.\Generated_Source\PSoC5/USBUART_drv.c **** 
 386:.\Generated_Source\PSoC5/USBUART_drv.c ****         if (USBUART_currentTD.count > xferCount)
 387:.\Generated_Source\PSoC5/USBUART_drv.c ****         {
 388:.\Generated_Source\PSoC5/USBUART_drv.c ****             USBUART_currentTD.count = xferCount;
 389:.\Generated_Source\PSoC5/USBUART_drv.c ****         }
 390:.\Generated_Source\PSoC5/USBUART_drv.c ****         USBUART_LoadEP0();
 391:.\Generated_Source\PSoC5/USBUART_drv.c ****     }
 392:.\Generated_Source\PSoC5/USBUART_drv.c **** 
 393:.\Generated_Source\PSoC5/USBUART_drv.c ****     return(USBUART_TRUE);
 394:.\Generated_Source\PSoC5/USBUART_drv.c **** }
 395:.\Generated_Source\PSoC5/USBUART_drv.c **** 
 396:.\Generated_Source\PSoC5/USBUART_drv.c **** 
 397:.\Generated_Source\PSoC5/USBUART_drv.c **** /*******************************************************************************
 398:.\Generated_Source\PSoC5/USBUART_drv.c **** * Function Name: USBUART_InitZeroLengthControlTransfer
 399:.\Generated_Source\PSoC5/USBUART_drv.c **** ********************************************************************************
 400:.\Generated_Source\PSoC5/USBUART_drv.c **** *
 401:.\Generated_Source\PSoC5/USBUART_drv.c **** * Summary:
 402:.\Generated_Source\PSoC5/USBUART_drv.c **** *  Initialize a zero length data IN transfer.
 403:.\Generated_Source\PSoC5/USBUART_drv.c **** *
 404:.\Generated_Source\PSoC5/USBUART_drv.c **** * Parameters:
 405:.\Generated_Source\PSoC5/USBUART_drv.c **** *  None.
 406:.\Generated_Source\PSoC5/USBUART_drv.c **** *
 407:.\Generated_Source\PSoC5/USBUART_drv.c **** * Return:
 408:.\Generated_Source\PSoC5/USBUART_drv.c **** *  requestHandled state.
 409:.\Generated_Source\PSoC5/USBUART_drv.c **** *
 410:.\Generated_Source\PSoC5/USBUART_drv.c **** * Global variables:
 411:.\Generated_Source\PSoC5/USBUART_drv.c **** *  USBUART_ep0Toggle - set to EP0_CNT_DATA_TOGGLE
 412:.\Generated_Source\PSoC5/USBUART_drv.c **** *  USBUART_ep0Mode  - prepare for mode register content.
 413:.\Generated_Source\PSoC5/USBUART_drv.c **** *  USBUART_transferState - set to TRANS_STATE_CONTROL_READ
 414:.\Generated_Source\PSoC5/USBUART_drv.c **** *  USBUART_ep0Count - cleared, means the zero-length packet.
 415:.\Generated_Source\PSoC5/USBUART_drv.c **** *  USBUART_lastPacketSize - cleared.
 416:.\Generated_Source\PSoC5/USBUART_drv.c **** *
 417:.\Generated_Source\PSoC5/USBUART_drv.c **** * Reentrant:
 418:.\Generated_Source\PSoC5/USBUART_drv.c **** *  No.
 419:.\Generated_Source\PSoC5/USBUART_drv.c **** *
 420:.\Generated_Source\PSoC5/USBUART_drv.c **** *******************************************************************************/
 421:.\Generated_Source\PSoC5/USBUART_drv.c **** uint8 USBUART_InitZeroLengthControlTransfer(void)
 422:.\Generated_Source\PSoC5/USBUART_drv.c ****                                                 
 423:.\Generated_Source\PSoC5/USBUART_drv.c **** {
 139              		.loc 1 423 0
 140              		.cfi_startproc
 141              		@ args = 0, pretend = 0, frame = 0
 142              		@ frame_needed = 0, uses_anonymous_args = 0
 143              		@ link register save eliminated.
 424:.\Generated_Source\PSoC5/USBUART_drv.c ****     /* Update the state */
ARM GAS  C:\Users\JohnP\AppData\Local\Temp\ccW8ACZv.s 			page 11


 425:.\Generated_Source\PSoC5/USBUART_drv.c ****     USBUART_transferState = USBUART_TRANS_STATE_CONTROL_READ;
 144              		.loc 1 425 0
 145 0000 0222     		movs	r2, #2
 146 0002 074B     		ldr	r3, .L11
 147 0004 1A70     		strb	r2, [r3]
 426:.\Generated_Source\PSoC5/USBUART_drv.c ****     /* Set the data toggle */
 427:.\Generated_Source\PSoC5/USBUART_drv.c ****     USBUART_ep0Toggle = USBUART_EP0_CNT_DATA_TOGGLE;
 148              		.loc 1 427 0
 149 0006 8022     		movs	r2, #128
 150 0008 064B     		ldr	r3, .L11+4
 151 000a 1A70     		strb	r2, [r3]
 428:.\Generated_Source\PSoC5/USBUART_drv.c ****     /* Set the Mode Register  */
 429:.\Generated_Source\PSoC5/USBUART_drv.c ****     USBUART_ep0Mode = USBUART_MODE_ACK_IN_STATUS_OUT;
 152              		.loc 1 429 0
 153 000c 0F22     		movs	r2, #15
 154 000e 064B     		ldr	r3, .L11+8
 155 0010 1A70     		strb	r2, [r3]
 430:.\Generated_Source\PSoC5/USBUART_drv.c ****     /* Save the packet size for next time */
 431:.\Generated_Source\PSoC5/USBUART_drv.c ****     USBUART_lastPacketSize = 0u;
 156              		.loc 1 431 0
 157 0012 0023     		movs	r3, #0
 158 0014 054A     		ldr	r2, .L11+12
 159 0016 1370     		strb	r3, [r2]
 432:.\Generated_Source\PSoC5/USBUART_drv.c ****     USBUART_ep0Count = 0u;
 160              		.loc 1 432 0
 161 0018 054A     		ldr	r2, .L11+16
 162 001a 1370     		strb	r3, [r2]
 433:.\Generated_Source\PSoC5/USBUART_drv.c **** 
 434:.\Generated_Source\PSoC5/USBUART_drv.c ****     return(USBUART_TRUE);
 435:.\Generated_Source\PSoC5/USBUART_drv.c **** }
 163              		.loc 1 435 0
 164 001c 0120     		movs	r0, #1
 165 001e 7047     		bx	lr
 166              	.L12:
 167              		.align	2
 168              	.L11:
 169 0020 00000000 		.word	USBUART_transferState
 170 0024 00000000 		.word	USBUART_ep0Toggle
 171 0028 00000000 		.word	USBUART_ep0Mode
 172 002c 00000000 		.word	USBUART_lastPacketSize
 173 0030 00000000 		.word	USBUART_ep0Count
 174              		.cfi_endproc
 175              	.LFE6:
 176              		.size	USBUART_InitZeroLengthControlTransfer, .-USBUART_InitZeroLengthControlTransfer
 177              		.section	.text.USBUART_ControlReadDataStage,"ax",%progbits
 178              		.align	2
 179              		.global	USBUART_ControlReadDataStage
 180              		.thumb
 181              		.thumb_func
 182              		.type	USBUART_ControlReadDataStage, %function
 183              	USBUART_ControlReadDataStage:
 184              	.LFB7:
 436:.\Generated_Source\PSoC5/USBUART_drv.c **** 
 437:.\Generated_Source\PSoC5/USBUART_drv.c **** 
 438:.\Generated_Source\PSoC5/USBUART_drv.c **** /*******************************************************************************
 439:.\Generated_Source\PSoC5/USBUART_drv.c **** * Function Name: USBUART_ControlReadDataStage
 440:.\Generated_Source\PSoC5/USBUART_drv.c **** ********************************************************************************
ARM GAS  C:\Users\JohnP\AppData\Local\Temp\ccW8ACZv.s 			page 12


 441:.\Generated_Source\PSoC5/USBUART_drv.c **** *
 442:.\Generated_Source\PSoC5/USBUART_drv.c **** * Summary:
 443:.\Generated_Source\PSoC5/USBUART_drv.c **** *  Handle the Data Stage of a control read transfer.
 444:.\Generated_Source\PSoC5/USBUART_drv.c **** *
 445:.\Generated_Source\PSoC5/USBUART_drv.c **** * Parameters:
 446:.\Generated_Source\PSoC5/USBUART_drv.c **** *  None.
 447:.\Generated_Source\PSoC5/USBUART_drv.c **** *
 448:.\Generated_Source\PSoC5/USBUART_drv.c **** * Return:
 449:.\Generated_Source\PSoC5/USBUART_drv.c **** *  None.
 450:.\Generated_Source\PSoC5/USBUART_drv.c **** *
 451:.\Generated_Source\PSoC5/USBUART_drv.c **** * Reentrant:
 452:.\Generated_Source\PSoC5/USBUART_drv.c **** *  No.
 453:.\Generated_Source\PSoC5/USBUART_drv.c **** *
 454:.\Generated_Source\PSoC5/USBUART_drv.c **** *******************************************************************************/
 455:.\Generated_Source\PSoC5/USBUART_drv.c **** void USBUART_ControlReadDataStage(void) 
 456:.\Generated_Source\PSoC5/USBUART_drv.c **** 
 457:.\Generated_Source\PSoC5/USBUART_drv.c **** {
 185              		.loc 1 457 0
 186              		.cfi_startproc
 187              		@ args = 0, pretend = 0, frame = 0
 188              		@ frame_needed = 0, uses_anonymous_args = 0
 189 0000 08B5     		push	{r3, lr}
 190              		.cfi_def_cfa_offset 8
 191              		.cfi_offset 3, -8
 192              		.cfi_offset 14, -4
 458:.\Generated_Source\PSoC5/USBUART_drv.c ****     USBUART_LoadEP0();
 193              		.loc 1 458 0
 194 0002 FFF7FEFF 		bl	USBUART_LoadEP0
 195              	.LVL5:
 196 0006 08BD     		pop	{r3, pc}
 197              		.cfi_endproc
 198              	.LFE7:
 199              		.size	USBUART_ControlReadDataStage, .-USBUART_ControlReadDataStage
 200              		.section	.text.USBUART_ControlWriteDataStage,"ax",%progbits
 201              		.align	2
 202              		.global	USBUART_ControlWriteDataStage
 203              		.thumb
 204              		.thumb_func
 205              		.type	USBUART_ControlWriteDataStage, %function
 206              	USBUART_ControlWriteDataStage:
 207              	.LFB10:
 459:.\Generated_Source\PSoC5/USBUART_drv.c **** }
 460:.\Generated_Source\PSoC5/USBUART_drv.c **** 
 461:.\Generated_Source\PSoC5/USBUART_drv.c **** 
 462:.\Generated_Source\PSoC5/USBUART_drv.c **** /*******************************************************************************
 463:.\Generated_Source\PSoC5/USBUART_drv.c **** * Function Name: USBUART_ControlReadStatusStage
 464:.\Generated_Source\PSoC5/USBUART_drv.c **** ********************************************************************************
 465:.\Generated_Source\PSoC5/USBUART_drv.c **** *
 466:.\Generated_Source\PSoC5/USBUART_drv.c **** * Summary:
 467:.\Generated_Source\PSoC5/USBUART_drv.c **** *  Handle the Status Stage of a control read transfer.
 468:.\Generated_Source\PSoC5/USBUART_drv.c **** *
 469:.\Generated_Source\PSoC5/USBUART_drv.c **** * Parameters:
 470:.\Generated_Source\PSoC5/USBUART_drv.c **** *  None.
 471:.\Generated_Source\PSoC5/USBUART_drv.c **** *
 472:.\Generated_Source\PSoC5/USBUART_drv.c **** * Return:
 473:.\Generated_Source\PSoC5/USBUART_drv.c **** *  None.
 474:.\Generated_Source\PSoC5/USBUART_drv.c **** *
ARM GAS  C:\Users\JohnP\AppData\Local\Temp\ccW8ACZv.s 			page 13


 475:.\Generated_Source\PSoC5/USBUART_drv.c **** * Global variables:
 476:.\Generated_Source\PSoC5/USBUART_drv.c **** *  USBUART_USBFS_transferByteCount - updated with last packet size.
 477:.\Generated_Source\PSoC5/USBUART_drv.c **** *  USBUART_transferState - set to TRANS_STATE_IDLE.
 478:.\Generated_Source\PSoC5/USBUART_drv.c **** *  USBUART_ep0Mode  - set to MODE_STALL_IN_OUT.
 479:.\Generated_Source\PSoC5/USBUART_drv.c **** *
 480:.\Generated_Source\PSoC5/USBUART_drv.c **** * Reentrant:
 481:.\Generated_Source\PSoC5/USBUART_drv.c **** *  No.
 482:.\Generated_Source\PSoC5/USBUART_drv.c **** *
 483:.\Generated_Source\PSoC5/USBUART_drv.c **** *******************************************************************************/
 484:.\Generated_Source\PSoC5/USBUART_drv.c **** void USBUART_ControlReadStatusStage(void) 
 485:.\Generated_Source\PSoC5/USBUART_drv.c **** {
 486:.\Generated_Source\PSoC5/USBUART_drv.c ****     /* Update the transfer byte count */
 487:.\Generated_Source\PSoC5/USBUART_drv.c ****     USBUART_transferByteCount += USBUART_lastPacketSize;
 488:.\Generated_Source\PSoC5/USBUART_drv.c ****     /* Go Idle */
 489:.\Generated_Source\PSoC5/USBUART_drv.c ****     USBUART_transferState = USBUART_TRANS_STATE_IDLE;
 490:.\Generated_Source\PSoC5/USBUART_drv.c ****     /* Update the completion block */
 491:.\Generated_Source\PSoC5/USBUART_drv.c ****     USBUART_UpdateStatusBlock(USBUART_XFER_STATUS_ACK);
 492:.\Generated_Source\PSoC5/USBUART_drv.c ****     /* We expect no more data, so stall INs and OUTs */
 493:.\Generated_Source\PSoC5/USBUART_drv.c ****     USBUART_ep0Mode =  USBUART_MODE_STALL_IN_OUT;
 494:.\Generated_Source\PSoC5/USBUART_drv.c **** }
 495:.\Generated_Source\PSoC5/USBUART_drv.c **** 
 496:.\Generated_Source\PSoC5/USBUART_drv.c **** 
 497:.\Generated_Source\PSoC5/USBUART_drv.c **** /*******************************************************************************
 498:.\Generated_Source\PSoC5/USBUART_drv.c **** * Function Name: USBUART_InitControlWrite
 499:.\Generated_Source\PSoC5/USBUART_drv.c **** ********************************************************************************
 500:.\Generated_Source\PSoC5/USBUART_drv.c **** *
 501:.\Generated_Source\PSoC5/USBUART_drv.c **** * Summary:
 502:.\Generated_Source\PSoC5/USBUART_drv.c **** *  Initialize a control write transaction
 503:.\Generated_Source\PSoC5/USBUART_drv.c **** *
 504:.\Generated_Source\PSoC5/USBUART_drv.c **** * Parameters:
 505:.\Generated_Source\PSoC5/USBUART_drv.c **** *  None.
 506:.\Generated_Source\PSoC5/USBUART_drv.c **** *
 507:.\Generated_Source\PSoC5/USBUART_drv.c **** * Return:
 508:.\Generated_Source\PSoC5/USBUART_drv.c **** *  requestHandled state.
 509:.\Generated_Source\PSoC5/USBUART_drv.c **** *
 510:.\Generated_Source\PSoC5/USBUART_drv.c **** * Global variables:
 511:.\Generated_Source\PSoC5/USBUART_drv.c **** *  USBUART_USBFS_transferState - set to TRANS_STATE_CONTROL_WRITE
 512:.\Generated_Source\PSoC5/USBUART_drv.c **** *  USBUART_ep0Toggle - set to EP0_CNT_DATA_TOGGLE
 513:.\Generated_Source\PSoC5/USBUART_drv.c **** *  USBUART_ep0Mode  - set to MODE_ACK_OUT_STATUS_IN
 514:.\Generated_Source\PSoC5/USBUART_drv.c **** *
 515:.\Generated_Source\PSoC5/USBUART_drv.c **** * Reentrant:
 516:.\Generated_Source\PSoC5/USBUART_drv.c **** *  No.
 517:.\Generated_Source\PSoC5/USBUART_drv.c **** *
 518:.\Generated_Source\PSoC5/USBUART_drv.c **** *******************************************************************************/
 519:.\Generated_Source\PSoC5/USBUART_drv.c **** uint8 USBUART_InitControlWrite(void) 
 520:.\Generated_Source\PSoC5/USBUART_drv.c **** {
 521:.\Generated_Source\PSoC5/USBUART_drv.c ****     uint16 xferCount;
 522:.\Generated_Source\PSoC5/USBUART_drv.c **** 
 523:.\Generated_Source\PSoC5/USBUART_drv.c ****     /* Set up the state machine */
 524:.\Generated_Source\PSoC5/USBUART_drv.c ****     USBUART_transferState = USBUART_TRANS_STATE_CONTROL_WRITE;
 525:.\Generated_Source\PSoC5/USBUART_drv.c ****     /* This might not be necessary */
 526:.\Generated_Source\PSoC5/USBUART_drv.c ****     USBUART_ep0Toggle = USBUART_EP0_CNT_DATA_TOGGLE;
 527:.\Generated_Source\PSoC5/USBUART_drv.c ****     /* Initialize the Status Block */
 528:.\Generated_Source\PSoC5/USBUART_drv.c ****     USBUART_InitializeStatusBlock();
 529:.\Generated_Source\PSoC5/USBUART_drv.c **** 
 530:.\Generated_Source\PSoC5/USBUART_drv.c ****     xferCount = (((uint16)CY_GET_REG8(USBUART_lengthHi) << 8u) | (CY_GET_REG8(USBUART_lengthLo)));
 531:.\Generated_Source\PSoC5/USBUART_drv.c **** 
ARM GAS  C:\Users\JohnP\AppData\Local\Temp\ccW8ACZv.s 			page 14


 532:.\Generated_Source\PSoC5/USBUART_drv.c ****     if (USBUART_currentTD.count > xferCount)
 533:.\Generated_Source\PSoC5/USBUART_drv.c ****     {
 534:.\Generated_Source\PSoC5/USBUART_drv.c ****         USBUART_currentTD.count = xferCount;
 535:.\Generated_Source\PSoC5/USBUART_drv.c ****     }
 536:.\Generated_Source\PSoC5/USBUART_drv.c **** 
 537:.\Generated_Source\PSoC5/USBUART_drv.c ****     /* Expect Data or Status Stage */
 538:.\Generated_Source\PSoC5/USBUART_drv.c ****     USBUART_ep0Mode = USBUART_MODE_ACK_OUT_STATUS_IN;
 539:.\Generated_Source\PSoC5/USBUART_drv.c **** 
 540:.\Generated_Source\PSoC5/USBUART_drv.c ****     return(USBUART_TRUE);
 541:.\Generated_Source\PSoC5/USBUART_drv.c **** }
 542:.\Generated_Source\PSoC5/USBUART_drv.c **** 
 543:.\Generated_Source\PSoC5/USBUART_drv.c **** 
 544:.\Generated_Source\PSoC5/USBUART_drv.c **** /*******************************************************************************
 545:.\Generated_Source\PSoC5/USBUART_drv.c **** * Function Name: USBUART_ControlWriteDataStage
 546:.\Generated_Source\PSoC5/USBUART_drv.c **** ********************************************************************************
 547:.\Generated_Source\PSoC5/USBUART_drv.c **** *
 548:.\Generated_Source\PSoC5/USBUART_drv.c **** * Summary:
 549:.\Generated_Source\PSoC5/USBUART_drv.c **** *  Handle the Data Stage of a control write transfer
 550:.\Generated_Source\PSoC5/USBUART_drv.c **** *       1. Get the data (We assume the destination was validated previously)
 551:.\Generated_Source\PSoC5/USBUART_drv.c **** *       2. Update the count and data toggle
 552:.\Generated_Source\PSoC5/USBUART_drv.c **** *       3. Update the mode register for the next transaction
 553:.\Generated_Source\PSoC5/USBUART_drv.c **** *
 554:.\Generated_Source\PSoC5/USBUART_drv.c **** * Parameters:
 555:.\Generated_Source\PSoC5/USBUART_drv.c **** *  None.
 556:.\Generated_Source\PSoC5/USBUART_drv.c **** *
 557:.\Generated_Source\PSoC5/USBUART_drv.c **** * Return:
 558:.\Generated_Source\PSoC5/USBUART_drv.c **** *  None.
 559:.\Generated_Source\PSoC5/USBUART_drv.c **** *
 560:.\Generated_Source\PSoC5/USBUART_drv.c **** * Global variables:
 561:.\Generated_Source\PSoC5/USBUART_drv.c **** *  USBUART_transferByteCount - Update the transfer byte count from the
 562:.\Generated_Source\PSoC5/USBUART_drv.c **** *    last transaction.
 563:.\Generated_Source\PSoC5/USBUART_drv.c **** *  USBUART_ep0Count - counts the data loaded from the SIE memory
 564:.\Generated_Source\PSoC5/USBUART_drv.c **** *    in current packet.
 565:.\Generated_Source\PSoC5/USBUART_drv.c **** *  USBUART_transferByteCount - sum of the previous bytes transferred
 566:.\Generated_Source\PSoC5/USBUART_drv.c **** *    on previous packets(sum of USBFS_lastPacketSize)
 567:.\Generated_Source\PSoC5/USBUART_drv.c **** *  USBUART_ep0Toggle - inverted
 568:.\Generated_Source\PSoC5/USBUART_drv.c **** *  USBUART_ep0Mode  - set to MODE_ACK_OUT_STATUS_IN.
 569:.\Generated_Source\PSoC5/USBUART_drv.c **** *
 570:.\Generated_Source\PSoC5/USBUART_drv.c **** * Reentrant:
 571:.\Generated_Source\PSoC5/USBUART_drv.c **** *  No.
 572:.\Generated_Source\PSoC5/USBUART_drv.c **** *
 573:.\Generated_Source\PSoC5/USBUART_drv.c **** *******************************************************************************/
 574:.\Generated_Source\PSoC5/USBUART_drv.c **** void USBUART_ControlWriteDataStage(void) 
 575:.\Generated_Source\PSoC5/USBUART_drv.c **** {
 208              		.loc 1 575 0
 209              		.cfi_startproc
 210              		@ args = 0, pretend = 0, frame = 0
 211              		@ frame_needed = 0, uses_anonymous_args = 0
 212              		@ link register save eliminated.
 213 0000 10B4     		push	{r4}
 214              		.cfi_def_cfa_offset 4
 215              		.cfi_offset 4, -4
 216              	.LVL6:
 576:.\Generated_Source\PSoC5/USBUART_drv.c ****     uint8 ep0Count;
 577:.\Generated_Source\PSoC5/USBUART_drv.c ****     uint8 regIndex = 0u;
 578:.\Generated_Source\PSoC5/USBUART_drv.c **** 
 579:.\Generated_Source\PSoC5/USBUART_drv.c ****     ep0Count = (CY_GET_REG8(USBUART_EP0_CNT_PTR) & USBUART_EPX_CNT0_MASK) -
ARM GAS  C:\Users\JohnP\AppData\Local\Temp\ccW8ACZv.s 			page 15


 217              		.loc 1 579 0
 218 0002 194B     		ldr	r3, .L18
 219 0004 1978     		ldrb	r1, [r3]	@ zero_extendqisi2
 220 0006 01F00F01 		and	r1, r1, #15
 221 000a 0239     		subs	r1, r1, #2
 222 000c C9B2     		uxtb	r1, r1
 223              	.LVL7:
 580:.\Generated_Source\PSoC5/USBUART_drv.c ****                USBUART_EPX_CNTX_CRC_COUNT;
 581:.\Generated_Source\PSoC5/USBUART_drv.c **** 
 582:.\Generated_Source\PSoC5/USBUART_drv.c ****     USBUART_transferByteCount += ep0Count;
 224              		.loc 1 582 0
 225 000e 174B     		ldr	r3, .L18+4
 226 0010 1A88     		ldrh	r2, [r3]
 227 0012 0A44     		add	r2, r2, r1
 228 0014 92B2     		uxth	r2, r2
 229 0016 1A80     		strh	r2, [r3]	@ movhi
 577:.\Generated_Source\PSoC5/USBUART_drv.c ****     uint8 regIndex = 0u;
 230              		.loc 1 577 0
 231 0018 0020     		movs	r0, #0
 583:.\Generated_Source\PSoC5/USBUART_drv.c **** 
 584:.\Generated_Source\PSoC5/USBUART_drv.c ****     while ((USBUART_currentTD.count > 0u) && (ep0Count > 0u))
 232              		.loc 1 584 0
 233 001a 154B     		ldr	r3, .L18+8
 234 001c 12E0     		b	.L15
 235              	.LVL8:
 236              	.L17:
 585:.\Generated_Source\PSoC5/USBUART_drv.c ****     {
 586:.\Generated_Source\PSoC5/USBUART_drv.c ****         *USBUART_currentTD.pData = CY_GET_REG8((reg8 *)(USBUART_EP0_DR0_IND + regIndex));
 237              		.loc 1 586 0
 238 001e 5C68     		ldr	r4, [r3, #4]
 239 0020 00F18042 		add	r2, r0, #1073741824
 240 0024 02F5C042 		add	r2, r2, #24576
 241 0028 1278     		ldrb	r2, [r2]	@ zero_extendqisi2
 242 002a D2B2     		uxtb	r2, r2
 243 002c 2270     		strb	r2, [r4]
 587:.\Generated_Source\PSoC5/USBUART_drv.c ****         USBUART_currentTD.pData = &USBUART_currentTD.pData[1u];
 244              		.loc 1 587 0
 245 002e 5A68     		ldr	r2, [r3, #4]
 246 0030 0132     		adds	r2, r2, #1
 247 0032 5A60     		str	r2, [r3, #4]
 588:.\Generated_Source\PSoC5/USBUART_drv.c ****         regIndex++;
 248              		.loc 1 588 0
 249 0034 0130     		adds	r0, r0, #1
 250              	.LVL9:
 251 0036 C0B2     		uxtb	r0, r0
 252              	.LVL10:
 589:.\Generated_Source\PSoC5/USBUART_drv.c ****         ep0Count--;
 253              		.loc 1 589 0
 254 0038 0139     		subs	r1, r1, #1
 255              	.LVL11:
 256 003a C9B2     		uxtb	r1, r1
 257              	.LVL12:
 590:.\Generated_Source\PSoC5/USBUART_drv.c ****         USBUART_currentTD.count--;
 258              		.loc 1 590 0
 259 003c 1A88     		ldrh	r2, [r3]
 260 003e 013A     		subs	r2, r2, #1
 261 0040 92B2     		uxth	r2, r2
ARM GAS  C:\Users\JohnP\AppData\Local\Temp\ccW8ACZv.s 			page 16


 262 0042 1A80     		strh	r2, [r3]	@ movhi
 263              	.LVL13:
 264              	.L15:
 584:.\Generated_Source\PSoC5/USBUART_drv.c ****     while ((USBUART_currentTD.count > 0u) && (ep0Count > 0u))
 265              		.loc 1 584 0 discriminator 1
 266 0044 1A88     		ldrh	r2, [r3]
 267 0046 92B2     		uxth	r2, r2
 268 0048 0AB1     		cbz	r2, .L16
 584:.\Generated_Source\PSoC5/USBUART_drv.c ****     while ((USBUART_currentTD.count > 0u) && (ep0Count > 0u))
 269              		.loc 1 584 0 is_stmt 0 discriminator 2
 270 004a 0029     		cmp	r1, #0
 271 004c E7D1     		bne	.L17
 272              	.L16:
 591:.\Generated_Source\PSoC5/USBUART_drv.c ****     }
 592:.\Generated_Source\PSoC5/USBUART_drv.c ****     USBUART_ep0Count = ep0Count;
 273              		.loc 1 592 0 is_stmt 1
 274 004e 094B     		ldr	r3, .L18+12
 275 0050 1970     		strb	r1, [r3]
 593:.\Generated_Source\PSoC5/USBUART_drv.c ****     /* Update the data toggle */
 594:.\Generated_Source\PSoC5/USBUART_drv.c ****     USBUART_ep0Toggle ^= USBUART_EP0_CNT_DATA_TOGGLE;
 276              		.loc 1 594 0
 277 0052 094B     		ldr	r3, .L18+16
 278 0054 1A78     		ldrb	r2, [r3]	@ zero_extendqisi2
 279 0056 82F08002 		eor	r2, r2, #128
 280 005a 1A70     		strb	r2, [r3]
 595:.\Generated_Source\PSoC5/USBUART_drv.c ****     /* Expect Data or Status Stage */
 596:.\Generated_Source\PSoC5/USBUART_drv.c ****     USBUART_ep0Mode = USBUART_MODE_ACK_OUT_STATUS_IN;
 281              		.loc 1 596 0
 282 005c 0B22     		movs	r2, #11
 283 005e 074B     		ldr	r3, .L18+20
 284 0060 1A70     		strb	r2, [r3]
 597:.\Generated_Source\PSoC5/USBUART_drv.c **** }
 285              		.loc 1 597 0
 286 0062 5DF8044B 		ldr	r4, [sp], #4
 287 0066 7047     		bx	lr
 288              	.L19:
 289              		.align	2
 290              	.L18:
 291 0068 29600040 		.word	1073766441
 292 006c 00000000 		.word	USBUART_transferByteCount
 293 0070 00000000 		.word	USBUART_currentTD
 294 0074 00000000 		.word	USBUART_ep0Count
 295 0078 00000000 		.word	USBUART_ep0Toggle
 296 007c 00000000 		.word	USBUART_ep0Mode
 297              		.cfi_endproc
 298              	.LFE10:
 299              		.size	USBUART_ControlWriteDataStage, .-USBUART_ControlWriteDataStage
 300              		.section	.text.USBUART_InitNoDataControlTransfer,"ax",%progbits
 301              		.align	2
 302              		.global	USBUART_InitNoDataControlTransfer
 303              		.thumb
 304              		.thumb_func
 305              		.type	USBUART_InitNoDataControlTransfer, %function
 306              	USBUART_InitNoDataControlTransfer:
 307              	.LFB12:
 598:.\Generated_Source\PSoC5/USBUART_drv.c **** 
 599:.\Generated_Source\PSoC5/USBUART_drv.c **** 
ARM GAS  C:\Users\JohnP\AppData\Local\Temp\ccW8ACZv.s 			page 17


 600:.\Generated_Source\PSoC5/USBUART_drv.c **** /*******************************************************************************
 601:.\Generated_Source\PSoC5/USBUART_drv.c **** * Function Name: USBUART_ControlWriteStatusStage
 602:.\Generated_Source\PSoC5/USBUART_drv.c **** ********************************************************************************
 603:.\Generated_Source\PSoC5/USBUART_drv.c **** *
 604:.\Generated_Source\PSoC5/USBUART_drv.c **** * Summary:
 605:.\Generated_Source\PSoC5/USBUART_drv.c **** *  Handle the Status Stage of a control write transfer
 606:.\Generated_Source\PSoC5/USBUART_drv.c **** *
 607:.\Generated_Source\PSoC5/USBUART_drv.c **** * Parameters:
 608:.\Generated_Source\PSoC5/USBUART_drv.c **** *  None.
 609:.\Generated_Source\PSoC5/USBUART_drv.c **** *
 610:.\Generated_Source\PSoC5/USBUART_drv.c **** * Return:
 611:.\Generated_Source\PSoC5/USBUART_drv.c **** *  None.
 612:.\Generated_Source\PSoC5/USBUART_drv.c **** *
 613:.\Generated_Source\PSoC5/USBUART_drv.c **** * Global variables:
 614:.\Generated_Source\PSoC5/USBUART_drv.c **** *  USBUART_transferState - set to TRANS_STATE_IDLE.
 615:.\Generated_Source\PSoC5/USBUART_drv.c **** *  USBUART_USBFS_ep0Mode  - set to MODE_STALL_IN_OUT.
 616:.\Generated_Source\PSoC5/USBUART_drv.c **** *
 617:.\Generated_Source\PSoC5/USBUART_drv.c **** * Reentrant:
 618:.\Generated_Source\PSoC5/USBUART_drv.c **** *  No.
 619:.\Generated_Source\PSoC5/USBUART_drv.c **** *
 620:.\Generated_Source\PSoC5/USBUART_drv.c **** *******************************************************************************/
 621:.\Generated_Source\PSoC5/USBUART_drv.c **** void USBUART_ControlWriteStatusStage(void) 
 622:.\Generated_Source\PSoC5/USBUART_drv.c **** {
 623:.\Generated_Source\PSoC5/USBUART_drv.c ****     /* Go Idle */
 624:.\Generated_Source\PSoC5/USBUART_drv.c ****     USBUART_transferState = USBUART_TRANS_STATE_IDLE;
 625:.\Generated_Source\PSoC5/USBUART_drv.c ****     /* Update the completion block */
 626:.\Generated_Source\PSoC5/USBUART_drv.c ****     USBUART_UpdateStatusBlock(USBUART_XFER_STATUS_ACK);
 627:.\Generated_Source\PSoC5/USBUART_drv.c ****     /* We expect no more data, so stall INs and OUTs */
 628:.\Generated_Source\PSoC5/USBUART_drv.c ****     USBUART_ep0Mode = USBUART_MODE_STALL_IN_OUT;
 629:.\Generated_Source\PSoC5/USBUART_drv.c **** }
 630:.\Generated_Source\PSoC5/USBUART_drv.c **** 
 631:.\Generated_Source\PSoC5/USBUART_drv.c **** 
 632:.\Generated_Source\PSoC5/USBUART_drv.c **** /*******************************************************************************
 633:.\Generated_Source\PSoC5/USBUART_drv.c **** * Function Name: USBUART_InitNoDataControlTransfer
 634:.\Generated_Source\PSoC5/USBUART_drv.c **** ********************************************************************************
 635:.\Generated_Source\PSoC5/USBUART_drv.c **** *
 636:.\Generated_Source\PSoC5/USBUART_drv.c **** * Summary:
 637:.\Generated_Source\PSoC5/USBUART_drv.c **** *  Initialize a no data control transfer
 638:.\Generated_Source\PSoC5/USBUART_drv.c **** *
 639:.\Generated_Source\PSoC5/USBUART_drv.c **** * Parameters:
 640:.\Generated_Source\PSoC5/USBUART_drv.c **** *  None.
 641:.\Generated_Source\PSoC5/USBUART_drv.c **** *
 642:.\Generated_Source\PSoC5/USBUART_drv.c **** * Return:
 643:.\Generated_Source\PSoC5/USBUART_drv.c **** *  requestHandled state.
 644:.\Generated_Source\PSoC5/USBUART_drv.c **** *
 645:.\Generated_Source\PSoC5/USBUART_drv.c **** * Global variables:
 646:.\Generated_Source\PSoC5/USBUART_drv.c **** *  USBUART_transferState - set to TRANS_STATE_NO_DATA_CONTROL.
 647:.\Generated_Source\PSoC5/USBUART_drv.c **** *  USBUART_ep0Mode  - set to MODE_STATUS_IN_ONLY.
 648:.\Generated_Source\PSoC5/USBUART_drv.c **** *  USBUART_ep0Count - cleared.
 649:.\Generated_Source\PSoC5/USBUART_drv.c **** *  USBUART_ep0Toggle - set to EP0_CNT_DATA_TOGGLE
 650:.\Generated_Source\PSoC5/USBUART_drv.c **** *
 651:.\Generated_Source\PSoC5/USBUART_drv.c **** * Reentrant:
 652:.\Generated_Source\PSoC5/USBUART_drv.c **** *  No.
 653:.\Generated_Source\PSoC5/USBUART_drv.c **** *
 654:.\Generated_Source\PSoC5/USBUART_drv.c **** *******************************************************************************/
 655:.\Generated_Source\PSoC5/USBUART_drv.c **** uint8 USBUART_InitNoDataControlTransfer(void) 
 656:.\Generated_Source\PSoC5/USBUART_drv.c **** {
ARM GAS  C:\Users\JohnP\AppData\Local\Temp\ccW8ACZv.s 			page 18


 308              		.loc 1 656 0
 309              		.cfi_startproc
 310              		@ args = 0, pretend = 0, frame = 0
 311              		@ frame_needed = 0, uses_anonymous_args = 0
 312              		@ link register save eliminated.
 657:.\Generated_Source\PSoC5/USBUART_drv.c ****     USBUART_transferState = USBUART_TRANS_STATE_NO_DATA_CONTROL;
 313              		.loc 1 657 0
 314 0000 0623     		movs	r3, #6
 315 0002 064A     		ldr	r2, .L21
 316 0004 1370     		strb	r3, [r2]
 658:.\Generated_Source\PSoC5/USBUART_drv.c ****     USBUART_ep0Mode = USBUART_MODE_STATUS_IN_ONLY;
 317              		.loc 1 658 0
 318 0006 064A     		ldr	r2, .L21+4
 319 0008 1370     		strb	r3, [r2]
 659:.\Generated_Source\PSoC5/USBUART_drv.c ****     USBUART_ep0Toggle = USBUART_EP0_CNT_DATA_TOGGLE;
 320              		.loc 1 659 0
 321 000a 8022     		movs	r2, #128
 322 000c 054B     		ldr	r3, .L21+8
 323 000e 1A70     		strb	r2, [r3]
 660:.\Generated_Source\PSoC5/USBUART_drv.c ****     USBUART_ep0Count = 0u;
 324              		.loc 1 660 0
 325 0010 0022     		movs	r2, #0
 326 0012 054B     		ldr	r3, .L21+12
 327 0014 1A70     		strb	r2, [r3]
 661:.\Generated_Source\PSoC5/USBUART_drv.c **** 
 662:.\Generated_Source\PSoC5/USBUART_drv.c ****     return(USBUART_TRUE);
 663:.\Generated_Source\PSoC5/USBUART_drv.c **** }
 328              		.loc 1 663 0
 329 0016 0120     		movs	r0, #1
 330 0018 7047     		bx	lr
 331              	.L22:
 332 001a 00BF     		.align	2
 333              	.L21:
 334 001c 00000000 		.word	USBUART_transferState
 335 0020 00000000 		.word	USBUART_ep0Mode
 336 0024 00000000 		.word	USBUART_ep0Toggle
 337 0028 00000000 		.word	USBUART_ep0Count
 338              		.cfi_endproc
 339              	.LFE12:
 340              		.size	USBUART_InitNoDataControlTransfer, .-USBUART_InitNoDataControlTransfer
 341              		.section	.text.USBUART_UpdateStatusBlock,"ax",%progbits
 342              		.align	2
 343              		.global	USBUART_UpdateStatusBlock
 344              		.thumb
 345              		.thumb_func
 346              		.type	USBUART_UpdateStatusBlock, %function
 347              	USBUART_UpdateStatusBlock:
 348              	.LFB14:
 664:.\Generated_Source\PSoC5/USBUART_drv.c **** 
 665:.\Generated_Source\PSoC5/USBUART_drv.c **** 
 666:.\Generated_Source\PSoC5/USBUART_drv.c **** /*******************************************************************************
 667:.\Generated_Source\PSoC5/USBUART_drv.c **** * Function Name: USBUART_NoDataControlStatusStage
 668:.\Generated_Source\PSoC5/USBUART_drv.c **** ********************************************************************************
 669:.\Generated_Source\PSoC5/USBUART_drv.c **** * Summary:
 670:.\Generated_Source\PSoC5/USBUART_drv.c **** *  Handle the Status Stage of a no data control transfer.
 671:.\Generated_Source\PSoC5/USBUART_drv.c **** *
 672:.\Generated_Source\PSoC5/USBUART_drv.c **** *  SET_ADDRESS is special, since we need to receive the status stage with
ARM GAS  C:\Users\JohnP\AppData\Local\Temp\ccW8ACZv.s 			page 19


 673:.\Generated_Source\PSoC5/USBUART_drv.c **** *  the old address.
 674:.\Generated_Source\PSoC5/USBUART_drv.c **** *
 675:.\Generated_Source\PSoC5/USBUART_drv.c **** * Parameters:
 676:.\Generated_Source\PSoC5/USBUART_drv.c **** *  None.
 677:.\Generated_Source\PSoC5/USBUART_drv.c **** *
 678:.\Generated_Source\PSoC5/USBUART_drv.c **** * Return:
 679:.\Generated_Source\PSoC5/USBUART_drv.c **** *  None.
 680:.\Generated_Source\PSoC5/USBUART_drv.c **** *
 681:.\Generated_Source\PSoC5/USBUART_drv.c **** * Global variables:
 682:.\Generated_Source\PSoC5/USBUART_drv.c **** *  USBUART_transferState - set to TRANS_STATE_IDLE.
 683:.\Generated_Source\PSoC5/USBUART_drv.c **** *  USBUART_ep0Mode  - set to MODE_STALL_IN_OUT.
 684:.\Generated_Source\PSoC5/USBUART_drv.c **** *  USBUART_ep0Toggle - set to EP0_CNT_DATA_TOGGLE
 685:.\Generated_Source\PSoC5/USBUART_drv.c **** *  USBUART_deviceAddress - used to set new address and cleared
 686:.\Generated_Source\PSoC5/USBUART_drv.c **** *
 687:.\Generated_Source\PSoC5/USBUART_drv.c **** * Reentrant:
 688:.\Generated_Source\PSoC5/USBUART_drv.c **** *  No.
 689:.\Generated_Source\PSoC5/USBUART_drv.c **** *
 690:.\Generated_Source\PSoC5/USBUART_drv.c **** *******************************************************************************/
 691:.\Generated_Source\PSoC5/USBUART_drv.c **** void USBUART_NoDataControlStatusStage(void) 
 692:.\Generated_Source\PSoC5/USBUART_drv.c **** {
 693:.\Generated_Source\PSoC5/USBUART_drv.c ****     /* Change the USB address register if we got a SET_ADDRESS. */
 694:.\Generated_Source\PSoC5/USBUART_drv.c ****     if (USBUART_deviceAddress != 0u)
 695:.\Generated_Source\PSoC5/USBUART_drv.c ****     {
 696:.\Generated_Source\PSoC5/USBUART_drv.c ****         CY_SET_REG8(USBUART_CR0_PTR, USBUART_deviceAddress | USBUART_CR0_ENABLE);
 697:.\Generated_Source\PSoC5/USBUART_drv.c ****         USBUART_deviceAddress = 0u;
 698:.\Generated_Source\PSoC5/USBUART_drv.c ****     }
 699:.\Generated_Source\PSoC5/USBUART_drv.c ****     /* Go Idle */
 700:.\Generated_Source\PSoC5/USBUART_drv.c ****     USBUART_transferState = USBUART_TRANS_STATE_IDLE;
 701:.\Generated_Source\PSoC5/USBUART_drv.c ****     /* Update the completion block */
 702:.\Generated_Source\PSoC5/USBUART_drv.c ****     USBUART_UpdateStatusBlock(USBUART_XFER_STATUS_ACK);
 703:.\Generated_Source\PSoC5/USBUART_drv.c ****      /* We expect no more data, so stall INs and OUTs */
 704:.\Generated_Source\PSoC5/USBUART_drv.c ****     USBUART_ep0Mode = USBUART_MODE_STALL_IN_OUT;
 705:.\Generated_Source\PSoC5/USBUART_drv.c **** }
 706:.\Generated_Source\PSoC5/USBUART_drv.c **** 
 707:.\Generated_Source\PSoC5/USBUART_drv.c **** 
 708:.\Generated_Source\PSoC5/USBUART_drv.c **** /*******************************************************************************
 709:.\Generated_Source\PSoC5/USBUART_drv.c **** * Function Name: USBUART_UpdateStatusBlock
 710:.\Generated_Source\PSoC5/USBUART_drv.c **** ********************************************************************************
 711:.\Generated_Source\PSoC5/USBUART_drv.c **** *
 712:.\Generated_Source\PSoC5/USBUART_drv.c **** * Summary:
 713:.\Generated_Source\PSoC5/USBUART_drv.c **** *  Update the Completion Status Block for a Request.  The block is updated
 714:.\Generated_Source\PSoC5/USBUART_drv.c **** *  with the completion code the USBUART_transferByteCount.  The
 715:.\Generated_Source\PSoC5/USBUART_drv.c **** *  StatusBlock Pointer is set to NULL.
 716:.\Generated_Source\PSoC5/USBUART_drv.c **** *
 717:.\Generated_Source\PSoC5/USBUART_drv.c **** * Parameters:
 718:.\Generated_Source\PSoC5/USBUART_drv.c **** *  completionCode - status.
 719:.\Generated_Source\PSoC5/USBUART_drv.c **** *
 720:.\Generated_Source\PSoC5/USBUART_drv.c **** * Return:
 721:.\Generated_Source\PSoC5/USBUART_drv.c **** *  None.
 722:.\Generated_Source\PSoC5/USBUART_drv.c **** *
 723:.\Generated_Source\PSoC5/USBUART_drv.c **** * Global variables:
 724:.\Generated_Source\PSoC5/USBUART_drv.c **** *  USBUART_currentTD.pStatusBlock->status - updated by the
 725:.\Generated_Source\PSoC5/USBUART_drv.c **** *    completionCode parameter.
 726:.\Generated_Source\PSoC5/USBUART_drv.c **** *  USBUART_currentTD.pStatusBlock->length - updated.
 727:.\Generated_Source\PSoC5/USBUART_drv.c **** *  USBUART_currentTD.pStatusBlock - cleared.
 728:.\Generated_Source\PSoC5/USBUART_drv.c **** *
 729:.\Generated_Source\PSoC5/USBUART_drv.c **** * Reentrant:
ARM GAS  C:\Users\JohnP\AppData\Local\Temp\ccW8ACZv.s 			page 20


 730:.\Generated_Source\PSoC5/USBUART_drv.c **** *  No.
 731:.\Generated_Source\PSoC5/USBUART_drv.c **** *
 732:.\Generated_Source\PSoC5/USBUART_drv.c **** *******************************************************************************/
 733:.\Generated_Source\PSoC5/USBUART_drv.c **** void USBUART_UpdateStatusBlock(uint8 completionCode) 
 734:.\Generated_Source\PSoC5/USBUART_drv.c **** {
 349              		.loc 1 734 0
 350              		.cfi_startproc
 351              		@ args = 0, pretend = 0, frame = 0
 352              		@ frame_needed = 0, uses_anonymous_args = 0
 353              		@ link register save eliminated.
 354              	.LVL14:
 735:.\Generated_Source\PSoC5/USBUART_drv.c ****     if (USBUART_currentTD.pStatusBlock != NULL)
 355              		.loc 1 735 0
 356 0000 064B     		ldr	r3, .L25
 357 0002 9B68     		ldr	r3, [r3, #8]
 358 0004 43B1     		cbz	r3, .L23
 736:.\Generated_Source\PSoC5/USBUART_drv.c ****     {
 737:.\Generated_Source\PSoC5/USBUART_drv.c ****         USBUART_currentTD.pStatusBlock->status = completionCode;
 359              		.loc 1 737 0
 360 0006 054B     		ldr	r3, .L25
 361 0008 9A68     		ldr	r2, [r3, #8]
 362 000a 1070     		strb	r0, [r2]
 738:.\Generated_Source\PSoC5/USBUART_drv.c ****         USBUART_currentTD.pStatusBlock->length = USBUART_transferByteCount;
 363              		.loc 1 738 0
 364 000c 9A68     		ldr	r2, [r3, #8]
 365 000e 0449     		ldr	r1, .L25+4
 366 0010 0988     		ldrh	r1, [r1]
 367 0012 5180     		strh	r1, [r2, #2]	@ movhi
 739:.\Generated_Source\PSoC5/USBUART_drv.c ****         USBUART_currentTD.pStatusBlock = NULL;
 368              		.loc 1 739 0
 369 0014 0022     		movs	r2, #0
 370 0016 9A60     		str	r2, [r3, #8]
 371              	.L23:
 372 0018 7047     		bx	lr
 373              	.L26:
 374 001a 00BF     		.align	2
 375              	.L25:
 376 001c 00000000 		.word	USBUART_currentTD
 377 0020 00000000 		.word	USBUART_transferByteCount
 378              		.cfi_endproc
 379              	.LFE14:
 380              		.size	USBUART_UpdateStatusBlock, .-USBUART_UpdateStatusBlock
 381              		.section	.text.USBUART_HandleSetup,"ax",%progbits
 382              		.align	2
 383              		.global	USBUART_HandleSetup
 384              		.thumb
 385              		.thumb_func
 386              		.type	USBUART_HandleSetup, %function
 387              	USBUART_HandleSetup:
 388              	.LFB1:
 152:.\Generated_Source\PSoC5/USBUART_drv.c **** {
 389              		.loc 1 152 0
 390              		.cfi_startproc
 391              		@ args = 0, pretend = 0, frame = 0
 392              		@ frame_needed = 0, uses_anonymous_args = 0
 393 0000 08B5     		push	{r3, lr}
 394              		.cfi_def_cfa_offset 8
ARM GAS  C:\Users\JohnP\AppData\Local\Temp\ccW8ACZv.s 			page 21


 395              		.cfi_offset 3, -8
 396              		.cfi_offset 14, -4
 155:.\Generated_Source\PSoC5/USBUART_drv.c ****     requestHandled = CY_GET_REG8(USBUART_EP0_CR_PTR);      /* unlock registers */
 397              		.loc 1 155 0
 398 0002 134B     		ldr	r3, .L36
 399 0004 1A78     		ldrb	r2, [r3]	@ zero_extendqisi2
 400 0006 D2B2     		uxtb	r2, r2
 401              	.LVL15:
 156:.\Generated_Source\PSoC5/USBUART_drv.c ****     CY_SET_REG8(USBUART_EP0_CR_PTR, requestHandled);       /* clear setup bit */
 402              		.loc 1 156 0
 403 0008 1A70     		strb	r2, [r3]
 157:.\Generated_Source\PSoC5/USBUART_drv.c ****     requestHandled = CY_GET_REG8(USBUART_EP0_CR_PTR);      /* reread register */
 404              		.loc 1 157 0
 405 000a 1B78     		ldrb	r3, [r3]	@ zero_extendqisi2
 406 000c DBB2     		uxtb	r3, r3
 407              	.LVL16:
 158:.\Generated_Source\PSoC5/USBUART_drv.c ****     if((requestHandled & USBUART_MODE_SETUP_RCVD) != 0u)
 408              		.loc 1 158 0
 409 000e 13F0800F 		tst	r3, #128
 410 0012 02D0     		beq	.L28
 160:.\Generated_Source\PSoC5/USBUART_drv.c ****         USBUART_ep0Mode = requestHandled;        /* if SETUP bit set -> exit without modifying the 
 411              		.loc 1 160 0
 412 0014 0F4A     		ldr	r2, .L36+4
 413 0016 1370     		strb	r3, [r2]
 414 0018 08BD     		pop	{r3, pc}
 415              	.LVL17:
 416              	.L28:
 165:.\Generated_Source\PSoC5/USBUART_drv.c ****         USBUART_UpdateStatusBlock(USBUART_XFER_PREMATURE);
 417              		.loc 1 165 0
 418 001a 0220     		movs	r0, #2
 419 001c FFF7FEFF 		bl	USBUART_UpdateStatusBlock
 420              	.LVL18:
 167:.\Generated_Source\PSoC5/USBUART_drv.c ****         switch (CY_GET_REG8(USBUART_bmRequestType) & USBUART_RQST_TYPE_MASK)
 421              		.loc 1 167 0
 422 0020 0D4B     		ldr	r3, .L36+8
 423 0022 1B78     		ldrb	r3, [r3]	@ zero_extendqisi2
 424 0024 03F06003 		and	r3, r3, #96
 425 0028 202B     		cmp	r3, #32
 426 002a 05D0     		beq	.L31
 427 002c 402B     		cmp	r3, #64
 428 002e 06D0     		beq	.L32
 429 0030 43B9     		cbnz	r3, .L35
 170:.\Generated_Source\PSoC5/USBUART_drv.c ****                 requestHandled = USBUART_HandleStandardRqst();
 430              		.loc 1 170 0
 431 0032 FFF7FEFF 		bl	USBUART_HandleStandardRqst
 432              	.LVL19:
 171:.\Generated_Source\PSoC5/USBUART_drv.c ****                 break;
 433              		.loc 1 171 0
 434 0036 06E0     		b	.L30
 435              	.LVL20:
 436              	.L31:
 173:.\Generated_Source\PSoC5/USBUART_drv.c ****                 requestHandled = USBUART_DispatchClassRqst();
 437              		.loc 1 173 0
 438 0038 FFF7FEFF 		bl	USBUART_DispatchClassRqst
 439              	.LVL21:
 174:.\Generated_Source\PSoC5/USBUART_drv.c ****                 break;
 440              		.loc 1 174 0
ARM GAS  C:\Users\JohnP\AppData\Local\Temp\ccW8ACZv.s 			page 22


 441 003c 03E0     		b	.L30
 442              	.LVL22:
 443              	.L32:
 176:.\Generated_Source\PSoC5/USBUART_drv.c ****                 requestHandled = USBUART_HandleVendorRqst();
 444              		.loc 1 176 0
 445 003e FFF7FEFF 		bl	USBUART_HandleVendorRqst
 446              	.LVL23:
 177:.\Generated_Source\PSoC5/USBUART_drv.c ****                 break;
 447              		.loc 1 177 0
 448 0042 00E0     		b	.L30
 449              	.LVL24:
 450              	.L35:
 179:.\Generated_Source\PSoC5/USBUART_drv.c ****                 requestHandled = USBUART_FALSE;
 451              		.loc 1 179 0
 452 0044 0020     		movs	r0, #0
 453              	.L30:
 454              	.LVL25:
 182:.\Generated_Source\PSoC5/USBUART_drv.c ****         if (requestHandled == USBUART_FALSE)
 455              		.loc 1 182 0
 456 0046 10B9     		cbnz	r0, .L27
 184:.\Generated_Source\PSoC5/USBUART_drv.c ****             USBUART_ep0Mode = USBUART_MODE_STALL_IN_OUT;
 457              		.loc 1 184 0
 458 0048 0322     		movs	r2, #3
 459 004a 024B     		ldr	r3, .L36+4
 460 004c 1A70     		strb	r2, [r3]
 461              	.L27:
 462 004e 08BD     		pop	{r3, pc}
 463              	.L37:
 464              		.align	2
 465              	.L36:
 466 0050 28600040 		.word	1073766440
 467 0054 00000000 		.word	USBUART_ep0Mode
 468 0058 00600040 		.word	1073766400
 469              		.cfi_endproc
 470              	.LFE1:
 471              		.size	USBUART_HandleSetup, .-USBUART_HandleSetup
 472              		.section	.text.USBUART_ControlReadStatusStage,"ax",%progbits
 473              		.align	2
 474              		.global	USBUART_ControlReadStatusStage
 475              		.thumb
 476              		.thumb_func
 477              		.type	USBUART_ControlReadStatusStage, %function
 478              	USBUART_ControlReadStatusStage:
 479              	.LFB8:
 485:.\Generated_Source\PSoC5/USBUART_drv.c **** {
 480              		.loc 1 485 0
 481              		.cfi_startproc
 482              		@ args = 0, pretend = 0, frame = 0
 483              		@ frame_needed = 0, uses_anonymous_args = 0
 484 0000 08B5     		push	{r3, lr}
 485              		.cfi_def_cfa_offset 8
 486              		.cfi_offset 3, -8
 487              		.cfi_offset 14, -4
 487:.\Generated_Source\PSoC5/USBUART_drv.c ****     USBUART_transferByteCount += USBUART_lastPacketSize;
 488              		.loc 1 487 0
 489 0002 084B     		ldr	r3, .L39
 490 0004 1978     		ldrb	r1, [r3]	@ zero_extendqisi2
ARM GAS  C:\Users\JohnP\AppData\Local\Temp\ccW8ACZv.s 			page 23


 491 0006 084B     		ldr	r3, .L39+4
 492 0008 1A88     		ldrh	r2, [r3]
 493 000a 0A44     		add	r2, r2, r1
 494 000c 92B2     		uxth	r2, r2
 495 000e 1A80     		strh	r2, [r3]	@ movhi
 489:.\Generated_Source\PSoC5/USBUART_drv.c ****     USBUART_transferState = USBUART_TRANS_STATE_IDLE;
 496              		.loc 1 489 0
 497 0010 0022     		movs	r2, #0
 498 0012 064B     		ldr	r3, .L39+8
 499 0014 1A70     		strb	r2, [r3]
 491:.\Generated_Source\PSoC5/USBUART_drv.c ****     USBUART_UpdateStatusBlock(USBUART_XFER_STATUS_ACK);
 500              		.loc 1 491 0
 501 0016 0120     		movs	r0, #1
 502 0018 FFF7FEFF 		bl	USBUART_UpdateStatusBlock
 503              	.LVL26:
 493:.\Generated_Source\PSoC5/USBUART_drv.c ****     USBUART_ep0Mode =  USBUART_MODE_STALL_IN_OUT;
 504              		.loc 1 493 0
 505 001c 0322     		movs	r2, #3
 506 001e 044B     		ldr	r3, .L39+12
 507 0020 1A70     		strb	r2, [r3]
 508 0022 08BD     		pop	{r3, pc}
 509              	.L40:
 510              		.align	2
 511              	.L39:
 512 0024 00000000 		.word	USBUART_lastPacketSize
 513 0028 00000000 		.word	USBUART_transferByteCount
 514 002c 00000000 		.word	USBUART_transferState
 515 0030 00000000 		.word	USBUART_ep0Mode
 516              		.cfi_endproc
 517              	.LFE8:
 518              		.size	USBUART_ControlReadStatusStage, .-USBUART_ControlReadStatusStage
 519              		.section	.text.USBUART_HandleOUT,"ax",%progbits
 520              		.align	2
 521              		.global	USBUART_HandleOUT
 522              		.thumb
 523              		.thumb_func
 524              		.type	USBUART_HandleOUT, %function
 525              	USBUART_HandleOUT:
 526              	.LFB3:
 246:.\Generated_Source\PSoC5/USBUART_drv.c **** {
 527              		.loc 1 246 0
 528              		.cfi_startproc
 529              		@ args = 0, pretend = 0, frame = 0
 530              		@ frame_needed = 0, uses_anonymous_args = 0
 531 0000 08B5     		push	{r3, lr}
 532              		.cfi_def_cfa_offset 8
 533              		.cfi_offset 3, -8
 534              		.cfi_offset 14, -4
 247:.\Generated_Source\PSoC5/USBUART_drv.c ****     switch (USBUART_transferState)
 535              		.loc 1 247 0
 536 0002 0B4B     		ldr	r3, .L46
 537 0004 1B78     		ldrb	r3, [r3]	@ zero_extendqisi2
 538 0006 DBB2     		uxtb	r3, r3
 539 0008 042B     		cmp	r3, #4
 540 000a 06D0     		beq	.L43
 541 000c 062B     		cmp	r3, #6
 542 000e 07D0     		beq	.L44
ARM GAS  C:\Users\JohnP\AppData\Local\Temp\ccW8ACZv.s 			page 24


 543 0010 022B     		cmp	r3, #2
 544 0012 0BD1     		bne	.L41
 252:.\Generated_Source\PSoC5/USBUART_drv.c ****             USBUART_ControlReadStatusStage();
 545              		.loc 1 252 0
 546 0014 FFF7FEFF 		bl	USBUART_ControlReadStatusStage
 547              	.LVL27:
 253:.\Generated_Source\PSoC5/USBUART_drv.c ****             break;
 548              		.loc 1 253 0
 549 0018 08BD     		pop	{r3, pc}
 550              	.L43:
 255:.\Generated_Source\PSoC5/USBUART_drv.c ****             USBUART_ControlWriteDataStage();
 551              		.loc 1 255 0
 552 001a FFF7FEFF 		bl	USBUART_ControlWriteDataStage
 553              	.LVL28:
 256:.\Generated_Source\PSoC5/USBUART_drv.c ****             break;
 554              		.loc 1 256 0
 555 001e 08BD     		pop	{r3, pc}
 556              	.L44:
 259:.\Generated_Source\PSoC5/USBUART_drv.c ****             USBUART_UpdateStatusBlock(USBUART_XFER_ERROR);
 557              		.loc 1 259 0
 558 0020 0320     		movs	r0, #3
 559 0022 FFF7FEFF 		bl	USBUART_UpdateStatusBlock
 560              	.LVL29:
 261:.\Generated_Source\PSoC5/USBUART_drv.c ****             USBUART_ep0Mode = USBUART_MODE_STALL_IN_OUT;
 561              		.loc 1 261 0
 562 0026 0322     		movs	r2, #3
 563 0028 024B     		ldr	r3, .L46+4
 564 002a 1A70     		strb	r2, [r3]
 565              	.L41:
 566 002c 08BD     		pop	{r3, pc}
 567              	.L47:
 568 002e 00BF     		.align	2
 569              	.L46:
 570 0030 00000000 		.word	USBUART_transferState
 571 0034 00000000 		.word	USBUART_ep0Mode
 572              		.cfi_endproc
 573              	.LFE3:
 574              		.size	USBUART_HandleOUT, .-USBUART_HandleOUT
 575              		.section	.text.USBUART_ControlWriteStatusStage,"ax",%progbits
 576              		.align	2
 577              		.global	USBUART_ControlWriteStatusStage
 578              		.thumb
 579              		.thumb_func
 580              		.type	USBUART_ControlWriteStatusStage, %function
 581              	USBUART_ControlWriteStatusStage:
 582              	.LFB11:
 622:.\Generated_Source\PSoC5/USBUART_drv.c **** {
 583              		.loc 1 622 0
 584              		.cfi_startproc
 585              		@ args = 0, pretend = 0, frame = 0
 586              		@ frame_needed = 0, uses_anonymous_args = 0
 587 0000 08B5     		push	{r3, lr}
 588              		.cfi_def_cfa_offset 8
 589              		.cfi_offset 3, -8
 590              		.cfi_offset 14, -4
 624:.\Generated_Source\PSoC5/USBUART_drv.c ****     USBUART_transferState = USBUART_TRANS_STATE_IDLE;
 591              		.loc 1 624 0
ARM GAS  C:\Users\JohnP\AppData\Local\Temp\ccW8ACZv.s 			page 25


 592 0002 0022     		movs	r2, #0
 593 0004 044B     		ldr	r3, .L49
 594 0006 1A70     		strb	r2, [r3]
 626:.\Generated_Source\PSoC5/USBUART_drv.c ****     USBUART_UpdateStatusBlock(USBUART_XFER_STATUS_ACK);
 595              		.loc 1 626 0
 596 0008 0120     		movs	r0, #1
 597 000a FFF7FEFF 		bl	USBUART_UpdateStatusBlock
 598              	.LVL30:
 628:.\Generated_Source\PSoC5/USBUART_drv.c ****     USBUART_ep0Mode = USBUART_MODE_STALL_IN_OUT;
 599              		.loc 1 628 0
 600 000e 0322     		movs	r2, #3
 601 0010 024B     		ldr	r3, .L49+4
 602 0012 1A70     		strb	r2, [r3]
 603 0014 08BD     		pop	{r3, pc}
 604              	.L50:
 605 0016 00BF     		.align	2
 606              	.L49:
 607 0018 00000000 		.word	USBUART_transferState
 608 001c 00000000 		.word	USBUART_ep0Mode
 609              		.cfi_endproc
 610              	.LFE11:
 611              		.size	USBUART_ControlWriteStatusStage, .-USBUART_ControlWriteStatusStage
 612              		.section	.text.USBUART_NoDataControlStatusStage,"ax",%progbits
 613              		.align	2
 614              		.global	USBUART_NoDataControlStatusStage
 615              		.thumb
 616              		.thumb_func
 617              		.type	USBUART_NoDataControlStatusStage, %function
 618              	USBUART_NoDataControlStatusStage:
 619              	.LFB13:
 692:.\Generated_Source\PSoC5/USBUART_drv.c **** {
 620              		.loc 1 692 0
 621              		.cfi_startproc
 622              		@ args = 0, pretend = 0, frame = 0
 623              		@ frame_needed = 0, uses_anonymous_args = 0
 624 0000 08B5     		push	{r3, lr}
 625              		.cfi_def_cfa_offset 8
 626              		.cfi_offset 3, -8
 627              		.cfi_offset 14, -4
 694:.\Generated_Source\PSoC5/USBUART_drv.c ****     if (USBUART_deviceAddress != 0u)
 628              		.loc 1 694 0
 629 0002 0B4B     		ldr	r3, .L53
 630 0004 1B78     		ldrb	r3, [r3]	@ zero_extendqisi2
 631 0006 13F0FF0F 		tst	r3, #255
 632 000a 07D0     		beq	.L52
 696:.\Generated_Source\PSoC5/USBUART_drv.c ****         CY_SET_REG8(USBUART_CR0_PTR, USBUART_deviceAddress | USBUART_CR0_ENABLE);
 633              		.loc 1 696 0
 634 000c 084B     		ldr	r3, .L53
 635 000e 1978     		ldrb	r1, [r3]	@ zero_extendqisi2
 636 0010 41F08001 		orr	r1, r1, #128
 637 0014 074A     		ldr	r2, .L53+4
 638 0016 1170     		strb	r1, [r2]
 697:.\Generated_Source\PSoC5/USBUART_drv.c ****         USBUART_deviceAddress = 0u;
 639              		.loc 1 697 0
 640 0018 0022     		movs	r2, #0
 641 001a 1A70     		strb	r2, [r3]
 642              	.L52:
ARM GAS  C:\Users\JohnP\AppData\Local\Temp\ccW8ACZv.s 			page 26


 700:.\Generated_Source\PSoC5/USBUART_drv.c ****     USBUART_transferState = USBUART_TRANS_STATE_IDLE;
 643              		.loc 1 700 0
 644 001c 0022     		movs	r2, #0
 645 001e 064B     		ldr	r3, .L53+8
 646 0020 1A70     		strb	r2, [r3]
 702:.\Generated_Source\PSoC5/USBUART_drv.c ****     USBUART_UpdateStatusBlock(USBUART_XFER_STATUS_ACK);
 647              		.loc 1 702 0
 648 0022 0120     		movs	r0, #1
 649 0024 FFF7FEFF 		bl	USBUART_UpdateStatusBlock
 650              	.LVL31:
 704:.\Generated_Source\PSoC5/USBUART_drv.c ****     USBUART_ep0Mode = USBUART_MODE_STALL_IN_OUT;
 651              		.loc 1 704 0
 652 0028 0322     		movs	r2, #3
 653 002a 044B     		ldr	r3, .L53+12
 654 002c 1A70     		strb	r2, [r3]
 655 002e 08BD     		pop	{r3, pc}
 656              	.L54:
 657              		.align	2
 658              	.L53:
 659 0030 00000000 		.word	USBUART_deviceAddress
 660 0034 08600040 		.word	1073766408
 661 0038 00000000 		.word	USBUART_transferState
 662 003c 00000000 		.word	USBUART_ep0Mode
 663              		.cfi_endproc
 664              	.LFE13:
 665              		.size	USBUART_NoDataControlStatusStage, .-USBUART_NoDataControlStatusStage
 666              		.section	.text.USBUART_HandleIN,"ax",%progbits
 667              		.align	2
 668              		.global	USBUART_HandleIN
 669              		.thumb
 670              		.thumb_func
 671              		.type	USBUART_HandleIN, %function
 672              	USBUART_HandleIN:
 673              	.LFB2:
 208:.\Generated_Source\PSoC5/USBUART_drv.c **** {
 674              		.loc 1 208 0
 675              		.cfi_startproc
 676              		@ args = 0, pretend = 0, frame = 0
 677              		@ frame_needed = 0, uses_anonymous_args = 0
 678 0000 08B5     		push	{r3, lr}
 679              		.cfi_def_cfa_offset 8
 680              		.cfi_offset 3, -8
 681              		.cfi_offset 14, -4
 209:.\Generated_Source\PSoC5/USBUART_drv.c ****     switch (USBUART_transferState)
 682              		.loc 1 209 0
 683 0002 094B     		ldr	r3, .L60
 684 0004 1B78     		ldrb	r3, [r3]	@ zero_extendqisi2
 685 0006 DBB2     		uxtb	r3, r3
 686 0008 042B     		cmp	r3, #4
 687 000a 06D0     		beq	.L57
 688 000c 062B     		cmp	r3, #6
 689 000e 07D0     		beq	.L58
 690 0010 022B     		cmp	r3, #2
 691 0012 07D1     		bne	.L55
 214:.\Generated_Source\PSoC5/USBUART_drv.c ****             USBUART_ControlReadDataStage();
 692              		.loc 1 214 0
 693 0014 FFF7FEFF 		bl	USBUART_ControlReadDataStage
ARM GAS  C:\Users\JohnP\AppData\Local\Temp\ccW8ACZv.s 			page 27


 694              	.LVL32:
 215:.\Generated_Source\PSoC5/USBUART_drv.c ****             break;
 695              		.loc 1 215 0
 696 0018 08BD     		pop	{r3, pc}
 697              	.L57:
 217:.\Generated_Source\PSoC5/USBUART_drv.c ****             USBUART_ControlWriteStatusStage();
 698              		.loc 1 217 0
 699 001a FFF7FEFF 		bl	USBUART_ControlWriteStatusStage
 700              	.LVL33:
 218:.\Generated_Source\PSoC5/USBUART_drv.c ****             break;
 701              		.loc 1 218 0
 702 001e 08BD     		pop	{r3, pc}
 703              	.L58:
 220:.\Generated_Source\PSoC5/USBUART_drv.c ****             USBUART_NoDataControlStatusStage();
 704              		.loc 1 220 0
 705 0020 FFF7FEFF 		bl	USBUART_NoDataControlStatusStage
 706              	.LVL34:
 707              	.L55:
 708 0024 08BD     		pop	{r3, pc}
 709              	.L61:
 710 0026 00BF     		.align	2
 711              	.L60:
 712 0028 00000000 		.word	USBUART_transferState
 713              		.cfi_endproc
 714              	.LFE2:
 715              		.size	USBUART_HandleIN, .-USBUART_HandleIN
 716              		.section	.text.USBUART_EP_0_ISR,"ax",%progbits
 717              		.align	2
 718              		.global	USBUART_EP_0_ISR
 719              		.thumb
 720              		.thumb_func
 721              		.type	USBUART_EP_0_ISR, %function
 722              	USBUART_EP_0_ISR:
 723              	.LFB0:
  67:.\Generated_Source\PSoC5/USBUART_drv.c **** {
 724              		.loc 1 67 0
 725              		.cfi_startproc
 726              		@ args = 0, pretend = 0, frame = 0
 727              		@ frame_needed = 0, uses_anonymous_args = 0
 728 0000 08B5     		push	{r3, lr}
 729              		.cfi_def_cfa_offset 8
 730              		.cfi_offset 3, -8
 731              		.cfi_offset 14, -4
  72:.\Generated_Source\PSoC5/USBUART_drv.c ****     bRegTemp = CY_GET_REG8(USBUART_EP0_CR_PTR);
 732              		.loc 1 72 0
 733 0002 264B     		ldr	r3, .L74
 734 0004 1B78     		ldrb	r3, [r3]	@ zero_extendqisi2
 735 0006 DBB2     		uxtb	r3, r3
 736              	.LVL35:
  73:.\Generated_Source\PSoC5/USBUART_drv.c ****     if ((bRegTemp & USBUART_MODE_ACKD) != 0u)
 737              		.loc 1 73 0
 738 0008 13F0100F 		tst	r3, #16
 739 000c 45D0     		beq	.L62
 740              	.LVL36:
  76:.\Generated_Source\PSoC5/USBUART_drv.c ****         if ((bRegTemp & USBUART_MODE_SETUP_RCVD) != 0u)
 741              		.loc 1 76 0
 742 000e 13F0800F 		tst	r3, #128
ARM GAS  C:\Users\JohnP\AppData\Local\Temp\ccW8ACZv.s 			page 28


 743 0012 0CD0     		beq	.L64
  78:.\Generated_Source\PSoC5/USBUART_drv.c ****             if((bRegTemp & USBUART_MODE_MASK) != USBUART_MODE_NAK_IN_OUT)
 744              		.loc 1 78 0
 745 0014 03F00F03 		and	r3, r3, #15
 746              	.LVL37:
 747 0018 012B     		cmp	r3, #1
 748 001a 16D1     		bne	.L69
  84:.\Generated_Source\PSoC5/USBUART_drv.c ****                 USBUART_HandleSetup();
 749              		.loc 1 84 0
 750 001c FFF7FEFF 		bl	USBUART_HandleSetup
 751              	.LVL38:
  85:.\Generated_Source\PSoC5/USBUART_drv.c ****                 if((USBUART_ep0Mode & USBUART_MODE_SETUP_RCVD) != 0u)
 752              		.loc 1 85 0
 753 0020 1F4B     		ldr	r3, .L74+4
 754 0022 1B78     		ldrb	r3, [r3]	@ zero_extendqisi2
 755 0024 13F0800F 		tst	r3, #128
 756 0028 11D1     		bne	.L70
  75:.\Generated_Source\PSoC5/USBUART_drv.c ****         modifyReg = 1u;
 757              		.loc 1 75 0
 758 002a 0123     		movs	r3, #1
 759 002c 12E0     		b	.L65
 760              	.LVL39:
 761              	.L64:
  92:.\Generated_Source\PSoC5/USBUART_drv.c ****         else if ((bRegTemp & USBUART_MODE_IN_RCVD) != 0u)
 762              		.loc 1 92 0
 763 002e 13F0400F 		tst	r3, #64
 764 0032 03D0     		beq	.L66
  94:.\Generated_Source\PSoC5/USBUART_drv.c ****             USBUART_HandleIN();
 765              		.loc 1 94 0
 766 0034 FFF7FEFF 		bl	USBUART_HandleIN
 767              	.LVL40:
  75:.\Generated_Source\PSoC5/USBUART_drv.c ****         modifyReg = 1u;
 768              		.loc 1 75 0
 769 0038 0123     		movs	r3, #1
 770 003a 0BE0     		b	.L65
 771              	.LVL41:
 772              	.L66:
  96:.\Generated_Source\PSoC5/USBUART_drv.c ****         else if ((bRegTemp & USBUART_MODE_OUT_RCVD) != 0u)
 773              		.loc 1 96 0
 774 003c 13F0200F 		tst	r3, #32
 775 0040 07D0     		beq	.L71
  98:.\Generated_Source\PSoC5/USBUART_drv.c ****             USBUART_HandleOUT();
 776              		.loc 1 98 0
 777 0042 FFF7FEFF 		bl	USBUART_HandleOUT
 778              	.LVL42:
  75:.\Generated_Source\PSoC5/USBUART_drv.c ****         modifyReg = 1u;
 779              		.loc 1 75 0
 780 0046 0123     		movs	r3, #1
 781 0048 04E0     		b	.L65
 782              	.L69:
  80:.\Generated_Source\PSoC5/USBUART_drv.c ****                 modifyReg = 0u;                                     /* When mode not NAK_IN_OUT => 
 783              		.loc 1 80 0
 784 004a 0023     		movs	r3, #0
 785 004c 02E0     		b	.L65
 786              	.L70:
  87:.\Generated_Source\PSoC5/USBUART_drv.c ****                     modifyReg = 0u;                         /* if SETUP bit set -> exit without mod
 787              		.loc 1 87 0
ARM GAS  C:\Users\JohnP\AppData\Local\Temp\ccW8ACZv.s 			page 29


 788 004e 0023     		movs	r3, #0
 789 0050 00E0     		b	.L65
 790              	.LVL43:
 791              	.L71:
 102:.\Generated_Source\PSoC5/USBUART_drv.c ****             modifyReg = 0u;
 792              		.loc 1 102 0
 793 0052 0023     		movs	r3, #0
 794              	.LVL44:
 795              	.L65:
 104:.\Generated_Source\PSoC5/USBUART_drv.c ****         if(modifyReg != 0u)
 796              		.loc 1 104 0
 797 0054 0BB3     		cbz	r3, .L62
 106:.\Generated_Source\PSoC5/USBUART_drv.c ****             bRegTemp = CY_GET_REG8(USBUART_EP0_CR_PTR);    /* unlock registers */
 798              		.loc 1 106 0
 799 0056 114B     		ldr	r3, .L74
 800              	.LVL45:
 801 0058 1B78     		ldrb	r3, [r3]	@ zero_extendqisi2
 802              	.LVL46:
 107:.\Generated_Source\PSoC5/USBUART_drv.c ****             if((bRegTemp & USBUART_MODE_SETUP_RCVD) == 0u)  /* Check if SETUP bit is not set, other
 803              		.loc 1 107 0
 804 005a 13F0800F 		tst	r3, #128
 805 005e 1CD1     		bne	.L62
 110:.\Generated_Source\PSoC5/USBUART_drv.c ****                 bRegTemp = USBUART_ep0Toggle | USBUART_ep0Count;
 806              		.loc 1 110 0
 807 0060 104B     		ldr	r3, .L74+8
 808              	.LVL47:
 809 0062 1B78     		ldrb	r3, [r3]	@ zero_extendqisi2
 810 0064 104A     		ldr	r2, .L74+12
 811 0066 1278     		ldrb	r2, [r2]	@ zero_extendqisi2
 812 0068 1343     		orrs	r3, r3, r2
 813              	.LVL48:
 111:.\Generated_Source\PSoC5/USBUART_drv.c ****                 CY_SET_REG8(USBUART_EP0_CNT_PTR, bRegTemp);
 814              		.loc 1 111 0
 815 006a 104A     		ldr	r2, .L74+16
 816 006c 1370     		strb	r3, [r2]
 112:.\Generated_Source\PSoC5/USBUART_drv.c ****                 if(bRegTemp == CY_GET_REG8(USBUART_EP0_CNT_PTR))   /* continue if writing was succe
 817              		.loc 1 112 0
 818 006e 1278     		ldrb	r2, [r2]	@ zero_extendqisi2
 819 0070 D2B2     		uxtb	r2, r2
 820 0072 9A42     		cmp	r2, r3
 821 0074 11D1     		bne	.L62
 116:.\Generated_Source\PSoC5/USBUART_drv.c ****                         modifyReg = USBUART_ep0Mode;       /* Init temporary variable */
 822              		.loc 1 116 0
 823 0076 0A4B     		ldr	r3, .L74+4
 824              	.LVL49:
 118:.\Generated_Source\PSoC5/USBUART_drv.c ****                         bRegTemp = CY_GET_REG8(USBUART_EP0_CR_PTR) & USBUART_MODE_SETUP_RCVD;
 825              		.loc 1 118 0
 826 0078 0849     		ldr	r1, .L74
 827              	.L72:
 116:.\Generated_Source\PSoC5/USBUART_drv.c ****                         modifyReg = USBUART_ep0Mode;       /* Init temporary variable */
 828              		.loc 1 116 0
 829 007a 1A78     		ldrb	r2, [r3]	@ zero_extendqisi2
 830 007c D2B2     		uxtb	r2, r2
 831              	.LVL50:
 118:.\Generated_Source\PSoC5/USBUART_drv.c ****                         bRegTemp = CY_GET_REG8(USBUART_EP0_CR_PTR) & USBUART_MODE_SETUP_RCVD;
 832              		.loc 1 118 0
 833 007e 0878     		ldrb	r0, [r1]	@ zero_extendqisi2
ARM GAS  C:\Users\JohnP\AppData\Local\Temp\ccW8ACZv.s 			page 30


 834              	.LVL51:
 119:.\Generated_Source\PSoC5/USBUART_drv.c ****                         if(bRegTemp == 0u)                          /* Check if SETUP bit is not se
 835              		.loc 1 119 0
 836 0080 10F0800F 		tst	r0, #128
 837 0084 05D1     		bne	.L67
 122:.\Generated_Source\PSoC5/USBUART_drv.c ****                             CY_SET_REG8(USBUART_EP0_CR_PTR, USBUART_ep0Mode);
 838              		.loc 1 122 0
 839 0086 1A78     		ldrb	r2, [r3]	@ zero_extendqisi2
 840              	.LVL52:
 841 0088 D2B2     		uxtb	r2, r2
 842 008a 0A70     		strb	r2, [r1]
 124:.\Generated_Source\PSoC5/USBUART_drv.c ****                             modifyReg = CY_GET_REG8(USBUART_EP0_CR_PTR) & USBUART_MODE_MASK;
 843              		.loc 1 124 0
 844 008c 0A78     		ldrb	r2, [r1]	@ zero_extendqisi2
 845 008e 02F00F02 		and	r2, r2, #15
 846              	.LVL53:
 847              	.L67:
 126:.\Generated_Source\PSoC5/USBUART_drv.c ****                     }while(modifyReg != USBUART_ep0Mode);  /* Repeat if writing was not successful 
 848              		.loc 1 126 0
 849 0092 1878     		ldrb	r0, [r3]	@ zero_extendqisi2
 850              	.LVL54:
 851 0094 C0B2     		uxtb	r0, r0
 852 0096 8242     		cmp	r2, r0
 853 0098 EFD1     		bne	.L72
 854              	.LVL55:
 855              	.L62:
 856 009a 08BD     		pop	{r3, pc}
 857              	.L75:
 858              		.align	2
 859              	.L74:
 860 009c 28600040 		.word	1073766440
 861 00a0 00000000 		.word	USBUART_ep0Mode
 862 00a4 00000000 		.word	USBUART_ep0Toggle
 863 00a8 00000000 		.word	USBUART_ep0Count
 864 00ac 29600040 		.word	1073766441
 865              		.cfi_endproc
 866              	.LFE0:
 867              		.size	USBUART_EP_0_ISR, .-USBUART_EP_0_ISR
 868              		.section	.text.USBUART_InitializeStatusBlock,"ax",%progbits
 869              		.align	2
 870              		.global	USBUART_InitializeStatusBlock
 871              		.thumb
 872              		.thumb_func
 873              		.type	USBUART_InitializeStatusBlock, %function
 874              	USBUART_InitializeStatusBlock:
 875              	.LFB15:
 740:.\Generated_Source\PSoC5/USBUART_drv.c ****     }
 741:.\Generated_Source\PSoC5/USBUART_drv.c **** }
 742:.\Generated_Source\PSoC5/USBUART_drv.c **** 
 743:.\Generated_Source\PSoC5/USBUART_drv.c **** 
 744:.\Generated_Source\PSoC5/USBUART_drv.c **** /*******************************************************************************
 745:.\Generated_Source\PSoC5/USBUART_drv.c **** * Function Name: USBUART_InitializeStatusBlock
 746:.\Generated_Source\PSoC5/USBUART_drv.c **** ********************************************************************************
 747:.\Generated_Source\PSoC5/USBUART_drv.c **** *
 748:.\Generated_Source\PSoC5/USBUART_drv.c **** * Summary:
 749:.\Generated_Source\PSoC5/USBUART_drv.c **** *  Initialize the Completion Status Block for a Request.  The completion
 750:.\Generated_Source\PSoC5/USBUART_drv.c **** *  code is set to USB_XFER_IDLE.
ARM GAS  C:\Users\JohnP\AppData\Local\Temp\ccW8ACZv.s 			page 31


 751:.\Generated_Source\PSoC5/USBUART_drv.c **** *
 752:.\Generated_Source\PSoC5/USBUART_drv.c **** *  Also, initializes USBUART_transferByteCount.  Save some space,
 753:.\Generated_Source\PSoC5/USBUART_drv.c **** *  this is the only consumer.
 754:.\Generated_Source\PSoC5/USBUART_drv.c **** *
 755:.\Generated_Source\PSoC5/USBUART_drv.c **** * Parameters:
 756:.\Generated_Source\PSoC5/USBUART_drv.c **** *  None.
 757:.\Generated_Source\PSoC5/USBUART_drv.c **** *
 758:.\Generated_Source\PSoC5/USBUART_drv.c **** * Return:
 759:.\Generated_Source\PSoC5/USBUART_drv.c **** *  None.
 760:.\Generated_Source\PSoC5/USBUART_drv.c **** *
 761:.\Generated_Source\PSoC5/USBUART_drv.c **** * Global variables:
 762:.\Generated_Source\PSoC5/USBUART_drv.c **** *  USBUART_currentTD.pStatusBlock->status - set to XFER_IDLE.
 763:.\Generated_Source\PSoC5/USBUART_drv.c **** *  USBUART_currentTD.pStatusBlock->length - cleared.
 764:.\Generated_Source\PSoC5/USBUART_drv.c **** *  USBUART_transferByteCount - cleared.
 765:.\Generated_Source\PSoC5/USBUART_drv.c **** *
 766:.\Generated_Source\PSoC5/USBUART_drv.c **** * Reentrant:
 767:.\Generated_Source\PSoC5/USBUART_drv.c **** *  No.
 768:.\Generated_Source\PSoC5/USBUART_drv.c **** *
 769:.\Generated_Source\PSoC5/USBUART_drv.c **** *******************************************************************************/
 770:.\Generated_Source\PSoC5/USBUART_drv.c **** void USBUART_InitializeStatusBlock(void) 
 771:.\Generated_Source\PSoC5/USBUART_drv.c **** {
 876              		.loc 1 771 0
 877              		.cfi_startproc
 878              		@ args = 0, pretend = 0, frame = 0
 879              		@ frame_needed = 0, uses_anonymous_args = 0
 880              		@ link register save eliminated.
 772:.\Generated_Source\PSoC5/USBUART_drv.c ****     USBUART_transferByteCount = 0u;
 881              		.loc 1 772 0
 882 0000 0022     		movs	r2, #0
 883 0002 064B     		ldr	r3, .L78
 884 0004 1A80     		strh	r2, [r3]	@ movhi
 773:.\Generated_Source\PSoC5/USBUART_drv.c ****     if(USBUART_currentTD.pStatusBlock != NULL)
 885              		.loc 1 773 0
 886 0006 064B     		ldr	r3, .L78+4
 887 0008 9B68     		ldr	r3, [r3, #8]
 888 000a 2BB1     		cbz	r3, .L76
 774:.\Generated_Source\PSoC5/USBUART_drv.c ****     {
 775:.\Generated_Source\PSoC5/USBUART_drv.c ****         USBUART_currentTD.pStatusBlock->status = USBUART_XFER_IDLE;
 889              		.loc 1 775 0
 890 000c 044A     		ldr	r2, .L78+4
 891 000e 9168     		ldr	r1, [r2, #8]
 892 0010 0023     		movs	r3, #0
 893 0012 0B70     		strb	r3, [r1]
 776:.\Generated_Source\PSoC5/USBUART_drv.c ****         USBUART_currentTD.pStatusBlock->length = 0u;
 894              		.loc 1 776 0
 895 0014 9268     		ldr	r2, [r2, #8]
 896 0016 5380     		strh	r3, [r2, #2]	@ movhi
 897              	.L76:
 898 0018 7047     		bx	lr
 899              	.L79:
 900 001a 00BF     		.align	2
 901              	.L78:
 902 001c 00000000 		.word	USBUART_transferByteCount
 903 0020 00000000 		.word	USBUART_currentTD
 904              		.cfi_endproc
 905              	.LFE15:
 906              		.size	USBUART_InitializeStatusBlock, .-USBUART_InitializeStatusBlock
ARM GAS  C:\Users\JohnP\AppData\Local\Temp\ccW8ACZv.s 			page 32


 907              		.section	.text.USBUART_InitControlRead,"ax",%progbits
 908              		.align	2
 909              		.global	USBUART_InitControlRead
 910              		.thumb
 911              		.thumb_func
 912              		.type	USBUART_InitControlRead, %function
 913              	USBUART_InitControlRead:
 914              	.LFB5:
 370:.\Generated_Source\PSoC5/USBUART_drv.c **** {
 915              		.loc 1 370 0
 916              		.cfi_startproc
 917              		@ args = 0, pretend = 0, frame = 0
 918              		@ frame_needed = 0, uses_anonymous_args = 0
 919 0000 08B5     		push	{r3, lr}
 920              		.cfi_def_cfa_offset 8
 921              		.cfi_offset 3, -8
 922              		.cfi_offset 14, -4
 372:.\Generated_Source\PSoC5/USBUART_drv.c ****     if(USBUART_currentTD.count == 0u)
 923              		.loc 1 372 0
 924 0002 104B     		ldr	r3, .L84
 925 0004 1B88     		ldrh	r3, [r3]
 926 0006 9BB2     		uxth	r3, r3
 927 0008 13B9     		cbnz	r3, .L81
 374:.\Generated_Source\PSoC5/USBUART_drv.c ****         (void) USBUART_InitZeroLengthControlTransfer();
 928              		.loc 1 374 0
 929 000a FFF7FEFF 		bl	USBUART_InitZeroLengthControlTransfer
 930              	.LVL56:
 931 000e 16E0     		b	.L82
 932              	.L81:
 379:.\Generated_Source\PSoC5/USBUART_drv.c ****         USBUART_transferState = USBUART_TRANS_STATE_CONTROL_READ;
 933              		.loc 1 379 0
 934 0010 0222     		movs	r2, #2
 935 0012 0D4B     		ldr	r3, .L84+4
 936 0014 1A70     		strb	r2, [r3]
 381:.\Generated_Source\PSoC5/USBUART_drv.c ****         USBUART_ep0Toggle = 0u;
 937              		.loc 1 381 0
 938 0016 0022     		movs	r2, #0
 939 0018 0C4B     		ldr	r3, .L84+8
 940 001a 1A70     		strb	r2, [r3]
 383:.\Generated_Source\PSoC5/USBUART_drv.c ****         USBUART_InitializeStatusBlock();
 941              		.loc 1 383 0
 942 001c FFF7FEFF 		bl	USBUART_InitializeStatusBlock
 943              	.LVL57:
 384:.\Generated_Source\PSoC5/USBUART_drv.c ****         xferCount = (((uint16)CY_GET_REG8(USBUART_lengthHi) << 8u) | (CY_GET_REG8(USBUART_lengthLo)
 944              		.loc 1 384 0
 945 0020 0B4B     		ldr	r3, .L84+12
 946 0022 1A78     		ldrb	r2, [r3]	@ zero_extendqisi2
 947 0024 013B     		subs	r3, r3, #1
 948 0026 1B78     		ldrb	r3, [r3]	@ zero_extendqisi2
 949 0028 43EA0223 		orr	r3, r3, r2, lsl #8
 950              	.LVL58:
 386:.\Generated_Source\PSoC5/USBUART_drv.c ****         if (USBUART_currentTD.count > xferCount)
 951              		.loc 1 386 0
 952 002c 054A     		ldr	r2, .L84
 953 002e 1288     		ldrh	r2, [r2]
 954 0030 92B2     		uxth	r2, r2
 955 0032 9A42     		cmp	r2, r3
ARM GAS  C:\Users\JohnP\AppData\Local\Temp\ccW8ACZv.s 			page 33


 956 0034 01D9     		bls	.L83
 388:.\Generated_Source\PSoC5/USBUART_drv.c ****             USBUART_currentTD.count = xferCount;
 957              		.loc 1 388 0
 958 0036 034A     		ldr	r2, .L84
 959 0038 1380     		strh	r3, [r2]	@ movhi
 960              	.L83:
 390:.\Generated_Source\PSoC5/USBUART_drv.c ****         USBUART_LoadEP0();
 961              		.loc 1 390 0
 962 003a FFF7FEFF 		bl	USBUART_LoadEP0
 963              	.LVL59:
 964              	.L82:
 394:.\Generated_Source\PSoC5/USBUART_drv.c **** }
 965              		.loc 1 394 0
 966 003e 0120     		movs	r0, #1
 967 0040 08BD     		pop	{r3, pc}
 968              	.L85:
 969 0042 00BF     		.align	2
 970              	.L84:
 971 0044 00000000 		.word	USBUART_currentTD
 972 0048 00000000 		.word	USBUART_transferState
 973 004c 00000000 		.word	USBUART_ep0Toggle
 974 0050 07600040 		.word	1073766407
 975              		.cfi_endproc
 976              	.LFE5:
 977              		.size	USBUART_InitControlRead, .-USBUART_InitControlRead
 978              		.section	.text.USBUART_InitControlWrite,"ax",%progbits
 979              		.align	2
 980              		.global	USBUART_InitControlWrite
 981              		.thumb
 982              		.thumb_func
 983              		.type	USBUART_InitControlWrite, %function
 984              	USBUART_InitControlWrite:
 985              	.LFB9:
 520:.\Generated_Source\PSoC5/USBUART_drv.c **** {
 986              		.loc 1 520 0
 987              		.cfi_startproc
 988              		@ args = 0, pretend = 0, frame = 0
 989              		@ frame_needed = 0, uses_anonymous_args = 0
 990 0000 08B5     		push	{r3, lr}
 991              		.cfi_def_cfa_offset 8
 992              		.cfi_offset 3, -8
 993              		.cfi_offset 14, -4
 524:.\Generated_Source\PSoC5/USBUART_drv.c ****     USBUART_transferState = USBUART_TRANS_STATE_CONTROL_WRITE;
 994              		.loc 1 524 0
 995 0002 0422     		movs	r2, #4
 996 0004 0C4B     		ldr	r3, .L88
 997 0006 1A70     		strb	r2, [r3]
 526:.\Generated_Source\PSoC5/USBUART_drv.c ****     USBUART_ep0Toggle = USBUART_EP0_CNT_DATA_TOGGLE;
 998              		.loc 1 526 0
 999 0008 8022     		movs	r2, #128
 1000 000a 0C4B     		ldr	r3, .L88+4
 1001 000c 1A70     		strb	r2, [r3]
 528:.\Generated_Source\PSoC5/USBUART_drv.c ****     USBUART_InitializeStatusBlock();
 1002              		.loc 1 528 0
 1003 000e FFF7FEFF 		bl	USBUART_InitializeStatusBlock
 1004              	.LVL60:
 530:.\Generated_Source\PSoC5/USBUART_drv.c ****     xferCount = (((uint16)CY_GET_REG8(USBUART_lengthHi) << 8u) | (CY_GET_REG8(USBUART_lengthLo)));
ARM GAS  C:\Users\JohnP\AppData\Local\Temp\ccW8ACZv.s 			page 34


 1005              		.loc 1 530 0
 1006 0012 0B4B     		ldr	r3, .L88+8
 1007 0014 1A78     		ldrb	r2, [r3]	@ zero_extendqisi2
 1008 0016 013B     		subs	r3, r3, #1
 1009 0018 1B78     		ldrb	r3, [r3]	@ zero_extendqisi2
 1010 001a 43EA0223 		orr	r3, r3, r2, lsl #8
 1011              	.LVL61:
 532:.\Generated_Source\PSoC5/USBUART_drv.c ****     if (USBUART_currentTD.count > xferCount)
 1012              		.loc 1 532 0
 1013 001e 094A     		ldr	r2, .L88+12
 1014 0020 1288     		ldrh	r2, [r2]
 1015 0022 92B2     		uxth	r2, r2
 1016 0024 9A42     		cmp	r2, r3
 1017 0026 01D9     		bls	.L87
 534:.\Generated_Source\PSoC5/USBUART_drv.c ****         USBUART_currentTD.count = xferCount;
 1018              		.loc 1 534 0
 1019 0028 064A     		ldr	r2, .L88+12
 1020 002a 1380     		strh	r3, [r2]	@ movhi
 1021              	.L87:
 538:.\Generated_Source\PSoC5/USBUART_drv.c ****     USBUART_ep0Mode = USBUART_MODE_ACK_OUT_STATUS_IN;
 1022              		.loc 1 538 0
 1023 002c 0B22     		movs	r2, #11
 1024 002e 064B     		ldr	r3, .L88+16
 1025              	.LVL62:
 1026 0030 1A70     		strb	r2, [r3]
 541:.\Generated_Source\PSoC5/USBUART_drv.c **** }
 1027              		.loc 1 541 0
 1028 0032 0120     		movs	r0, #1
 1029 0034 08BD     		pop	{r3, pc}
 1030              	.L89:
 1031 0036 00BF     		.align	2
 1032              	.L88:
 1033 0038 00000000 		.word	USBUART_transferState
 1034 003c 00000000 		.word	USBUART_ep0Toggle
 1035 0040 07600040 		.word	1073766407
 1036 0044 00000000 		.word	USBUART_currentTD
 1037 0048 00000000 		.word	USBUART_ep0Mode
 1038              		.cfi_endproc
 1039              	.LFE9:
 1040              		.size	USBUART_InitControlWrite, .-USBUART_InitControlWrite
 1041              		.comm	USBUART_transferByteCount,2,2
 1042              		.comm	USBUART_ep0Count,1,1
 1043              		.comm	USBUART_ep0Mode,1,1
 1044              		.comm	USBUART_currentTD,12,4
 1045              		.comm	USBUART_transferState,1,1
 1046              		.comm	USBUART_lastPacketSize,1,1
 1047              		.comm	USBUART_ep0Toggle,1,1
 1048              		.comm	USBUART_interfaceClass,4,4
 1049              		.comm	USBUART_device,1,1
 1050              		.comm	USBUART_interfaceStatus,2,4
 1051              		.comm	USBUART_interfaceSetting_last,2,4
 1052              		.comm	USBUART_interfaceSetting,2,4
 1053              		.comm	USBUART_deviceStatus,1,1
 1054              		.comm	USBUART_deviceAddress,1,1
 1055              		.comm	USBUART_configurationChanged,1,1
 1056              		.comm	USBUART_interfaceNumber,1,1
 1057              		.comm	USBUART_configuration,1,1
ARM GAS  C:\Users\JohnP\AppData\Local\Temp\ccW8ACZv.s 			page 35


 1058              		.comm	USBUART_EP,108,4
 1059              		.text
 1060              	.Letext0:
 1061              		.file 2 ".\\Generated_Source\\PSoC5\\cytypes.h"
 1062              		.file 3 ".\\Generated_Source\\PSoC5\\USBUART.h"
 1063              		.file 4 ".\\Generated_Source\\PSoC5\\USBUART_pvt.h"