ARM GAS  C:\Users\JohnP\AppData\Local\Temp\ccPhrqUu.s 			page 1


   1              		.syntax unified
   2              		.cpu cortex-m3
   3              		.fpu softvfp
   4              		.eabi_attribute 20, 1
   5              		.eabi_attribute 21, 1
   6              		.eabi_attribute 23, 3
   7              		.eabi_attribute 24, 1
   8              		.eabi_attribute 25, 1
   9              		.eabi_attribute 26, 1
  10              		.eabi_attribute 30, 1
  11              		.eabi_attribute 34, 1
  12              		.eabi_attribute 18, 4
  13              		.thumb
  14              		.file	"WDT.c"
  15              		.text
  16              	.Ltext0:
  17              		.cfi_sections	.debug_frame
  18              		.section	.text.WDT_Interrupt,"ax",%progbits
  19              		.align	2
  20              		.global	WDT_Interrupt
  21              		.thumb
  22              		.thumb_func
  23              		.type	WDT_Interrupt, %function
  24              	WDT_Interrupt:
  25              	.LFB3:
  26              		.file 1 ".\\Generated_Source\\PSoC5\\WDT.c"
   1:.\Generated_Source\PSoC5/WDT.c **** /*******************************************************************************
   2:.\Generated_Source\PSoC5/WDT.c **** * File Name: WDT.c  
   3:.\Generated_Source\PSoC5/WDT.c **** * Version 1.70
   4:.\Generated_Source\PSoC5/WDT.c **** *
   5:.\Generated_Source\PSoC5/WDT.c **** *  Description:
   6:.\Generated_Source\PSoC5/WDT.c **** *   API for controlling the state of an interrupt.
   7:.\Generated_Source\PSoC5/WDT.c **** *
   8:.\Generated_Source\PSoC5/WDT.c **** *
   9:.\Generated_Source\PSoC5/WDT.c **** *  Note:
  10:.\Generated_Source\PSoC5/WDT.c **** *
  11:.\Generated_Source\PSoC5/WDT.c **** ********************************************************************************
  12:.\Generated_Source\PSoC5/WDT.c **** * Copyright 2008-2015, Cypress Semiconductor Corporation.  All rights reserved.
  13:.\Generated_Source\PSoC5/WDT.c **** * You may use this file only in accordance with the license, terms, conditions, 
  14:.\Generated_Source\PSoC5/WDT.c **** * disclaimers, and limitations in the end user license agreement accompanying 
  15:.\Generated_Source\PSoC5/WDT.c **** * the software package with which this file was provided.
  16:.\Generated_Source\PSoC5/WDT.c **** *******************************************************************************/
  17:.\Generated_Source\PSoC5/WDT.c **** 
  18:.\Generated_Source\PSoC5/WDT.c **** 
  19:.\Generated_Source\PSoC5/WDT.c **** #include <cydevice_trm.h>
  20:.\Generated_Source\PSoC5/WDT.c **** #include <CyLib.h>
  21:.\Generated_Source\PSoC5/WDT.c **** #include <WDT.h>
  22:.\Generated_Source\PSoC5/WDT.c **** 
  23:.\Generated_Source\PSoC5/WDT.c **** #if !defined(WDT__REMOVED) /* Check for removal by optimization */
  24:.\Generated_Source\PSoC5/WDT.c **** 
  25:.\Generated_Source\PSoC5/WDT.c **** /*******************************************************************************
  26:.\Generated_Source\PSoC5/WDT.c **** *  Place your includes, defines and code here 
  27:.\Generated_Source\PSoC5/WDT.c **** ********************************************************************************/
  28:.\Generated_Source\PSoC5/WDT.c **** /* `#START WDT_intc` */
  29:.\Generated_Source\PSoC5/WDT.c **** #include "system.h"
  30:.\Generated_Source\PSoC5/WDT.c **** /* `#END` */
  31:.\Generated_Source\PSoC5/WDT.c **** 
ARM GAS  C:\Users\JohnP\AppData\Local\Temp\ccPhrqUu.s 			page 2


  32:.\Generated_Source\PSoC5/WDT.c **** #ifndef CYINT_IRQ_BASE
  33:.\Generated_Source\PSoC5/WDT.c **** #define CYINT_IRQ_BASE      16
  34:.\Generated_Source\PSoC5/WDT.c **** #endif /* CYINT_IRQ_BASE */
  35:.\Generated_Source\PSoC5/WDT.c **** #ifndef CYINT_VECT_TABLE
  36:.\Generated_Source\PSoC5/WDT.c **** #define CYINT_VECT_TABLE    ((cyisraddress **) CYREG_NVIC_VECT_OFFSET)
  37:.\Generated_Source\PSoC5/WDT.c **** #endif /* CYINT_VECT_TABLE */
  38:.\Generated_Source\PSoC5/WDT.c **** 
  39:.\Generated_Source\PSoC5/WDT.c **** /* Declared in startup, used to set unused interrupts to. */
  40:.\Generated_Source\PSoC5/WDT.c **** CY_ISR_PROTO(IntDefaultHandler);
  41:.\Generated_Source\PSoC5/WDT.c **** 
  42:.\Generated_Source\PSoC5/WDT.c **** 
  43:.\Generated_Source\PSoC5/WDT.c **** /*******************************************************************************
  44:.\Generated_Source\PSoC5/WDT.c **** * Function Name: WDT_Start
  45:.\Generated_Source\PSoC5/WDT.c **** ********************************************************************************
  46:.\Generated_Source\PSoC5/WDT.c **** *
  47:.\Generated_Source\PSoC5/WDT.c **** * Summary:
  48:.\Generated_Source\PSoC5/WDT.c **** *  Set up the interrupt and enable it. This function disables the interrupt, 
  49:.\Generated_Source\PSoC5/WDT.c **** *  sets the default interrupt vector, sets the priority from the value in the
  50:.\Generated_Source\PSoC5/WDT.c **** *  Design Wide Resources Interrupt Editor, then enables the interrupt to the 
  51:.\Generated_Source\PSoC5/WDT.c **** *  interrupt controller.
  52:.\Generated_Source\PSoC5/WDT.c **** *
  53:.\Generated_Source\PSoC5/WDT.c **** * Parameters:  
  54:.\Generated_Source\PSoC5/WDT.c **** *   None
  55:.\Generated_Source\PSoC5/WDT.c **** *
  56:.\Generated_Source\PSoC5/WDT.c **** * Return:
  57:.\Generated_Source\PSoC5/WDT.c **** *   None
  58:.\Generated_Source\PSoC5/WDT.c **** *
  59:.\Generated_Source\PSoC5/WDT.c **** *******************************************************************************/
  60:.\Generated_Source\PSoC5/WDT.c **** void WDT_Start(void)
  61:.\Generated_Source\PSoC5/WDT.c **** {
  62:.\Generated_Source\PSoC5/WDT.c ****     /* For all we know the interrupt is active. */
  63:.\Generated_Source\PSoC5/WDT.c ****     WDT_Disable();
  64:.\Generated_Source\PSoC5/WDT.c **** 
  65:.\Generated_Source\PSoC5/WDT.c ****     /* Set the ISR to point to the WDT Interrupt. */
  66:.\Generated_Source\PSoC5/WDT.c ****     WDT_SetVector(&WDT_Interrupt);
  67:.\Generated_Source\PSoC5/WDT.c **** 
  68:.\Generated_Source\PSoC5/WDT.c ****     /* Set the priority. */
  69:.\Generated_Source\PSoC5/WDT.c ****     WDT_SetPriority((uint8)WDT_INTC_PRIOR_NUMBER);
  70:.\Generated_Source\PSoC5/WDT.c **** 
  71:.\Generated_Source\PSoC5/WDT.c ****     /* Enable it. */
  72:.\Generated_Source\PSoC5/WDT.c ****     WDT_Enable();
  73:.\Generated_Source\PSoC5/WDT.c **** }
  74:.\Generated_Source\PSoC5/WDT.c **** 
  75:.\Generated_Source\PSoC5/WDT.c **** 
  76:.\Generated_Source\PSoC5/WDT.c **** /*******************************************************************************
  77:.\Generated_Source\PSoC5/WDT.c **** * Function Name: WDT_StartEx
  78:.\Generated_Source\PSoC5/WDT.c **** ********************************************************************************
  79:.\Generated_Source\PSoC5/WDT.c **** *
  80:.\Generated_Source\PSoC5/WDT.c **** * Summary:
  81:.\Generated_Source\PSoC5/WDT.c **** *  Sets up the interrupt and enables it. This function disables the interrupt,
  82:.\Generated_Source\PSoC5/WDT.c **** *  sets the interrupt vector based on the address passed in, sets the priority 
  83:.\Generated_Source\PSoC5/WDT.c **** *  from the value in the Design Wide Resources Interrupt Editor, then enables 
  84:.\Generated_Source\PSoC5/WDT.c **** *  the interrupt to the interrupt controller.
  85:.\Generated_Source\PSoC5/WDT.c **** *  
  86:.\Generated_Source\PSoC5/WDT.c **** *  When defining ISR functions, the CY_ISR and CY_ISR_PROTO macros should be 
  87:.\Generated_Source\PSoC5/WDT.c **** *  used to provide consistent definition across compilers:
  88:.\Generated_Source\PSoC5/WDT.c **** *  
ARM GAS  C:\Users\JohnP\AppData\Local\Temp\ccPhrqUu.s 			page 3


  89:.\Generated_Source\PSoC5/WDT.c **** *  Function definition example:
  90:.\Generated_Source\PSoC5/WDT.c **** *   CY_ISR(MyISR)
  91:.\Generated_Source\PSoC5/WDT.c **** *   {
  92:.\Generated_Source\PSoC5/WDT.c **** *   }
  93:.\Generated_Source\PSoC5/WDT.c **** *   Function prototype example:
  94:.\Generated_Source\PSoC5/WDT.c **** *   CY_ISR_PROTO(MyISR);
  95:.\Generated_Source\PSoC5/WDT.c **** *
  96:.\Generated_Source\PSoC5/WDT.c **** * Parameters:  
  97:.\Generated_Source\PSoC5/WDT.c **** *   address: Address of the ISR to set in the interrupt vector table.
  98:.\Generated_Source\PSoC5/WDT.c **** *
  99:.\Generated_Source\PSoC5/WDT.c **** * Return:
 100:.\Generated_Source\PSoC5/WDT.c **** *   None
 101:.\Generated_Source\PSoC5/WDT.c **** *
 102:.\Generated_Source\PSoC5/WDT.c **** *******************************************************************************/
 103:.\Generated_Source\PSoC5/WDT.c **** void WDT_StartEx(cyisraddress address)
 104:.\Generated_Source\PSoC5/WDT.c **** {
 105:.\Generated_Source\PSoC5/WDT.c ****     /* For all we know the interrupt is active. */
 106:.\Generated_Source\PSoC5/WDT.c ****     WDT_Disable();
 107:.\Generated_Source\PSoC5/WDT.c **** 
 108:.\Generated_Source\PSoC5/WDT.c ****     /* Set the ISR to point to the WDT Interrupt. */
 109:.\Generated_Source\PSoC5/WDT.c ****     WDT_SetVector(address);
 110:.\Generated_Source\PSoC5/WDT.c **** 
 111:.\Generated_Source\PSoC5/WDT.c ****     /* Set the priority. */
 112:.\Generated_Source\PSoC5/WDT.c ****     WDT_SetPriority((uint8)WDT_INTC_PRIOR_NUMBER);
 113:.\Generated_Source\PSoC5/WDT.c **** 
 114:.\Generated_Source\PSoC5/WDT.c ****     /* Enable it. */
 115:.\Generated_Source\PSoC5/WDT.c ****     WDT_Enable();
 116:.\Generated_Source\PSoC5/WDT.c **** }
 117:.\Generated_Source\PSoC5/WDT.c **** 
 118:.\Generated_Source\PSoC5/WDT.c **** 
 119:.\Generated_Source\PSoC5/WDT.c **** /*******************************************************************************
 120:.\Generated_Source\PSoC5/WDT.c **** * Function Name: WDT_Stop
 121:.\Generated_Source\PSoC5/WDT.c **** ********************************************************************************
 122:.\Generated_Source\PSoC5/WDT.c **** *
 123:.\Generated_Source\PSoC5/WDT.c **** * Summary:
 124:.\Generated_Source\PSoC5/WDT.c **** *   Disables and removes the interrupt.
 125:.\Generated_Source\PSoC5/WDT.c **** *
 126:.\Generated_Source\PSoC5/WDT.c **** * Parameters:  
 127:.\Generated_Source\PSoC5/WDT.c **** *   None
 128:.\Generated_Source\PSoC5/WDT.c **** *
 129:.\Generated_Source\PSoC5/WDT.c **** * Return:
 130:.\Generated_Source\PSoC5/WDT.c **** *   None
 131:.\Generated_Source\PSoC5/WDT.c **** *
 132:.\Generated_Source\PSoC5/WDT.c **** *******************************************************************************/
 133:.\Generated_Source\PSoC5/WDT.c **** void WDT_Stop(void)
 134:.\Generated_Source\PSoC5/WDT.c **** {
 135:.\Generated_Source\PSoC5/WDT.c ****     /* Disable this interrupt. */
 136:.\Generated_Source\PSoC5/WDT.c ****     WDT_Disable();
 137:.\Generated_Source\PSoC5/WDT.c **** 
 138:.\Generated_Source\PSoC5/WDT.c ****     /* Set the ISR to point to the passive one. */
 139:.\Generated_Source\PSoC5/WDT.c ****     WDT_SetVector(&IntDefaultHandler);
 140:.\Generated_Source\PSoC5/WDT.c **** }
 141:.\Generated_Source\PSoC5/WDT.c **** 
 142:.\Generated_Source\PSoC5/WDT.c **** 
 143:.\Generated_Source\PSoC5/WDT.c **** /*******************************************************************************
 144:.\Generated_Source\PSoC5/WDT.c **** * Function Name: WDT_Interrupt
 145:.\Generated_Source\PSoC5/WDT.c **** ********************************************************************************
ARM GAS  C:\Users\JohnP\AppData\Local\Temp\ccPhrqUu.s 			page 4


 146:.\Generated_Source\PSoC5/WDT.c **** *
 147:.\Generated_Source\PSoC5/WDT.c **** * Summary:
 148:.\Generated_Source\PSoC5/WDT.c **** *   The default Interrupt Service Routine for WDT.
 149:.\Generated_Source\PSoC5/WDT.c **** *
 150:.\Generated_Source\PSoC5/WDT.c **** *   Add custom code between the coments to keep the next version of this file
 151:.\Generated_Source\PSoC5/WDT.c **** *   from over writting your code.
 152:.\Generated_Source\PSoC5/WDT.c **** *
 153:.\Generated_Source\PSoC5/WDT.c **** * Parameters:  
 154:.\Generated_Source\PSoC5/WDT.c **** *
 155:.\Generated_Source\PSoC5/WDT.c **** * Return:
 156:.\Generated_Source\PSoC5/WDT.c **** *   None
 157:.\Generated_Source\PSoC5/WDT.c **** *
 158:.\Generated_Source\PSoC5/WDT.c **** *******************************************************************************/
 159:.\Generated_Source\PSoC5/WDT.c **** CY_ISR(WDT_Interrupt)
 160:.\Generated_Source\PSoC5/WDT.c **** {
  27              		.loc 1 160 0
  28              		.cfi_startproc
  29              		@ args = 0, pretend = 0, frame = 0
  30              		@ frame_needed = 0, uses_anonymous_args = 0
  31 0000 70B5     		push	{r4, r5, r6, lr}
  32              		.cfi_def_cfa_offset 16
  33              		.cfi_offset 4, -16
  34              		.cfi_offset 5, -12
  35              		.cfi_offset 6, -8
  36              		.cfi_offset 14, -4
 161:.\Generated_Source\PSoC5/WDT.c ****     /*  Place your Interrupt code here. */
 162:.\Generated_Source\PSoC5/WDT.c ****     /* `#START WDT_Interrupt` */
 163:.\Generated_Source\PSoC5/WDT.c ****     
 164:.\Generated_Source\PSoC5/WDT.c ****     int hearthealth = HEARTRATE_HEALTH_Read();
  37              		.loc 1 164 0
  38 0002 FFF7FEFF 		bl	HEARTRATE_HEALTH_Read
  39              	.LVL0:
  40 0006 0646     		mov	r6, r0
  41              	.LVL1:
 165:.\Generated_Source\PSoC5/WDT.c ****     int motorhealth = MOTOR_HEALTH_Read();
  42              		.loc 1 165 0
  43 0008 FFF7FEFF 		bl	MOTOR_HEALTH_Read
  44              	.LVL2:
  45 000c 0546     		mov	r5, r0
  46              	.LVL3:
 166:.\Generated_Source\PSoC5/WDT.c ****     int uihealth = UI_HEALTH_Read();
  47              		.loc 1 166 0
  48 000e FFF7FEFF 		bl	UI_HEALTH_Read
  49              	.LVL4:
  50 0012 0446     		mov	r4, r0
  51              	.LVL5:
 167:.\Generated_Source\PSoC5/WDT.c ****     LCD_Position(1,5);
  52              		.loc 1 167 0
  53 0014 0120     		movs	r0, #1
  54              	.LVL6:
  55 0016 0521     		movs	r1, #5
  56 0018 FFF7FEFF 		bl	LCD_Position
  57              	.LVL7:
 168:.\Generated_Source\PSoC5/WDT.c ****     LCD_PrintNumber(hearthealth);
  58              		.loc 1 168 0
  59 001c 3046     		mov	r0, r6
  60 001e FFF7FEFF 		bl	LCD_PrintU32Number
ARM GAS  C:\Users\JohnP\AppData\Local\Temp\ccPhrqUu.s 			page 5


  61              	.LVL8:
 169:.\Generated_Source\PSoC5/WDT.c ****     LCD_PrintNumber(motorhealth);
  62              		.loc 1 169 0
  63 0022 2846     		mov	r0, r5
  64 0024 FFF7FEFF 		bl	LCD_PrintU32Number
  65              	.LVL9:
 170:.\Generated_Source\PSoC5/WDT.c ****     LCD_PrintNumber(uihealth);
  66              		.loc 1 170 0
  67 0028 2046     		mov	r0, r4
  68 002a FFF7FEFF 		bl	LCD_PrintU32Number
  69              	.LVL10:
 171:.\Generated_Source\PSoC5/WDT.c ****     if((HEARTRATE_HEALTH_Read() > 0) && (MOTOR_HEALTH_Read() > 0) && (UI_HEALTH_Read() > 0)){
  70              		.loc 1 171 0
  71 002e FFF7FEFF 		bl	HEARTRATE_HEALTH_Read
  72              	.LVL11:
  73 0032 38B1     		cbz	r0, .L1
  74              		.loc 1 171 0 is_stmt 0 discriminator 1
  75 0034 FFF7FEFF 		bl	MOTOR_HEALTH_Read
  76              	.LVL12:
  77 0038 20B1     		cbz	r0, .L1
  78 003a FFF7FEFF 		bl	UI_HEALTH_Read
  79              	.LVL13:
  80 003e 08B1     		cbz	r0, .L1
 172:.\Generated_Source\PSoC5/WDT.c ****         CyWdtClear();   
  81              		.loc 1 172 0 is_stmt 1
  82 0040 FFF7FEFF 		bl	CyWdtClear
  83              	.LVL14:
  84              	.L1:
  85 0044 70BD     		pop	{r4, r5, r6, pc}
  86              		.cfi_endproc
  87              	.LFE3:
  88              		.size	WDT_Interrupt, .-WDT_Interrupt
  89 0046 00BF     		.section	.text.WDT_SetVector,"ax",%progbits
  90              		.align	2
  91              		.global	WDT_SetVector
  92              		.thumb
  93              		.thumb_func
  94              		.type	WDT_SetVector, %function
  95              	WDT_SetVector:
  96              	.LFB4:
 173:.\Generated_Source\PSoC5/WDT.c ****     }
 174:.\Generated_Source\PSoC5/WDT.c ****     /* `#END` */
 175:.\Generated_Source\PSoC5/WDT.c **** }
 176:.\Generated_Source\PSoC5/WDT.c **** 
 177:.\Generated_Source\PSoC5/WDT.c **** 
 178:.\Generated_Source\PSoC5/WDT.c **** /*******************************************************************************
 179:.\Generated_Source\PSoC5/WDT.c **** * Function Name: WDT_SetVector
 180:.\Generated_Source\PSoC5/WDT.c **** ********************************************************************************
 181:.\Generated_Source\PSoC5/WDT.c **** *
 182:.\Generated_Source\PSoC5/WDT.c **** * Summary:
 183:.\Generated_Source\PSoC5/WDT.c **** *   Change the ISR vector for the Interrupt. Note calling WDT_Start
 184:.\Generated_Source\PSoC5/WDT.c **** *   will override any effect this method would have had. To set the vector 
 185:.\Generated_Source\PSoC5/WDT.c **** *   before the component has been started use WDT_StartEx instead.
 186:.\Generated_Source\PSoC5/WDT.c **** * 
 187:.\Generated_Source\PSoC5/WDT.c **** *   When defining ISR functions, the CY_ISR and CY_ISR_PROTO macros should be 
 188:.\Generated_Source\PSoC5/WDT.c **** *   used to provide consistent definition across compilers:
 189:.\Generated_Source\PSoC5/WDT.c **** *
ARM GAS  C:\Users\JohnP\AppData\Local\Temp\ccPhrqUu.s 			page 6


 190:.\Generated_Source\PSoC5/WDT.c **** *   Function definition example:
 191:.\Generated_Source\PSoC5/WDT.c **** *   CY_ISR(MyISR)
 192:.\Generated_Source\PSoC5/WDT.c **** *   {
 193:.\Generated_Source\PSoC5/WDT.c **** *   }
 194:.\Generated_Source\PSoC5/WDT.c **** *
 195:.\Generated_Source\PSoC5/WDT.c **** *   Function prototype example:
 196:.\Generated_Source\PSoC5/WDT.c **** *     CY_ISR_PROTO(MyISR);
 197:.\Generated_Source\PSoC5/WDT.c **** *
 198:.\Generated_Source\PSoC5/WDT.c **** * Parameters:
 199:.\Generated_Source\PSoC5/WDT.c **** *   address: Address of the ISR to set in the interrupt vector table.
 200:.\Generated_Source\PSoC5/WDT.c **** *
 201:.\Generated_Source\PSoC5/WDT.c **** * Return:
 202:.\Generated_Source\PSoC5/WDT.c **** *   None
 203:.\Generated_Source\PSoC5/WDT.c **** *
 204:.\Generated_Source\PSoC5/WDT.c **** *******************************************************************************/
 205:.\Generated_Source\PSoC5/WDT.c **** void WDT_SetVector(cyisraddress address)
 206:.\Generated_Source\PSoC5/WDT.c **** {
  97              		.loc 1 206 0
  98              		.cfi_startproc
  99              		@ args = 0, pretend = 0, frame = 0
 100              		@ frame_needed = 0, uses_anonymous_args = 0
 101              		@ link register save eliminated.
 102              	.LVL15:
 207:.\Generated_Source\PSoC5/WDT.c ****     cyisraddress * ramVectorTable;
 208:.\Generated_Source\PSoC5/WDT.c **** 
 209:.\Generated_Source\PSoC5/WDT.c ****     ramVectorTable = (cyisraddress *) *CYINT_VECT_TABLE;
 103              		.loc 1 209 0
 104 0000 014B     		ldr	r3, .L4
 105 0002 1B68     		ldr	r3, [r3]
 106              	.LVL16:
 210:.\Generated_Source\PSoC5/WDT.c **** 
 211:.\Generated_Source\PSoC5/WDT.c ****     ramVectorTable[CYINT_IRQ_BASE + (uint32)WDT__INTC_NUMBER] = address;
 107              		.loc 1 211 0
 108 0004 9864     		str	r0, [r3, #72]
 109 0006 7047     		bx	lr
 110              	.L5:
 111              		.align	2
 112              	.L4:
 113 0008 08ED00E0 		.word	-536810232
 114              		.cfi_endproc
 115              	.LFE4:
 116              		.size	WDT_SetVector, .-WDT_SetVector
 117              		.section	.text.WDT_GetVector,"ax",%progbits
 118              		.align	2
 119              		.global	WDT_GetVector
 120              		.thumb
 121              		.thumb_func
 122              		.type	WDT_GetVector, %function
 123              	WDT_GetVector:
 124              	.LFB5:
 212:.\Generated_Source\PSoC5/WDT.c **** }
 213:.\Generated_Source\PSoC5/WDT.c **** 
 214:.\Generated_Source\PSoC5/WDT.c **** 
 215:.\Generated_Source\PSoC5/WDT.c **** /*******************************************************************************
 216:.\Generated_Source\PSoC5/WDT.c **** * Function Name: WDT_GetVector
 217:.\Generated_Source\PSoC5/WDT.c **** ********************************************************************************
 218:.\Generated_Source\PSoC5/WDT.c **** *
ARM GAS  C:\Users\JohnP\AppData\Local\Temp\ccPhrqUu.s 			page 7


 219:.\Generated_Source\PSoC5/WDT.c **** * Summary:
 220:.\Generated_Source\PSoC5/WDT.c **** *   Gets the "address" of the current ISR vector for the Interrupt.
 221:.\Generated_Source\PSoC5/WDT.c **** *
 222:.\Generated_Source\PSoC5/WDT.c **** * Parameters:
 223:.\Generated_Source\PSoC5/WDT.c **** *   None
 224:.\Generated_Source\PSoC5/WDT.c **** *
 225:.\Generated_Source\PSoC5/WDT.c **** * Return:
 226:.\Generated_Source\PSoC5/WDT.c **** *   Address of the ISR in the interrupt vector table.
 227:.\Generated_Source\PSoC5/WDT.c **** *
 228:.\Generated_Source\PSoC5/WDT.c **** *******************************************************************************/
 229:.\Generated_Source\PSoC5/WDT.c **** cyisraddress WDT_GetVector(void)
 230:.\Generated_Source\PSoC5/WDT.c **** {
 125              		.loc 1 230 0
 126              		.cfi_startproc
 127              		@ args = 0, pretend = 0, frame = 0
 128              		@ frame_needed = 0, uses_anonymous_args = 0
 129              		@ link register save eliminated.
 231:.\Generated_Source\PSoC5/WDT.c ****     cyisraddress * ramVectorTable;
 232:.\Generated_Source\PSoC5/WDT.c **** 
 233:.\Generated_Source\PSoC5/WDT.c ****     ramVectorTable = (cyisraddress *) *CYINT_VECT_TABLE;
 130              		.loc 1 233 0
 131 0000 014B     		ldr	r3, .L7
 132 0002 1B68     		ldr	r3, [r3]
 133              	.LVL17:
 234:.\Generated_Source\PSoC5/WDT.c **** 
 235:.\Generated_Source\PSoC5/WDT.c ****     return ramVectorTable[CYINT_IRQ_BASE + (uint32)WDT__INTC_NUMBER];
 236:.\Generated_Source\PSoC5/WDT.c **** }
 134              		.loc 1 236 0
 135 0004 986C     		ldr	r0, [r3, #72]
 136 0006 7047     		bx	lr
 137              	.L8:
 138              		.align	2
 139              	.L7:
 140 0008 08ED00E0 		.word	-536810232
 141              		.cfi_endproc
 142              	.LFE5:
 143              		.size	WDT_GetVector, .-WDT_GetVector
 144              		.section	.text.WDT_SetPriority,"ax",%progbits
 145              		.align	2
 146              		.global	WDT_SetPriority
 147              		.thumb
 148              		.thumb_func
 149              		.type	WDT_SetPriority, %function
 150              	WDT_SetPriority:
 151              	.LFB6:
 237:.\Generated_Source\PSoC5/WDT.c **** 
 238:.\Generated_Source\PSoC5/WDT.c **** 
 239:.\Generated_Source\PSoC5/WDT.c **** /*******************************************************************************
 240:.\Generated_Source\PSoC5/WDT.c **** * Function Name: WDT_SetPriority
 241:.\Generated_Source\PSoC5/WDT.c **** ********************************************************************************
 242:.\Generated_Source\PSoC5/WDT.c **** *
 243:.\Generated_Source\PSoC5/WDT.c **** * Summary:
 244:.\Generated_Source\PSoC5/WDT.c **** *   Sets the Priority of the Interrupt. 
 245:.\Generated_Source\PSoC5/WDT.c **** *
 246:.\Generated_Source\PSoC5/WDT.c **** *   Note calling WDT_Start or WDT_StartEx will 
 247:.\Generated_Source\PSoC5/WDT.c **** *   override any effect this API would have had. This API should only be called
 248:.\Generated_Source\PSoC5/WDT.c **** *   after WDT_Start or WDT_StartEx has been called. 
ARM GAS  C:\Users\JohnP\AppData\Local\Temp\ccPhrqUu.s 			page 8


 249:.\Generated_Source\PSoC5/WDT.c **** *   To set the initial priority for the component, use the Design-Wide Resources
 250:.\Generated_Source\PSoC5/WDT.c **** *   Interrupt Editor.
 251:.\Generated_Source\PSoC5/WDT.c **** *
 252:.\Generated_Source\PSoC5/WDT.c **** *   Note This API has no effect on Non-maskable interrupt NMI).
 253:.\Generated_Source\PSoC5/WDT.c **** *
 254:.\Generated_Source\PSoC5/WDT.c **** * Parameters:
 255:.\Generated_Source\PSoC5/WDT.c **** *   priority: Priority of the interrupt, 0 being the highest priority
 256:.\Generated_Source\PSoC5/WDT.c **** *             PSoC 3 and PSoC 5LP: Priority is from 0 to 7.
 257:.\Generated_Source\PSoC5/WDT.c **** *             PSoC 4: Priority is from 0 to 3.
 258:.\Generated_Source\PSoC5/WDT.c **** *
 259:.\Generated_Source\PSoC5/WDT.c **** * Return:
 260:.\Generated_Source\PSoC5/WDT.c **** *   None
 261:.\Generated_Source\PSoC5/WDT.c **** *
 262:.\Generated_Source\PSoC5/WDT.c **** *******************************************************************************/
 263:.\Generated_Source\PSoC5/WDT.c **** void WDT_SetPriority(uint8 priority)
 264:.\Generated_Source\PSoC5/WDT.c **** {
 152              		.loc 1 264 0
 153              		.cfi_startproc
 154              		@ args = 0, pretend = 0, frame = 0
 155              		@ frame_needed = 0, uses_anonymous_args = 0
 156              		@ link register save eliminated.
 157              	.LVL18:
 265:.\Generated_Source\PSoC5/WDT.c ****     *WDT_INTC_PRIOR = priority << 5;
 158              		.loc 1 265 0
 159 0000 4001     		lsls	r0, r0, #5
 160              	.LVL19:
 161 0002 C0B2     		uxtb	r0, r0
 162 0004 014B     		ldr	r3, .L10
 163 0006 1870     		strb	r0, [r3]
 164 0008 7047     		bx	lr
 165              	.L11:
 166 000a 00BF     		.align	2
 167              	.L10:
 168 000c 02E400E0 		.word	-536812542
 169              		.cfi_endproc
 170              	.LFE6:
 171              		.size	WDT_SetPriority, .-WDT_SetPriority
 172              		.section	.text.WDT_GetPriority,"ax",%progbits
 173              		.align	2
 174              		.global	WDT_GetPriority
 175              		.thumb
 176              		.thumb_func
 177              		.type	WDT_GetPriority, %function
 178              	WDT_GetPriority:
 179              	.LFB7:
 266:.\Generated_Source\PSoC5/WDT.c **** }
 267:.\Generated_Source\PSoC5/WDT.c **** 
 268:.\Generated_Source\PSoC5/WDT.c **** 
 269:.\Generated_Source\PSoC5/WDT.c **** /*******************************************************************************
 270:.\Generated_Source\PSoC5/WDT.c **** * Function Name: WDT_GetPriority
 271:.\Generated_Source\PSoC5/WDT.c **** ********************************************************************************
 272:.\Generated_Source\PSoC5/WDT.c **** *
 273:.\Generated_Source\PSoC5/WDT.c **** * Summary:
 274:.\Generated_Source\PSoC5/WDT.c **** *   Gets the Priority of the Interrupt.
 275:.\Generated_Source\PSoC5/WDT.c **** *
 276:.\Generated_Source\PSoC5/WDT.c **** * Parameters:
 277:.\Generated_Source\PSoC5/WDT.c **** *   None
ARM GAS  C:\Users\JohnP\AppData\Local\Temp\ccPhrqUu.s 			page 9


 278:.\Generated_Source\PSoC5/WDT.c **** *
 279:.\Generated_Source\PSoC5/WDT.c **** * Return:
 280:.\Generated_Source\PSoC5/WDT.c **** *   Priority of the interrupt, 0 being the highest priority
 281:.\Generated_Source\PSoC5/WDT.c **** *    PSoC 3 and PSoC 5LP: Priority is from 0 to 7.
 282:.\Generated_Source\PSoC5/WDT.c **** *    PSoC 4: Priority is from 0 to 3.
 283:.\Generated_Source\PSoC5/WDT.c **** *
 284:.\Generated_Source\PSoC5/WDT.c **** *******************************************************************************/
 285:.\Generated_Source\PSoC5/WDT.c **** uint8 WDT_GetPriority(void)
 286:.\Generated_Source\PSoC5/WDT.c **** {
 180              		.loc 1 286 0
 181              		.cfi_startproc
 182              		@ args = 0, pretend = 0, frame = 0
 183              		@ frame_needed = 0, uses_anonymous_args = 0
 184              		@ link register save eliminated.
 287:.\Generated_Source\PSoC5/WDT.c ****     uint8 priority;
 288:.\Generated_Source\PSoC5/WDT.c **** 
 289:.\Generated_Source\PSoC5/WDT.c **** 
 290:.\Generated_Source\PSoC5/WDT.c ****     priority = *WDT_INTC_PRIOR >> 5;
 185              		.loc 1 290 0
 186 0000 014B     		ldr	r3, .L13
 187 0002 1878     		ldrb	r0, [r3]	@ zero_extendqisi2
 188              	.LVL20:
 291:.\Generated_Source\PSoC5/WDT.c **** 
 292:.\Generated_Source\PSoC5/WDT.c ****     return priority;
 293:.\Generated_Source\PSoC5/WDT.c **** }
 189              		.loc 1 293 0
 190 0004 4009     		lsrs	r0, r0, #5
 191              	.LVL21:
 192 0006 7047     		bx	lr
 193              	.L14:
 194              		.align	2
 195              	.L13:
 196 0008 02E400E0 		.word	-536812542
 197              		.cfi_endproc
 198              	.LFE7:
 199              		.size	WDT_GetPriority, .-WDT_GetPriority
 200              		.section	.text.WDT_Enable,"ax",%progbits
 201              		.align	2
 202              		.global	WDT_Enable
 203              		.thumb
 204              		.thumb_func
 205              		.type	WDT_Enable, %function
 206              	WDT_Enable:
 207              	.LFB8:
 294:.\Generated_Source\PSoC5/WDT.c **** 
 295:.\Generated_Source\PSoC5/WDT.c **** 
 296:.\Generated_Source\PSoC5/WDT.c **** /*******************************************************************************
 297:.\Generated_Source\PSoC5/WDT.c **** * Function Name: WDT_Enable
 298:.\Generated_Source\PSoC5/WDT.c **** ********************************************************************************
 299:.\Generated_Source\PSoC5/WDT.c **** *
 300:.\Generated_Source\PSoC5/WDT.c **** * Summary:
 301:.\Generated_Source\PSoC5/WDT.c **** *   Enables the interrupt to the interrupt controller. Do not call this function
 302:.\Generated_Source\PSoC5/WDT.c **** *   unless ISR_Start() has been called or the functionality of the ISR_Start() 
 303:.\Generated_Source\PSoC5/WDT.c **** *   function, which sets the vector and the priority, has been called.
 304:.\Generated_Source\PSoC5/WDT.c **** *
 305:.\Generated_Source\PSoC5/WDT.c **** * Parameters:
 306:.\Generated_Source\PSoC5/WDT.c **** *   None
ARM GAS  C:\Users\JohnP\AppData\Local\Temp\ccPhrqUu.s 			page 10


 307:.\Generated_Source\PSoC5/WDT.c **** *
 308:.\Generated_Source\PSoC5/WDT.c **** * Return:
 309:.\Generated_Source\PSoC5/WDT.c **** *   None
 310:.\Generated_Source\PSoC5/WDT.c **** *
 311:.\Generated_Source\PSoC5/WDT.c **** *******************************************************************************/
 312:.\Generated_Source\PSoC5/WDT.c **** void WDT_Enable(void)
 313:.\Generated_Source\PSoC5/WDT.c **** {
 208              		.loc 1 313 0
 209              		.cfi_startproc
 210              		@ args = 0, pretend = 0, frame = 0
 211              		@ frame_needed = 0, uses_anonymous_args = 0
 212              		@ link register save eliminated.
 314:.\Generated_Source\PSoC5/WDT.c ****     /* Enable the general interrupt. */
 315:.\Generated_Source\PSoC5/WDT.c ****     *WDT_INTC_SET_EN = WDT__INTC_MASK;
 213              		.loc 1 315 0
 214 0000 0422     		movs	r2, #4
 215 0002 014B     		ldr	r3, .L16
 216 0004 1A60     		str	r2, [r3]
 217 0006 7047     		bx	lr
 218              	.L17:
 219              		.align	2
 220              	.L16:
 221 0008 00E100E0 		.word	-536813312
 222              		.cfi_endproc
 223              	.LFE8:
 224              		.size	WDT_Enable, .-WDT_Enable
 225              		.section	.text.WDT_GetState,"ax",%progbits
 226              		.align	2
 227              		.global	WDT_GetState
 228              		.thumb
 229              		.thumb_func
 230              		.type	WDT_GetState, %function
 231              	WDT_GetState:
 232              	.LFB9:
 316:.\Generated_Source\PSoC5/WDT.c **** }
 317:.\Generated_Source\PSoC5/WDT.c **** 
 318:.\Generated_Source\PSoC5/WDT.c **** 
 319:.\Generated_Source\PSoC5/WDT.c **** /*******************************************************************************
 320:.\Generated_Source\PSoC5/WDT.c **** * Function Name: WDT_GetState
 321:.\Generated_Source\PSoC5/WDT.c **** ********************************************************************************
 322:.\Generated_Source\PSoC5/WDT.c **** *
 323:.\Generated_Source\PSoC5/WDT.c **** * Summary:
 324:.\Generated_Source\PSoC5/WDT.c **** *   Gets the state (enabled, disabled) of the Interrupt.
 325:.\Generated_Source\PSoC5/WDT.c **** *
 326:.\Generated_Source\PSoC5/WDT.c **** * Parameters:
 327:.\Generated_Source\PSoC5/WDT.c **** *   None
 328:.\Generated_Source\PSoC5/WDT.c **** *
 329:.\Generated_Source\PSoC5/WDT.c **** * Return:
 330:.\Generated_Source\PSoC5/WDT.c **** *   1 if enabled, 0 if disabled.
 331:.\Generated_Source\PSoC5/WDT.c **** *
 332:.\Generated_Source\PSoC5/WDT.c **** *******************************************************************************/
 333:.\Generated_Source\PSoC5/WDT.c **** uint8 WDT_GetState(void)
 334:.\Generated_Source\PSoC5/WDT.c **** {
 233              		.loc 1 334 0
 234              		.cfi_startproc
 235              		@ args = 0, pretend = 0, frame = 0
 236              		@ frame_needed = 0, uses_anonymous_args = 0
ARM GAS  C:\Users\JohnP\AppData\Local\Temp\ccPhrqUu.s 			page 11


 237              		@ link register save eliminated.
 335:.\Generated_Source\PSoC5/WDT.c ****     /* Get the state of the general interrupt. */
 336:.\Generated_Source\PSoC5/WDT.c ****     return ((*WDT_INTC_SET_EN & (uint32)WDT__INTC_MASK) != 0u) ? 1u:0u;
 238              		.loc 1 336 0
 239 0000 044B     		ldr	r3, .L21
 240 0002 1B68     		ldr	r3, [r3]
 241 0004 13F0040F 		tst	r3, #4
 242 0008 01D0     		beq	.L20
 243 000a 0120     		movs	r0, #1
 244 000c 7047     		bx	lr
 245              	.L20:
 246 000e 0020     		movs	r0, #0
 337:.\Generated_Source\PSoC5/WDT.c **** }
 247              		.loc 1 337 0
 248 0010 7047     		bx	lr
 249              	.L22:
 250 0012 00BF     		.align	2
 251              	.L21:
 252 0014 00E100E0 		.word	-536813312
 253              		.cfi_endproc
 254              	.LFE9:
 255              		.size	WDT_GetState, .-WDT_GetState
 256              		.section	.text.WDT_Disable,"ax",%progbits
 257              		.align	2
 258              		.global	WDT_Disable
 259              		.thumb
 260              		.thumb_func
 261              		.type	WDT_Disable, %function
 262              	WDT_Disable:
 263              	.LFB10:
 338:.\Generated_Source\PSoC5/WDT.c **** 
 339:.\Generated_Source\PSoC5/WDT.c **** 
 340:.\Generated_Source\PSoC5/WDT.c **** /*******************************************************************************
 341:.\Generated_Source\PSoC5/WDT.c **** * Function Name: WDT_Disable
 342:.\Generated_Source\PSoC5/WDT.c **** ********************************************************************************
 343:.\Generated_Source\PSoC5/WDT.c **** *
 344:.\Generated_Source\PSoC5/WDT.c **** * Summary:
 345:.\Generated_Source\PSoC5/WDT.c **** *   Disables the Interrupt in the interrupt controller.
 346:.\Generated_Source\PSoC5/WDT.c **** *
 347:.\Generated_Source\PSoC5/WDT.c **** * Parameters:
 348:.\Generated_Source\PSoC5/WDT.c **** *   None
 349:.\Generated_Source\PSoC5/WDT.c **** *
 350:.\Generated_Source\PSoC5/WDT.c **** * Return:
 351:.\Generated_Source\PSoC5/WDT.c **** *   None
 352:.\Generated_Source\PSoC5/WDT.c **** *
 353:.\Generated_Source\PSoC5/WDT.c **** *******************************************************************************/
 354:.\Generated_Source\PSoC5/WDT.c **** void WDT_Disable(void)
 355:.\Generated_Source\PSoC5/WDT.c **** {
 264              		.loc 1 355 0
 265              		.cfi_startproc
 266              		@ args = 0, pretend = 0, frame = 0
 267              		@ frame_needed = 0, uses_anonymous_args = 0
 268              		@ link register save eliminated.
 356:.\Generated_Source\PSoC5/WDT.c ****     /* Disable the general interrupt. */
 357:.\Generated_Source\PSoC5/WDT.c ****     *WDT_INTC_CLR_EN = WDT__INTC_MASK;
 269              		.loc 1 357 0
 270 0000 0422     		movs	r2, #4
ARM GAS  C:\Users\JohnP\AppData\Local\Temp\ccPhrqUu.s 			page 12


 271 0002 014B     		ldr	r3, .L24
 272 0004 1A60     		str	r2, [r3]
 273 0006 7047     		bx	lr
 274              	.L25:
 275              		.align	2
 276              	.L24:
 277 0008 80E100E0 		.word	-536813184
 278              		.cfi_endproc
 279              	.LFE10:
 280              		.size	WDT_Disable, .-WDT_Disable
 281              		.section	.text.WDT_Start,"ax",%progbits
 282              		.align	2
 283              		.global	WDT_Start
 284              		.thumb
 285              		.thumb_func
 286              		.type	WDT_Start, %function
 287              	WDT_Start:
 288              	.LFB0:
  61:.\Generated_Source\PSoC5/WDT.c **** {
 289              		.loc 1 61 0
 290              		.cfi_startproc
 291              		@ args = 0, pretend = 0, frame = 0
 292              		@ frame_needed = 0, uses_anonymous_args = 0
 293 0000 08B5     		push	{r3, lr}
 294              		.cfi_def_cfa_offset 8
 295              		.cfi_offset 3, -8
 296              		.cfi_offset 14, -4
  63:.\Generated_Source\PSoC5/WDT.c ****     WDT_Disable();
 297              		.loc 1 63 0
 298 0002 FFF7FEFF 		bl	WDT_Disable
 299              	.LVL22:
  66:.\Generated_Source\PSoC5/WDT.c ****     WDT_SetVector(&WDT_Interrupt);
 300              		.loc 1 66 0
 301 0006 0448     		ldr	r0, .L27
 302 0008 FFF7FEFF 		bl	WDT_SetVector
 303              	.LVL23:
  69:.\Generated_Source\PSoC5/WDT.c ****     WDT_SetPriority((uint8)WDT_INTC_PRIOR_NUMBER);
 304              		.loc 1 69 0
 305 000c 0720     		movs	r0, #7
 306 000e FFF7FEFF 		bl	WDT_SetPriority
 307              	.LVL24:
  72:.\Generated_Source\PSoC5/WDT.c ****     WDT_Enable();
 308              		.loc 1 72 0
 309 0012 FFF7FEFF 		bl	WDT_Enable
 310              	.LVL25:
 311 0016 08BD     		pop	{r3, pc}
 312              	.L28:
 313              		.align	2
 314              	.L27:
 315 0018 00000000 		.word	WDT_Interrupt
 316              		.cfi_endproc
 317              	.LFE0:
 318              		.size	WDT_Start, .-WDT_Start
 319              		.section	.text.WDT_StartEx,"ax",%progbits
 320              		.align	2
 321              		.global	WDT_StartEx
 322              		.thumb
ARM GAS  C:\Users\JohnP\AppData\Local\Temp\ccPhrqUu.s 			page 13


 323              		.thumb_func
 324              		.type	WDT_StartEx, %function
 325              	WDT_StartEx:
 326              	.LFB1:
 104:.\Generated_Source\PSoC5/WDT.c **** {
 327              		.loc 1 104 0
 328              		.cfi_startproc
 329              		@ args = 0, pretend = 0, frame = 0
 330              		@ frame_needed = 0, uses_anonymous_args = 0
 331              	.LVL26:
 332 0000 10B5     		push	{r4, lr}
 333              		.cfi_def_cfa_offset 8
 334              		.cfi_offset 4, -8
 335              		.cfi_offset 14, -4
 336 0002 0446     		mov	r4, r0
 106:.\Generated_Source\PSoC5/WDT.c ****     WDT_Disable();
 337              		.loc 1 106 0
 338 0004 FFF7FEFF 		bl	WDT_Disable
 339              	.LVL27:
 109:.\Generated_Source\PSoC5/WDT.c ****     WDT_SetVector(address);
 340              		.loc 1 109 0
 341 0008 2046     		mov	r0, r4
 342 000a FFF7FEFF 		bl	WDT_SetVector
 343              	.LVL28:
 112:.\Generated_Source\PSoC5/WDT.c ****     WDT_SetPriority((uint8)WDT_INTC_PRIOR_NUMBER);
 344              		.loc 1 112 0
 345 000e 0720     		movs	r0, #7
 346 0010 FFF7FEFF 		bl	WDT_SetPriority
 347              	.LVL29:
 115:.\Generated_Source\PSoC5/WDT.c ****     WDT_Enable();
 348              		.loc 1 115 0
 349 0014 FFF7FEFF 		bl	WDT_Enable
 350              	.LVL30:
 351 0018 10BD     		pop	{r4, pc}
 352              		.cfi_endproc
 353              	.LFE1:
 354              		.size	WDT_StartEx, .-WDT_StartEx
 355 001a 00BF     		.section	.text.WDT_Stop,"ax",%progbits
 356              		.align	2
 357              		.global	WDT_Stop
 358              		.thumb
 359              		.thumb_func
 360              		.type	WDT_Stop, %function
 361              	WDT_Stop:
 362              	.LFB2:
 134:.\Generated_Source\PSoC5/WDT.c **** {
 363              		.loc 1 134 0
 364              		.cfi_startproc
 365              		@ args = 0, pretend = 0, frame = 0
 366              		@ frame_needed = 0, uses_anonymous_args = 0
 367 0000 08B5     		push	{r3, lr}
 368              		.cfi_def_cfa_offset 8
 369              		.cfi_offset 3, -8
 370              		.cfi_offset 14, -4
 136:.\Generated_Source\PSoC5/WDT.c ****     WDT_Disable();
 371              		.loc 1 136 0
 372 0002 FFF7FEFF 		bl	WDT_Disable
ARM GAS  C:\Users\JohnP\AppData\Local\Temp\ccPhrqUu.s 			page 14


 373              	.LVL31:
 139:.\Generated_Source\PSoC5/WDT.c ****     WDT_SetVector(&IntDefaultHandler);
 374              		.loc 1 139 0
 375 0006 0248     		ldr	r0, .L31
 376 0008 FFF7FEFF 		bl	WDT_SetVector
 377              	.LVL32:
 378 000c 08BD     		pop	{r3, pc}
 379              	.L32:
 380 000e 00BF     		.align	2
 381              	.L31:
 382 0010 00000000 		.word	IntDefaultHandler
 383              		.cfi_endproc
 384              	.LFE2:
 385              		.size	WDT_Stop, .-WDT_Stop
 386              		.section	.text.WDT_SetPending,"ax",%progbits
 387              		.align	2
 388              		.global	WDT_SetPending
 389              		.thumb
 390              		.thumb_func
 391              		.type	WDT_SetPending, %function
 392              	WDT_SetPending:
 393              	.LFB11:
 358:.\Generated_Source\PSoC5/WDT.c **** }
 359:.\Generated_Source\PSoC5/WDT.c **** 
 360:.\Generated_Source\PSoC5/WDT.c **** 
 361:.\Generated_Source\PSoC5/WDT.c **** /*******************************************************************************
 362:.\Generated_Source\PSoC5/WDT.c **** * Function Name: WDT_SetPending
 363:.\Generated_Source\PSoC5/WDT.c **** ********************************************************************************
 364:.\Generated_Source\PSoC5/WDT.c **** *
 365:.\Generated_Source\PSoC5/WDT.c **** * Summary:
 366:.\Generated_Source\PSoC5/WDT.c **** *   Causes the Interrupt to enter the pending state, a software method of
 367:.\Generated_Source\PSoC5/WDT.c **** *   generating the interrupt.
 368:.\Generated_Source\PSoC5/WDT.c **** *
 369:.\Generated_Source\PSoC5/WDT.c **** * Parameters:
 370:.\Generated_Source\PSoC5/WDT.c **** *   None
 371:.\Generated_Source\PSoC5/WDT.c **** *
 372:.\Generated_Source\PSoC5/WDT.c **** * Return:
 373:.\Generated_Source\PSoC5/WDT.c **** *   None
 374:.\Generated_Source\PSoC5/WDT.c **** *
 375:.\Generated_Source\PSoC5/WDT.c **** * Side Effects:
 376:.\Generated_Source\PSoC5/WDT.c **** *   If interrupts are enabled and the interrupt is set up properly, the ISR is
 377:.\Generated_Source\PSoC5/WDT.c **** *   entered (depending on the priority of this interrupt and other pending 
 378:.\Generated_Source\PSoC5/WDT.c **** *   interrupts).
 379:.\Generated_Source\PSoC5/WDT.c **** *
 380:.\Generated_Source\PSoC5/WDT.c **** *******************************************************************************/
 381:.\Generated_Source\PSoC5/WDT.c **** void WDT_SetPending(void)
 382:.\Generated_Source\PSoC5/WDT.c **** {
 394              		.loc 1 382 0
 395              		.cfi_startproc
 396              		@ args = 0, pretend = 0, frame = 0
 397              		@ frame_needed = 0, uses_anonymous_args = 0
 398              		@ link register save eliminated.
 383:.\Generated_Source\PSoC5/WDT.c ****     *WDT_INTC_SET_PD = WDT__INTC_MASK;
 399              		.loc 1 383 0
 400 0000 0422     		movs	r2, #4
 401 0002 014B     		ldr	r3, .L34
 402 0004 1A60     		str	r2, [r3]
ARM GAS  C:\Users\JohnP\AppData\Local\Temp\ccPhrqUu.s 			page 15


 403 0006 7047     		bx	lr
 404              	.L35:
 405              		.align	2
 406              	.L34:
 407 0008 00E200E0 		.word	-536813056
 408              		.cfi_endproc
 409              	.LFE11:
 410              		.size	WDT_SetPending, .-WDT_SetPending
 411              		.section	.text.WDT_ClearPending,"ax",%progbits
 412              		.align	2
 413              		.global	WDT_ClearPending
 414              		.thumb
 415              		.thumb_func
 416              		.type	WDT_ClearPending, %function
 417              	WDT_ClearPending:
 418              	.LFB12:
 384:.\Generated_Source\PSoC5/WDT.c **** }
 385:.\Generated_Source\PSoC5/WDT.c **** 
 386:.\Generated_Source\PSoC5/WDT.c **** 
 387:.\Generated_Source\PSoC5/WDT.c **** /*******************************************************************************
 388:.\Generated_Source\PSoC5/WDT.c **** * Function Name: WDT_ClearPending
 389:.\Generated_Source\PSoC5/WDT.c **** ********************************************************************************
 390:.\Generated_Source\PSoC5/WDT.c **** *
 391:.\Generated_Source\PSoC5/WDT.c **** * Summary:
 392:.\Generated_Source\PSoC5/WDT.c **** *   Clears a pending interrupt in the interrupt controller.
 393:.\Generated_Source\PSoC5/WDT.c **** *
 394:.\Generated_Source\PSoC5/WDT.c **** *   Note Some interrupt sources are clear-on-read and require the block 
 395:.\Generated_Source\PSoC5/WDT.c **** *   interrupt/status register to be read/cleared with the appropriate block API 
 396:.\Generated_Source\PSoC5/WDT.c **** *   (GPIO, UART, and so on). Otherwise the ISR will continue to remain in 
 397:.\Generated_Source\PSoC5/WDT.c **** *   pending state even though the interrupt itself is cleared using this API.
 398:.\Generated_Source\PSoC5/WDT.c **** *
 399:.\Generated_Source\PSoC5/WDT.c **** * Parameters:
 400:.\Generated_Source\PSoC5/WDT.c **** *   None
 401:.\Generated_Source\PSoC5/WDT.c **** *
 402:.\Generated_Source\PSoC5/WDT.c **** * Return:
 403:.\Generated_Source\PSoC5/WDT.c **** *   None
 404:.\Generated_Source\PSoC5/WDT.c **** *
 405:.\Generated_Source\PSoC5/WDT.c **** *******************************************************************************/
 406:.\Generated_Source\PSoC5/WDT.c **** void WDT_ClearPending(void)
 407:.\Generated_Source\PSoC5/WDT.c **** {
 419              		.loc 1 407 0
 420              		.cfi_startproc
 421              		@ args = 0, pretend = 0, frame = 0
 422              		@ frame_needed = 0, uses_anonymous_args = 0
 423              		@ link register save eliminated.
 408:.\Generated_Source\PSoC5/WDT.c ****     *WDT_INTC_CLR_PD = WDT__INTC_MASK;
 424              		.loc 1 408 0
 425 0000 0422     		movs	r2, #4
 426 0002 014B     		ldr	r3, .L37
 427 0004 1A60     		str	r2, [r3]
 428 0006 7047     		bx	lr
 429              	.L38:
 430              		.align	2
 431              	.L37:
 432 0008 80E200E0 		.word	-536812928
 433              		.cfi_endproc
 434              	.LFE12:
ARM GAS  C:\Users\JohnP\AppData\Local\Temp\ccPhrqUu.s 			page 16


 435              		.size	WDT_ClearPending, .-WDT_ClearPending
 436              		.comm	timer_value,4,4
 437              		.comm	timer_status,4,4
 438              		.comm	heartbeatCounter,4,4
 439              		.comm	heartrate,4,4
 440              		.comm	speed,4,4
 441              		.comm	Prev_state,4,4
 442              		.comm	currentState,4,4
 443              		.comm	PROFILE,4,4
 444              		.comm	increasingHr,4,4
 445              		.comm	average,4,4
 446              		.text
 447              	.Letext0:
 448              		.file 2 "Generated_Source\\PSoC5/cytypes.h"
 449              		.file 3 "./states.h"
 450              		.file 4 "./heartrate.h"
 451              		.file 5 "./motor.h"
 452              		.file 6 "Generated_Source\\PSoC5/HEARTRATE_HEALTH.h"
 453              		.file 7 "Generated_Source\\PSoC5/MOTOR_HEALTH.h"
 454              		.file 8 "Generated_Source\\PSoC5/UI_HEALTH.h"
 455              		.file 9 "Generated_Source\\PSoC5/LCD.h"
 456              		.file 10 "Generated_Source\\PSoC5/CyLib.h"