ARM GAS  C:\Users\JohnP\AppData\Local\Temp\ccIbnncj.s 			page 1


   1              		.syntax unified
   2              		.cpu cortex-m3
   3              		.fpu softvfp
   4              		.eabi_attribute 20, 1
   5              		.eabi_attribute 21, 1
   6              		.eabi_attribute 23, 3
   7              		.eabi_attribute 24, 1
   8              		.eabi_attribute 25, 1
   9              		.eabi_attribute 26, 1
  10              		.eabi_attribute 30, 6
  11              		.eabi_attribute 34, 1
  12              		.eabi_attribute 18, 4
  13              		.thumb
  14              		.file	"main.c"
  15              		.text
  16              	.Ltext0:
  17              		.cfi_sections	.debug_frame
  18              		.global	mouseData
  19              		.bss
  20              		.align	2
  21              		.type	mouseData, %object
  22              		.size	mouseData, 3
  23              	mouseData:
  24 0000 000000   		.space	3
  25              		.global	bSNstring
  26 0003 00       		.data
  27              		.align	2
  28              		.type	bSNstring, %object
  29              		.size	bSNstring, 16
  30              	bSNstring:
  31 0000 0E       		.byte	14
  32 0001 03       		.byte	3
  33 0002 46       		.byte	70
  34 0003 00       		.byte	0
  35 0004 57       		.byte	87
  36 0005 00       		.byte	0
  37 0006 53       		.byte	83
  38 0007 00       		.byte	0
  39 0008 4E       		.byte	78
  40 0009 00       		.byte	0
  41 000a 30       		.byte	48
  42 000b 00       		.byte	0
  43 000c 31       		.byte	49
  44 000d 00       		.byte	0
  45 000e 0000     		.space	2
  46              		.section	.text.main,"ax",%progbits
  47              		.align	2
  48              		.global	main
  49              		.thumb
  50              		.thumb_func
  51              		.type	main, %function
  52              	main:
  53              	.LFB63:
  54              		.file 1 ".\\main.c"
   1:.\main.c      **** /*******************************************************************************
   2:.\main.c      **** * File Name: main.c
   3:.\main.c      **** *
ARM GAS  C:\Users\JohnP\AppData\Local\Temp\ccIbnncj.s 			page 2


   4:.\main.c      **** * Version: 2.1
   5:.\main.c      **** *
   6:.\main.c      **** * Description:
   7:.\main.c      **** *  This project enumarates on the computer as a 3-button  mouse. 
   8:.\main.c      **** *  When the code is run, mouse cursor moves from the right to the left. 
   9:.\main.c      **** *
  10:.\main.c      **** * Refer to description on schematic for test procedure.
  11:.\main.c      **** *
  12:.\main.c      **** * Related Document:
  13:.\main.c      **** *  Device Class Definition for Human Interface Devices (HID)
  14:.\main.c      **** *  Firmware Specification- Version 1.11
  15:.\main.c      **** *
  16:.\main.c      **** ********************************************************************************
  17:.\main.c      **** * Copyright 2012, Cypress Semiconductor Corporation. All rights reserved.
  18:.\main.c      **** * This software is owned by Cypress Semiconductor Corporation and is protected
  19:.\main.c      **** * by and subject to worldwide patent and copyright laws and treaties.
  20:.\main.c      **** * Therefore, you may use this software only as provided in the license agreement
  21:.\main.c      **** * accompanying the software package from which you obtained this software.
  22:.\main.c      **** * CYPRESS AND ITS SUPPLIERS MAKE NO WARRANTY OF ANY KIND, EXPRESS OR IMPLIED,
  23:.\main.c      **** * WITH REGARD TO THIS SOFTWARE, INCLUDING, BUT NOT LIMITED TO, NONINFRINGEMENT,
  24:.\main.c      **** * IMPLIED WARRANTIES OF MERCHANTABILITY AND FITNESS FOR A PARTICULAR PURPOSE.
  25:.\main.c      **** *******************************************************************************/
  26:.\main.c      **** 
  27:.\main.c      **** #include <device.h>
  28:.\main.c      **** 
  29:.\main.c      **** #define MOUSE_ENDPOINT      (0x01u)
  30:.\main.c      **** #define MOUSE_DATA_LEN      (0x03u)
  31:.\main.c      **** #define CURSOR_STEP         (0x05u)     /* Step size */
  32:.\main.c      **** 
  33:.\main.c      **** /* Mouse packet array: button, X, Y */
  34:.\main.c      **** uint8 mouseData[MOUSE_DATA_LEN] = {0u, 0u, 0u}; 
  35:.\main.c      **** uint8 bSNstring[16]={0x0Eu, 0x03u, 'F', 0u, 'W', 0u, 'S', 0u, 'N', 0u, '0', 0u, '1', 0u};
  36:.\main.c      **** 
  37:.\main.c      **** int main()
  38:.\main.c      **** {
  55              		.loc 1 38 0
  56              		.cfi_startproc
  57              		@ args = 0, pretend = 0, frame = 8
  58              		@ frame_needed = 1, uses_anonymous_args = 0
  59 0000 80B5     		push	{r7, lr}
  60              		.cfi_def_cfa_offset 8
  61              		.cfi_offset 7, -8
  62              		.cfi_offset 14, -4
  63 0002 82B0     		sub	sp, sp, #8
  64              		.cfi_def_cfa_offset 16
  65 0004 00AF     		add	r7, sp, #0
  66              		.cfi_def_cfa_register 7
  39:.\main.c      ****     uint8 counter = 0u;
  67              		.loc 1 39 0
  68 0006 0023     		movs	r3, #0
  69 0008 FB71     		strb	r3, [r7, #7]
  40:.\main.c      ****     
  41:.\main.c      ****     /* Enable Global Interrupts */
  42:.\main.c      ****     CyGlobalIntEnable;
  70              		.loc 1 42 0
  71              	@ 42 ".\main.c" 1
  72 000a 62B6     		CPSIE   i
ARM GAS  C:\Users\JohnP\AppData\Local\Temp\ccIbnncj.s 			page 3


  73              	@ 0 "" 2
  43:.\main.c      ****     
  44:.\main.c      ****     /* Set user defined Serial Number string descriptor */
  45:.\main.c      ****     USBFS_1_SerialNumString(&bSNstring[0u]);
  74              		.loc 1 45 0
  75              		.thumb
  76 000c 1748     		ldr	r0, .L8
  77 000e FFF7FEFF 		bl	USBFS_1_SerialNumString
  46:.\main.c      ****     
  47:.\main.c      ****     /* Start USBFS device 0 with 3V operation */
  48:.\main.c      ****     USBFS_1_Start(0u, USBFS_1_3V_OPERATION); 
  78              		.loc 1 48 0
  79 0012 0020     		movs	r0, #0
  80 0014 0021     		movs	r1, #0
  81 0016 FFF7FEFF 		bl	USBFS_1_Start
  49:.\main.c      **** 
  50:.\main.c      ****     /* Wait for Device to enumerate */
  51:.\main.c      ****     while(!USBFS_1_GetConfiguration());
  82              		.loc 1 51 0
  83 001a 00BF     		nop
  84              	.L2:
  85              		.loc 1 51 0 is_stmt 0 discriminator 1
  86 001c FFF7FEFF 		bl	USBFS_1_GetConfiguration
  87 0020 0346     		mov	r3, r0
  88 0022 002B     		cmp	r3, #0
  89 0024 FAD0     		beq	.L2
  52:.\main.c      **** 
  53:.\main.c      ****     /* Enumeration is done, load endpoint 1. Do not toggle the first time. */
  54:.\main.c      ****     USBFS_1_LoadInEP(MOUSE_ENDPOINT, mouseData, MOUSE_DATA_LEN);
  90              		.loc 1 54 0 is_stmt 1
  91 0026 0120     		movs	r0, #1
  92 0028 1149     		ldr	r1, .L8+4
  93 002a 0322     		movs	r2, #3
  94 002c FFF7FEFF 		bl	USBFS_1_LoadInEP
  95              	.L7:
  55:.\main.c      ****     
  56:.\main.c      ****     while(1)
  57:.\main.c      ****     {
  58:.\main.c      ****         /* Wait for ACK before loading data */
  59:.\main.c      ****         while(!USBFS_1_GetEPAckState(MOUSE_ENDPOINT));
  96              		.loc 1 59 0
  97 0030 00BF     		nop
  98              	.L3:
  99              		.loc 1 59 0 is_stmt 0 discriminator 1
 100 0032 0120     		movs	r0, #1
 101 0034 FFF7FEFF 		bl	USBFS_1_GetEPAckState
 102 0038 0346     		mov	r3, r0
 103 003a 002B     		cmp	r3, #0
 104 003c F9D0     		beq	.L3
  60:.\main.c      ****         
  61:.\main.c      ****         /* ACK has occurred, load the endpoint and toggle the data bit */
  62:.\main.c      ****         USBFS_1_LoadInEP(1u, mouseData, MOUSE_DATA_LEN);
 105              		.loc 1 62 0 is_stmt 1
 106 003e 0120     		movs	r0, #1
 107 0040 0B49     		ldr	r1, .L8+4
 108 0042 0322     		movs	r2, #3
 109 0044 FFF7FEFF 		bl	USBFS_1_LoadInEP
ARM GAS  C:\Users\JohnP\AppData\Local\Temp\ccIbnncj.s 			page 4


  63:.\main.c      ****         
  64:.\main.c      ****         /* When our counts hits 128 */
  65:.\main.c      ****         if(counter == 128u)
 110              		.loc 1 65 0
 111 0048 FB79     		ldrb	r3, [r7, #7]	@ zero_extendqisi2
 112 004a 802B     		cmp	r3, #128
 113 004c 03D1     		bne	.L4
  66:.\main.c      ****         {
  67:.\main.c      ****             /* Start moving the mouse to the right */
  68:.\main.c      ****             mouseData[1u] = CURSOR_STEP;
 114              		.loc 1 68 0
 115 004e 084B     		ldr	r3, .L8+4
 116 0050 0522     		movs	r2, #5
 117 0052 5A70     		strb	r2, [r3, #1]
 118 0054 05E0     		b	.L5
 119              	.L4:
  69:.\main.c      ****         }
  70:.\main.c      ****         /* When our counts hits 255 */
  71:.\main.c      ****         else if(counter == 255u)
 120              		.loc 1 71 0
 121 0056 FB79     		ldrb	r3, [r7, #7]	@ zero_extendqisi2
 122 0058 FF2B     		cmp	r3, #255
 123 005a 02D1     		bne	.L5
  72:.\main.c      ****         {
  73:.\main.c      ****             /* Start moving the mouse to the left */
  74:.\main.c      ****             mouseData[1u] = (uint8)-(int8)CURSOR_STEP;
 124              		.loc 1 74 0
 125 005c 044B     		ldr	r3, .L8+4
 126 005e FB22     		movs	r2, #251
 127 0060 5A70     		strb	r2, [r3, #1]
 128              	.L5:
  75:.\main.c      ****         }
  76:.\main.c      **** 
  77:.\main.c      ****         counter++;
 129              		.loc 1 77 0
 130 0062 FB79     		ldrb	r3, [r7, #7]	@ zero_extendqisi2
 131 0064 0133     		adds	r3, r3, #1
 132 0066 FB71     		strb	r3, [r7, #7]
  78:.\main.c      ****     }
 133              		.loc 1 78 0
 134 0068 00BF     		nop
  59:.\main.c      ****         while(!USBFS_1_GetEPAckState(MOUSE_ENDPOINT));
 135              		.loc 1 59 0
 136 006a E1E7     		b	.L7
 137              	.L9:
 138              		.align	2
 139              	.L8:
 140 006c 00000000 		.word	bSNstring
 141 0070 00000000 		.word	mouseData
 142              		.cfi_endproc
 143              	.LFE63:
 144              		.size	main, .-main
 145              		.text
 146              	.Letext0:
 147              		.file 2 "c:\\program files (x86)\\cypress\\psoc creator\\3.2\\psoc creator\\import\\gnu\\arm\\4.8.
 148              		.file 3 "c:\\program files (x86)\\cypress\\psoc creator\\3.2\\psoc creator\\import\\gnu\\arm\\4.8.
 149              		.file 4 "Generated_Source\\PSoC5/cytypes.h"
ARM GAS  C:\Users\JohnP\AppData\Local\Temp\ccIbnncj.s 			page 5


 150              		.file 5 "Generated_Source\\PSoC5/core_cm3.h"