ARM GAS  C:\Users\JohnP\AppData\Local\Temp\ccNdEQvR.s 			page 1


   1              		.syntax unified
   2              		.cpu cortex-m3
   3              		.fpu softvfp
   4              		.eabi_attribute 20, 1
   5              		.eabi_attribute 21, 1
   6              		.eabi_attribute 23, 3
   7              		.eabi_attribute 24, 1
   8              		.eabi_attribute 25, 1
   9              		.eabi_attribute 26, 1
  10              		.eabi_attribute 30, 6
  11              		.eabi_attribute 34, 1
  12              		.eabi_attribute 18, 4
  13              		.thumb
  14              		.file	"USBFS_1_std.c"
  15              		.text
  16              	.Ltext0:
  17              		.cfi_sections	.debug_frame
  18              		.bss
  19              		.align	2
  20              	USBFS_1_fwSerialNumberStringDescriptor:
  21 0000 00000000 		.space	4
  22              	USBFS_1_snStringConfirm:
  23 0004 00       		.space	1
  24              		.section	.text.USBFS_1_SerialNumString,"ax",%progbits
  25              		.align	2
  26              		.global	USBFS_1_SerialNumString
  27              		.thumb
  28              		.thumb_func
  29              		.type	USBFS_1_SerialNumString, %function
  30              	USBFS_1_SerialNumString:
  31              	.LFB0:
  32              		.file 1 ".\\Generated_Source\\PSoC5\\USBFS_1_std.c"
   1:.\Generated_Source\PSoC5/USBFS_1_std.c **** /*******************************************************************************
   2:.\Generated_Source\PSoC5/USBFS_1_std.c **** * File Name: USBFS_1_std.c
   3:.\Generated_Source\PSoC5/USBFS_1_std.c **** * Version 2.80
   4:.\Generated_Source\PSoC5/USBFS_1_std.c **** *
   5:.\Generated_Source\PSoC5/USBFS_1_std.c **** * Description:
   6:.\Generated_Source\PSoC5/USBFS_1_std.c **** *  USB Standard request handler.
   7:.\Generated_Source\PSoC5/USBFS_1_std.c **** *
   8:.\Generated_Source\PSoC5/USBFS_1_std.c **** * Note:
   9:.\Generated_Source\PSoC5/USBFS_1_std.c **** *
  10:.\Generated_Source\PSoC5/USBFS_1_std.c **** ********************************************************************************
  11:.\Generated_Source\PSoC5/USBFS_1_std.c **** * Copyright 2008-2014, Cypress Semiconductor Corporation.  All rights reserved.
  12:.\Generated_Source\PSoC5/USBFS_1_std.c **** * You may use this file only in accordance with the license, terms, conditions,
  13:.\Generated_Source\PSoC5/USBFS_1_std.c **** * disclaimers, and limitations in the end user license agreement accompanying
  14:.\Generated_Source\PSoC5/USBFS_1_std.c **** * the software package with which this file was provided.
  15:.\Generated_Source\PSoC5/USBFS_1_std.c **** *******************************************************************************/
  16:.\Generated_Source\PSoC5/USBFS_1_std.c **** 
  17:.\Generated_Source\PSoC5/USBFS_1_std.c **** #include "USBFS_1.h"
  18:.\Generated_Source\PSoC5/USBFS_1_std.c **** #include "USBFS_1_cdc.h"
  19:.\Generated_Source\PSoC5/USBFS_1_std.c **** #include "USBFS_1_pvt.h"
  20:.\Generated_Source\PSoC5/USBFS_1_std.c **** #if defined(USBFS_1_ENABLE_MIDI_STREAMING)
  21:.\Generated_Source\PSoC5/USBFS_1_std.c ****     #include "USBFS_1_midi.h"
  22:.\Generated_Source\PSoC5/USBFS_1_std.c **** #endif /*  USBFS_1_ENABLE_MIDI_STREAMING*/
  23:.\Generated_Source\PSoC5/USBFS_1_std.c **** 
  24:.\Generated_Source\PSoC5/USBFS_1_std.c **** 
  25:.\Generated_Source\PSoC5/USBFS_1_std.c **** /***************************************
ARM GAS  C:\Users\JohnP\AppData\Local\Temp\ccNdEQvR.s 			page 2


  26:.\Generated_Source\PSoC5/USBFS_1_std.c **** *   Static data allocation
  27:.\Generated_Source\PSoC5/USBFS_1_std.c **** ***************************************/
  28:.\Generated_Source\PSoC5/USBFS_1_std.c **** 
  29:.\Generated_Source\PSoC5/USBFS_1_std.c **** #if defined(USBFS_1_ENABLE_FWSN_STRING)
  30:.\Generated_Source\PSoC5/USBFS_1_std.c ****     static volatile uint8 *USBFS_1_fwSerialNumberStringDescriptor;
  31:.\Generated_Source\PSoC5/USBFS_1_std.c ****     static volatile uint8 USBFS_1_snStringConfirm = USBFS_1_FALSE;
  32:.\Generated_Source\PSoC5/USBFS_1_std.c **** #endif  /* USBFS_1_ENABLE_FWSN_STRING */
  33:.\Generated_Source\PSoC5/USBFS_1_std.c **** 
  34:.\Generated_Source\PSoC5/USBFS_1_std.c **** #if defined(USBFS_1_ENABLE_FWSN_STRING)
  35:.\Generated_Source\PSoC5/USBFS_1_std.c **** 
  36:.\Generated_Source\PSoC5/USBFS_1_std.c ****     /*******************************************************************************
  37:.\Generated_Source\PSoC5/USBFS_1_std.c ****     * Function Name: USBFS_1_SerialNumString
  38:.\Generated_Source\PSoC5/USBFS_1_std.c ****     ********************************************************************************
  39:.\Generated_Source\PSoC5/USBFS_1_std.c ****     *
  40:.\Generated_Source\PSoC5/USBFS_1_std.c ****     * Summary:
  41:.\Generated_Source\PSoC5/USBFS_1_std.c ****     *  Application firmware may supply the source of the USB device descriptors
  42:.\Generated_Source\PSoC5/USBFS_1_std.c ****     *  serial number string during runtime.
  43:.\Generated_Source\PSoC5/USBFS_1_std.c ****     *
  44:.\Generated_Source\PSoC5/USBFS_1_std.c ****     * Parameters:
  45:.\Generated_Source\PSoC5/USBFS_1_std.c ****     *  snString:  pointer to string.
  46:.\Generated_Source\PSoC5/USBFS_1_std.c ****     *
  47:.\Generated_Source\PSoC5/USBFS_1_std.c ****     * Return:
  48:.\Generated_Source\PSoC5/USBFS_1_std.c ****     *  None.
  49:.\Generated_Source\PSoC5/USBFS_1_std.c ****     *
  50:.\Generated_Source\PSoC5/USBFS_1_std.c ****     * Reentrant:
  51:.\Generated_Source\PSoC5/USBFS_1_std.c ****     *  No.
  52:.\Generated_Source\PSoC5/USBFS_1_std.c ****     *
  53:.\Generated_Source\PSoC5/USBFS_1_std.c ****     *******************************************************************************/
  54:.\Generated_Source\PSoC5/USBFS_1_std.c ****     void  USBFS_1_SerialNumString(uint8 snString[]) 
  55:.\Generated_Source\PSoC5/USBFS_1_std.c ****     {
  33              		.loc 1 55 0
  34              		.cfi_startproc
  35              		@ args = 0, pretend = 0, frame = 8
  36              		@ frame_needed = 1, uses_anonymous_args = 0
  37              		@ link register save eliminated.
  38 0000 80B4     		push	{r7}
  39              		.cfi_def_cfa_offset 4
  40              		.cfi_offset 7, -4
  41 0002 83B0     		sub	sp, sp, #12
  42              		.cfi_def_cfa_offset 16
  43 0004 00AF     		add	r7, sp, #0
  44              		.cfi_def_cfa_register 7
  45 0006 7860     		str	r0, [r7, #4]
  56:.\Generated_Source\PSoC5/USBFS_1_std.c ****         USBFS_1_snStringConfirm = USBFS_1_FALSE;
  46              		.loc 1 56 0
  47 0008 0C4B     		ldr	r3, .L3
  48 000a 0022     		movs	r2, #0
  49 000c 1A70     		strb	r2, [r3]
  57:.\Generated_Source\PSoC5/USBFS_1_std.c ****         if(snString != NULL)
  50              		.loc 1 57 0
  51 000e 7B68     		ldr	r3, [r7, #4]
  52 0010 002B     		cmp	r3, #0
  53 0012 0ED0     		beq	.L1
  58:.\Generated_Source\PSoC5/USBFS_1_std.c ****         {
  59:.\Generated_Source\PSoC5/USBFS_1_std.c ****             /* Check descriptor validation */
  60:.\Generated_Source\PSoC5/USBFS_1_std.c ****             if( (snString[0u] > 1u ) && (snString[1u] == USBFS_1_DESCR_STRING) )
  54              		.loc 1 60 0
ARM GAS  C:\Users\JohnP\AppData\Local\Temp\ccNdEQvR.s 			page 3


  55 0014 7B68     		ldr	r3, [r7, #4]
  56 0016 1B78     		ldrb	r3, [r3]	@ zero_extendqisi2
  57 0018 012B     		cmp	r3, #1
  58 001a 0AD9     		bls	.L1
  59              		.loc 1 60 0 is_stmt 0 discriminator 1
  60 001c 7B68     		ldr	r3, [r7, #4]
  61 001e 0133     		adds	r3, r3, #1
  62 0020 1B78     		ldrb	r3, [r3]	@ zero_extendqisi2
  63 0022 032B     		cmp	r3, #3
  64 0024 05D1     		bne	.L1
  61:.\Generated_Source\PSoC5/USBFS_1_std.c ****             {
  62:.\Generated_Source\PSoC5/USBFS_1_std.c ****                 USBFS_1_fwSerialNumberStringDescriptor = snString;
  65              		.loc 1 62 0 is_stmt 1
  66 0026 064B     		ldr	r3, .L3+4
  67 0028 7A68     		ldr	r2, [r7, #4]
  68 002a 1A60     		str	r2, [r3]
  63:.\Generated_Source\PSoC5/USBFS_1_std.c ****                 USBFS_1_snStringConfirm = USBFS_1_TRUE;
  69              		.loc 1 63 0
  70 002c 034B     		ldr	r3, .L3
  71 002e 0122     		movs	r2, #1
  72 0030 1A70     		strb	r2, [r3]
  73              	.L1:
  64:.\Generated_Source\PSoC5/USBFS_1_std.c ****             }
  65:.\Generated_Source\PSoC5/USBFS_1_std.c ****         }
  66:.\Generated_Source\PSoC5/USBFS_1_std.c ****     }
  74              		.loc 1 66 0
  75 0032 0C37     		adds	r7, r7, #12
  76 0034 BD46     		mov	sp, r7
  77              		@ sp needed
  78 0036 5DF8047B 		ldr	r7, [sp], #4
  79 003a 7047     		bx	lr
  80              	.L4:
  81              		.align	2
  82              	.L3:
  83 003c 04000000 		.word	USBFS_1_snStringConfirm
  84 0040 00000000 		.word	USBFS_1_fwSerialNumberStringDescriptor
  85              		.cfi_endproc
  86              	.LFE0:
  87              		.size	USBFS_1_SerialNumString, .-USBFS_1_SerialNumString
  88              		.section	.text.USBFS_1_HandleStandardRqst,"ax",%progbits
  89              		.align	2
  90              		.global	USBFS_1_HandleStandardRqst
  91              		.thumb
  92              		.thumb_func
  93              		.type	USBFS_1_HandleStandardRqst, %function
  94              	USBFS_1_HandleStandardRqst:
  95              	.LFB1:
  67:.\Generated_Source\PSoC5/USBFS_1_std.c **** 
  68:.\Generated_Source\PSoC5/USBFS_1_std.c **** #endif  /* USBFS_1_ENABLE_FWSN_STRING */
  69:.\Generated_Source\PSoC5/USBFS_1_std.c **** 
  70:.\Generated_Source\PSoC5/USBFS_1_std.c **** 
  71:.\Generated_Source\PSoC5/USBFS_1_std.c **** /*******************************************************************************
  72:.\Generated_Source\PSoC5/USBFS_1_std.c **** * Function Name: USBFS_1_HandleStandardRqst
  73:.\Generated_Source\PSoC5/USBFS_1_std.c **** ********************************************************************************
  74:.\Generated_Source\PSoC5/USBFS_1_std.c **** *
  75:.\Generated_Source\PSoC5/USBFS_1_std.c **** * Summary:
  76:.\Generated_Source\PSoC5/USBFS_1_std.c **** *  This Routine dispatches standard requests
ARM GAS  C:\Users\JohnP\AppData\Local\Temp\ccNdEQvR.s 			page 4


  77:.\Generated_Source\PSoC5/USBFS_1_std.c **** *
  78:.\Generated_Source\PSoC5/USBFS_1_std.c **** * Parameters:
  79:.\Generated_Source\PSoC5/USBFS_1_std.c **** *  None.
  80:.\Generated_Source\PSoC5/USBFS_1_std.c **** *
  81:.\Generated_Source\PSoC5/USBFS_1_std.c **** * Return:
  82:.\Generated_Source\PSoC5/USBFS_1_std.c **** *  TRUE if request handled.
  83:.\Generated_Source\PSoC5/USBFS_1_std.c **** *
  84:.\Generated_Source\PSoC5/USBFS_1_std.c **** * Reentrant:
  85:.\Generated_Source\PSoC5/USBFS_1_std.c **** *  No.
  86:.\Generated_Source\PSoC5/USBFS_1_std.c **** *
  87:.\Generated_Source\PSoC5/USBFS_1_std.c **** *******************************************************************************/
  88:.\Generated_Source\PSoC5/USBFS_1_std.c **** uint8 USBFS_1_HandleStandardRqst(void) 
  89:.\Generated_Source\PSoC5/USBFS_1_std.c **** {
  96              		.loc 1 89 0
  97              		.cfi_startproc
  98              		@ args = 0, pretend = 0, frame = 24
  99              		@ frame_needed = 1, uses_anonymous_args = 0
 100 0000 80B5     		push	{r7, lr}
 101              		.cfi_def_cfa_offset 8
 102              		.cfi_offset 7, -8
 103              		.cfi_offset 14, -4
 104 0002 86B0     		sub	sp, sp, #24
 105              		.cfi_def_cfa_offset 32
 106 0004 00AF     		add	r7, sp, #0
 107              		.cfi_def_cfa_register 7
  90:.\Generated_Source\PSoC5/USBFS_1_std.c ****     uint8 requestHandled = USBFS_1_FALSE;
 108              		.loc 1 90 0
 109 0006 0023     		movs	r3, #0
 110 0008 FB75     		strb	r3, [r7, #23]
  91:.\Generated_Source\PSoC5/USBFS_1_std.c ****     uint8 interfaceNumber;
  92:.\Generated_Source\PSoC5/USBFS_1_std.c ****     uint8 configurationN;
  93:.\Generated_Source\PSoC5/USBFS_1_std.c ****     #if defined(USBFS_1_ENABLE_STRINGS)
  94:.\Generated_Source\PSoC5/USBFS_1_std.c ****         volatile uint8 *pStr = 0u;
 111              		.loc 1 94 0
 112 000a 0023     		movs	r3, #0
 113 000c 3B61     		str	r3, [r7, #16]
  95:.\Generated_Source\PSoC5/USBFS_1_std.c ****         #if defined(USBFS_1_ENABLE_DESCRIPTOR_STRINGS)
  96:.\Generated_Source\PSoC5/USBFS_1_std.c ****             uint8 nStr;
  97:.\Generated_Source\PSoC5/USBFS_1_std.c ****             uint8 descrLength;
  98:.\Generated_Source\PSoC5/USBFS_1_std.c ****         #endif /* USBFS_1_ENABLE_DESCRIPTOR_STRINGS */
  99:.\Generated_Source\PSoC5/USBFS_1_std.c ****     #endif /* USBFS_1_ENABLE_STRINGS */
 100:.\Generated_Source\PSoC5/USBFS_1_std.c ****     static volatile uint8 USBFS_1_tBuffer[USBFS_1_STATUS_LENGTH_MAX];
 101:.\Generated_Source\PSoC5/USBFS_1_std.c ****     const T_USBFS_1_LUT CYCODE *pTmp;
 102:.\Generated_Source\PSoC5/USBFS_1_std.c ****     USBFS_1_currentTD.count = 0u;
 114              		.loc 1 102 0
 115 000e A04B     		ldr	r3, .L65
 116 0010 0022     		movs	r2, #0
 117 0012 1A80     		strh	r2, [r3]	@ movhi
 103:.\Generated_Source\PSoC5/USBFS_1_std.c **** 
 104:.\Generated_Source\PSoC5/USBFS_1_std.c ****     if ((CY_GET_REG8(USBFS_1_bmRequestType) & USBFS_1_RQST_DIR_MASK) == USBFS_1_RQST_DIR_D2H)
 118              		.loc 1 104 0
 119 0014 9F4B     		ldr	r3, .L65+4
 120 0016 1B78     		ldrb	r3, [r3]
 121 0018 DBB2     		uxtb	r3, r3
 122 001a DBB2     		uxtb	r3, r3
 123 001c 5BB2     		sxtb	r3, r3
 124 001e 002B     		cmp	r3, #0
ARM GAS  C:\Users\JohnP\AppData\Local\Temp\ccNdEQvR.s 			page 5


 125 0020 80F20B81 		bge	.L6
 105:.\Generated_Source\PSoC5/USBFS_1_std.c ****     {
 106:.\Generated_Source\PSoC5/USBFS_1_std.c ****         /* Control Read */
 107:.\Generated_Source\PSoC5/USBFS_1_std.c ****         switch (CY_GET_REG8(USBFS_1_bRequest))
 126              		.loc 1 107 0
 127 0024 9C4B     		ldr	r3, .L65+8
 128 0026 1B78     		ldrb	r3, [r3]
 129 0028 DBB2     		uxtb	r3, r3
 130 002a 0A2B     		cmp	r3, #10
 131 002c 00F20381 		bhi	.L61
 132 0030 01A2     		adr	r2, .L9
 133 0032 52F823F0 		ldr	pc, [r2, r3, lsl #2]
 134 0036 00BF     		.p2align 2
 135              	.L9:
 136 0038 8B010000 		.word	.L8+1
 137 003c 37020000 		.word	.L61+1
 138 0040 37020000 		.word	.L61+1
 139 0044 37020000 		.word	.L61+1
 140 0048 37020000 		.word	.L61+1
 141 004c 37020000 		.word	.L61+1
 142 0050 65000000 		.word	.L10+1
 143 0054 37020000 		.word	.L61+1
 144 0058 01020000 		.word	.L11+1
 145 005c 37020000 		.word	.L61+1
 146 0060 17020000 		.word	.L12+1
 147              		.p2align 1
 148              	.L10:
 108:.\Generated_Source\PSoC5/USBFS_1_std.c ****         {
 109:.\Generated_Source\PSoC5/USBFS_1_std.c ****             case USBFS_1_GET_DESCRIPTOR:
 110:.\Generated_Source\PSoC5/USBFS_1_std.c ****                 if (CY_GET_REG8(USBFS_1_wValueHi) == USBFS_1_DESCR_DEVICE)
 149              		.loc 1 110 0
 150 0064 8D4B     		ldr	r3, .L65+12
 151 0066 1B78     		ldrb	r3, [r3]
 152 0068 DBB2     		uxtb	r3, r3
 153 006a 012B     		cmp	r3, #1
 154 006c 0ED1     		bne	.L13
 111:.\Generated_Source\PSoC5/USBFS_1_std.c ****                 {
 112:.\Generated_Source\PSoC5/USBFS_1_std.c ****                     pTmp = USBFS_1_GetDeviceTablePtr();
 155              		.loc 1 112 0
 156 006e FFF7FEFF 		bl	USBFS_1_GetDeviceTablePtr
 157 0072 B860     		str	r0, [r7, #8]
 113:.\Generated_Source\PSoC5/USBFS_1_std.c ****                     USBFS_1_currentTD.pData = (volatile uint8 *)pTmp->p_list;
 158              		.loc 1 113 0
 159 0074 BB68     		ldr	r3, [r7, #8]
 160 0076 5A68     		ldr	r2, [r3, #4]
 161 0078 854B     		ldr	r3, .L65
 162 007a 5A60     		str	r2, [r3, #4]
 114:.\Generated_Source\PSoC5/USBFS_1_std.c ****                     USBFS_1_currentTD.count = USBFS_1_DEVICE_DESCR_LENGTH;
 163              		.loc 1 114 0
 164 007c 844B     		ldr	r3, .L65
 165 007e 1222     		movs	r2, #18
 166 0080 1A80     		strh	r2, [r3]	@ movhi
 115:.\Generated_Source\PSoC5/USBFS_1_std.c ****                     requestHandled  = USBFS_1_InitControlRead();
 167              		.loc 1 115 0
 168 0082 FFF7FEFF 		bl	USBFS_1_InitControlRead
 169 0086 0346     		mov	r3, r0
 170 0088 FB75     		strb	r3, [r7, #23]
ARM GAS  C:\Users\JohnP\AppData\Local\Temp\ccNdEQvR.s 			page 6


 171 008a 7DE0     		b	.L14
 172              	.L13:
 116:.\Generated_Source\PSoC5/USBFS_1_std.c ****                 }
 117:.\Generated_Source\PSoC5/USBFS_1_std.c ****                 else if (CY_GET_REG8(USBFS_1_wValueHi) == USBFS_1_DESCR_CONFIG)
 173              		.loc 1 117 0
 174 008c 834B     		ldr	r3, .L65+12
 175 008e 1B78     		ldrb	r3, [r3]
 176 0090 DBB2     		uxtb	r3, r3
 177 0092 022B     		cmp	r3, #2
 178 0094 23D1     		bne	.L15
 118:.\Generated_Source\PSoC5/USBFS_1_std.c ****                 {
 119:.\Generated_Source\PSoC5/USBFS_1_std.c ****                     pTmp = USBFS_1_GetConfigTablePtr(CY_GET_REG8(USBFS_1_wValueLo));
 179              		.loc 1 119 0
 180 0096 824B     		ldr	r3, .L65+16
 181 0098 1B78     		ldrb	r3, [r3]
 182 009a DBB2     		uxtb	r3, r3
 183 009c 1846     		mov	r0, r3
 184 009e FFF7FEFF 		bl	USBFS_1_GetConfigTablePtr
 185 00a2 B860     		str	r0, [r7, #8]
 120:.\Generated_Source\PSoC5/USBFS_1_std.c ****                     if( pTmp != NULL )  /* Verify that requested descriptor exists */
 186              		.loc 1 120 0
 187 00a4 BB68     		ldr	r3, [r7, #8]
 188 00a6 002B     		cmp	r3, #0
 189 00a8 6ED0     		beq	.L14
 121:.\Generated_Source\PSoC5/USBFS_1_std.c ****                     {
 122:.\Generated_Source\PSoC5/USBFS_1_std.c ****                         USBFS_1_currentTD.pData = (volatile uint8 *)pTmp->p_list;
 190              		.loc 1 122 0
 191 00aa BB68     		ldr	r3, [r7, #8]
 192 00ac 5A68     		ldr	r2, [r3, #4]
 193 00ae 784B     		ldr	r3, .L65
 194 00b0 5A60     		str	r2, [r3, #4]
 123:.\Generated_Source\PSoC5/USBFS_1_std.c ****                         USBFS_1_currentTD.count = ((uint16)(USBFS_1_currentTD.pData)[ \
 195              		.loc 1 123 0
 196 00b2 774B     		ldr	r3, .L65
 197 00b4 5B68     		ldr	r3, [r3, #4]
 198 00b6 0333     		adds	r3, r3, #3
 199 00b8 1B78     		ldrb	r3, [r3]
 200 00ba DBB2     		uxtb	r3, r3
 124:.\Generated_Source\PSoC5/USBFS_1_std.c ****                                           USBFS_1_CONFIG_DESCR_TOTAL_LENGTH_HI] << 8u) | \
 201              		.loc 1 124 0
 202 00bc 1B02     		lsls	r3, r3, #8
 123:.\Generated_Source\PSoC5/USBFS_1_std.c ****                         USBFS_1_currentTD.count = ((uint16)(USBFS_1_currentTD.pData)[ \
 203              		.loc 1 123 0
 204 00be 9AB2     		uxth	r2, r3
 125:.\Generated_Source\PSoC5/USBFS_1_std.c ****                                          (USBFS_1_currentTD.pData)[USBFS_1_CONFIG_DESCR_TOTAL_LENGT
 205              		.loc 1 125 0
 206 00c0 734B     		ldr	r3, .L65
 207 00c2 5B68     		ldr	r3, [r3, #4]
 208 00c4 0233     		adds	r3, r3, #2
 209 00c6 1B78     		ldrb	r3, [r3]
 210 00c8 DBB2     		uxtb	r3, r3
 123:.\Generated_Source\PSoC5/USBFS_1_std.c ****                         USBFS_1_currentTD.count = ((uint16)(USBFS_1_currentTD.pData)[ \
 211              		.loc 1 123 0
 212 00ca 1343     		orrs	r3, r3, r2
 213 00cc 9BB2     		uxth	r3, r3
 214 00ce 9AB2     		uxth	r2, r3
 215 00d0 6F4B     		ldr	r3, .L65
ARM GAS  C:\Users\JohnP\AppData\Local\Temp\ccNdEQvR.s 			page 7


 216 00d2 1A80     		strh	r2, [r3]	@ movhi
 126:.\Generated_Source\PSoC5/USBFS_1_std.c ****                         requestHandled  = USBFS_1_InitControlRead();
 217              		.loc 1 126 0
 218 00d4 FFF7FEFF 		bl	USBFS_1_InitControlRead
 219 00d8 0346     		mov	r3, r0
 220 00da FB75     		strb	r3, [r7, #23]
 127:.\Generated_Source\PSoC5/USBFS_1_std.c ****                     }
 128:.\Generated_Source\PSoC5/USBFS_1_std.c ****                 }
 129:.\Generated_Source\PSoC5/USBFS_1_std.c ****                 #if defined(USBFS_1_ENABLE_STRINGS)
 130:.\Generated_Source\PSoC5/USBFS_1_std.c ****                 else if (CY_GET_REG8(USBFS_1_wValueHi) == USBFS_1_DESCR_STRING)
 131:.\Generated_Source\PSoC5/USBFS_1_std.c ****                 {
 132:.\Generated_Source\PSoC5/USBFS_1_std.c ****                     /* Descriptor Strings*/
 133:.\Generated_Source\PSoC5/USBFS_1_std.c ****                     #if defined(USBFS_1_ENABLE_DESCRIPTOR_STRINGS)
 134:.\Generated_Source\PSoC5/USBFS_1_std.c ****                         nStr = 0u;
 135:.\Generated_Source\PSoC5/USBFS_1_std.c ****                         pStr = (volatile uint8 *)&USBFS_1_STRING_DESCRIPTORS[0u];
 136:.\Generated_Source\PSoC5/USBFS_1_std.c ****                         while ( (CY_GET_REG8(USBFS_1_wValueLo) > nStr) && (*pStr != 0u) )
 137:.\Generated_Source\PSoC5/USBFS_1_std.c ****                         {
 138:.\Generated_Source\PSoC5/USBFS_1_std.c ****                             /* Read descriptor length from 1st byte */
 139:.\Generated_Source\PSoC5/USBFS_1_std.c ****                             descrLength = *pStr;
 140:.\Generated_Source\PSoC5/USBFS_1_std.c ****                             /* Move to next string descriptor */
 141:.\Generated_Source\PSoC5/USBFS_1_std.c ****                             pStr = &pStr[descrLength];
 142:.\Generated_Source\PSoC5/USBFS_1_std.c ****                             nStr++;
 143:.\Generated_Source\PSoC5/USBFS_1_std.c ****                         }
 144:.\Generated_Source\PSoC5/USBFS_1_std.c ****                     #endif /*  USBFS_1_ENABLE_DESCRIPTOR_STRINGS */
 145:.\Generated_Source\PSoC5/USBFS_1_std.c ****                     /* Microsoft OS String*/
 146:.\Generated_Source\PSoC5/USBFS_1_std.c ****                     #if defined(USBFS_1_ENABLE_MSOS_STRING)
 147:.\Generated_Source\PSoC5/USBFS_1_std.c ****                         if( CY_GET_REG8(USBFS_1_wValueLo) == USBFS_1_STRING_MSOS )
 148:.\Generated_Source\PSoC5/USBFS_1_std.c ****                         {
 149:.\Generated_Source\PSoC5/USBFS_1_std.c ****                             pStr = (volatile uint8 *)&USBFS_1_MSOS_DESCRIPTOR[0u];
 150:.\Generated_Source\PSoC5/USBFS_1_std.c ****                         }
 151:.\Generated_Source\PSoC5/USBFS_1_std.c ****                     #endif /*  USBFS_1_ENABLE_MSOS_STRING*/
 152:.\Generated_Source\PSoC5/USBFS_1_std.c ****                     /* SN string */
 153:.\Generated_Source\PSoC5/USBFS_1_std.c ****                     #if defined(USBFS_1_ENABLE_SN_STRING)
 154:.\Generated_Source\PSoC5/USBFS_1_std.c ****                         if( (CY_GET_REG8(USBFS_1_wValueLo) != 0u) &&
 155:.\Generated_Source\PSoC5/USBFS_1_std.c ****                             (CY_GET_REG8(USBFS_1_wValueLo) ==
 156:.\Generated_Source\PSoC5/USBFS_1_std.c ****                             USBFS_1_DEVICE0_DESCR[USBFS_1_DEVICE_DESCR_SN_SHIFT]) )
 157:.\Generated_Source\PSoC5/USBFS_1_std.c ****                         {
 158:.\Generated_Source\PSoC5/USBFS_1_std.c **** 
 159:.\Generated_Source\PSoC5/USBFS_1_std.c ****                             #if defined(USBFS_1_ENABLE_IDSN_STRING)
 160:.\Generated_Source\PSoC5/USBFS_1_std.c ****                                 /* Read DIE ID and generate string descriptor in RAM */
 161:.\Generated_Source\PSoC5/USBFS_1_std.c ****                                 USBFS_1_ReadDieID(USBFS_1_idSerialNumberStringDescriptor);
 162:.\Generated_Source\PSoC5/USBFS_1_std.c ****                                 pStr = USBFS_1_idSerialNumberStringDescriptor;
 163:.\Generated_Source\PSoC5/USBFS_1_std.c ****                             #elif defined(USBFS_1_ENABLE_FWSN_STRING)
 164:.\Generated_Source\PSoC5/USBFS_1_std.c ****                                 if(USBFS_1_snStringConfirm != USBFS_1_FALSE)
 165:.\Generated_Source\PSoC5/USBFS_1_std.c ****                                 {
 166:.\Generated_Source\PSoC5/USBFS_1_std.c ****                                     pStr = USBFS_1_fwSerialNumberStringDescriptor;
 167:.\Generated_Source\PSoC5/USBFS_1_std.c ****                                 }
 168:.\Generated_Source\PSoC5/USBFS_1_std.c ****                                 else
 169:.\Generated_Source\PSoC5/USBFS_1_std.c ****                                 {
 170:.\Generated_Source\PSoC5/USBFS_1_std.c ****                                     pStr = (volatile uint8 *)&USBFS_1_SN_STRING_DESCRIPTOR[0u];
 171:.\Generated_Source\PSoC5/USBFS_1_std.c ****                                 }
 172:.\Generated_Source\PSoC5/USBFS_1_std.c ****                             #else
 173:.\Generated_Source\PSoC5/USBFS_1_std.c ****                                 pStr = (volatile uint8 *)&USBFS_1_SN_STRING_DESCRIPTOR[0u];
 174:.\Generated_Source\PSoC5/USBFS_1_std.c ****                             #endif  /* defined(USBFS_1_ENABLE_IDSN_STRING) */
 175:.\Generated_Source\PSoC5/USBFS_1_std.c ****                         }
 176:.\Generated_Source\PSoC5/USBFS_1_std.c ****                     #endif    /*  USBFS_1_ENABLE_SN_STRING */
 177:.\Generated_Source\PSoC5/USBFS_1_std.c ****                     if (*pStr != 0u)
ARM GAS  C:\Users\JohnP\AppData\Local\Temp\ccNdEQvR.s 			page 8


 178:.\Generated_Source\PSoC5/USBFS_1_std.c ****                     {
 179:.\Generated_Source\PSoC5/USBFS_1_std.c ****                         USBFS_1_currentTD.count = *pStr;
 180:.\Generated_Source\PSoC5/USBFS_1_std.c ****                         USBFS_1_currentTD.pData = pStr;
 181:.\Generated_Source\PSoC5/USBFS_1_std.c ****                         requestHandled  = USBFS_1_InitControlRead();
 182:.\Generated_Source\PSoC5/USBFS_1_std.c ****                     }
 183:.\Generated_Source\PSoC5/USBFS_1_std.c ****                 }
 184:.\Generated_Source\PSoC5/USBFS_1_std.c ****                 #endif /*  USBFS_1_ENABLE_STRINGS */
 185:.\Generated_Source\PSoC5/USBFS_1_std.c ****                 else
 186:.\Generated_Source\PSoC5/USBFS_1_std.c ****                 {
 187:.\Generated_Source\PSoC5/USBFS_1_std.c ****                     requestHandled = USBFS_1_DispatchClassRqst();
 188:.\Generated_Source\PSoC5/USBFS_1_std.c ****                 }
 189:.\Generated_Source\PSoC5/USBFS_1_std.c ****                 break;
 221              		.loc 1 189 0
 222 00dc ACE0     		b	.L25
 223              	.L15:
 130:.\Generated_Source\PSoC5/USBFS_1_std.c ****                 else if (CY_GET_REG8(USBFS_1_wValueHi) == USBFS_1_DESCR_STRING)
 224              		.loc 1 130 0
 225 00de 6F4B     		ldr	r3, .L65+12
 226 00e0 1B78     		ldrb	r3, [r3]
 227 00e2 DBB2     		uxtb	r3, r3
 228 00e4 032B     		cmp	r3, #3
 229 00e6 4AD1     		bne	.L17
 134:.\Generated_Source\PSoC5/USBFS_1_std.c ****                         nStr = 0u;
 230              		.loc 1 134 0
 231 00e8 0023     		movs	r3, #0
 232 00ea FB73     		strb	r3, [r7, #15]
 135:.\Generated_Source\PSoC5/USBFS_1_std.c ****                         pStr = (volatile uint8 *)&USBFS_1_STRING_DESCRIPTORS[0u];
 233              		.loc 1 135 0
 234 00ec 6D4B     		ldr	r3, .L65+20
 235 00ee 3B61     		str	r3, [r7, #16]
 136:.\Generated_Source\PSoC5/USBFS_1_std.c ****                         while ( (CY_GET_REG8(USBFS_1_wValueLo) > nStr) && (*pStr != 0u) )
 236              		.loc 1 136 0
 237 00f0 09E0     		b	.L18
 238              	.L20:
 139:.\Generated_Source\PSoC5/USBFS_1_std.c ****                             descrLength = *pStr;
 239              		.loc 1 139 0
 240 00f2 3B69     		ldr	r3, [r7, #16]
 241 00f4 1B78     		ldrb	r3, [r3]
 242 00f6 FB71     		strb	r3, [r7, #7]
 141:.\Generated_Source\PSoC5/USBFS_1_std.c ****                             pStr = &pStr[descrLength];
 243              		.loc 1 141 0
 244 00f8 FB79     		ldrb	r3, [r7, #7]	@ zero_extendqisi2
 245 00fa 3A69     		ldr	r2, [r7, #16]
 246 00fc 1344     		add	r3, r3, r2
 247 00fe 3B61     		str	r3, [r7, #16]
 142:.\Generated_Source\PSoC5/USBFS_1_std.c ****                             nStr++;
 248              		.loc 1 142 0
 249 0100 FB7B     		ldrb	r3, [r7, #15]	@ zero_extendqisi2
 250 0102 0133     		adds	r3, r3, #1
 251 0104 FB73     		strb	r3, [r7, #15]
 252              	.L18:
 136:.\Generated_Source\PSoC5/USBFS_1_std.c ****                         while ( (CY_GET_REG8(USBFS_1_wValueLo) > nStr) && (*pStr != 0u) )
 253              		.loc 1 136 0 discriminator 1
 254 0106 664B     		ldr	r3, .L65+16
 255 0108 1B78     		ldrb	r3, [r3]
 256 010a DBB2     		uxtb	r3, r3
 257 010c FA7B     		ldrb	r2, [r7, #15]	@ zero_extendqisi2
ARM GAS  C:\Users\JohnP\AppData\Local\Temp\ccNdEQvR.s 			page 9


 258 010e 9A42     		cmp	r2, r3
 259 0110 04D2     		bcs	.L19
 136:.\Generated_Source\PSoC5/USBFS_1_std.c ****                         while ( (CY_GET_REG8(USBFS_1_wValueLo) > nStr) && (*pStr != 0u) )
 260              		.loc 1 136 0 is_stmt 0 discriminator 2
 261 0112 3B69     		ldr	r3, [r7, #16]
 262 0114 1B78     		ldrb	r3, [r3]
 263 0116 DBB2     		uxtb	r3, r3
 264 0118 002B     		cmp	r3, #0
 265 011a EAD1     		bne	.L20
 266              	.L19:
 147:.\Generated_Source\PSoC5/USBFS_1_std.c ****                         if( CY_GET_REG8(USBFS_1_wValueLo) == USBFS_1_STRING_MSOS )
 267              		.loc 1 147 0 is_stmt 1
 268 011c 604B     		ldr	r3, .L65+16
 269 011e 1B78     		ldrb	r3, [r3]
 270 0120 DBB2     		uxtb	r3, r3
 271 0122 EE2B     		cmp	r3, #238
 272 0124 01D1     		bne	.L21
 149:.\Generated_Source\PSoC5/USBFS_1_std.c ****                             pStr = (volatile uint8 *)&USBFS_1_MSOS_DESCRIPTOR[0u];
 273              		.loc 1 149 0
 274 0126 604B     		ldr	r3, .L65+24
 275 0128 3B61     		str	r3, [r7, #16]
 276              	.L21:
 154:.\Generated_Source\PSoC5/USBFS_1_std.c ****                         if( (CY_GET_REG8(USBFS_1_wValueLo) != 0u) &&
 277              		.loc 1 154 0
 278 012a 5D4B     		ldr	r3, .L65+16
 279 012c 1B78     		ldrb	r3, [r3]
 280 012e DBB2     		uxtb	r3, r3
 281 0130 002B     		cmp	r3, #0
 282 0132 11D0     		beq	.L22
 155:.\Generated_Source\PSoC5/USBFS_1_std.c ****                             (CY_GET_REG8(USBFS_1_wValueLo) ==
 283              		.loc 1 155 0 discriminator 1
 284 0134 5A4B     		ldr	r3, .L65+16
 285 0136 1B78     		ldrb	r3, [r3]
 286 0138 DAB2     		uxtb	r2, r3
 156:.\Generated_Source\PSoC5/USBFS_1_std.c ****                             USBFS_1_DEVICE0_DESCR[USBFS_1_DEVICE_DESCR_SN_SHIFT]) )
 287              		.loc 1 156 0 discriminator 1
 288 013a 5C4B     		ldr	r3, .L65+28
 289 013c 1B7C     		ldrb	r3, [r3, #16]	@ zero_extendqisi2
 154:.\Generated_Source\PSoC5/USBFS_1_std.c ****                         if( (CY_GET_REG8(USBFS_1_wValueLo) != 0u) &&
 290              		.loc 1 154 0 discriminator 1
 291 013e 9A42     		cmp	r2, r3
 292 0140 0AD1     		bne	.L22
 164:.\Generated_Source\PSoC5/USBFS_1_std.c ****                                 if(USBFS_1_snStringConfirm != USBFS_1_FALSE)
 293              		.loc 1 164 0
 294 0142 5B4B     		ldr	r3, .L65+32
 295 0144 1B78     		ldrb	r3, [r3]
 296 0146 DBB2     		uxtb	r3, r3
 297 0148 002B     		cmp	r3, #0
 298 014a 03D0     		beq	.L23
 166:.\Generated_Source\PSoC5/USBFS_1_std.c ****                                     pStr = USBFS_1_fwSerialNumberStringDescriptor;
 299              		.loc 1 166 0
 300 014c 594B     		ldr	r3, .L65+36
 301 014e 1B68     		ldr	r3, [r3]
 302 0150 3B61     		str	r3, [r7, #16]
 303 0152 01E0     		b	.L22
 304              	.L23:
 170:.\Generated_Source\PSoC5/USBFS_1_std.c ****                                     pStr = (volatile uint8 *)&USBFS_1_SN_STRING_DESCRIPTOR[0u];
ARM GAS  C:\Users\JohnP\AppData\Local\Temp\ccNdEQvR.s 			page 10


 305              		.loc 1 170 0
 306 0154 584B     		ldr	r3, .L65+40
 307 0156 3B61     		str	r3, [r7, #16]
 308              	.L22:
 177:.\Generated_Source\PSoC5/USBFS_1_std.c ****                     if (*pStr != 0u)
 309              		.loc 1 177 0
 310 0158 3B69     		ldr	r3, [r7, #16]
 311 015a 1B78     		ldrb	r3, [r3]
 312 015c DBB2     		uxtb	r3, r3
 313 015e 002B     		cmp	r3, #0
 314 0160 12D0     		beq	.L14
 179:.\Generated_Source\PSoC5/USBFS_1_std.c ****                         USBFS_1_currentTD.count = *pStr;
 315              		.loc 1 179 0
 316 0162 3B69     		ldr	r3, [r7, #16]
 317 0164 1B78     		ldrb	r3, [r3]
 318 0166 DBB2     		uxtb	r3, r3
 319 0168 1A46     		mov	r2, r3
 320 016a 494B     		ldr	r3, .L65
 321 016c 1A80     		strh	r2, [r3]	@ movhi
 180:.\Generated_Source\PSoC5/USBFS_1_std.c ****                         USBFS_1_currentTD.pData = pStr;
 322              		.loc 1 180 0
 323 016e 484B     		ldr	r3, .L65
 324 0170 3A69     		ldr	r2, [r7, #16]
 325 0172 5A60     		str	r2, [r3, #4]
 181:.\Generated_Source\PSoC5/USBFS_1_std.c ****                         requestHandled  = USBFS_1_InitControlRead();
 326              		.loc 1 181 0
 327 0174 FFF7FEFF 		bl	USBFS_1_InitControlRead
 328 0178 0346     		mov	r3, r0
 329 017a FB75     		strb	r3, [r7, #23]
 330              		.loc 1 189 0
 331 017c 5CE0     		b	.L25
 332              	.L17:
 187:.\Generated_Source\PSoC5/USBFS_1_std.c ****                     requestHandled = USBFS_1_DispatchClassRqst();
 333              		.loc 1 187 0
 334 017e FFF7FEFF 		bl	USBFS_1_DispatchClassRqst
 335 0182 0346     		mov	r3, r0
 336 0184 FB75     		strb	r3, [r7, #23]
 337              		.loc 1 189 0
 338 0186 57E0     		b	.L25
 339              	.L14:
 340 0188 56E0     		b	.L25
 341              	.L8:
 190:.\Generated_Source\PSoC5/USBFS_1_std.c ****             case USBFS_1_GET_STATUS:
 191:.\Generated_Source\PSoC5/USBFS_1_std.c ****                 switch ((CY_GET_REG8(USBFS_1_bmRequestType) & USBFS_1_RQST_RCPT_MASK))
 342              		.loc 1 191 0
 343 018a 424B     		ldr	r3, .L65+4
 344 018c 1B78     		ldrb	r3, [r3]
 345 018e DBB2     		uxtb	r3, r3
 346 0190 03F00303 		and	r3, r3, #3
 347 0194 002B     		cmp	r3, #0
 348 0196 1FD0     		beq	.L27
 349 0198 022B     		cmp	r3, #2
 350 019a 00D0     		beq	.L28
 192:.\Generated_Source\PSoC5/USBFS_1_std.c ****                 {
 193:.\Generated_Source\PSoC5/USBFS_1_std.c ****                     case USBFS_1_RQST_RCPT_EP:
 194:.\Generated_Source\PSoC5/USBFS_1_std.c ****                         USBFS_1_currentTD.count = USBFS_1_EP_STATUS_LENGTH;
 195:.\Generated_Source\PSoC5/USBFS_1_std.c ****                         USBFS_1_tBuffer[0u] = USBFS_1_EP[ \
ARM GAS  C:\Users\JohnP\AppData\Local\Temp\ccNdEQvR.s 			page 11


 196:.\Generated_Source\PSoC5/USBFS_1_std.c ****                                         CY_GET_REG8(USBFS_1_wIndexLo) & USBFS_1_DIR_UNUSED].hwEpSta
 197:.\Generated_Source\PSoC5/USBFS_1_std.c ****                         USBFS_1_tBuffer[1u] = 0u;
 198:.\Generated_Source\PSoC5/USBFS_1_std.c ****                         USBFS_1_currentTD.pData = &USBFS_1_tBuffer[0u];
 199:.\Generated_Source\PSoC5/USBFS_1_std.c ****                         requestHandled  = USBFS_1_InitControlRead();
 200:.\Generated_Source\PSoC5/USBFS_1_std.c ****                         break;
 201:.\Generated_Source\PSoC5/USBFS_1_std.c ****                     case USBFS_1_RQST_RCPT_DEV:
 202:.\Generated_Source\PSoC5/USBFS_1_std.c ****                         USBFS_1_currentTD.count = USBFS_1_DEVICE_STATUS_LENGTH;
 203:.\Generated_Source\PSoC5/USBFS_1_std.c ****                         USBFS_1_tBuffer[0u] = USBFS_1_deviceStatus;
 204:.\Generated_Source\PSoC5/USBFS_1_std.c ****                         USBFS_1_tBuffer[1u] = 0u;
 205:.\Generated_Source\PSoC5/USBFS_1_std.c ****                         USBFS_1_currentTD.pData = &USBFS_1_tBuffer[0u];
 206:.\Generated_Source\PSoC5/USBFS_1_std.c ****                         requestHandled  = USBFS_1_InitControlRead();
 207:.\Generated_Source\PSoC5/USBFS_1_std.c ****                         break;
 208:.\Generated_Source\PSoC5/USBFS_1_std.c ****                     default:    /* requestHandled is initialized as FALSE by default */
 209:.\Generated_Source\PSoC5/USBFS_1_std.c ****                         break;
 351              		.loc 1 209 0
 352 019c 2FE0     		b	.L29
 353              	.L28:
 194:.\Generated_Source\PSoC5/USBFS_1_std.c ****                         USBFS_1_currentTD.count = USBFS_1_EP_STATUS_LENGTH;
 354              		.loc 1 194 0
 355 019e 3C4B     		ldr	r3, .L65
 356 01a0 0222     		movs	r2, #2
 357 01a2 1A80     		strh	r2, [r3]	@ movhi
 196:.\Generated_Source\PSoC5/USBFS_1_std.c ****                                         CY_GET_REG8(USBFS_1_wIndexLo) & USBFS_1_DIR_UNUSED].hwEpSta
 358              		.loc 1 196 0
 359 01a4 454B     		ldr	r3, .L65+44
 360 01a6 1B78     		ldrb	r3, [r3]
 361 01a8 DBB2     		uxtb	r3, r3
 362 01aa 03F07F02 		and	r2, r3, #127
 363 01ae 4449     		ldr	r1, .L65+48
 364 01b0 1346     		mov	r3, r2
 365 01b2 5B00     		lsls	r3, r3, #1
 366 01b4 1344     		add	r3, r3, r2
 367 01b6 9B00     		lsls	r3, r3, #2
 368 01b8 0B44     		add	r3, r3, r1
 369 01ba 9B78     		ldrb	r3, [r3, #2]
 370 01bc DAB2     		uxtb	r2, r3
 195:.\Generated_Source\PSoC5/USBFS_1_std.c ****                         USBFS_1_tBuffer[0u] = USBFS_1_EP[ \
 371              		.loc 1 195 0
 372 01be 414B     		ldr	r3, .L65+52
 373 01c0 1A70     		strb	r2, [r3]
 197:.\Generated_Source\PSoC5/USBFS_1_std.c ****                         USBFS_1_tBuffer[1u] = 0u;
 374              		.loc 1 197 0
 375 01c2 404B     		ldr	r3, .L65+52
 376 01c4 0022     		movs	r2, #0
 377 01c6 5A70     		strb	r2, [r3, #1]
 198:.\Generated_Source\PSoC5/USBFS_1_std.c ****                         USBFS_1_currentTD.pData = &USBFS_1_tBuffer[0u];
 378              		.loc 1 198 0
 379 01c8 314B     		ldr	r3, .L65
 380 01ca 3E4A     		ldr	r2, .L65+52
 381 01cc 5A60     		str	r2, [r3, #4]
 199:.\Generated_Source\PSoC5/USBFS_1_std.c ****                         requestHandled  = USBFS_1_InitControlRead();
 382              		.loc 1 199 0
 383 01ce FFF7FEFF 		bl	USBFS_1_InitControlRead
 384 01d2 0346     		mov	r3, r0
 385 01d4 FB75     		strb	r3, [r7, #23]
 200:.\Generated_Source\PSoC5/USBFS_1_std.c ****                         break;
 386              		.loc 1 200 0
ARM GAS  C:\Users\JohnP\AppData\Local\Temp\ccNdEQvR.s 			page 12


 387 01d6 12E0     		b	.L29
 388              	.L27:
 202:.\Generated_Source\PSoC5/USBFS_1_std.c ****                         USBFS_1_currentTD.count = USBFS_1_DEVICE_STATUS_LENGTH;
 389              		.loc 1 202 0
 390 01d8 2D4B     		ldr	r3, .L65
 391 01da 0222     		movs	r2, #2
 392 01dc 1A80     		strh	r2, [r3]	@ movhi
 203:.\Generated_Source\PSoC5/USBFS_1_std.c ****                         USBFS_1_tBuffer[0u] = USBFS_1_deviceStatus;
 393              		.loc 1 203 0
 394 01de 3A4B     		ldr	r3, .L65+56
 395 01e0 1B78     		ldrb	r3, [r3]
 396 01e2 DAB2     		uxtb	r2, r3
 397 01e4 374B     		ldr	r3, .L65+52
 398 01e6 1A70     		strb	r2, [r3]
 204:.\Generated_Source\PSoC5/USBFS_1_std.c ****                         USBFS_1_tBuffer[1u] = 0u;
 399              		.loc 1 204 0
 400 01e8 364B     		ldr	r3, .L65+52
 401 01ea 0022     		movs	r2, #0
 402 01ec 5A70     		strb	r2, [r3, #1]
 205:.\Generated_Source\PSoC5/USBFS_1_std.c ****                         USBFS_1_currentTD.pData = &USBFS_1_tBuffer[0u];
 403              		.loc 1 205 0
 404 01ee 284B     		ldr	r3, .L65
 405 01f0 344A     		ldr	r2, .L65+52
 406 01f2 5A60     		str	r2, [r3, #4]
 206:.\Generated_Source\PSoC5/USBFS_1_std.c ****                         requestHandled  = USBFS_1_InitControlRead();
 407              		.loc 1 206 0
 408 01f4 FFF7FEFF 		bl	USBFS_1_InitControlRead
 409 01f8 0346     		mov	r3, r0
 410 01fa FB75     		strb	r3, [r7, #23]
 207:.\Generated_Source\PSoC5/USBFS_1_std.c ****                         break;
 411              		.loc 1 207 0
 412 01fc 00BF     		nop
 413              	.L29:
 210:.\Generated_Source\PSoC5/USBFS_1_std.c ****                 }
 211:.\Generated_Source\PSoC5/USBFS_1_std.c ****                 break;
 414              		.loc 1 211 0
 415 01fe 1BE0     		b	.L25
 416              	.L11:
 212:.\Generated_Source\PSoC5/USBFS_1_std.c ****             case USBFS_1_GET_CONFIGURATION:
 213:.\Generated_Source\PSoC5/USBFS_1_std.c ****                 USBFS_1_currentTD.count = 1u;
 417              		.loc 1 213 0
 418 0200 234B     		ldr	r3, .L65
 419 0202 0122     		movs	r2, #1
 420 0204 1A80     		strh	r2, [r3]	@ movhi
 214:.\Generated_Source\PSoC5/USBFS_1_std.c ****                 USBFS_1_currentTD.pData = (volatile uint8 *)&USBFS_1_configuration;
 421              		.loc 1 214 0
 422 0206 224B     		ldr	r3, .L65
 423 0208 304A     		ldr	r2, .L65+60
 424 020a 5A60     		str	r2, [r3, #4]
 215:.\Generated_Source\PSoC5/USBFS_1_std.c ****                 requestHandled  = USBFS_1_InitControlRead();
 425              		.loc 1 215 0
 426 020c FFF7FEFF 		bl	USBFS_1_InitControlRead
 427 0210 0346     		mov	r3, r0
 428 0212 FB75     		strb	r3, [r7, #23]
 216:.\Generated_Source\PSoC5/USBFS_1_std.c ****                 break;
 429              		.loc 1 216 0
 430 0214 10E0     		b	.L25
ARM GAS  C:\Users\JohnP\AppData\Local\Temp\ccNdEQvR.s 			page 13


 431              	.L12:
 217:.\Generated_Source\PSoC5/USBFS_1_std.c ****             case USBFS_1_GET_INTERFACE:
 218:.\Generated_Source\PSoC5/USBFS_1_std.c ****                 USBFS_1_currentTD.count = 1u;
 432              		.loc 1 218 0
 433 0216 1E4B     		ldr	r3, .L65
 434 0218 0122     		movs	r2, #1
 435 021a 1A80     		strh	r2, [r3]	@ movhi
 219:.\Generated_Source\PSoC5/USBFS_1_std.c ****                 USBFS_1_currentTD.pData = (volatile uint8 *)&USBFS_1_interfaceSetting[ \
 220:.\Generated_Source\PSoC5/USBFS_1_std.c ****                                                                             CY_GET_REG8(USBFS_1_wIn
 436              		.loc 1 220 0
 437 021c 274B     		ldr	r3, .L65+44
 438 021e 1B78     		ldrb	r3, [r3]
 439 0220 DBB2     		uxtb	r3, r3
 219:.\Generated_Source\PSoC5/USBFS_1_std.c ****                 USBFS_1_currentTD.pData = (volatile uint8 *)&USBFS_1_interfaceSetting[ \
 440              		.loc 1 219 0
 441 0222 1A46     		mov	r2, r3
 442 0224 2A4B     		ldr	r3, .L65+64
 443 0226 1A44     		add	r2, r2, r3
 444 0228 194B     		ldr	r3, .L65
 445 022a 5A60     		str	r2, [r3, #4]
 221:.\Generated_Source\PSoC5/USBFS_1_std.c ****                 requestHandled  = USBFS_1_InitControlRead();
 446              		.loc 1 221 0
 447 022c FFF7FEFF 		bl	USBFS_1_InitControlRead
 448 0230 0346     		mov	r3, r0
 449 0232 FB75     		strb	r3, [r7, #23]
 222:.\Generated_Source\PSoC5/USBFS_1_std.c ****                 break;
 450              		.loc 1 222 0
 451 0234 00E0     		b	.L25
 452              	.L61:
 223:.\Generated_Source\PSoC5/USBFS_1_std.c ****             default: /* requestHandled is initialized as FALSE by default */
 224:.\Generated_Source\PSoC5/USBFS_1_std.c ****                 break;
 453              		.loc 1 224 0
 454 0236 00BF     		nop
 455              	.L25:
 456 0238 23E1     		b	.L30
 457              	.L6:
 225:.\Generated_Source\PSoC5/USBFS_1_std.c ****         }
 226:.\Generated_Source\PSoC5/USBFS_1_std.c ****     }
 227:.\Generated_Source\PSoC5/USBFS_1_std.c ****     else {
 228:.\Generated_Source\PSoC5/USBFS_1_std.c ****         /* Control Write */
 229:.\Generated_Source\PSoC5/USBFS_1_std.c ****         switch (CY_GET_REG8(USBFS_1_bRequest))
 458              		.loc 1 229 0
 459 023a 174B     		ldr	r3, .L65+8
 460 023c 1B78     		ldrb	r3, [r3]
 461 023e DBB2     		uxtb	r3, r3
 462 0240 013B     		subs	r3, r3, #1
 463 0242 0A2B     		cmp	r3, #10
 464 0244 00F21C81 		bhi	.L62
 465 0248 01A2     		adr	r2, .L33
 466 024a 52F823F0 		ldr	pc, [r2, r3, lsl #2]
 467 024e 00BF     		.p2align 2
 468              	.L33:
 469 0250 69030000 		.word	.L32+1
 470 0254 81040000 		.word	.L62+1
 471 0258 F5030000 		.word	.L34+1
 472 025c 81040000 		.word	.L62+1
 473 0260 7D020000 		.word	.L35+1
ARM GAS  C:\Users\JohnP\AppData\Local\Temp\ccNdEQvR.s 			page 14


 474 0264 81040000 		.word	.L62+1
 475 0268 81040000 		.word	.L62+1
 476 026c 81040000 		.word	.L62+1
 477 0270 D9020000 		.word	.L36+1
 478 0274 81040000 		.word	.L62+1
 479 0278 2F030000 		.word	.L37+1
 480              		.p2align 1
 481              	.L35:
 230:.\Generated_Source\PSoC5/USBFS_1_std.c ****         {
 231:.\Generated_Source\PSoC5/USBFS_1_std.c ****             case USBFS_1_SET_ADDRESS:
 232:.\Generated_Source\PSoC5/USBFS_1_std.c ****                 USBFS_1_deviceAddress = CY_GET_REG8(USBFS_1_wValueLo);
 482              		.loc 1 232 0
 483 027c 084B     		ldr	r3, .L65+16
 484 027e 1B78     		ldrb	r3, [r3]
 485 0280 DAB2     		uxtb	r2, r3
 486 0282 144B     		ldr	r3, .L65+68
 487 0284 1A70     		strb	r2, [r3]
 233:.\Generated_Source\PSoC5/USBFS_1_std.c ****                 requestHandled = USBFS_1_InitNoDataControlTransfer();
 488              		.loc 1 233 0
 489 0286 FFF7FEFF 		bl	USBFS_1_InitNoDataControlTransfer
 490 028a 0346     		mov	r3, r0
 491 028c FB75     		strb	r3, [r7, #23]
 234:.\Generated_Source\PSoC5/USBFS_1_std.c ****                 break;
 492              		.loc 1 234 0
 493 028e F8E0     		b	.L30
 494              	.L66:
 495              		.align	2
 496              	.L65:
 497 0290 00000000 		.word	USBFS_1_currentTD
 498 0294 00600040 		.word	1073766400
 499 0298 01600040 		.word	1073766401
 500 029c 03600040 		.word	1073766403
 501 02a0 02600040 		.word	1073766402
 502 02a4 00000000 		.word	USBFS_1_STRING_DESCRIPTORS
 503 02a8 00000000 		.word	USBFS_1_MSOS_DESCRIPTOR
 504 02ac 00000000 		.word	USBFS_1_DEVICE0_DESCR
 505 02b0 04000000 		.word	USBFS_1_snStringConfirm
 506 02b4 00000000 		.word	USBFS_1_fwSerialNumberStringDescriptor
 507 02b8 00000000 		.word	USBFS_1_SN_STRING_DESCRIPTOR
 508 02bc 04600040 		.word	1073766404
 509 02c0 00000000 		.word	USBFS_1_EP
 510 02c4 08000000 		.word	USBFS_1_tBuffer.5067
 511 02c8 00000000 		.word	USBFS_1_deviceStatus
 512 02cc 00000000 		.word	USBFS_1_configuration
 513 02d0 00000000 		.word	USBFS_1_interfaceSetting
 514 02d4 00000000 		.word	USBFS_1_deviceAddress
 515              	.L36:
 235:.\Generated_Source\PSoC5/USBFS_1_std.c ****             case USBFS_1_SET_CONFIGURATION:
 236:.\Generated_Source\PSoC5/USBFS_1_std.c ****                 configurationN = CY_GET_REG8(USBFS_1_wValueLo);
 516              		.loc 1 236 0
 517 02d8 6C4B     		ldr	r3, .L67
 518 02da 1B78     		ldrb	r3, [r3]
 519 02dc BB71     		strb	r3, [r7, #6]
 237:.\Generated_Source\PSoC5/USBFS_1_std.c ****                 if(configurationN > 0u)
 520              		.loc 1 237 0
 521 02de BB79     		ldrb	r3, [r7, #6]	@ zero_extendqisi2
 522 02e0 002B     		cmp	r3, #0
ARM GAS  C:\Users\JohnP\AppData\Local\Temp\ccNdEQvR.s 			page 15


 523 02e2 06D0     		beq	.L38
 238:.\Generated_Source\PSoC5/USBFS_1_std.c ****                 {   /* Verify that configuration descriptor exists */
 239:.\Generated_Source\PSoC5/USBFS_1_std.c ****                     pTmp = USBFS_1_GetConfigTablePtr(configurationN - 1u);
 524              		.loc 1 239 0
 525 02e4 BB79     		ldrb	r3, [r7, #6]
 526 02e6 013B     		subs	r3, r3, #1
 527 02e8 DBB2     		uxtb	r3, r3
 528 02ea 1846     		mov	r0, r3
 529 02ec FFF7FEFF 		bl	USBFS_1_GetConfigTablePtr
 530 02f0 B860     		str	r0, [r7, #8]
 531              	.L38:
 240:.\Generated_Source\PSoC5/USBFS_1_std.c ****                 }
 241:.\Generated_Source\PSoC5/USBFS_1_std.c ****                 /* Responds with a Request Error when configuration number is invalid */
 242:.\Generated_Source\PSoC5/USBFS_1_std.c ****                 if (((configurationN > 0u) && (pTmp != NULL)) || (configurationN == 0u))
 532              		.loc 1 242 0
 533 02f2 BB79     		ldrb	r3, [r7, #6]	@ zero_extendqisi2
 534 02f4 002B     		cmp	r3, #0
 535 02f6 02D0     		beq	.L39
 536              		.loc 1 242 0 is_stmt 0 discriminator 1
 537 02f8 BB68     		ldr	r3, [r7, #8]
 538 02fa 002B     		cmp	r3, #0
 539 02fc 02D1     		bne	.L40
 540              	.L39:
 541              		.loc 1 242 0 discriminator 2
 542 02fe BB79     		ldrb	r3, [r7, #6]	@ zero_extendqisi2
 543 0300 002B     		cmp	r3, #0
 544 0302 13D1     		bne	.L41
 545              	.L40:
 243:.\Generated_Source\PSoC5/USBFS_1_std.c ****                 {
 244:.\Generated_Source\PSoC5/USBFS_1_std.c ****                     /* Set new configuration if it has been changed */
 245:.\Generated_Source\PSoC5/USBFS_1_std.c ****                     if(configurationN != USBFS_1_configuration)
 546              		.loc 1 245 0 is_stmt 1
 547 0304 624B     		ldr	r3, .L67+4
 548 0306 1B78     		ldrb	r3, [r3]
 549 0308 DBB2     		uxtb	r3, r3
 550 030a BA79     		ldrb	r2, [r7, #6]	@ zero_extendqisi2
 551 030c 9A42     		cmp	r2, r3
 552 030e 08D0     		beq	.L42
 246:.\Generated_Source\PSoC5/USBFS_1_std.c ****                     {
 247:.\Generated_Source\PSoC5/USBFS_1_std.c ****                         USBFS_1_configuration = configurationN;
 553              		.loc 1 247 0
 554 0310 5F4B     		ldr	r3, .L67+4
 555 0312 BA79     		ldrb	r2, [r7, #6]
 556 0314 1A70     		strb	r2, [r3]
 248:.\Generated_Source\PSoC5/USBFS_1_std.c ****                         USBFS_1_configurationChanged = USBFS_1_TRUE;
 557              		.loc 1 248 0
 558 0316 5F4B     		ldr	r3, .L67+8
 559 0318 0122     		movs	r2, #1
 560 031a 1A70     		strb	r2, [r3]
 249:.\Generated_Source\PSoC5/USBFS_1_std.c ****                         USBFS_1_Config(USBFS_1_TRUE);
 561              		.loc 1 249 0
 562 031c 0120     		movs	r0, #1
 563 031e FFF7FEFF 		bl	USBFS_1_Config
 564              	.L42:
 250:.\Generated_Source\PSoC5/USBFS_1_std.c ****                     }
 251:.\Generated_Source\PSoC5/USBFS_1_std.c ****                     requestHandled = USBFS_1_InitNoDataControlTransfer();
 565              		.loc 1 251 0
ARM GAS  C:\Users\JohnP\AppData\Local\Temp\ccNdEQvR.s 			page 16


 566 0322 FFF7FEFF 		bl	USBFS_1_InitNoDataControlTransfer
 567 0326 0346     		mov	r3, r0
 568 0328 FB75     		strb	r3, [r7, #23]
 252:.\Generated_Source\PSoC5/USBFS_1_std.c ****                 }
 253:.\Generated_Source\PSoC5/USBFS_1_std.c ****                 break;
 569              		.loc 1 253 0
 570 032a AAE0     		b	.L30
 571              	.L41:
 572 032c A9E0     		b	.L30
 573              	.L37:
 254:.\Generated_Source\PSoC5/USBFS_1_std.c ****             case USBFS_1_SET_INTERFACE:
 255:.\Generated_Source\PSoC5/USBFS_1_std.c ****                 if (USBFS_1_ValidateAlternateSetting() != 0u)
 574              		.loc 1 255 0
 575 032e FFF7FEFF 		bl	USBFS_1_ValidateAlternateSetting
 576 0332 0346     		mov	r3, r0
 577 0334 002B     		cmp	r3, #0
 578 0336 16D0     		beq	.L43
 256:.\Generated_Source\PSoC5/USBFS_1_std.c ****                 {
 257:.\Generated_Source\PSoC5/USBFS_1_std.c ****                     interfaceNumber = CY_GET_REG8(USBFS_1_wIndexLo);
 579              		.loc 1 257 0
 580 0338 574B     		ldr	r3, .L67+12
 581 033a 1B78     		ldrb	r3, [r3]
 582 033c 7B71     		strb	r3, [r7, #5]
 258:.\Generated_Source\PSoC5/USBFS_1_std.c ****                     USBFS_1_interfaceNumber = interfaceNumber;
 583              		.loc 1 258 0
 584 033e 574B     		ldr	r3, .L67+16
 585 0340 7A79     		ldrb	r2, [r7, #5]
 586 0342 1A70     		strb	r2, [r3]
 259:.\Generated_Source\PSoC5/USBFS_1_std.c ****                     USBFS_1_configurationChanged = USBFS_1_TRUE;
 587              		.loc 1 259 0
 588 0344 534B     		ldr	r3, .L67+8
 589 0346 0122     		movs	r2, #1
 590 0348 1A70     		strb	r2, [r3]
 260:.\Generated_Source\PSoC5/USBFS_1_std.c ****                     #if ((USBFS_1_EP_MA == USBFS_1__MA_DYNAMIC) && \
 261:.\Generated_Source\PSoC5/USBFS_1_std.c ****                          (USBFS_1_EP_MM == USBFS_1__EP_MANUAL) )
 262:.\Generated_Source\PSoC5/USBFS_1_std.c ****                         USBFS_1_Config(USBFS_1_FALSE);
 263:.\Generated_Source\PSoC5/USBFS_1_std.c ****                     #else
 264:.\Generated_Source\PSoC5/USBFS_1_std.c ****                         USBFS_1_ConfigAltChanged();
 591              		.loc 1 264 0
 592 034a FFF7FEFF 		bl	USBFS_1_ConfigAltChanged
 265:.\Generated_Source\PSoC5/USBFS_1_std.c ****                     #endif /*  (USBFS_1_EP_MA == USBFS_1__MA_DYNAMIC) */
 266:.\Generated_Source\PSoC5/USBFS_1_std.c ****                     /* Update handled Alt setting changes status */
 267:.\Generated_Source\PSoC5/USBFS_1_std.c ****                     USBFS_1_interfaceSetting_last[interfaceNumber] =
 593              		.loc 1 267 0
 594 034e 7B79     		ldrb	r3, [r7, #5]	@ zero_extendqisi2
 268:.\Generated_Source\PSoC5/USBFS_1_std.c ****                          USBFS_1_interfaceSetting[interfaceNumber];
 595              		.loc 1 268 0
 596 0350 7A79     		ldrb	r2, [r7, #5]	@ zero_extendqisi2
 597 0352 5349     		ldr	r1, .L67+20
 598 0354 8A5C     		ldrb	r2, [r1, r2]
 599 0356 D1B2     		uxtb	r1, r2
 267:.\Generated_Source\PSoC5/USBFS_1_std.c ****                     USBFS_1_interfaceSetting_last[interfaceNumber] =
 600              		.loc 1 267 0
 601 0358 524A     		ldr	r2, .L67+24
 602 035a D154     		strb	r1, [r2, r3]
 269:.\Generated_Source\PSoC5/USBFS_1_std.c ****                     requestHandled = USBFS_1_InitNoDataControlTransfer();
 603              		.loc 1 269 0
ARM GAS  C:\Users\JohnP\AppData\Local\Temp\ccNdEQvR.s 			page 17


 604 035c FFF7FEFF 		bl	USBFS_1_InitNoDataControlTransfer
 605 0360 0346     		mov	r3, r0
 606 0362 FB75     		strb	r3, [r7, #23]
 270:.\Generated_Source\PSoC5/USBFS_1_std.c ****                 }
 271:.\Generated_Source\PSoC5/USBFS_1_std.c ****                 break;
 607              		.loc 1 271 0
 608 0364 8DE0     		b	.L30
 609              	.L43:
 610 0366 8CE0     		b	.L30
 611              	.L32:
 272:.\Generated_Source\PSoC5/USBFS_1_std.c ****             case USBFS_1_CLEAR_FEATURE:
 273:.\Generated_Source\PSoC5/USBFS_1_std.c ****                 switch (CY_GET_REG8(USBFS_1_bmRequestType) & USBFS_1_RQST_RCPT_MASK)
 612              		.loc 1 273 0
 613 0368 4F4B     		ldr	r3, .L67+28
 614 036a 1B78     		ldrb	r3, [r3]
 615 036c DBB2     		uxtb	r3, r3
 616 036e 03F00303 		and	r3, r3, #3
 617 0372 012B     		cmp	r3, #1
 618 0374 22D0     		beq	.L45
 619 0376 012B     		cmp	r3, #1
 620 0378 0DD3     		bcc	.L46
 621 037a 022B     		cmp	r3, #2
 622 037c 00D0     		beq	.L47
 274:.\Generated_Source\PSoC5/USBFS_1_std.c ****                 {
 275:.\Generated_Source\PSoC5/USBFS_1_std.c ****                     case USBFS_1_RQST_RCPT_EP:
 276:.\Generated_Source\PSoC5/USBFS_1_std.c ****                         if (CY_GET_REG8(USBFS_1_wValueLo) == USBFS_1_ENDPOINT_HALT)
 277:.\Generated_Source\PSoC5/USBFS_1_std.c ****                         {
 278:.\Generated_Source\PSoC5/USBFS_1_std.c ****                             requestHandled = USBFS_1_ClearEndpointHalt();
 279:.\Generated_Source\PSoC5/USBFS_1_std.c ****                         }
 280:.\Generated_Source\PSoC5/USBFS_1_std.c ****                         break;
 281:.\Generated_Source\PSoC5/USBFS_1_std.c ****                     case USBFS_1_RQST_RCPT_DEV:
 282:.\Generated_Source\PSoC5/USBFS_1_std.c ****                         /* Clear device REMOTE_WAKEUP */
 283:.\Generated_Source\PSoC5/USBFS_1_std.c ****                         if (CY_GET_REG8(USBFS_1_wValueLo) == USBFS_1_DEVICE_REMOTE_WAKEUP)
 284:.\Generated_Source\PSoC5/USBFS_1_std.c ****                         {
 285:.\Generated_Source\PSoC5/USBFS_1_std.c ****                             USBFS_1_deviceStatus &= (uint8)~USBFS_1_DEVICE_STATUS_REMOTE_WAKEUP;
 286:.\Generated_Source\PSoC5/USBFS_1_std.c ****                             requestHandled = USBFS_1_InitNoDataControlTransfer();
 287:.\Generated_Source\PSoC5/USBFS_1_std.c ****                         }
 288:.\Generated_Source\PSoC5/USBFS_1_std.c ****                         break;
 289:.\Generated_Source\PSoC5/USBFS_1_std.c ****                     case USBFS_1_RQST_RCPT_IFC:
 290:.\Generated_Source\PSoC5/USBFS_1_std.c ****                         /* Validate interfaceNumber */
 291:.\Generated_Source\PSoC5/USBFS_1_std.c ****                         if (CY_GET_REG8(USBFS_1_wIndexLo) < USBFS_1_MAX_INTERFACES_NUMBER)
 292:.\Generated_Source\PSoC5/USBFS_1_std.c ****                         {
 293:.\Generated_Source\PSoC5/USBFS_1_std.c ****                             USBFS_1_interfaceStatus[CY_GET_REG8(USBFS_1_wIndexLo)] &=
 294:.\Generated_Source\PSoC5/USBFS_1_std.c ****                                                                 (uint8)~(CY_GET_REG8(USBFS_1_wValue
 295:.\Generated_Source\PSoC5/USBFS_1_std.c ****                             requestHandled = USBFS_1_InitNoDataControlTransfer();
 296:.\Generated_Source\PSoC5/USBFS_1_std.c ****                         }
 297:.\Generated_Source\PSoC5/USBFS_1_std.c ****                         break;
 298:.\Generated_Source\PSoC5/USBFS_1_std.c ****                     default:    /* requestHandled is initialized as FALSE by default */
 299:.\Generated_Source\PSoC5/USBFS_1_std.c ****                         break;
 623              		.loc 1 299 0
 624 037e 38E0     		b	.L49
 625              	.L47:
 276:.\Generated_Source\PSoC5/USBFS_1_std.c ****                         if (CY_GET_REG8(USBFS_1_wValueLo) == USBFS_1_ENDPOINT_HALT)
 626              		.loc 1 276 0
 627 0380 424B     		ldr	r3, .L67
 628 0382 1B78     		ldrb	r3, [r3]
 629 0384 DBB2     		uxtb	r3, r3
ARM GAS  C:\Users\JohnP\AppData\Local\Temp\ccNdEQvR.s 			page 18


 630 0386 002B     		cmp	r3, #0
 631 0388 04D1     		bne	.L48
 278:.\Generated_Source\PSoC5/USBFS_1_std.c ****                             requestHandled = USBFS_1_ClearEndpointHalt();
 632              		.loc 1 278 0
 633 038a FFF7FEFF 		bl	USBFS_1_ClearEndpointHalt
 634 038e 0346     		mov	r3, r0
 635 0390 FB75     		strb	r3, [r7, #23]
 280:.\Generated_Source\PSoC5/USBFS_1_std.c ****                         break;
 636              		.loc 1 280 0
 637 0392 2EE0     		b	.L49
 638              	.L48:
 639 0394 2DE0     		b	.L49
 640              	.L46:
 283:.\Generated_Source\PSoC5/USBFS_1_std.c ****                         if (CY_GET_REG8(USBFS_1_wValueLo) == USBFS_1_DEVICE_REMOTE_WAKEUP)
 641              		.loc 1 283 0
 642 0396 3D4B     		ldr	r3, .L67
 643 0398 1B78     		ldrb	r3, [r3]
 644 039a DBB2     		uxtb	r3, r3
 645 039c 012B     		cmp	r3, #1
 646 039e 0CD1     		bne	.L50
 285:.\Generated_Source\PSoC5/USBFS_1_std.c ****                             USBFS_1_deviceStatus &= (uint8)~USBFS_1_DEVICE_STATUS_REMOTE_WAKEUP;
 647              		.loc 1 285 0
 648 03a0 424B     		ldr	r3, .L67+32
 649 03a2 1B78     		ldrb	r3, [r3]
 650 03a4 DBB2     		uxtb	r3, r3
 651 03a6 23F00203 		bic	r3, r3, #2
 652 03aa DAB2     		uxtb	r2, r3
 653 03ac 3F4B     		ldr	r3, .L67+32
 654 03ae 1A70     		strb	r2, [r3]
 286:.\Generated_Source\PSoC5/USBFS_1_std.c ****                             requestHandled = USBFS_1_InitNoDataControlTransfer();
 655              		.loc 1 286 0
 656 03b0 FFF7FEFF 		bl	USBFS_1_InitNoDataControlTransfer
 657 03b4 0346     		mov	r3, r0
 658 03b6 FB75     		strb	r3, [r7, #23]
 288:.\Generated_Source\PSoC5/USBFS_1_std.c ****                         break;
 659              		.loc 1 288 0
 660 03b8 1BE0     		b	.L49
 661              	.L50:
 662 03ba 1AE0     		b	.L49
 663              	.L45:
 291:.\Generated_Source\PSoC5/USBFS_1_std.c ****                         if (CY_GET_REG8(USBFS_1_wIndexLo) < USBFS_1_MAX_INTERFACES_NUMBER)
 664              		.loc 1 291 0
 665 03bc 364B     		ldr	r3, .L67+12
 666 03be 1B78     		ldrb	r3, [r3]
 667 03c0 DBB2     		uxtb	r3, r3
 668 03c2 002B     		cmp	r3, #0
 669 03c4 14D1     		bne	.L51
 293:.\Generated_Source\PSoC5/USBFS_1_std.c ****                             USBFS_1_interfaceStatus[CY_GET_REG8(USBFS_1_wIndexLo)] &=
 670              		.loc 1 293 0
 671 03c6 344B     		ldr	r3, .L67+12
 672 03c8 1B78     		ldrb	r3, [r3]
 673 03ca DBB2     		uxtb	r3, r3
 674 03cc 1A46     		mov	r2, r3
 675 03ce 3849     		ldr	r1, .L67+36
 676 03d0 CB5C     		ldrb	r3, [r1, r3]
 677 03d2 D9B2     		uxtb	r1, r3
 294:.\Generated_Source\PSoC5/USBFS_1_std.c ****                                                                 (uint8)~(CY_GET_REG8(USBFS_1_wValue
ARM GAS  C:\Users\JohnP\AppData\Local\Temp\ccNdEQvR.s 			page 19


 678              		.loc 1 294 0
 679 03d4 2D4B     		ldr	r3, .L67
 680 03d6 1B78     		ldrb	r3, [r3]
 681 03d8 DBB2     		uxtb	r3, r3
 682 03da DB43     		mvns	r3, r3
 683 03dc DBB2     		uxtb	r3, r3
 293:.\Generated_Source\PSoC5/USBFS_1_std.c ****                             USBFS_1_interfaceStatus[CY_GET_REG8(USBFS_1_wIndexLo)] &=
 684              		.loc 1 293 0
 685 03de 0B40     		ands	r3, r3, r1
 686 03e0 D9B2     		uxtb	r1, r3
 687 03e2 334B     		ldr	r3, .L67+36
 688 03e4 9954     		strb	r1, [r3, r2]
 295:.\Generated_Source\PSoC5/USBFS_1_std.c ****                             requestHandled = USBFS_1_InitNoDataControlTransfer();
 689              		.loc 1 295 0
 690 03e6 FFF7FEFF 		bl	USBFS_1_InitNoDataControlTransfer
 691 03ea 0346     		mov	r3, r0
 692 03ec FB75     		strb	r3, [r7, #23]
 297:.\Generated_Source\PSoC5/USBFS_1_std.c ****                         break;
 693              		.loc 1 297 0
 694 03ee FFE7     		b	.L63
 695              	.L51:
 696              	.L63:
 697 03f0 00BF     		nop
 698              	.L49:
 300:.\Generated_Source\PSoC5/USBFS_1_std.c ****                 }
 301:.\Generated_Source\PSoC5/USBFS_1_std.c ****                 break;
 699              		.loc 1 301 0
 700 03f2 46E0     		b	.L30
 701              	.L34:
 302:.\Generated_Source\PSoC5/USBFS_1_std.c ****             case USBFS_1_SET_FEATURE:
 303:.\Generated_Source\PSoC5/USBFS_1_std.c ****                 switch (CY_GET_REG8(USBFS_1_bmRequestType) & USBFS_1_RQST_RCPT_MASK)
 702              		.loc 1 303 0
 703 03f4 2C4B     		ldr	r3, .L67+28
 704 03f6 1B78     		ldrb	r3, [r3]
 705 03f8 DBB2     		uxtb	r3, r3
 706 03fa 03F00303 		and	r3, r3, #3
 707 03fe 012B     		cmp	r3, #1
 708 0400 22D0     		beq	.L53
 709 0402 012B     		cmp	r3, #1
 710 0404 0DD3     		bcc	.L54
 711 0406 022B     		cmp	r3, #2
 712 0408 00D0     		beq	.L55
 304:.\Generated_Source\PSoC5/USBFS_1_std.c ****                 {
 305:.\Generated_Source\PSoC5/USBFS_1_std.c ****                     case USBFS_1_RQST_RCPT_EP:
 306:.\Generated_Source\PSoC5/USBFS_1_std.c ****                         if (CY_GET_REG8(USBFS_1_wValueLo) == USBFS_1_ENDPOINT_HALT)
 307:.\Generated_Source\PSoC5/USBFS_1_std.c ****                         {
 308:.\Generated_Source\PSoC5/USBFS_1_std.c ****                             requestHandled = USBFS_1_SetEndpointHalt();
 309:.\Generated_Source\PSoC5/USBFS_1_std.c ****                         }
 310:.\Generated_Source\PSoC5/USBFS_1_std.c ****                         break;
 311:.\Generated_Source\PSoC5/USBFS_1_std.c ****                     case USBFS_1_RQST_RCPT_DEV:
 312:.\Generated_Source\PSoC5/USBFS_1_std.c ****                         /* Set device REMOTE_WAKEUP */
 313:.\Generated_Source\PSoC5/USBFS_1_std.c ****                         if (CY_GET_REG8(USBFS_1_wValueLo) == USBFS_1_DEVICE_REMOTE_WAKEUP)
 314:.\Generated_Source\PSoC5/USBFS_1_std.c ****                         {
 315:.\Generated_Source\PSoC5/USBFS_1_std.c ****                             USBFS_1_deviceStatus |= USBFS_1_DEVICE_STATUS_REMOTE_WAKEUP;
 316:.\Generated_Source\PSoC5/USBFS_1_std.c ****                             requestHandled = USBFS_1_InitNoDataControlTransfer();
 317:.\Generated_Source\PSoC5/USBFS_1_std.c ****                         }
 318:.\Generated_Source\PSoC5/USBFS_1_std.c ****                         break;
ARM GAS  C:\Users\JohnP\AppData\Local\Temp\ccNdEQvR.s 			page 20


 319:.\Generated_Source\PSoC5/USBFS_1_std.c ****                     case USBFS_1_RQST_RCPT_IFC:
 320:.\Generated_Source\PSoC5/USBFS_1_std.c ****                         /* Validate interfaceNumber */
 321:.\Generated_Source\PSoC5/USBFS_1_std.c ****                         if (CY_GET_REG8(USBFS_1_wIndexLo) < USBFS_1_MAX_INTERFACES_NUMBER)
 322:.\Generated_Source\PSoC5/USBFS_1_std.c ****                         {
 323:.\Generated_Source\PSoC5/USBFS_1_std.c ****                             USBFS_1_interfaceStatus[CY_GET_REG8(USBFS_1_wIndexLo)] &=
 324:.\Generated_Source\PSoC5/USBFS_1_std.c ****                                                                 (uint8)~(CY_GET_REG8(USBFS_1_wValue
 325:.\Generated_Source\PSoC5/USBFS_1_std.c ****                             requestHandled = USBFS_1_InitNoDataControlTransfer();
 326:.\Generated_Source\PSoC5/USBFS_1_std.c ****                         }
 327:.\Generated_Source\PSoC5/USBFS_1_std.c ****                         break;
 328:.\Generated_Source\PSoC5/USBFS_1_std.c ****                     default:    /* requestHandled is initialized as FALSE by default */
 329:.\Generated_Source\PSoC5/USBFS_1_std.c ****                         break;
 713              		.loc 1 329 0
 714 040a 38E0     		b	.L57
 715              	.L55:
 306:.\Generated_Source\PSoC5/USBFS_1_std.c ****                         if (CY_GET_REG8(USBFS_1_wValueLo) == USBFS_1_ENDPOINT_HALT)
 716              		.loc 1 306 0
 717 040c 1F4B     		ldr	r3, .L67
 718 040e 1B78     		ldrb	r3, [r3]
 719 0410 DBB2     		uxtb	r3, r3
 720 0412 002B     		cmp	r3, #0
 721 0414 04D1     		bne	.L56
 308:.\Generated_Source\PSoC5/USBFS_1_std.c ****                             requestHandled = USBFS_1_SetEndpointHalt();
 722              		.loc 1 308 0
 723 0416 FFF7FEFF 		bl	USBFS_1_SetEndpointHalt
 724 041a 0346     		mov	r3, r0
 725 041c FB75     		strb	r3, [r7, #23]
 310:.\Generated_Source\PSoC5/USBFS_1_std.c ****                         break;
 726              		.loc 1 310 0
 727 041e 2EE0     		b	.L57
 728              	.L56:
 729 0420 2DE0     		b	.L57
 730              	.L54:
 313:.\Generated_Source\PSoC5/USBFS_1_std.c ****                         if (CY_GET_REG8(USBFS_1_wValueLo) == USBFS_1_DEVICE_REMOTE_WAKEUP)
 731              		.loc 1 313 0
 732 0422 1A4B     		ldr	r3, .L67
 733 0424 1B78     		ldrb	r3, [r3]
 734 0426 DBB2     		uxtb	r3, r3
 735 0428 012B     		cmp	r3, #1
 736 042a 0CD1     		bne	.L58
 315:.\Generated_Source\PSoC5/USBFS_1_std.c ****                             USBFS_1_deviceStatus |= USBFS_1_DEVICE_STATUS_REMOTE_WAKEUP;
 737              		.loc 1 315 0
 738 042c 1F4B     		ldr	r3, .L67+32
 739 042e 1B78     		ldrb	r3, [r3]
 740 0430 DBB2     		uxtb	r3, r3
 741 0432 43F00203 		orr	r3, r3, #2
 742 0436 DAB2     		uxtb	r2, r3
 743 0438 1C4B     		ldr	r3, .L67+32
 744 043a 1A70     		strb	r2, [r3]
 316:.\Generated_Source\PSoC5/USBFS_1_std.c ****                             requestHandled = USBFS_1_InitNoDataControlTransfer();
 745              		.loc 1 316 0
 746 043c FFF7FEFF 		bl	USBFS_1_InitNoDataControlTransfer
 747 0440 0346     		mov	r3, r0
 748 0442 FB75     		strb	r3, [r7, #23]
 318:.\Generated_Source\PSoC5/USBFS_1_std.c ****                         break;
 749              		.loc 1 318 0
 750 0444 1BE0     		b	.L57
 751              	.L58:
ARM GAS  C:\Users\JohnP\AppData\Local\Temp\ccNdEQvR.s 			page 21


 752 0446 1AE0     		b	.L57
 753              	.L53:
 321:.\Generated_Source\PSoC5/USBFS_1_std.c ****                         if (CY_GET_REG8(USBFS_1_wIndexLo) < USBFS_1_MAX_INTERFACES_NUMBER)
 754              		.loc 1 321 0
 755 0448 134B     		ldr	r3, .L67+12
 756 044a 1B78     		ldrb	r3, [r3]
 757 044c DBB2     		uxtb	r3, r3
 758 044e 002B     		cmp	r3, #0
 759 0450 14D1     		bne	.L59
 323:.\Generated_Source\PSoC5/USBFS_1_std.c ****                             USBFS_1_interfaceStatus[CY_GET_REG8(USBFS_1_wIndexLo)] &=
 760              		.loc 1 323 0
 761 0452 114B     		ldr	r3, .L67+12
 762 0454 1B78     		ldrb	r3, [r3]
 763 0456 DBB2     		uxtb	r3, r3
 764 0458 1A46     		mov	r2, r3
 765 045a 1549     		ldr	r1, .L67+36
 766 045c CB5C     		ldrb	r3, [r1, r3]
 767 045e D9B2     		uxtb	r1, r3
 324:.\Generated_Source\PSoC5/USBFS_1_std.c ****                                                                 (uint8)~(CY_GET_REG8(USBFS_1_wValue
 768              		.loc 1 324 0
 769 0460 0A4B     		ldr	r3, .L67
 770 0462 1B78     		ldrb	r3, [r3]
 771 0464 DBB2     		uxtb	r3, r3
 772 0466 DB43     		mvns	r3, r3
 773 0468 DBB2     		uxtb	r3, r3
 323:.\Generated_Source\PSoC5/USBFS_1_std.c ****                             USBFS_1_interfaceStatus[CY_GET_REG8(USBFS_1_wIndexLo)] &=
 774              		.loc 1 323 0
 775 046a 0B40     		ands	r3, r3, r1
 776 046c D9B2     		uxtb	r1, r3
 777 046e 104B     		ldr	r3, .L67+36
 778 0470 9954     		strb	r1, [r3, r2]
 325:.\Generated_Source\PSoC5/USBFS_1_std.c ****                             requestHandled = USBFS_1_InitNoDataControlTransfer();
 779              		.loc 1 325 0
 780 0472 FFF7FEFF 		bl	USBFS_1_InitNoDataControlTransfer
 781 0476 0346     		mov	r3, r0
 782 0478 FB75     		strb	r3, [r7, #23]
 327:.\Generated_Source\PSoC5/USBFS_1_std.c ****                         break;
 783              		.loc 1 327 0
 784 047a FFE7     		b	.L64
 785              	.L59:
 786              	.L64:
 787 047c 00BF     		nop
 788              	.L57:
 330:.\Generated_Source\PSoC5/USBFS_1_std.c ****                 }
 331:.\Generated_Source\PSoC5/USBFS_1_std.c ****                 break;
 789              		.loc 1 331 0
 790 047e 00E0     		b	.L30
 791              	.L62:
 332:.\Generated_Source\PSoC5/USBFS_1_std.c ****             default:    /* requestHandled is initialized as FALSE by default */
 333:.\Generated_Source\PSoC5/USBFS_1_std.c ****                 break;
 792              		.loc 1 333 0
 793 0480 00BF     		nop
 794              	.L30:
 334:.\Generated_Source\PSoC5/USBFS_1_std.c ****         }
 335:.\Generated_Source\PSoC5/USBFS_1_std.c ****     }
 336:.\Generated_Source\PSoC5/USBFS_1_std.c ****     return(requestHandled);
 795              		.loc 1 336 0
ARM GAS  C:\Users\JohnP\AppData\Local\Temp\ccNdEQvR.s 			page 22


 796 0482 FB7D     		ldrb	r3, [r7, #23]	@ zero_extendqisi2
 337:.\Generated_Source\PSoC5/USBFS_1_std.c **** }
 797              		.loc 1 337 0
 798 0484 1846     		mov	r0, r3
 799 0486 1837     		adds	r7, r7, #24
 800 0488 BD46     		mov	sp, r7
 801              		@ sp needed
 802 048a 80BD     		pop	{r7, pc}
 803              	.L68:
 804              		.align	2
 805              	.L67:
 806 048c 02600040 		.word	1073766402
 807 0490 00000000 		.word	USBFS_1_configuration
 808 0494 00000000 		.word	USBFS_1_configurationChanged
 809 0498 04600040 		.word	1073766404
 810 049c 00000000 		.word	USBFS_1_interfaceNumber
 811 04a0 00000000 		.word	USBFS_1_interfaceSetting
 812 04a4 00000000 		.word	USBFS_1_interfaceSetting_last
 813 04a8 00600040 		.word	1073766400
 814 04ac 00000000 		.word	USBFS_1_deviceStatus
 815 04b0 00000000 		.word	USBFS_1_interfaceStatus
 816              		.cfi_endproc
 817              	.LFE1:
 818              		.size	USBFS_1_HandleStandardRqst, .-USBFS_1_HandleStandardRqst
 819              		.section	.text.USBFS_1_ConfigReg,"ax",%progbits
 820              		.align	2
 821              		.global	USBFS_1_ConfigReg
 822              		.thumb
 823              		.thumb_func
 824              		.type	USBFS_1_ConfigReg, %function
 825              	USBFS_1_ConfigReg:
 826              	.LFB2:
 338:.\Generated_Source\PSoC5/USBFS_1_std.c **** 
 339:.\Generated_Source\PSoC5/USBFS_1_std.c **** 
 340:.\Generated_Source\PSoC5/USBFS_1_std.c **** #if defined(USBFS_1_ENABLE_IDSN_STRING)
 341:.\Generated_Source\PSoC5/USBFS_1_std.c **** 
 342:.\Generated_Source\PSoC5/USBFS_1_std.c ****     /***************************************************************************
 343:.\Generated_Source\PSoC5/USBFS_1_std.c ****     * Function Name: USBFS_1_ReadDieID
 344:.\Generated_Source\PSoC5/USBFS_1_std.c ****     ****************************************************************************
 345:.\Generated_Source\PSoC5/USBFS_1_std.c ****     *
 346:.\Generated_Source\PSoC5/USBFS_1_std.c ****     * Summary:
 347:.\Generated_Source\PSoC5/USBFS_1_std.c ****     *  This routine read Die ID and generate Serial Number string descriptor.
 348:.\Generated_Source\PSoC5/USBFS_1_std.c ****     *
 349:.\Generated_Source\PSoC5/USBFS_1_std.c ****     * Parameters:
 350:.\Generated_Source\PSoC5/USBFS_1_std.c ****     *  descr:  pointer on string descriptor.
 351:.\Generated_Source\PSoC5/USBFS_1_std.c ****     *
 352:.\Generated_Source\PSoC5/USBFS_1_std.c ****     * Return:
 353:.\Generated_Source\PSoC5/USBFS_1_std.c ****     *  None.
 354:.\Generated_Source\PSoC5/USBFS_1_std.c ****     *
 355:.\Generated_Source\PSoC5/USBFS_1_std.c ****     * Reentrant:
 356:.\Generated_Source\PSoC5/USBFS_1_std.c ****     *  No.
 357:.\Generated_Source\PSoC5/USBFS_1_std.c ****     *
 358:.\Generated_Source\PSoC5/USBFS_1_std.c ****     ***************************************************************************/
 359:.\Generated_Source\PSoC5/USBFS_1_std.c ****     void USBFS_1_ReadDieID(uint8 descr[]) 
 360:.\Generated_Source\PSoC5/USBFS_1_std.c ****     {
 361:.\Generated_Source\PSoC5/USBFS_1_std.c ****         uint8 i;
 362:.\Generated_Source\PSoC5/USBFS_1_std.c ****         uint8 j = 0u;
ARM GAS  C:\Users\JohnP\AppData\Local\Temp\ccNdEQvR.s 			page 23


 363:.\Generated_Source\PSoC5/USBFS_1_std.c ****         uint8 value;
 364:.\Generated_Source\PSoC5/USBFS_1_std.c ****         const char8 CYCODE hex[16u] = "0123456789ABCDEF";
 365:.\Generated_Source\PSoC5/USBFS_1_std.c **** 
 366:.\Generated_Source\PSoC5/USBFS_1_std.c ****         /* Check descriptor validation */
 367:.\Generated_Source\PSoC5/USBFS_1_std.c ****         if( descr != NULL)
 368:.\Generated_Source\PSoC5/USBFS_1_std.c ****         {
 369:.\Generated_Source\PSoC5/USBFS_1_std.c ****             descr[0u] = USBFS_1_IDSN_DESCR_LENGTH;
 370:.\Generated_Source\PSoC5/USBFS_1_std.c ****             descr[1u] = USBFS_1_DESCR_STRING;
 371:.\Generated_Source\PSoC5/USBFS_1_std.c **** 
 372:.\Generated_Source\PSoC5/USBFS_1_std.c ****             /* fill descriptor */
 373:.\Generated_Source\PSoC5/USBFS_1_std.c ****             for(i = 2u; i < USBFS_1_IDSN_DESCR_LENGTH; i += 4u)
 374:.\Generated_Source\PSoC5/USBFS_1_std.c ****             {
 375:.\Generated_Source\PSoC5/USBFS_1_std.c ****                 value = CY_GET_XTND_REG8((void CYFAR *)(USBFS_1_DIE_ID + j));
 376:.\Generated_Source\PSoC5/USBFS_1_std.c ****                 j++;
 377:.\Generated_Source\PSoC5/USBFS_1_std.c ****                 descr[i] = (uint8)hex[value >> 4u];
 378:.\Generated_Source\PSoC5/USBFS_1_std.c ****                 descr[i + 2u] = (uint8)hex[value & 0x0Fu];
 379:.\Generated_Source\PSoC5/USBFS_1_std.c ****             }
 380:.\Generated_Source\PSoC5/USBFS_1_std.c ****         }
 381:.\Generated_Source\PSoC5/USBFS_1_std.c ****     }
 382:.\Generated_Source\PSoC5/USBFS_1_std.c **** 
 383:.\Generated_Source\PSoC5/USBFS_1_std.c **** #endif /*  USBFS_1_ENABLE_IDSN_STRING */
 384:.\Generated_Source\PSoC5/USBFS_1_std.c **** 
 385:.\Generated_Source\PSoC5/USBFS_1_std.c **** 
 386:.\Generated_Source\PSoC5/USBFS_1_std.c **** /*******************************************************************************
 387:.\Generated_Source\PSoC5/USBFS_1_std.c **** * Function Name: USBFS_1_ConfigReg
 388:.\Generated_Source\PSoC5/USBFS_1_std.c **** ********************************************************************************
 389:.\Generated_Source\PSoC5/USBFS_1_std.c **** *
 390:.\Generated_Source\PSoC5/USBFS_1_std.c **** * Summary:
 391:.\Generated_Source\PSoC5/USBFS_1_std.c **** *  This routine configures hardware registers from the variables.
 392:.\Generated_Source\PSoC5/USBFS_1_std.c **** *  It is called from USBFS_1_Config() function and from RestoreConfig
 393:.\Generated_Source\PSoC5/USBFS_1_std.c **** *  after Wakeup.
 394:.\Generated_Source\PSoC5/USBFS_1_std.c **** *
 395:.\Generated_Source\PSoC5/USBFS_1_std.c **** * Parameters:
 396:.\Generated_Source\PSoC5/USBFS_1_std.c **** *  None.
 397:.\Generated_Source\PSoC5/USBFS_1_std.c **** *
 398:.\Generated_Source\PSoC5/USBFS_1_std.c **** * Return:
 399:.\Generated_Source\PSoC5/USBFS_1_std.c **** *  None.
 400:.\Generated_Source\PSoC5/USBFS_1_std.c **** *
 401:.\Generated_Source\PSoC5/USBFS_1_std.c **** *******************************************************************************/
 402:.\Generated_Source\PSoC5/USBFS_1_std.c **** void USBFS_1_ConfigReg(void) 
 403:.\Generated_Source\PSoC5/USBFS_1_std.c **** {
 827              		.loc 1 403 0
 828              		.cfi_startproc
 829              		@ args = 0, pretend = 0, frame = 8
 830              		@ frame_needed = 1, uses_anonymous_args = 0
 831              		@ link register save eliminated.
 832 0000 80B4     		push	{r7}
 833              		.cfi_def_cfa_offset 4
 834              		.cfi_offset 7, -4
 835 0002 83B0     		sub	sp, sp, #12
 836              		.cfi_def_cfa_offset 16
 837 0004 00AF     		add	r7, sp, #0
 838              		.cfi_def_cfa_register 7
 404:.\Generated_Source\PSoC5/USBFS_1_std.c ****     uint8 ep;
 405:.\Generated_Source\PSoC5/USBFS_1_std.c ****     uint8 i;
 406:.\Generated_Source\PSoC5/USBFS_1_std.c ****     #if(USBFS_1_EP_MM == USBFS_1__EP_DMAAUTO)
 407:.\Generated_Source\PSoC5/USBFS_1_std.c ****         uint8 epType = 0u;
ARM GAS  C:\Users\JohnP\AppData\Local\Temp\ccNdEQvR.s 			page 24


 408:.\Generated_Source\PSoC5/USBFS_1_std.c ****     #endif /*  USBFS_1_EP_MM == USBFS_1__EP_DMAAUTO */
 409:.\Generated_Source\PSoC5/USBFS_1_std.c **** 
 410:.\Generated_Source\PSoC5/USBFS_1_std.c ****     /* Set the endpoint buffer addresses */
 411:.\Generated_Source\PSoC5/USBFS_1_std.c ****     ep = USBFS_1_EP1;
 839              		.loc 1 411 0
 840 0006 0123     		movs	r3, #1
 841 0008 FB71     		strb	r3, [r7, #7]
 412:.\Generated_Source\PSoC5/USBFS_1_std.c ****     for (i = 0u; i < 0x80u; i+= 0x10u)
 842              		.loc 1 412 0
 843 000a 0023     		movs	r3, #0
 844 000c BB71     		strb	r3, [r7, #6]
 845 000e 97E0     		b	.L70
 846              	.L75:
 413:.\Generated_Source\PSoC5/USBFS_1_std.c ****     {
 414:.\Generated_Source\PSoC5/USBFS_1_std.c ****         CY_SET_REG8((reg8 *)(USBFS_1_ARB_EP1_CFG_IND + i), USBFS_1_ARB_EPX_CFG_DEFAULT);
 847              		.loc 1 414 0
 848 0010 BB79     		ldrb	r3, [r7, #6]	@ zero_extendqisi2
 849 0012 03F18043 		add	r3, r3, #1073741824
 850 0016 03F5C143 		add	r3, r3, #24704
 851 001a 0C22     		movs	r2, #12
 852 001c 1A70     		strb	r2, [r3]
 415:.\Generated_Source\PSoC5/USBFS_1_std.c ****         #if(USBFS_1_EP_MM != USBFS_1__EP_MANUAL)
 416:.\Generated_Source\PSoC5/USBFS_1_std.c ****             /* Enable all Arbiter EP Interrupts : err, buf under, buf over, dma gnt(mode2 only), in
 417:.\Generated_Source\PSoC5/USBFS_1_std.c ****             CY_SET_REG8((reg8 *)(USBFS_1_ARB_EP1_INT_EN_IND + i), USBFS_1_ARB_EPX_INT_MASK);
 418:.\Generated_Source\PSoC5/USBFS_1_std.c ****         #endif   /*  USBFS_1_EP_MM != USBFS_1__EP_MANUAL */
 419:.\Generated_Source\PSoC5/USBFS_1_std.c **** 
 420:.\Generated_Source\PSoC5/USBFS_1_std.c ****         if(USBFS_1_EP[ep].epMode != USBFS_1_MODE_DISABLE)
 853              		.loc 1 420 0
 854 001e FA79     		ldrb	r2, [r7, #7]	@ zero_extendqisi2
 855 0020 4E49     		ldr	r1, .L76
 856 0022 1346     		mov	r3, r2
 857 0024 5B00     		lsls	r3, r3, #1
 858 0026 1344     		add	r3, r3, r2
 859 0028 9B00     		lsls	r3, r3, #2
 860 002a 0B44     		add	r3, r3, r1
 861 002c 5B79     		ldrb	r3, [r3, #5]
 862 002e DBB2     		uxtb	r3, r3
 863 0030 002B     		cmp	r3, #0
 864 0032 18D0     		beq	.L71
 421:.\Generated_Source\PSoC5/USBFS_1_std.c ****         {
 422:.\Generated_Source\PSoC5/USBFS_1_std.c ****             if((USBFS_1_EP[ep].addr & USBFS_1_DIR_IN) != 0u )
 865              		.loc 1 422 0
 866 0034 FA79     		ldrb	r2, [r7, #7]	@ zero_extendqisi2
 867 0036 4949     		ldr	r1, .L76
 868 0038 1346     		mov	r3, r2
 869 003a 5B00     		lsls	r3, r3, #1
 870 003c 1344     		add	r3, r3, r2
 871 003e 9B00     		lsls	r3, r3, #2
 872 0040 0B44     		add	r3, r3, r1
 873 0042 1B79     		ldrb	r3, [r3, #4]
 874 0044 DBB2     		uxtb	r3, r3
 875 0046 DBB2     		uxtb	r3, r3
 876 0048 5BB2     		sxtb	r3, r3
 877 004a 002B     		cmp	r3, #0
 878 004c 05DA     		bge	.L72
 423:.\Generated_Source\PSoC5/USBFS_1_std.c ****             {
 424:.\Generated_Source\PSoC5/USBFS_1_std.c ****                 CY_SET_REG8((reg8 *)(USBFS_1_SIE_EP1_CR0_IND + i), USBFS_1_MODE_NAK_IN);
ARM GAS  C:\Users\JohnP\AppData\Local\Temp\ccNdEQvR.s 			page 25


 879              		.loc 1 424 0
 880 004e BA79     		ldrb	r2, [r7, #6]	@ zero_extendqisi2
 881 0050 434B     		ldr	r3, .L76+4
 882 0052 1344     		add	r3, r3, r2
 883 0054 0C22     		movs	r2, #12
 884 0056 1A70     		strb	r2, [r3]
 885 0058 0AE0     		b	.L74
 886              	.L72:
 425:.\Generated_Source\PSoC5/USBFS_1_std.c ****             }
 426:.\Generated_Source\PSoC5/USBFS_1_std.c ****             else
 427:.\Generated_Source\PSoC5/USBFS_1_std.c ****             {
 428:.\Generated_Source\PSoC5/USBFS_1_std.c ****                 CY_SET_REG8((reg8 *)(USBFS_1_SIE_EP1_CR0_IND + i), USBFS_1_MODE_NAK_OUT);
 887              		.loc 1 428 0
 888 005a BA79     		ldrb	r2, [r7, #6]	@ zero_extendqisi2
 889 005c 404B     		ldr	r3, .L76+4
 890 005e 1344     		add	r3, r3, r2
 891 0060 0822     		movs	r2, #8
 892 0062 1A70     		strb	r2, [r3]
 893 0064 04E0     		b	.L74
 894              	.L71:
 429:.\Generated_Source\PSoC5/USBFS_1_std.c ****                 /* Prepare EP type mask for automatic memory allocation */
 430:.\Generated_Source\PSoC5/USBFS_1_std.c ****                 #if(USBFS_1_EP_MM == USBFS_1__EP_DMAAUTO)
 431:.\Generated_Source\PSoC5/USBFS_1_std.c ****                     epType |= (uint8)(0x01u << (ep - USBFS_1_EP1));
 432:.\Generated_Source\PSoC5/USBFS_1_std.c ****                 #endif /*  USBFS_1_EP_MM == USBFS_1__EP_DMAAUTO */
 433:.\Generated_Source\PSoC5/USBFS_1_std.c ****             }
 434:.\Generated_Source\PSoC5/USBFS_1_std.c ****         }
 435:.\Generated_Source\PSoC5/USBFS_1_std.c ****         else
 436:.\Generated_Source\PSoC5/USBFS_1_std.c ****         {
 437:.\Generated_Source\PSoC5/USBFS_1_std.c ****             CY_SET_REG8((reg8 *)(USBFS_1_SIE_EP1_CR0_IND + i), USBFS_1_MODE_STALL_DATA_EP);
 895              		.loc 1 437 0
 896 0066 BA79     		ldrb	r2, [r7, #6]	@ zero_extendqisi2
 897 0068 3D4B     		ldr	r3, .L76+4
 898 006a 1344     		add	r3, r3, r2
 899 006c 8022     		movs	r2, #128
 900 006e 1A70     		strb	r2, [r3]
 901              	.L74:
 438:.\Generated_Source\PSoC5/USBFS_1_std.c ****         }
 439:.\Generated_Source\PSoC5/USBFS_1_std.c **** 
 440:.\Generated_Source\PSoC5/USBFS_1_std.c ****         #if(USBFS_1_EP_MM != USBFS_1__EP_DMAAUTO)
 441:.\Generated_Source\PSoC5/USBFS_1_std.c ****             CY_SET_REG8((reg8 *)(USBFS_1_SIE_EP1_CNT0_IND + i),   USBFS_1_EP[ep].bufferSize >> 8u);
 902              		.loc 1 441 0
 903 0070 BA79     		ldrb	r2, [r7, #6]	@ zero_extendqisi2
 904 0072 3C4B     		ldr	r3, .L76+8
 905 0074 1344     		add	r3, r3, r2
 906 0076 1946     		mov	r1, r3
 907 0078 FA79     		ldrb	r2, [r7, #7]	@ zero_extendqisi2
 908 007a 3848     		ldr	r0, .L76
 909 007c 1346     		mov	r3, r2
 910 007e 5B00     		lsls	r3, r3, #1
 911 0080 1344     		add	r3, r3, r2
 912 0082 9B00     		lsls	r3, r3, #2
 913 0084 0344     		add	r3, r3, r0
 914 0086 0833     		adds	r3, r3, #8
 915 0088 1B88     		ldrh	r3, [r3]	@ movhi
 916 008a 9BB2     		uxth	r3, r3
 917 008c 1B0A     		lsrs	r3, r3, #8
 918 008e 9BB2     		uxth	r3, r3
ARM GAS  C:\Users\JohnP\AppData\Local\Temp\ccNdEQvR.s 			page 26


 919 0090 DBB2     		uxtb	r3, r3
 920 0092 0B70     		strb	r3, [r1]
 442:.\Generated_Source\PSoC5/USBFS_1_std.c ****             CY_SET_REG8((reg8 *)(USBFS_1_SIE_EP1_CNT1_IND + i),   USBFS_1_EP[ep].bufferSize & 0xFFu
 921              		.loc 1 442 0
 922 0094 BA79     		ldrb	r2, [r7, #6]	@ zero_extendqisi2
 923 0096 344B     		ldr	r3, .L76+12
 924 0098 1344     		add	r3, r3, r2
 925 009a 1946     		mov	r1, r3
 926 009c FA79     		ldrb	r2, [r7, #7]	@ zero_extendqisi2
 927 009e 2F48     		ldr	r0, .L76
 928 00a0 1346     		mov	r3, r2
 929 00a2 5B00     		lsls	r3, r3, #1
 930 00a4 1344     		add	r3, r3, r2
 931 00a6 9B00     		lsls	r3, r3, #2
 932 00a8 0344     		add	r3, r3, r0
 933 00aa 0833     		adds	r3, r3, #8
 934 00ac 1B88     		ldrh	r3, [r3]	@ movhi
 935 00ae 9BB2     		uxth	r3, r3
 936 00b0 DBB2     		uxtb	r3, r3
 937 00b2 0B70     		strb	r3, [r1]
 443:.\Generated_Source\PSoC5/USBFS_1_std.c **** 
 444:.\Generated_Source\PSoC5/USBFS_1_std.c ****             CY_SET_REG8((reg8 *)(USBFS_1_ARB_RW1_RA_IND + i),     USBFS_1_EP[ep].buffOffset & 0xFFu
 938              		.loc 1 444 0
 939 00b4 BA79     		ldrb	r2, [r7, #6]	@ zero_extendqisi2
 940 00b6 2D4B     		ldr	r3, .L76+16
 941 00b8 1344     		add	r3, r3, r2
 942 00ba 1946     		mov	r1, r3
 943 00bc FA79     		ldrb	r2, [r7, #7]	@ zero_extendqisi2
 944 00be 2748     		ldr	r0, .L76
 945 00c0 1346     		mov	r3, r2
 946 00c2 5B00     		lsls	r3, r3, #1
 947 00c4 1344     		add	r3, r3, r2
 948 00c6 9B00     		lsls	r3, r3, #2
 949 00c8 0344     		add	r3, r3, r0
 950 00ca DB88     		ldrh	r3, [r3, #6]	@ movhi
 951 00cc 9BB2     		uxth	r3, r3
 952 00ce DBB2     		uxtb	r3, r3
 953 00d0 0B70     		strb	r3, [r1]
 445:.\Generated_Source\PSoC5/USBFS_1_std.c ****             CY_SET_REG8((reg8 *)(USBFS_1_ARB_RW1_RA_MSB_IND + i), USBFS_1_EP[ep].buffOffset >> 8u);
 954              		.loc 1 445 0
 955 00d2 BA79     		ldrb	r2, [r7, #6]	@ zero_extendqisi2
 956 00d4 264B     		ldr	r3, .L76+20
 957 00d6 1344     		add	r3, r3, r2
 958 00d8 1946     		mov	r1, r3
 959 00da FA79     		ldrb	r2, [r7, #7]	@ zero_extendqisi2
 960 00dc 1F48     		ldr	r0, .L76
 961 00de 1346     		mov	r3, r2
 962 00e0 5B00     		lsls	r3, r3, #1
 963 00e2 1344     		add	r3, r3, r2
 964 00e4 9B00     		lsls	r3, r3, #2
 965 00e6 0344     		add	r3, r3, r0
 966 00e8 DB88     		ldrh	r3, [r3, #6]	@ movhi
 967 00ea 9BB2     		uxth	r3, r3
 968 00ec 1B0A     		lsrs	r3, r3, #8
 969 00ee 9BB2     		uxth	r3, r3
 970 00f0 DBB2     		uxtb	r3, r3
 971 00f2 0B70     		strb	r3, [r1]
ARM GAS  C:\Users\JohnP\AppData\Local\Temp\ccNdEQvR.s 			page 27


 446:.\Generated_Source\PSoC5/USBFS_1_std.c ****             CY_SET_REG8((reg8 *)(USBFS_1_ARB_RW1_WA_IND + i),     USBFS_1_EP[ep].buffOffset & 0xFFu
 972              		.loc 1 446 0
 973 00f4 BA79     		ldrb	r2, [r7, #6]	@ zero_extendqisi2
 974 00f6 1F4B     		ldr	r3, .L76+24
 975 00f8 1344     		add	r3, r3, r2
 976 00fa 1946     		mov	r1, r3
 977 00fc FA79     		ldrb	r2, [r7, #7]	@ zero_extendqisi2
 978 00fe 1748     		ldr	r0, .L76
 979 0100 1346     		mov	r3, r2
 980 0102 5B00     		lsls	r3, r3, #1
 981 0104 1344     		add	r3, r3, r2
 982 0106 9B00     		lsls	r3, r3, #2
 983 0108 0344     		add	r3, r3, r0
 984 010a DB88     		ldrh	r3, [r3, #6]	@ movhi
 985 010c 9BB2     		uxth	r3, r3
 986 010e DBB2     		uxtb	r3, r3
 987 0110 0B70     		strb	r3, [r1]
 447:.\Generated_Source\PSoC5/USBFS_1_std.c ****             CY_SET_REG8((reg8 *)(USBFS_1_ARB_RW1_WA_MSB_IND + i), USBFS_1_EP[ep].buffOffset >> 8u);
 988              		.loc 1 447 0
 989 0112 BA79     		ldrb	r2, [r7, #6]	@ zero_extendqisi2
 990 0114 184B     		ldr	r3, .L76+28
 991 0116 1344     		add	r3, r3, r2
 992 0118 1946     		mov	r1, r3
 993 011a FA79     		ldrb	r2, [r7, #7]	@ zero_extendqisi2
 994 011c 0F48     		ldr	r0, .L76
 995 011e 1346     		mov	r3, r2
 996 0120 5B00     		lsls	r3, r3, #1
 997 0122 1344     		add	r3, r3, r2
 998 0124 9B00     		lsls	r3, r3, #2
 999 0126 0344     		add	r3, r3, r0
 1000 0128 DB88     		ldrh	r3, [r3, #6]	@ movhi
 1001 012a 9BB2     		uxth	r3, r3
 1002 012c 1B0A     		lsrs	r3, r3, #8
 1003 012e 9BB2     		uxth	r3, r3
 1004 0130 DBB2     		uxtb	r3, r3
 1005 0132 0B70     		strb	r3, [r1]
 448:.\Generated_Source\PSoC5/USBFS_1_std.c ****         #endif /*  USBFS_1_EP_MM != USBFS_1__EP_DMAAUTO */
 449:.\Generated_Source\PSoC5/USBFS_1_std.c **** 
 450:.\Generated_Source\PSoC5/USBFS_1_std.c ****         ep++;
 1006              		.loc 1 450 0
 1007 0134 FB79     		ldrb	r3, [r7, #7]	@ zero_extendqisi2
 1008 0136 0133     		adds	r3, r3, #1
 1009 0138 FB71     		strb	r3, [r7, #7]
 412:.\Generated_Source\PSoC5/USBFS_1_std.c ****     for (i = 0u; i < 0x80u; i+= 0x10u)
 1010              		.loc 1 412 0
 1011 013a BB79     		ldrb	r3, [r7, #6]
 1012 013c 1033     		adds	r3, r3, #16
 1013 013e BB71     		strb	r3, [r7, #6]
 1014              	.L70:
 412:.\Generated_Source\PSoC5/USBFS_1_std.c ****     for (i = 0u; i < 0x80u; i+= 0x10u)
 1015              		.loc 1 412 0 is_stmt 0 discriminator 1
 1016 0140 BB79     		ldrb	r3, [r7, #6]	@ zero_extendqisi2
 1017 0142 5BB2     		sxtb	r3, r3
 1018 0144 002B     		cmp	r3, #0
 1019 0146 BFF663AF 		bge	.L75
 451:.\Generated_Source\PSoC5/USBFS_1_std.c ****     }
 452:.\Generated_Source\PSoC5/USBFS_1_std.c **** 
ARM GAS  C:\Users\JohnP\AppData\Local\Temp\ccNdEQvR.s 			page 28


 453:.\Generated_Source\PSoC5/USBFS_1_std.c ****     #if(USBFS_1_EP_MM == USBFS_1__EP_DMAAUTO)
 454:.\Generated_Source\PSoC5/USBFS_1_std.c ****          /* BUF_SIZE depend on DMA_THRESS value: 55-32 bytes  44-16 bytes 33-8 bytes 22-4 bytes 11-
 455:.\Generated_Source\PSoC5/USBFS_1_std.c ****         USBFS_1_BUF_SIZE_REG = USBFS_1_DMA_BUF_SIZE;
 456:.\Generated_Source\PSoC5/USBFS_1_std.c ****         USBFS_1_DMA_THRES_REG = USBFS_1_DMA_BYTES_PER_BURST;   /* DMA burst threshold */
 457:.\Generated_Source\PSoC5/USBFS_1_std.c ****         USBFS_1_DMA_THRES_MSB_REG = 0u;
 458:.\Generated_Source\PSoC5/USBFS_1_std.c ****         USBFS_1_EP_ACTIVE_REG = USBFS_1_ARB_INT_MASK;
 459:.\Generated_Source\PSoC5/USBFS_1_std.c ****         USBFS_1_EP_TYPE_REG = epType;
 460:.\Generated_Source\PSoC5/USBFS_1_std.c ****         /* Cfg_cmp bit set to 1 once configuration is complete. */
 461:.\Generated_Source\PSoC5/USBFS_1_std.c ****         USBFS_1_ARB_CFG_REG = USBFS_1_ARB_CFG_AUTO_DMA | USBFS_1_ARB_CFG_AUTO_MEM |
 462:.\Generated_Source\PSoC5/USBFS_1_std.c ****                                        USBFS_1_ARB_CFG_CFG_CPM;
 463:.\Generated_Source\PSoC5/USBFS_1_std.c ****         /* Cfg_cmp bit set to 0 during configuration of PFSUSB Registers. */
 464:.\Generated_Source\PSoC5/USBFS_1_std.c ****         USBFS_1_ARB_CFG_REG = USBFS_1_ARB_CFG_AUTO_DMA | USBFS_1_ARB_CFG_AUTO_MEM;
 465:.\Generated_Source\PSoC5/USBFS_1_std.c ****     #endif /*  USBFS_1_EP_MM == USBFS_1__EP_DMAAUTO */
 466:.\Generated_Source\PSoC5/USBFS_1_std.c **** 
 467:.\Generated_Source\PSoC5/USBFS_1_std.c ****     CY_SET_REG8(USBFS_1_SIE_EP_INT_EN_PTR, 0xFFu);
 1020              		.loc 1 467 0 is_stmt 1
 1021 014a 0C4B     		ldr	r3, .L76+32
 1022 014c FF22     		movs	r2, #255
 1023 014e 1A70     		strb	r2, [r3]
 468:.\Generated_Source\PSoC5/USBFS_1_std.c **** }
 1024              		.loc 1 468 0
 1025 0150 0C37     		adds	r7, r7, #12
 1026 0152 BD46     		mov	sp, r7
 1027              		@ sp needed
 1028 0154 5DF8047B 		ldr	r7, [sp], #4
 1029 0158 7047     		bx	lr
 1030              	.L77:
 1031 015a 00BF     		.align	2
 1032              	.L76:
 1033 015c 00000000 		.word	USBFS_1_EP
 1034 0160 0E600040 		.word	1073766414
 1035 0164 0C600040 		.word	1073766412
 1036 0168 0D600040 		.word	1073766413
 1037 016c 86600040 		.word	1073766534
 1038 0170 87600040 		.word	1073766535
 1039 0174 84600040 		.word	1073766532
 1040 0178 85600040 		.word	1073766533
 1041 017c 0A600040 		.word	1073766410
 1042              		.cfi_endproc
 1043              	.LFE2:
 1044              		.size	USBFS_1_ConfigReg, .-USBFS_1_ConfigReg
 1045              		.section	.text.USBFS_1_Config,"ax",%progbits
 1046              		.align	2
 1047              		.global	USBFS_1_Config
 1048              		.thumb
 1049              		.thumb_func
 1050              		.type	USBFS_1_Config, %function
 1051              	USBFS_1_Config:
 1052              	.LFB3:
 469:.\Generated_Source\PSoC5/USBFS_1_std.c **** 
 470:.\Generated_Source\PSoC5/USBFS_1_std.c **** 
 471:.\Generated_Source\PSoC5/USBFS_1_std.c **** /*******************************************************************************
 472:.\Generated_Source\PSoC5/USBFS_1_std.c **** * Function Name: USBFS_1_Config
 473:.\Generated_Source\PSoC5/USBFS_1_std.c **** ********************************************************************************
 474:.\Generated_Source\PSoC5/USBFS_1_std.c **** *
 475:.\Generated_Source\PSoC5/USBFS_1_std.c **** * Summary:
 476:.\Generated_Source\PSoC5/USBFS_1_std.c **** *  This routine configures endpoints for the entire configuration by scanning
ARM GAS  C:\Users\JohnP\AppData\Local\Temp\ccNdEQvR.s 			page 29


 477:.\Generated_Source\PSoC5/USBFS_1_std.c **** *  the configuration descriptor.
 478:.\Generated_Source\PSoC5/USBFS_1_std.c **** *
 479:.\Generated_Source\PSoC5/USBFS_1_std.c **** * Parameters:
 480:.\Generated_Source\PSoC5/USBFS_1_std.c **** *  clearAltSetting: It configures the bAlternateSetting 0 for each interface.
 481:.\Generated_Source\PSoC5/USBFS_1_std.c **** *
 482:.\Generated_Source\PSoC5/USBFS_1_std.c **** * Return:
 483:.\Generated_Source\PSoC5/USBFS_1_std.c **** *  None.
 484:.\Generated_Source\PSoC5/USBFS_1_std.c **** *
 485:.\Generated_Source\PSoC5/USBFS_1_std.c **** * USBFS_1_interfaceClass - Initialized class array for each interface.
 486:.\Generated_Source\PSoC5/USBFS_1_std.c **** *   It is used for handling Class specific requests depend on interface class.
 487:.\Generated_Source\PSoC5/USBFS_1_std.c **** *   Different classes in multiple Alternate settings does not supported.
 488:.\Generated_Source\PSoC5/USBFS_1_std.c **** *
 489:.\Generated_Source\PSoC5/USBFS_1_std.c **** * Reentrant:
 490:.\Generated_Source\PSoC5/USBFS_1_std.c **** *  No.
 491:.\Generated_Source\PSoC5/USBFS_1_std.c **** *
 492:.\Generated_Source\PSoC5/USBFS_1_std.c **** *******************************************************************************/
 493:.\Generated_Source\PSoC5/USBFS_1_std.c **** void USBFS_1_Config(uint8 clearAltSetting) 
 494:.\Generated_Source\PSoC5/USBFS_1_std.c **** {
 1053              		.loc 1 494 0
 1054              		.cfi_startproc
 1055              		@ args = 0, pretend = 0, frame = 32
 1056              		@ frame_needed = 1, uses_anonymous_args = 0
 1057 0000 80B5     		push	{r7, lr}
 1058              		.cfi_def_cfa_offset 8
 1059              		.cfi_offset 7, -8
 1060              		.cfi_offset 14, -4
 1061 0002 88B0     		sub	sp, sp, #32
 1062              		.cfi_def_cfa_offset 40
 1063 0004 00AF     		add	r7, sp, #0
 1064              		.cfi_def_cfa_register 7
 1065 0006 0346     		mov	r3, r0
 1066 0008 FB71     		strb	r3, [r7, #7]
 495:.\Generated_Source\PSoC5/USBFS_1_std.c ****     uint8 ep;
 496:.\Generated_Source\PSoC5/USBFS_1_std.c ****     uint8 cur_ep;
 497:.\Generated_Source\PSoC5/USBFS_1_std.c ****     uint8 i;
 498:.\Generated_Source\PSoC5/USBFS_1_std.c ****     uint8 epType;
 499:.\Generated_Source\PSoC5/USBFS_1_std.c ****     const uint8 *pDescr;
 500:.\Generated_Source\PSoC5/USBFS_1_std.c ****     #if(USBFS_1_EP_MM != USBFS_1__EP_DMAAUTO)
 501:.\Generated_Source\PSoC5/USBFS_1_std.c ****         uint16 buffCount = 0u;
 1067              		.loc 1 501 0
 1068 000a 0023     		movs	r3, #0
 1069 000c 7B83     		strh	r3, [r7, #26]	@ movhi
 502:.\Generated_Source\PSoC5/USBFS_1_std.c ****     #endif /*  USBFS_1_EP_MM != USBFS_1__EP_DMAAUTO */
 503:.\Generated_Source\PSoC5/USBFS_1_std.c **** 
 504:.\Generated_Source\PSoC5/USBFS_1_std.c ****     const T_USBFS_1_LUT CYCODE *pTmp;
 505:.\Generated_Source\PSoC5/USBFS_1_std.c ****     const T_USBFS_1_EP_SETTINGS_BLOCK CYCODE *pEP;
 506:.\Generated_Source\PSoC5/USBFS_1_std.c **** 
 507:.\Generated_Source\PSoC5/USBFS_1_std.c ****     /* Clear all of the endpoints */
 508:.\Generated_Source\PSoC5/USBFS_1_std.c ****     for (ep = 0u; ep < USBFS_1_MAX_EP; ep++)
 1070              		.loc 1 508 0
 1071 000e 0023     		movs	r3, #0
 1072 0010 FB77     		strb	r3, [r7, #31]
 1073 0012 43E0     		b	.L79
 1074              	.L80:
 509:.\Generated_Source\PSoC5/USBFS_1_std.c ****     {
 510:.\Generated_Source\PSoC5/USBFS_1_std.c ****         USBFS_1_EP[ep].attrib = 0u;
 1075              		.loc 1 510 0 discriminator 2
ARM GAS  C:\Users\JohnP\AppData\Local\Temp\ccNdEQvR.s 			page 30


 1076 0014 FA7F     		ldrb	r2, [r7, #31]	@ zero_extendqisi2
 1077 0016 A349     		ldr	r1, .L103
 1078 0018 1346     		mov	r3, r2
 1079 001a 5B00     		lsls	r3, r3, #1
 1080 001c 1344     		add	r3, r3, r2
 1081 001e 9B00     		lsls	r3, r3, #2
 1082 0020 0B44     		add	r3, r3, r1
 1083 0022 0022     		movs	r2, #0
 1084 0024 1A70     		strb	r2, [r3]
 511:.\Generated_Source\PSoC5/USBFS_1_std.c ****         USBFS_1_EP[ep].hwEpState = 0u;
 1085              		.loc 1 511 0 discriminator 2
 1086 0026 FA7F     		ldrb	r2, [r7, #31]	@ zero_extendqisi2
 1087 0028 9E49     		ldr	r1, .L103
 1088 002a 1346     		mov	r3, r2
 1089 002c 5B00     		lsls	r3, r3, #1
 1090 002e 1344     		add	r3, r3, r2
 1091 0030 9B00     		lsls	r3, r3, #2
 1092 0032 0B44     		add	r3, r3, r1
 1093 0034 0022     		movs	r2, #0
 1094 0036 9A70     		strb	r2, [r3, #2]
 512:.\Generated_Source\PSoC5/USBFS_1_std.c ****         USBFS_1_EP[ep].apiEpState = USBFS_1_NO_EVENT_PENDING;
 1095              		.loc 1 512 0 discriminator 2
 1096 0038 FA7F     		ldrb	r2, [r7, #31]	@ zero_extendqisi2
 1097 003a 9A49     		ldr	r1, .L103
 1098 003c 1346     		mov	r3, r2
 1099 003e 5B00     		lsls	r3, r3, #1
 1100 0040 1344     		add	r3, r3, r2
 1101 0042 9B00     		lsls	r3, r3, #2
 1102 0044 0B44     		add	r3, r3, r1
 1103 0046 0022     		movs	r2, #0
 1104 0048 5A70     		strb	r2, [r3, #1]
 513:.\Generated_Source\PSoC5/USBFS_1_std.c ****         USBFS_1_EP[ep].epToggle = 0u;
 1105              		.loc 1 513 0 discriminator 2
 1106 004a FA7F     		ldrb	r2, [r7, #31]	@ zero_extendqisi2
 1107 004c 9549     		ldr	r1, .L103
 1108 004e 1346     		mov	r3, r2
 1109 0050 5B00     		lsls	r3, r3, #1
 1110 0052 1344     		add	r3, r3, r2
 1111 0054 9B00     		lsls	r3, r3, #2
 1112 0056 0B44     		add	r3, r3, r1
 1113 0058 0022     		movs	r2, #0
 1114 005a DA70     		strb	r2, [r3, #3]
 514:.\Generated_Source\PSoC5/USBFS_1_std.c ****         USBFS_1_EP[ep].epMode = USBFS_1_MODE_DISABLE;
 1115              		.loc 1 514 0 discriminator 2
 1116 005c FA7F     		ldrb	r2, [r7, #31]	@ zero_extendqisi2
 1117 005e 9149     		ldr	r1, .L103
 1118 0060 1346     		mov	r3, r2
 1119 0062 5B00     		lsls	r3, r3, #1
 1120 0064 1344     		add	r3, r3, r2
 1121 0066 9B00     		lsls	r3, r3, #2
 1122 0068 0B44     		add	r3, r3, r1
 1123 006a 0022     		movs	r2, #0
 1124 006c 5A71     		strb	r2, [r3, #5]
 515:.\Generated_Source\PSoC5/USBFS_1_std.c ****         USBFS_1_EP[ep].bufferSize = 0u;
 1125              		.loc 1 515 0 discriminator 2
 1126 006e FA7F     		ldrb	r2, [r7, #31]	@ zero_extendqisi2
 1127 0070 8C49     		ldr	r1, .L103
ARM GAS  C:\Users\JohnP\AppData\Local\Temp\ccNdEQvR.s 			page 31


 1128 0072 1346     		mov	r3, r2
 1129 0074 5B00     		lsls	r3, r3, #1
 1130 0076 1344     		add	r3, r3, r2
 1131 0078 9B00     		lsls	r3, r3, #2
 1132 007a 0B44     		add	r3, r3, r1
 1133 007c 0833     		adds	r3, r3, #8
 1134 007e 0022     		movs	r2, #0
 1135 0080 1A80     		strh	r2, [r3]	@ movhi
 516:.\Generated_Source\PSoC5/USBFS_1_std.c ****         USBFS_1_EP[ep].interface = 0u;
 1136              		.loc 1 516 0 discriminator 2
 1137 0082 FA7F     		ldrb	r2, [r7, #31]	@ zero_extendqisi2
 1138 0084 8749     		ldr	r1, .L103
 1139 0086 1346     		mov	r3, r2
 1140 0088 5B00     		lsls	r3, r3, #1
 1141 008a 1344     		add	r3, r3, r2
 1142 008c 9B00     		lsls	r3, r3, #2
 1143 008e 0B44     		add	r3, r3, r1
 1144 0090 0833     		adds	r3, r3, #8
 1145 0092 0022     		movs	r2, #0
 1146 0094 9A70     		strb	r2, [r3, #2]
 508:.\Generated_Source\PSoC5/USBFS_1_std.c ****     for (ep = 0u; ep < USBFS_1_MAX_EP; ep++)
 1147              		.loc 1 508 0 discriminator 2
 1148 0096 FB7F     		ldrb	r3, [r7, #31]	@ zero_extendqisi2
 1149 0098 0133     		adds	r3, r3, #1
 1150 009a FB77     		strb	r3, [r7, #31]
 1151              	.L79:
 508:.\Generated_Source\PSoC5/USBFS_1_std.c ****     for (ep = 0u; ep < USBFS_1_MAX_EP; ep++)
 1152              		.loc 1 508 0 is_stmt 0 discriminator 1
 1153 009c FB7F     		ldrb	r3, [r7, #31]	@ zero_extendqisi2
 1154 009e 082B     		cmp	r3, #8
 1155 00a0 B8D9     		bls	.L80
 517:.\Generated_Source\PSoC5/USBFS_1_std.c **** 
 518:.\Generated_Source\PSoC5/USBFS_1_std.c ****     }
 519:.\Generated_Source\PSoC5/USBFS_1_std.c **** 
 520:.\Generated_Source\PSoC5/USBFS_1_std.c ****     /* Clear Alternate settings for all interfaces */
 521:.\Generated_Source\PSoC5/USBFS_1_std.c ****     if(clearAltSetting != 0u)
 1156              		.loc 1 521 0 is_stmt 1
 1157 00a2 FB79     		ldrb	r3, [r7, #7]	@ zero_extendqisi2
 1158 00a4 002B     		cmp	r3, #0
 1159 00a6 10D0     		beq	.L81
 522:.\Generated_Source\PSoC5/USBFS_1_std.c ****     {
 523:.\Generated_Source\PSoC5/USBFS_1_std.c ****         for (i = 0u; i < USBFS_1_MAX_INTERFACES_NUMBER; i++)
 1160              		.loc 1 523 0
 1161 00a8 0023     		movs	r3, #0
 1162 00aa 7B77     		strb	r3, [r7, #29]
 1163 00ac 0AE0     		b	.L82
 1164              	.L83:
 524:.\Generated_Source\PSoC5/USBFS_1_std.c ****         {
 525:.\Generated_Source\PSoC5/USBFS_1_std.c ****             USBFS_1_interfaceSetting[i] = 0x00u;
 1165              		.loc 1 525 0 discriminator 2
 1166 00ae 7B7F     		ldrb	r3, [r7, #29]	@ zero_extendqisi2
 1167 00b0 7D4A     		ldr	r2, .L103+4
 1168 00b2 0021     		movs	r1, #0
 1169 00b4 D154     		strb	r1, [r2, r3]
 526:.\Generated_Source\PSoC5/USBFS_1_std.c ****             USBFS_1_interfaceSetting_last[i] = 0x00u;
 1170              		.loc 1 526 0 discriminator 2
 1171 00b6 7B7F     		ldrb	r3, [r7, #29]	@ zero_extendqisi2
ARM GAS  C:\Users\JohnP\AppData\Local\Temp\ccNdEQvR.s 			page 32


 1172 00b8 7C4A     		ldr	r2, .L103+8
 1173 00ba 0021     		movs	r1, #0
 1174 00bc D154     		strb	r1, [r2, r3]
 523:.\Generated_Source\PSoC5/USBFS_1_std.c ****         for (i = 0u; i < USBFS_1_MAX_INTERFACES_NUMBER; i++)
 1175              		.loc 1 523 0 discriminator 2
 1176 00be 7B7F     		ldrb	r3, [r7, #29]	@ zero_extendqisi2
 1177 00c0 0133     		adds	r3, r3, #1
 1178 00c2 7B77     		strb	r3, [r7, #29]
 1179              	.L82:
 523:.\Generated_Source\PSoC5/USBFS_1_std.c ****         for (i = 0u; i < USBFS_1_MAX_INTERFACES_NUMBER; i++)
 1180              		.loc 1 523 0 is_stmt 0 discriminator 1
 1181 00c4 7B7F     		ldrb	r3, [r7, #29]	@ zero_extendqisi2
 1182 00c6 002B     		cmp	r3, #0
 1183 00c8 F1D0     		beq	.L83
 1184              	.L81:
 527:.\Generated_Source\PSoC5/USBFS_1_std.c ****         }
 528:.\Generated_Source\PSoC5/USBFS_1_std.c ****     }
 529:.\Generated_Source\PSoC5/USBFS_1_std.c **** 
 530:.\Generated_Source\PSoC5/USBFS_1_std.c ****     /* Init Endpoints and Device Status if configured */
 531:.\Generated_Source\PSoC5/USBFS_1_std.c ****     if(USBFS_1_configuration > 0u)
 1185              		.loc 1 531 0 is_stmt 1
 1186 00ca 794B     		ldr	r3, .L103+12
 1187 00cc 1B78     		ldrb	r3, [r3]
 1188 00ce DBB2     		uxtb	r3, r3
 1189 00d0 002B     		cmp	r3, #0
 1190 00d2 00F01181 		beq	.L78
 532:.\Generated_Source\PSoC5/USBFS_1_std.c ****     {
 533:.\Generated_Source\PSoC5/USBFS_1_std.c ****         pTmp = USBFS_1_GetConfigTablePtr(USBFS_1_configuration - 1u);
 1191              		.loc 1 533 0
 1192 00d6 764B     		ldr	r3, .L103+12
 1193 00d8 1B78     		ldrb	r3, [r3]
 1194 00da DBB2     		uxtb	r3, r3
 1195 00dc 013B     		subs	r3, r3, #1
 1196 00de DBB2     		uxtb	r3, r3
 1197 00e0 1846     		mov	r0, r3
 1198 00e2 FFF7FEFF 		bl	USBFS_1_GetConfigTablePtr
 1199 00e6 3861     		str	r0, [r7, #16]
 534:.\Generated_Source\PSoC5/USBFS_1_std.c ****         /* Set Power status for current configuration */
 535:.\Generated_Source\PSoC5/USBFS_1_std.c ****         pDescr = (const uint8 *)pTmp->p_list;
 1200              		.loc 1 535 0
 1201 00e8 3B69     		ldr	r3, [r7, #16]
 1202 00ea 5B68     		ldr	r3, [r3, #4]
 1203 00ec FB60     		str	r3, [r7, #12]
 536:.\Generated_Source\PSoC5/USBFS_1_std.c ****         if((pDescr[USBFS_1_CONFIG_DESCR_ATTRIB] & USBFS_1_CONFIG_DESCR_ATTRIB_SELF_POWERED) != 0u)
 1204              		.loc 1 536 0
 1205 00ee FB68     		ldr	r3, [r7, #12]
 1206 00f0 0733     		adds	r3, r3, #7
 1207 00f2 1B78     		ldrb	r3, [r3]	@ zero_extendqisi2
 1208 00f4 03F04003 		and	r3, r3, #64
 1209 00f8 002B     		cmp	r3, #0
 1210 00fa 08D0     		beq	.L85
 537:.\Generated_Source\PSoC5/USBFS_1_std.c ****         {
 538:.\Generated_Source\PSoC5/USBFS_1_std.c ****             USBFS_1_deviceStatus |=  USBFS_1_DEVICE_STATUS_SELF_POWERED;
 1211              		.loc 1 538 0
 1212 00fc 6D4B     		ldr	r3, .L103+16
 1213 00fe 1B78     		ldrb	r3, [r3]
 1214 0100 DBB2     		uxtb	r3, r3
ARM GAS  C:\Users\JohnP\AppData\Local\Temp\ccNdEQvR.s 			page 33


 1215 0102 43F00103 		orr	r3, r3, #1
 1216 0106 DAB2     		uxtb	r2, r3
 1217 0108 6A4B     		ldr	r3, .L103+16
 1218 010a 1A70     		strb	r2, [r3]
 1219 010c 07E0     		b	.L86
 1220              	.L85:
 539:.\Generated_Source\PSoC5/USBFS_1_std.c ****         }
 540:.\Generated_Source\PSoC5/USBFS_1_std.c ****         else
 541:.\Generated_Source\PSoC5/USBFS_1_std.c ****         {
 542:.\Generated_Source\PSoC5/USBFS_1_std.c ****             USBFS_1_deviceStatus &=  (uint8)~USBFS_1_DEVICE_STATUS_SELF_POWERED;
 1221              		.loc 1 542 0
 1222 010e 694B     		ldr	r3, .L103+16
 1223 0110 1B78     		ldrb	r3, [r3]
 1224 0112 DBB2     		uxtb	r3, r3
 1225 0114 23F00103 		bic	r3, r3, #1
 1226 0118 DAB2     		uxtb	r2, r3
 1227 011a 664B     		ldr	r3, .L103+16
 1228 011c 1A70     		strb	r2, [r3]
 1229              	.L86:
 543:.\Generated_Source\PSoC5/USBFS_1_std.c ****         }
 544:.\Generated_Source\PSoC5/USBFS_1_std.c ****         /* Move to next element */
 545:.\Generated_Source\PSoC5/USBFS_1_std.c ****         pTmp = &pTmp[1u];
 1230              		.loc 1 545 0
 1231 011e 3B69     		ldr	r3, [r7, #16]
 1232 0120 0833     		adds	r3, r3, #8
 1233 0122 3B61     		str	r3, [r7, #16]
 546:.\Generated_Source\PSoC5/USBFS_1_std.c ****         ep = pTmp->c;  /* For this table, c is the number of endpoints configurations  */
 1234              		.loc 1 546 0
 1235 0124 3B69     		ldr	r3, [r7, #16]
 1236 0126 1B78     		ldrb	r3, [r3]
 1237 0128 FB77     		strb	r3, [r7, #31]
 547:.\Generated_Source\PSoC5/USBFS_1_std.c **** 
 548:.\Generated_Source\PSoC5/USBFS_1_std.c ****         #if ((USBFS_1_EP_MA == USBFS_1__MA_DYNAMIC) && \
 549:.\Generated_Source\PSoC5/USBFS_1_std.c ****              (USBFS_1_EP_MM == USBFS_1__EP_MANUAL) )
 550:.\Generated_Source\PSoC5/USBFS_1_std.c ****             /* Configure for dynamic EP memory allocation */
 551:.\Generated_Source\PSoC5/USBFS_1_std.c ****             /* p_list points the endpoint setting table. */
 552:.\Generated_Source\PSoC5/USBFS_1_std.c ****             pEP = (T_USBFS_1_EP_SETTINGS_BLOCK *) pTmp->p_list;
 553:.\Generated_Source\PSoC5/USBFS_1_std.c ****             for (i = 0u; i < ep; i++)
 554:.\Generated_Source\PSoC5/USBFS_1_std.c ****             {
 555:.\Generated_Source\PSoC5/USBFS_1_std.c ****                 /* Compare current Alternate setting with EP Alt */
 556:.\Generated_Source\PSoC5/USBFS_1_std.c ****                 if(USBFS_1_interfaceSetting[pEP->interface] == pEP->altSetting)
 557:.\Generated_Source\PSoC5/USBFS_1_std.c ****                 {
 558:.\Generated_Source\PSoC5/USBFS_1_std.c ****                     cur_ep = pEP->addr & USBFS_1_DIR_UNUSED;
 559:.\Generated_Source\PSoC5/USBFS_1_std.c ****                     epType = pEP->attributes & USBFS_1_EP_TYPE_MASK;
 560:.\Generated_Source\PSoC5/USBFS_1_std.c ****                     if (pEP->addr & USBFS_1_DIR_IN)
 561:.\Generated_Source\PSoC5/USBFS_1_std.c ****                     {
 562:.\Generated_Source\PSoC5/USBFS_1_std.c ****                         /* IN Endpoint */
 563:.\Generated_Source\PSoC5/USBFS_1_std.c ****                         USBFS_1_EP[cur_ep].apiEpState = USBFS_1_EVENT_PENDING;
 564:.\Generated_Source\PSoC5/USBFS_1_std.c ****                         USBFS_1_EP[cur_ep].epMode = (epType == USBFS_1_EP_TYPE_ISOC) ?
 565:.\Generated_Source\PSoC5/USBFS_1_std.c ****                                                         USBFS_1_MODE_ISO_IN : USBFS_1_MODE_ACK_IN;
 566:.\Generated_Source\PSoC5/USBFS_1_std.c ****                         #if defined(USBFS_1_ENABLE_CDC_CLASS)
 567:.\Generated_Source\PSoC5/USBFS_1_std.c ****                             if(((pEP->bMisc == USBFS_1_CLASS_CDC_DATA) ||
 568:.\Generated_Source\PSoC5/USBFS_1_std.c ****                                 (pEP->bMisc == USBFS_1_CLASS_CDC)) &&
 569:.\Generated_Source\PSoC5/USBFS_1_std.c ****                                 (epType != USBFS_1_EP_TYPE_INT))
 570:.\Generated_Source\PSoC5/USBFS_1_std.c ****                             {
 571:.\Generated_Source\PSoC5/USBFS_1_std.c ****                                 USBFS_1_cdc_data_in_ep = cur_ep;
 572:.\Generated_Source\PSoC5/USBFS_1_std.c ****                             }
ARM GAS  C:\Users\JohnP\AppData\Local\Temp\ccNdEQvR.s 			page 34


 573:.\Generated_Source\PSoC5/USBFS_1_std.c ****                         #endif  /*  USBFS_1_ENABLE_CDC_CLASS*/
 574:.\Generated_Source\PSoC5/USBFS_1_std.c ****                         #if ( defined(USBFS_1_ENABLE_MIDI_STREAMING) && \
 575:.\Generated_Source\PSoC5/USBFS_1_std.c ****                                              (USBFS_1_MIDI_IN_BUFF_SIZE > 0) )
 576:.\Generated_Source\PSoC5/USBFS_1_std.c ****                             if((pEP->bMisc == USBFS_1_CLASS_AUDIO) &&
 577:.\Generated_Source\PSoC5/USBFS_1_std.c ****                                (epType == USBFS_1_EP_TYPE_BULK))
 578:.\Generated_Source\PSoC5/USBFS_1_std.c ****                             {
 579:.\Generated_Source\PSoC5/USBFS_1_std.c ****                                 USBFS_1_midi_in_ep = cur_ep;
 580:.\Generated_Source\PSoC5/USBFS_1_std.c ****                             }
 581:.\Generated_Source\PSoC5/USBFS_1_std.c ****                         #endif  /*  USBFS_1_ENABLE_MIDI_STREAMING*/
 582:.\Generated_Source\PSoC5/USBFS_1_std.c ****                     }
 583:.\Generated_Source\PSoC5/USBFS_1_std.c ****                     else
 584:.\Generated_Source\PSoC5/USBFS_1_std.c ****                     {
 585:.\Generated_Source\PSoC5/USBFS_1_std.c ****                         /* OUT Endpoint */
 586:.\Generated_Source\PSoC5/USBFS_1_std.c ****                         USBFS_1_EP[cur_ep].apiEpState = USBFS_1_NO_EVENT_PENDING;
 587:.\Generated_Source\PSoC5/USBFS_1_std.c ****                         USBFS_1_EP[cur_ep].epMode = (epType == USBFS_1_EP_TYPE_ISOC) ?
 588:.\Generated_Source\PSoC5/USBFS_1_std.c ****                                                     USBFS_1_MODE_ISO_OUT : USBFS_1_MODE_ACK_OUT;
 589:.\Generated_Source\PSoC5/USBFS_1_std.c ****                         #if defined(USBFS_1_ENABLE_CDC_CLASS)
 590:.\Generated_Source\PSoC5/USBFS_1_std.c ****                             if(((pEP->bMisc == USBFS_1_CLASS_CDC_DATA) ||
 591:.\Generated_Source\PSoC5/USBFS_1_std.c ****                                 (pEP->bMisc == USBFS_1_CLASS_CDC)) &&
 592:.\Generated_Source\PSoC5/USBFS_1_std.c ****                                 (epType != USBFS_1_EP_TYPE_INT))
 593:.\Generated_Source\PSoC5/USBFS_1_std.c ****                             {
 594:.\Generated_Source\PSoC5/USBFS_1_std.c ****                                 USBFS_1_cdc_data_out_ep = cur_ep;
 595:.\Generated_Source\PSoC5/USBFS_1_std.c ****                             }
 596:.\Generated_Source\PSoC5/USBFS_1_std.c ****                         #endif  /*  USBFS_1_ENABLE_CDC_CLASS*/
 597:.\Generated_Source\PSoC5/USBFS_1_std.c ****                         #if ( defined(USBFS_1_ENABLE_MIDI_STREAMING) && \
 598:.\Generated_Source\PSoC5/USBFS_1_std.c ****                                      (USBFS_1_MIDI_OUT_BUFF_SIZE > 0) )
 599:.\Generated_Source\PSoC5/USBFS_1_std.c ****                             if((pEP->bMisc == USBFS_1_CLASS_AUDIO) &&
 600:.\Generated_Source\PSoC5/USBFS_1_std.c ****                                (epType == USBFS_1_EP_TYPE_BULK))
 601:.\Generated_Source\PSoC5/USBFS_1_std.c ****                             {
 602:.\Generated_Source\PSoC5/USBFS_1_std.c ****                                 USBFS_1_midi_out_ep = cur_ep;
 603:.\Generated_Source\PSoC5/USBFS_1_std.c ****                             }
 604:.\Generated_Source\PSoC5/USBFS_1_std.c ****                         #endif  /*  USBFS_1_ENABLE_MIDI_STREAMING*/
 605:.\Generated_Source\PSoC5/USBFS_1_std.c ****                     }
 606:.\Generated_Source\PSoC5/USBFS_1_std.c ****                     USBFS_1_EP[cur_ep].bufferSize = pEP->bufferSize;
 607:.\Generated_Source\PSoC5/USBFS_1_std.c ****                     USBFS_1_EP[cur_ep].addr = pEP->addr;
 608:.\Generated_Source\PSoC5/USBFS_1_std.c ****                     USBFS_1_EP[cur_ep].attrib = pEP->attributes;
 609:.\Generated_Source\PSoC5/USBFS_1_std.c ****                 }
 610:.\Generated_Source\PSoC5/USBFS_1_std.c ****                 pEP = &pEP[1u];
 611:.\Generated_Source\PSoC5/USBFS_1_std.c ****             }
 612:.\Generated_Source\PSoC5/USBFS_1_std.c ****         #else /* Configure for static EP memory allocation  */
 613:.\Generated_Source\PSoC5/USBFS_1_std.c ****             for (i = USBFS_1_EP1; i < USBFS_1_MAX_EP; i++)
 1238              		.loc 1 613 0
 1239 012a 0123     		movs	r3, #1
 1240 012c 7B77     		strb	r3, [r7, #29]
 1241 012e 8DE0     		b	.L87
 1242              	.L98:
 614:.\Generated_Source\PSoC5/USBFS_1_std.c ****             {
 615:.\Generated_Source\PSoC5/USBFS_1_std.c ****                 /* p_list points the endpoint setting table. */
 616:.\Generated_Source\PSoC5/USBFS_1_std.c ****                 pEP = (const T_USBFS_1_EP_SETTINGS_BLOCK CYCODE *) pTmp->p_list;
 1243              		.loc 1 616 0
 1244 0130 3B69     		ldr	r3, [r7, #16]
 1245 0132 5B68     		ldr	r3, [r3, #4]
 1246 0134 7B61     		str	r3, [r7, #20]
 617:.\Generated_Source\PSoC5/USBFS_1_std.c ****                 /* Find max length for each EP and select it (length could be different in differen
 618:.\Generated_Source\PSoC5/USBFS_1_std.c ****                 /* but other settings should be correct with regards to Interface alt Setting */
 619:.\Generated_Source\PSoC5/USBFS_1_std.c ****                 for (cur_ep = 0u; cur_ep < ep; cur_ep++)
 1247              		.loc 1 619 0
ARM GAS  C:\Users\JohnP\AppData\Local\Temp\ccNdEQvR.s 			page 35


 1248 0136 0023     		movs	r3, #0
 1249 0138 BB77     		strb	r3, [r7, #30]
 1250 013a 7FE0     		b	.L88
 1251              	.L97:
 620:.\Generated_Source\PSoC5/USBFS_1_std.c ****                 {
 621:.\Generated_Source\PSoC5/USBFS_1_std.c ****                     /* EP count is equal to EP # in table and we found larger EP length than have b
 622:.\Generated_Source\PSoC5/USBFS_1_std.c ****                     if(i == (pEP->addr & USBFS_1_DIR_UNUSED))
 1252              		.loc 1 622 0
 1253 013c 7A7F     		ldrb	r2, [r7, #29]	@ zero_extendqisi2
 1254 013e 7B69     		ldr	r3, [r7, #20]
 1255 0140 9B78     		ldrb	r3, [r3, #2]	@ zero_extendqisi2
 1256 0142 03F07F03 		and	r3, r3, #127
 1257 0146 9A42     		cmp	r2, r3
 1258 0148 72D1     		bne	.L89
 623:.\Generated_Source\PSoC5/USBFS_1_std.c ****                     {
 624:.\Generated_Source\PSoC5/USBFS_1_std.c ****                         if(USBFS_1_EP[i].bufferSize < pEP->bufferSize)
 1259              		.loc 1 624 0
 1260 014a 7A7F     		ldrb	r2, [r7, #29]	@ zero_extendqisi2
 1261 014c 5549     		ldr	r1, .L103
 1262 014e 1346     		mov	r3, r2
 1263 0150 5B00     		lsls	r3, r3, #1
 1264 0152 1344     		add	r3, r3, r2
 1265 0154 9B00     		lsls	r3, r3, #2
 1266 0156 0B44     		add	r3, r3, r1
 1267 0158 0833     		adds	r3, r3, #8
 1268 015a 1B88     		ldrh	r3, [r3]	@ movhi
 1269 015c 9AB2     		uxth	r2, r3
 1270 015e 7B69     		ldr	r3, [r7, #20]
 1271 0160 9B88     		ldrh	r3, [r3, #4]
 1272 0162 9A42     		cmp	r2, r3
 1273 0164 0BD2     		bcs	.L90
 625:.\Generated_Source\PSoC5/USBFS_1_std.c ****                         {
 626:.\Generated_Source\PSoC5/USBFS_1_std.c ****                             USBFS_1_EP[i].bufferSize = pEP->bufferSize;
 1274              		.loc 1 626 0
 1275 0166 7A7F     		ldrb	r2, [r7, #29]	@ zero_extendqisi2
 1276 0168 7B69     		ldr	r3, [r7, #20]
 1277 016a 9988     		ldrh	r1, [r3, #4]
 1278 016c 4D48     		ldr	r0, .L103
 1279 016e 1346     		mov	r3, r2
 1280 0170 5B00     		lsls	r3, r3, #1
 1281 0172 1344     		add	r3, r3, r2
 1282 0174 9B00     		lsls	r3, r3, #2
 1283 0176 0344     		add	r3, r3, r0
 1284 0178 0833     		adds	r3, r3, #8
 1285 017a 0A46     		mov	r2, r1	@ movhi
 1286 017c 1A80     		strh	r2, [r3]	@ movhi
 1287              	.L90:
 627:.\Generated_Source\PSoC5/USBFS_1_std.c ****                         }
 628:.\Generated_Source\PSoC5/USBFS_1_std.c ****                         /* Compare current Alternate setting with EP Alt*/
 629:.\Generated_Source\PSoC5/USBFS_1_std.c ****                         if(USBFS_1_interfaceSetting[pEP->interface] == pEP->altSetting)
 1288              		.loc 1 629 0
 1289 017e 7B69     		ldr	r3, [r7, #20]
 1290 0180 1B78     		ldrb	r3, [r3]	@ zero_extendqisi2
 1291 0182 494A     		ldr	r2, .L103+4
 1292 0184 D35C     		ldrb	r3, [r2, r3]
 1293 0186 DAB2     		uxtb	r2, r3
 1294 0188 7B69     		ldr	r3, [r7, #20]
ARM GAS  C:\Users\JohnP\AppData\Local\Temp\ccNdEQvR.s 			page 36


 1295 018a 5B78     		ldrb	r3, [r3, #1]	@ zero_extendqisi2
 1296 018c 9A42     		cmp	r2, r3
 1297 018e 4FD1     		bne	.L89
 630:.\Generated_Source\PSoC5/USBFS_1_std.c ****                         {
 631:.\Generated_Source\PSoC5/USBFS_1_std.c ****                             epType = pEP->attributes & USBFS_1_EP_TYPE_MASK;
 1298              		.loc 1 631 0
 1299 0190 7B69     		ldr	r3, [r7, #20]
 1300 0192 DB78     		ldrb	r3, [r3, #3]	@ zero_extendqisi2
 1301 0194 03F00303 		and	r3, r3, #3
 1302 0198 FB72     		strb	r3, [r7, #11]
 632:.\Generated_Source\PSoC5/USBFS_1_std.c ****                             if ((pEP->addr & USBFS_1_DIR_IN) != 0u)
 1303              		.loc 1 632 0
 1304 019a 7B69     		ldr	r3, [r7, #20]
 1305 019c 9B78     		ldrb	r3, [r3, #2]	@ zero_extendqisi2
 1306 019e DBB2     		uxtb	r3, r3
 1307 01a0 5BB2     		sxtb	r3, r3
 1308 01a2 002B     		cmp	r3, #0
 1309 01a4 17DA     		bge	.L91
 633:.\Generated_Source\PSoC5/USBFS_1_std.c ****                             {
 634:.\Generated_Source\PSoC5/USBFS_1_std.c ****                                 /* IN Endpoint */
 635:.\Generated_Source\PSoC5/USBFS_1_std.c ****                                 USBFS_1_EP[i].apiEpState = USBFS_1_EVENT_PENDING;
 1310              		.loc 1 635 0
 1311 01a6 7A7F     		ldrb	r2, [r7, #29]	@ zero_extendqisi2
 1312 01a8 3E49     		ldr	r1, .L103
 1313 01aa 1346     		mov	r3, r2
 1314 01ac 5B00     		lsls	r3, r3, #1
 1315 01ae 1344     		add	r3, r3, r2
 1316 01b0 9B00     		lsls	r3, r3, #2
 1317 01b2 0B44     		add	r3, r3, r1
 1318 01b4 0122     		movs	r2, #1
 1319 01b6 5A70     		strb	r2, [r3, #1]
 636:.\Generated_Source\PSoC5/USBFS_1_std.c ****                                 USBFS_1_EP[i].epMode = (epType == USBFS_1_EP_TYPE_ISOC) ?
 1320              		.loc 1 636 0
 1321 01b8 797F     		ldrb	r1, [r7, #29]	@ zero_extendqisi2
 1322 01ba FB7A     		ldrb	r3, [r7, #11]	@ zero_extendqisi2
 1323 01bc 012B     		cmp	r3, #1
 1324 01be 01D1     		bne	.L92
 1325              		.loc 1 636 0 is_stmt 0 discriminator 1
 1326 01c0 0722     		movs	r2, #7
 1327 01c2 00E0     		b	.L93
 1328              	.L92:
 1329              		.loc 1 636 0 discriminator 2
 1330 01c4 0D22     		movs	r2, #13
 1331              	.L93:
 1332              		.loc 1 636 0 discriminator 1
 1333 01c6 3748     		ldr	r0, .L103
 1334 01c8 0B46     		mov	r3, r1
 1335 01ca 5B00     		lsls	r3, r3, #1
 1336 01cc 0B44     		add	r3, r3, r1
 1337 01ce 9B00     		lsls	r3, r3, #2
 1338 01d0 0344     		add	r3, r3, r0
 1339 01d2 5A71     		strb	r2, [r3, #5]
 1340 01d4 16E0     		b	.L94
 1341              	.L91:
 637:.\Generated_Source\PSoC5/USBFS_1_std.c ****                                                         USBFS_1_MODE_ISO_IN : USBFS_1_MODE_ACK_IN;
 638:.\Generated_Source\PSoC5/USBFS_1_std.c ****                                 /* Find and initialize CDC IN endpoint number */
 639:.\Generated_Source\PSoC5/USBFS_1_std.c ****                                 #if defined(USBFS_1_ENABLE_CDC_CLASS)
ARM GAS  C:\Users\JohnP\AppData\Local\Temp\ccNdEQvR.s 			page 37


 640:.\Generated_Source\PSoC5/USBFS_1_std.c ****                                     if(((pEP->bMisc == USBFS_1_CLASS_CDC_DATA) ||
 641:.\Generated_Source\PSoC5/USBFS_1_std.c ****                                         (pEP->bMisc == USBFS_1_CLASS_CDC)) &&
 642:.\Generated_Source\PSoC5/USBFS_1_std.c ****                                         (epType != USBFS_1_EP_TYPE_INT))
 643:.\Generated_Source\PSoC5/USBFS_1_std.c ****                                     {
 644:.\Generated_Source\PSoC5/USBFS_1_std.c ****                                         USBFS_1_cdc_data_in_ep = i;
 645:.\Generated_Source\PSoC5/USBFS_1_std.c ****                                     }
 646:.\Generated_Source\PSoC5/USBFS_1_std.c ****                                 #endif  /*  USBFS_1_ENABLE_CDC_CLASS*/
 647:.\Generated_Source\PSoC5/USBFS_1_std.c ****                                 #if ( defined(USBFS_1_ENABLE_MIDI_STREAMING) && \
 648:.\Generated_Source\PSoC5/USBFS_1_std.c ****                                              (USBFS_1_MIDI_IN_BUFF_SIZE > 0) )
 649:.\Generated_Source\PSoC5/USBFS_1_std.c ****                                     if((pEP->bMisc == USBFS_1_CLASS_AUDIO) &&
 650:.\Generated_Source\PSoC5/USBFS_1_std.c ****                                        (epType == USBFS_1_EP_TYPE_BULK))
 651:.\Generated_Source\PSoC5/USBFS_1_std.c ****                                     {
 652:.\Generated_Source\PSoC5/USBFS_1_std.c ****                                         USBFS_1_midi_in_ep = i;
 653:.\Generated_Source\PSoC5/USBFS_1_std.c ****                                     }
 654:.\Generated_Source\PSoC5/USBFS_1_std.c ****                                 #endif  /*  USBFS_1_ENABLE_MIDI_STREAMING*/
 655:.\Generated_Source\PSoC5/USBFS_1_std.c ****                             }
 656:.\Generated_Source\PSoC5/USBFS_1_std.c ****                             else
 657:.\Generated_Source\PSoC5/USBFS_1_std.c ****                             {
 658:.\Generated_Source\PSoC5/USBFS_1_std.c ****                                 /* OUT Endpoint */
 659:.\Generated_Source\PSoC5/USBFS_1_std.c ****                                 USBFS_1_EP[i].apiEpState = USBFS_1_NO_EVENT_PENDING;
 1342              		.loc 1 659 0 is_stmt 1
 1343 01d6 7A7F     		ldrb	r2, [r7, #29]	@ zero_extendqisi2
 1344 01d8 3249     		ldr	r1, .L103
 1345 01da 1346     		mov	r3, r2
 1346 01dc 5B00     		lsls	r3, r3, #1
 1347 01de 1344     		add	r3, r3, r2
 1348 01e0 9B00     		lsls	r3, r3, #2
 1349 01e2 0B44     		add	r3, r3, r1
 1350 01e4 0022     		movs	r2, #0
 1351 01e6 5A70     		strb	r2, [r3, #1]
 660:.\Generated_Source\PSoC5/USBFS_1_std.c ****                                 USBFS_1_EP[i].epMode = (epType == USBFS_1_EP_TYPE_ISOC) ?
 1352              		.loc 1 660 0
 1353 01e8 797F     		ldrb	r1, [r7, #29]	@ zero_extendqisi2
 1354 01ea FB7A     		ldrb	r3, [r7, #11]	@ zero_extendqisi2
 1355 01ec 012B     		cmp	r3, #1
 1356 01ee 01D1     		bne	.L95
 1357              		.loc 1 660 0 is_stmt 0 discriminator 1
 1358 01f0 0522     		movs	r2, #5
 1359 01f2 00E0     		b	.L96
 1360              	.L95:
 1361              		.loc 1 660 0 discriminator 2
 1362 01f4 0922     		movs	r2, #9
 1363              	.L96:
 1364              		.loc 1 660 0 discriminator 3
 1365 01f6 2B48     		ldr	r0, .L103
 1366 01f8 0B46     		mov	r3, r1
 1367 01fa 5B00     		lsls	r3, r3, #1
 1368 01fc 0B44     		add	r3, r3, r1
 1369 01fe 9B00     		lsls	r3, r3, #2
 1370 0200 0344     		add	r3, r3, r0
 1371 0202 5A71     		strb	r2, [r3, #5]
 1372              	.L94:
 661:.\Generated_Source\PSoC5/USBFS_1_std.c ****                                                     USBFS_1_MODE_ISO_OUT : USBFS_1_MODE_ACK_OUT;
 662:.\Generated_Source\PSoC5/USBFS_1_std.c ****                                 /* Find and initialize CDC IN endpoint number */
 663:.\Generated_Source\PSoC5/USBFS_1_std.c ****                                 #if defined(USBFS_1_ENABLE_CDC_CLASS)
 664:.\Generated_Source\PSoC5/USBFS_1_std.c ****                                     if(((pEP->bMisc == USBFS_1_CLASS_CDC_DATA) ||
 665:.\Generated_Source\PSoC5/USBFS_1_std.c ****                                         (pEP->bMisc == USBFS_1_CLASS_CDC)) &&
ARM GAS  C:\Users\JohnP\AppData\Local\Temp\ccNdEQvR.s 			page 38


 666:.\Generated_Source\PSoC5/USBFS_1_std.c ****                                         (epType != USBFS_1_EP_TYPE_INT))
 667:.\Generated_Source\PSoC5/USBFS_1_std.c ****                                     {
 668:.\Generated_Source\PSoC5/USBFS_1_std.c ****                                         USBFS_1_cdc_data_out_ep = i;
 669:.\Generated_Source\PSoC5/USBFS_1_std.c ****                                     }
 670:.\Generated_Source\PSoC5/USBFS_1_std.c ****                                 #endif  /*  USBFS_1_ENABLE_CDC_CLASS*/
 671:.\Generated_Source\PSoC5/USBFS_1_std.c ****                                 #if ( defined(USBFS_1_ENABLE_MIDI_STREAMING) && \
 672:.\Generated_Source\PSoC5/USBFS_1_std.c ****                                              (USBFS_1_MIDI_OUT_BUFF_SIZE > 0) )
 673:.\Generated_Source\PSoC5/USBFS_1_std.c ****                                     if((pEP->bMisc == USBFS_1_CLASS_AUDIO) &&
 674:.\Generated_Source\PSoC5/USBFS_1_std.c ****                                        (epType == USBFS_1_EP_TYPE_BULK))
 675:.\Generated_Source\PSoC5/USBFS_1_std.c ****                                     {
 676:.\Generated_Source\PSoC5/USBFS_1_std.c ****                                         USBFS_1_midi_out_ep = i;
 677:.\Generated_Source\PSoC5/USBFS_1_std.c ****                                     }
 678:.\Generated_Source\PSoC5/USBFS_1_std.c ****                                 #endif  /*  USBFS_1_ENABLE_MIDI_STREAMING*/
 679:.\Generated_Source\PSoC5/USBFS_1_std.c ****                             }
 680:.\Generated_Source\PSoC5/USBFS_1_std.c ****                             USBFS_1_EP[i].addr = pEP->addr;
 1373              		.loc 1 680 0 is_stmt 1
 1374 0204 7A7F     		ldrb	r2, [r7, #29]	@ zero_extendqisi2
 1375 0206 7B69     		ldr	r3, [r7, #20]
 1376 0208 9978     		ldrb	r1, [r3, #2]	@ zero_extendqisi2
 1377 020a 2648     		ldr	r0, .L103
 1378 020c 1346     		mov	r3, r2
 1379 020e 5B00     		lsls	r3, r3, #1
 1380 0210 1344     		add	r3, r3, r2
 1381 0212 9B00     		lsls	r3, r3, #2
 1382 0214 0344     		add	r3, r3, r0
 1383 0216 0A46     		mov	r2, r1
 1384 0218 1A71     		strb	r2, [r3, #4]
 681:.\Generated_Source\PSoC5/USBFS_1_std.c ****                             USBFS_1_EP[i].attrib = pEP->attributes;
 1385              		.loc 1 681 0
 1386 021a 7A7F     		ldrb	r2, [r7, #29]	@ zero_extendqisi2
 1387 021c 7B69     		ldr	r3, [r7, #20]
 1388 021e D978     		ldrb	r1, [r3, #3]	@ zero_extendqisi2
 1389 0220 2048     		ldr	r0, .L103
 1390 0222 1346     		mov	r3, r2
 1391 0224 5B00     		lsls	r3, r3, #1
 1392 0226 1344     		add	r3, r3, r2
 1393 0228 9B00     		lsls	r3, r3, #2
 1394 022a 0344     		add	r3, r3, r0
 1395 022c 0A46     		mov	r2, r1
 1396 022e 1A70     		strb	r2, [r3]
 1397              	.L89:
 682:.\Generated_Source\PSoC5/USBFS_1_std.c **** 
 683:.\Generated_Source\PSoC5/USBFS_1_std.c ****                             #if(USBFS_1_EP_MM == USBFS_1__EP_DMAAUTO)
 684:.\Generated_Source\PSoC5/USBFS_1_std.c ****                                 break;      /* use first EP setting in Auto memory managment */
 685:.\Generated_Source\PSoC5/USBFS_1_std.c ****                             #endif /*  USBFS_1_EP_MM == USBFS_1__EP_DMAAUTO */
 686:.\Generated_Source\PSoC5/USBFS_1_std.c ****                         }
 687:.\Generated_Source\PSoC5/USBFS_1_std.c ****                     }
 688:.\Generated_Source\PSoC5/USBFS_1_std.c ****                     pEP = &pEP[1u];
 1398              		.loc 1 688 0
 1399 0230 7B69     		ldr	r3, [r7, #20]
 1400 0232 0833     		adds	r3, r3, #8
 1401 0234 7B61     		str	r3, [r7, #20]
 619:.\Generated_Source\PSoC5/USBFS_1_std.c ****                 for (cur_ep = 0u; cur_ep < ep; cur_ep++)
 1402              		.loc 1 619 0
 1403 0236 BB7F     		ldrb	r3, [r7, #30]	@ zero_extendqisi2
 1404 0238 0133     		adds	r3, r3, #1
 1405 023a BB77     		strb	r3, [r7, #30]
ARM GAS  C:\Users\JohnP\AppData\Local\Temp\ccNdEQvR.s 			page 39


 1406              	.L88:
 619:.\Generated_Source\PSoC5/USBFS_1_std.c ****                 for (cur_ep = 0u; cur_ep < ep; cur_ep++)
 1407              		.loc 1 619 0 is_stmt 0 discriminator 1
 1408 023c BA7F     		ldrb	r2, [r7, #30]	@ zero_extendqisi2
 1409 023e FB7F     		ldrb	r3, [r7, #31]	@ zero_extendqisi2
 1410 0240 9A42     		cmp	r2, r3
 1411 0242 FFF47BAF 		bcc	.L97
 613:.\Generated_Source\PSoC5/USBFS_1_std.c ****             for (i = USBFS_1_EP1; i < USBFS_1_MAX_EP; i++)
 1412              		.loc 1 613 0 is_stmt 1
 1413 0246 7B7F     		ldrb	r3, [r7, #29]	@ zero_extendqisi2
 1414 0248 0133     		adds	r3, r3, #1
 1415 024a 7B77     		strb	r3, [r7, #29]
 1416              	.L87:
 613:.\Generated_Source\PSoC5/USBFS_1_std.c ****             for (i = USBFS_1_EP1; i < USBFS_1_MAX_EP; i++)
 1417              		.loc 1 613 0 is_stmt 0 discriminator 1
 1418 024c 7B7F     		ldrb	r3, [r7, #29]	@ zero_extendqisi2
 1419 024e 082B     		cmp	r3, #8
 1420 0250 7FF66EAF 		bls	.L98
 689:.\Generated_Source\PSoC5/USBFS_1_std.c ****                 }
 690:.\Generated_Source\PSoC5/USBFS_1_std.c ****             }
 691:.\Generated_Source\PSoC5/USBFS_1_std.c ****         #endif /*  (USBFS_1_EP_MA == USBFS_1__MA_DYNAMIC) */
 692:.\Generated_Source\PSoC5/USBFS_1_std.c **** 
 693:.\Generated_Source\PSoC5/USBFS_1_std.c ****         /* Init class array for each interface and interface number for each EP.
 694:.\Generated_Source\PSoC5/USBFS_1_std.c ****         *  It is used for handling Class specific requests directed to either an
 695:.\Generated_Source\PSoC5/USBFS_1_std.c ****         *  interface or the endpoint.
 696:.\Generated_Source\PSoC5/USBFS_1_std.c ****         */
 697:.\Generated_Source\PSoC5/USBFS_1_std.c ****         /* p_list points the endpoint setting table. */
 698:.\Generated_Source\PSoC5/USBFS_1_std.c ****         pEP = (const T_USBFS_1_EP_SETTINGS_BLOCK CYCODE *) pTmp->p_list;
 1421              		.loc 1 698 0 is_stmt 1
 1422 0254 3B69     		ldr	r3, [r7, #16]
 1423 0256 5B68     		ldr	r3, [r3, #4]
 1424 0258 7B61     		str	r3, [r7, #20]
 699:.\Generated_Source\PSoC5/USBFS_1_std.c ****         for (i = 0u; i < ep; i++)
 1425              		.loc 1 699 0
 1426 025a 0023     		movs	r3, #0
 1427 025c 7B77     		strb	r3, [r7, #29]
 1428 025e 14E0     		b	.L99
 1429              	.L100:
 700:.\Generated_Source\PSoC5/USBFS_1_std.c ****         {
 701:.\Generated_Source\PSoC5/USBFS_1_std.c ****             /* Configure interface number for each EP*/
 702:.\Generated_Source\PSoC5/USBFS_1_std.c ****             USBFS_1_EP[pEP->addr & USBFS_1_DIR_UNUSED].interface = pEP->interface;
 1430              		.loc 1 702 0 discriminator 2
 1431 0260 7B69     		ldr	r3, [r7, #20]
 1432 0262 9B78     		ldrb	r3, [r3, #2]	@ zero_extendqisi2
 1433 0264 03F07F02 		and	r2, r3, #127
 1434 0268 7B69     		ldr	r3, [r7, #20]
 1435 026a 1978     		ldrb	r1, [r3]	@ zero_extendqisi2
 1436 026c 0D48     		ldr	r0, .L103
 1437 026e 1346     		mov	r3, r2
 1438 0270 5B00     		lsls	r3, r3, #1
 1439 0272 1344     		add	r3, r3, r2
 1440 0274 9B00     		lsls	r3, r3, #2
 1441 0276 0344     		add	r3, r3, r0
 1442 0278 0833     		adds	r3, r3, #8
 1443 027a 0A46     		mov	r2, r1
 1444 027c 9A70     		strb	r2, [r3, #2]
 703:.\Generated_Source\PSoC5/USBFS_1_std.c ****             pEP = &pEP[1u];
ARM GAS  C:\Users\JohnP\AppData\Local\Temp\ccNdEQvR.s 			page 40


 1445              		.loc 1 703 0 discriminator 2
 1446 027e 7B69     		ldr	r3, [r7, #20]
 1447 0280 0833     		adds	r3, r3, #8
 1448 0282 7B61     		str	r3, [r7, #20]
 699:.\Generated_Source\PSoC5/USBFS_1_std.c ****         for (i = 0u; i < ep; i++)
 1449              		.loc 1 699 0 discriminator 2
 1450 0284 7B7F     		ldrb	r3, [r7, #29]	@ zero_extendqisi2
 1451 0286 0133     		adds	r3, r3, #1
 1452 0288 7B77     		strb	r3, [r7, #29]
 1453              	.L99:
 699:.\Generated_Source\PSoC5/USBFS_1_std.c ****         for (i = 0u; i < ep; i++)
 1454              		.loc 1 699 0 is_stmt 0 discriminator 1
 1455 028a 7A7F     		ldrb	r2, [r7, #29]	@ zero_extendqisi2
 1456 028c FB7F     		ldrb	r3, [r7, #31]	@ zero_extendqisi2
 1457 028e 9A42     		cmp	r2, r3
 1458 0290 E6D3     		bcc	.L100
 704:.\Generated_Source\PSoC5/USBFS_1_std.c ****         }
 705:.\Generated_Source\PSoC5/USBFS_1_std.c ****         /* Init pointer on interface class table*/
 706:.\Generated_Source\PSoC5/USBFS_1_std.c ****         USBFS_1_interfaceClass = USBFS_1_GetInterfaceClassTablePtr();
 1459              		.loc 1 706 0 is_stmt 1
 1460 0292 FFF7FEFF 		bl	USBFS_1_GetInterfaceClassTablePtr
 1461 0296 0246     		mov	r2, r0
 1462 0298 074B     		ldr	r3, .L103+20
 1463 029a 1A60     		str	r2, [r3]
 707:.\Generated_Source\PSoC5/USBFS_1_std.c ****         /* Set the endpoint buffer addresses */
 708:.\Generated_Source\PSoC5/USBFS_1_std.c **** 
 709:.\Generated_Source\PSoC5/USBFS_1_std.c ****         #if(USBFS_1_EP_MM != USBFS_1__EP_DMAAUTO)
 710:.\Generated_Source\PSoC5/USBFS_1_std.c ****             for (ep = USBFS_1_EP1; ep < USBFS_1_MAX_EP; ep++)
 1464              		.loc 1 710 0
 1465 029c 0123     		movs	r3, #1
 1466 029e FB77     		strb	r3, [r7, #31]
 1467 02a0 25E0     		b	.L101
 1468              	.L104:
 1469 02a2 00BF     		.align	2
 1470              	.L103:
 1471 02a4 00000000 		.word	USBFS_1_EP
 1472 02a8 00000000 		.word	USBFS_1_interfaceSetting
 1473 02ac 00000000 		.word	USBFS_1_interfaceSetting_last
 1474 02b0 00000000 		.word	USBFS_1_configuration
 1475 02b4 00000000 		.word	USBFS_1_deviceStatus
 1476 02b8 00000000 		.word	USBFS_1_interfaceClass
 1477              	.L102:
 711:.\Generated_Source\PSoC5/USBFS_1_std.c ****             {
 712:.\Generated_Source\PSoC5/USBFS_1_std.c ****                 USBFS_1_EP[ep].buffOffset = buffCount;
 1478              		.loc 1 712 0 discriminator 2
 1479 02bc FA7F     		ldrb	r2, [r7, #31]	@ zero_extendqisi2
 1480 02be 1049     		ldr	r1, .L105
 1481 02c0 1346     		mov	r3, r2
 1482 02c2 5B00     		lsls	r3, r3, #1
 1483 02c4 1344     		add	r3, r3, r2
 1484 02c6 9B00     		lsls	r3, r3, #2
 1485 02c8 0B44     		add	r3, r3, r1
 1486 02ca 7A8B     		ldrh	r2, [r7, #26]	@ movhi
 1487 02cc DA80     		strh	r2, [r3, #6]	@ movhi
 713:.\Generated_Source\PSoC5/USBFS_1_std.c ****                  buffCount += USBFS_1_EP[ep].bufferSize;
 1488              		.loc 1 713 0 discriminator 2
 1489 02ce FA7F     		ldrb	r2, [r7, #31]	@ zero_extendqisi2
ARM GAS  C:\Users\JohnP\AppData\Local\Temp\ccNdEQvR.s 			page 41


 1490 02d0 0B49     		ldr	r1, .L105
 1491 02d2 1346     		mov	r3, r2
 1492 02d4 5B00     		lsls	r3, r3, #1
 1493 02d6 1344     		add	r3, r3, r2
 1494 02d8 9B00     		lsls	r3, r3, #2
 1495 02da 0B44     		add	r3, r3, r1
 1496 02dc 0833     		adds	r3, r3, #8
 1497 02de 1B88     		ldrh	r3, [r3]	@ movhi
 1498 02e0 9AB2     		uxth	r2, r3
 1499 02e2 7B8B     		ldrh	r3, [r7, #26]	@ movhi
 1500 02e4 1344     		add	r3, r3, r2
 1501 02e6 7B83     		strh	r3, [r7, #26]	@ movhi
 710:.\Generated_Source\PSoC5/USBFS_1_std.c ****             for (ep = USBFS_1_EP1; ep < USBFS_1_MAX_EP; ep++)
 1502              		.loc 1 710 0 discriminator 2
 1503 02e8 FB7F     		ldrb	r3, [r7, #31]	@ zero_extendqisi2
 1504 02ea 0133     		adds	r3, r3, #1
 1505 02ec FB77     		strb	r3, [r7, #31]
 1506              	.L101:
 710:.\Generated_Source\PSoC5/USBFS_1_std.c ****             for (ep = USBFS_1_EP1; ep < USBFS_1_MAX_EP; ep++)
 1507              		.loc 1 710 0 is_stmt 0 discriminator 1
 1508 02ee FB7F     		ldrb	r3, [r7, #31]	@ zero_extendqisi2
 1509 02f0 082B     		cmp	r3, #8
 1510 02f2 E3D9     		bls	.L102
 714:.\Generated_Source\PSoC5/USBFS_1_std.c ****             }
 715:.\Generated_Source\PSoC5/USBFS_1_std.c ****         #endif /*  USBFS_1_EP_MM != USBFS_1__EP_DMAAUTO */
 716:.\Generated_Source\PSoC5/USBFS_1_std.c **** 
 717:.\Generated_Source\PSoC5/USBFS_1_std.c ****         /* Configure hardware registers */
 718:.\Generated_Source\PSoC5/USBFS_1_std.c ****         USBFS_1_ConfigReg();
 1511              		.loc 1 718 0 is_stmt 1
 1512 02f4 FFF7FEFF 		bl	USBFS_1_ConfigReg
 1513              	.L78:
 719:.\Generated_Source\PSoC5/USBFS_1_std.c ****     } /* USBFS_1_configuration > 0 */
 720:.\Generated_Source\PSoC5/USBFS_1_std.c **** }
 1514              		.loc 1 720 0
 1515 02f8 2037     		adds	r7, r7, #32
 1516 02fa BD46     		mov	sp, r7
 1517              		@ sp needed
 1518 02fc 80BD     		pop	{r7, pc}
 1519              	.L106:
 1520 02fe 00BF     		.align	2
 1521              	.L105:
 1522 0300 00000000 		.word	USBFS_1_EP
 1523              		.cfi_endproc
 1524              	.LFE3:
 1525              		.size	USBFS_1_Config, .-USBFS_1_Config
 1526              		.section	.text.USBFS_1_ConfigAltChanged,"ax",%progbits
 1527              		.align	2
 1528              		.global	USBFS_1_ConfigAltChanged
 1529              		.thumb
 1530              		.thumb_func
 1531              		.type	USBFS_1_ConfigAltChanged, %function
 1532              	USBFS_1_ConfigAltChanged:
 1533              	.LFB4:
 721:.\Generated_Source\PSoC5/USBFS_1_std.c **** 
 722:.\Generated_Source\PSoC5/USBFS_1_std.c **** 
 723:.\Generated_Source\PSoC5/USBFS_1_std.c **** /*******************************************************************************
 724:.\Generated_Source\PSoC5/USBFS_1_std.c **** * Function Name: USBFS_1_ConfigAltChanged
ARM GAS  C:\Users\JohnP\AppData\Local\Temp\ccNdEQvR.s 			page 42


 725:.\Generated_Source\PSoC5/USBFS_1_std.c **** ********************************************************************************
 726:.\Generated_Source\PSoC5/USBFS_1_std.c **** *
 727:.\Generated_Source\PSoC5/USBFS_1_std.c **** * Summary:
 728:.\Generated_Source\PSoC5/USBFS_1_std.c **** *  This routine update configuration for the required endpoints only.
 729:.\Generated_Source\PSoC5/USBFS_1_std.c **** *  It is called after SET_INTERFACE request when Static memory allocation used.
 730:.\Generated_Source\PSoC5/USBFS_1_std.c **** *
 731:.\Generated_Source\PSoC5/USBFS_1_std.c **** * Parameters:
 732:.\Generated_Source\PSoC5/USBFS_1_std.c **** *  None.
 733:.\Generated_Source\PSoC5/USBFS_1_std.c **** *
 734:.\Generated_Source\PSoC5/USBFS_1_std.c **** * Return:
 735:.\Generated_Source\PSoC5/USBFS_1_std.c **** *  None.
 736:.\Generated_Source\PSoC5/USBFS_1_std.c **** *
 737:.\Generated_Source\PSoC5/USBFS_1_std.c **** * Reentrant:
 738:.\Generated_Source\PSoC5/USBFS_1_std.c **** *  No.
 739:.\Generated_Source\PSoC5/USBFS_1_std.c **** *
 740:.\Generated_Source\PSoC5/USBFS_1_std.c **** *******************************************************************************/
 741:.\Generated_Source\PSoC5/USBFS_1_std.c **** void USBFS_1_ConfigAltChanged(void) 
 742:.\Generated_Source\PSoC5/USBFS_1_std.c **** {
 1534              		.loc 1 742 0
 1535              		.cfi_startproc
 1536              		@ args = 0, pretend = 0, frame = 16
 1537              		@ frame_needed = 1, uses_anonymous_args = 0
 1538 0000 80B5     		push	{r7, lr}
 1539              		.cfi_def_cfa_offset 8
 1540              		.cfi_offset 7, -8
 1541              		.cfi_offset 14, -4
 1542 0002 84B0     		sub	sp, sp, #16
 1543              		.cfi_def_cfa_offset 24
 1544 0004 00AF     		add	r7, sp, #0
 1545              		.cfi_def_cfa_register 7
 743:.\Generated_Source\PSoC5/USBFS_1_std.c ****     uint8 ep;
 744:.\Generated_Source\PSoC5/USBFS_1_std.c ****     uint8 cur_ep;
 745:.\Generated_Source\PSoC5/USBFS_1_std.c ****     uint8 i;
 746:.\Generated_Source\PSoC5/USBFS_1_std.c ****     uint8 epType;
 747:.\Generated_Source\PSoC5/USBFS_1_std.c ****     uint8 ri;
 748:.\Generated_Source\PSoC5/USBFS_1_std.c **** 
 749:.\Generated_Source\PSoC5/USBFS_1_std.c ****     const T_USBFS_1_LUT CYCODE *pTmp;
 750:.\Generated_Source\PSoC5/USBFS_1_std.c ****     const T_USBFS_1_EP_SETTINGS_BLOCK CYCODE *pEP;
 751:.\Generated_Source\PSoC5/USBFS_1_std.c **** 
 752:.\Generated_Source\PSoC5/USBFS_1_std.c **** 
 753:.\Generated_Source\PSoC5/USBFS_1_std.c ****     /* Init Endpoints and Device Status if configured */
 754:.\Generated_Source\PSoC5/USBFS_1_std.c ****     if(USBFS_1_configuration > 0u)
 1546              		.loc 1 754 0
 1547 0006 8F4B     		ldr	r3, .L118
 1548 0008 1B78     		ldrb	r3, [r3]
 1549 000a DBB2     		uxtb	r3, r3
 1550 000c 002B     		cmp	r3, #0
 1551 000e 00F01581 		beq	.L107
 755:.\Generated_Source\PSoC5/USBFS_1_std.c ****     {
 756:.\Generated_Source\PSoC5/USBFS_1_std.c ****         pTmp = USBFS_1_GetConfigTablePtr(USBFS_1_configuration - 1u);
 1552              		.loc 1 756 0
 1553 0012 8C4B     		ldr	r3, .L118
 1554 0014 1B78     		ldrb	r3, [r3]
 1555 0016 DBB2     		uxtb	r3, r3
 1556 0018 013B     		subs	r3, r3, #1
 1557 001a DBB2     		uxtb	r3, r3
 1558 001c 1846     		mov	r0, r3
ARM GAS  C:\Users\JohnP\AppData\Local\Temp\ccNdEQvR.s 			page 43


 1559 001e FFF7FEFF 		bl	USBFS_1_GetConfigTablePtr
 1560 0022 7860     		str	r0, [r7, #4]
 757:.\Generated_Source\PSoC5/USBFS_1_std.c ****         pTmp = &pTmp[1u];
 1561              		.loc 1 757 0
 1562 0024 7B68     		ldr	r3, [r7, #4]
 1563 0026 0833     		adds	r3, r3, #8
 1564 0028 7B60     		str	r3, [r7, #4]
 758:.\Generated_Source\PSoC5/USBFS_1_std.c ****         ep = pTmp->c;  /* For this table, c is the number of endpoints configurations  */
 1565              		.loc 1 758 0
 1566 002a 7B68     		ldr	r3, [r7, #4]
 1567 002c 1B78     		ldrb	r3, [r3]
 1568 002e FB70     		strb	r3, [r7, #3]
 759:.\Generated_Source\PSoC5/USBFS_1_std.c **** 
 760:.\Generated_Source\PSoC5/USBFS_1_std.c ****         /* Do not touch EP which doesn't need reconfiguration */
 761:.\Generated_Source\PSoC5/USBFS_1_std.c ****         /* When Alt setting changed, the only required endpoints need to be reconfigured */
 762:.\Generated_Source\PSoC5/USBFS_1_std.c ****         /* p_list points the endpoint setting table. */
 763:.\Generated_Source\PSoC5/USBFS_1_std.c ****         pEP = (const T_USBFS_1_EP_SETTINGS_BLOCK CYCODE *) pTmp->p_list;
 1569              		.loc 1 763 0
 1570 0030 7B68     		ldr	r3, [r7, #4]
 1571 0032 5B68     		ldr	r3, [r3, #4]
 1572 0034 BB60     		str	r3, [r7, #8]
 764:.\Generated_Source\PSoC5/USBFS_1_std.c ****         for (i = 0u; i < ep; i++)
 1573              		.loc 1 764 0
 1574 0036 0023     		movs	r3, #0
 1575 0038 FB73     		strb	r3, [r7, #15]
 1576 003a FAE0     		b	.L109
 1577              	.L117:
 765:.\Generated_Source\PSoC5/USBFS_1_std.c ****         {
 766:.\Generated_Source\PSoC5/USBFS_1_std.c ****             /*If Alt setting changed and new is same with EP Alt */
 767:.\Generated_Source\PSoC5/USBFS_1_std.c ****             if((USBFS_1_interfaceSetting[pEP->interface] !=
 1578              		.loc 1 767 0
 1579 003c BB68     		ldr	r3, [r7, #8]
 1580 003e 1B78     		ldrb	r3, [r3]	@ zero_extendqisi2
 1581 0040 814A     		ldr	r2, .L118+4
 1582 0042 D35C     		ldrb	r3, [r2, r3]
 1583 0044 DAB2     		uxtb	r2, r3
 768:.\Generated_Source\PSoC5/USBFS_1_std.c ****                 USBFS_1_interfaceSetting_last[pEP->interface] ) &&
 1584              		.loc 1 768 0
 1585 0046 BB68     		ldr	r3, [r7, #8]
 1586 0048 1B78     		ldrb	r3, [r3]	@ zero_extendqisi2
 1587 004a 8049     		ldr	r1, .L118+8
 1588 004c CB5C     		ldrb	r3, [r1, r3]
 1589 004e DBB2     		uxtb	r3, r3
 767:.\Generated_Source\PSoC5/USBFS_1_std.c ****             if((USBFS_1_interfaceSetting[pEP->interface] !=
 1590              		.loc 1 767 0
 1591 0050 9A42     		cmp	r2, r3
 1592 0052 00F0E880 		beq	.L110
 769:.\Generated_Source\PSoC5/USBFS_1_std.c ****                (USBFS_1_interfaceSetting[pEP->interface] == pEP->altSetting) &&
 1593              		.loc 1 769 0
 1594 0056 BB68     		ldr	r3, [r7, #8]
 1595 0058 1B78     		ldrb	r3, [r3]	@ zero_extendqisi2
 1596 005a 7B4A     		ldr	r2, .L118+4
 1597 005c D35C     		ldrb	r3, [r2, r3]
 1598 005e DAB2     		uxtb	r2, r3
 1599 0060 BB68     		ldr	r3, [r7, #8]
 1600 0062 5B78     		ldrb	r3, [r3, #1]	@ zero_extendqisi2
 768:.\Generated_Source\PSoC5/USBFS_1_std.c ****                 USBFS_1_interfaceSetting_last[pEP->interface] ) &&
ARM GAS  C:\Users\JohnP\AppData\Local\Temp\ccNdEQvR.s 			page 44


 1601              		.loc 1 768 0
 1602 0064 9A42     		cmp	r2, r3
 1603 0066 40F0DE80 		bne	.L110
 770:.\Generated_Source\PSoC5/USBFS_1_std.c ****                (pEP->interface == CY_GET_REG8(USBFS_1_wIndexLo)))
 1604              		.loc 1 770 0
 1605 006a BB68     		ldr	r3, [r7, #8]
 1606 006c 1A78     		ldrb	r2, [r3]	@ zero_extendqisi2
 1607 006e 784B     		ldr	r3, .L118+12
 1608 0070 1B78     		ldrb	r3, [r3]
 1609 0072 DBB2     		uxtb	r3, r3
 769:.\Generated_Source\PSoC5/USBFS_1_std.c ****                (USBFS_1_interfaceSetting[pEP->interface] == pEP->altSetting) &&
 1610              		.loc 1 769 0
 1611 0074 9A42     		cmp	r2, r3
 1612 0076 40F0D680 		bne	.L110
 771:.\Generated_Source\PSoC5/USBFS_1_std.c ****             {
 772:.\Generated_Source\PSoC5/USBFS_1_std.c ****                 cur_ep = pEP->addr & USBFS_1_DIR_UNUSED;
 1613              		.loc 1 772 0
 1614 007a BB68     		ldr	r3, [r7, #8]
 1615 007c 9B78     		ldrb	r3, [r3, #2]	@ zero_extendqisi2
 1616 007e 03F07F03 		and	r3, r3, #127
 1617 0082 BB70     		strb	r3, [r7, #2]
 773:.\Generated_Source\PSoC5/USBFS_1_std.c ****                 ri = ((cur_ep - USBFS_1_EP1) << USBFS_1_EPX_CNTX_ADDR_SHIFT);
 1618              		.loc 1 773 0
 1619 0084 BB78     		ldrb	r3, [r7, #2]
 1620 0086 013B     		subs	r3, r3, #1
 1621 0088 DBB2     		uxtb	r3, r3
 1622 008a 1B01     		lsls	r3, r3, #4
 1623 008c 7B70     		strb	r3, [r7, #1]
 774:.\Generated_Source\PSoC5/USBFS_1_std.c ****                 epType = pEP->attributes & USBFS_1_EP_TYPE_MASK;
 1624              		.loc 1 774 0
 1625 008e BB68     		ldr	r3, [r7, #8]
 1626 0090 DB78     		ldrb	r3, [r3, #3]	@ zero_extendqisi2
 1627 0092 03F00303 		and	r3, r3, #3
 1628 0096 3B70     		strb	r3, [r7]
 775:.\Generated_Source\PSoC5/USBFS_1_std.c ****                 if ((pEP->addr & USBFS_1_DIR_IN) != 0u)
 1629              		.loc 1 775 0
 1630 0098 BB68     		ldr	r3, [r7, #8]
 1631 009a 9B78     		ldrb	r3, [r3, #2]	@ zero_extendqisi2
 1632 009c DBB2     		uxtb	r3, r3
 1633 009e 5BB2     		sxtb	r3, r3
 1634 00a0 002B     		cmp	r3, #0
 1635 00a2 17DA     		bge	.L111
 776:.\Generated_Source\PSoC5/USBFS_1_std.c ****                 {
 777:.\Generated_Source\PSoC5/USBFS_1_std.c ****                     /* IN Endpoint */
 778:.\Generated_Source\PSoC5/USBFS_1_std.c ****                     USBFS_1_EP[cur_ep].apiEpState = USBFS_1_EVENT_PENDING;
 1636              		.loc 1 778 0
 1637 00a4 BA78     		ldrb	r2, [r7, #2]	@ zero_extendqisi2
 1638 00a6 6B49     		ldr	r1, .L118+16
 1639 00a8 1346     		mov	r3, r2
 1640 00aa 5B00     		lsls	r3, r3, #1
 1641 00ac 1344     		add	r3, r3, r2
 1642 00ae 9B00     		lsls	r3, r3, #2
 1643 00b0 0B44     		add	r3, r3, r1
 1644 00b2 0122     		movs	r2, #1
 1645 00b4 5A70     		strb	r2, [r3, #1]
 779:.\Generated_Source\PSoC5/USBFS_1_std.c ****                     USBFS_1_EP[cur_ep].epMode = (epType == USBFS_1_EP_TYPE_ISOC) ?
 1646              		.loc 1 779 0
ARM GAS  C:\Users\JohnP\AppData\Local\Temp\ccNdEQvR.s 			page 45


 1647 00b6 B978     		ldrb	r1, [r7, #2]	@ zero_extendqisi2
 1648 00b8 3B78     		ldrb	r3, [r7]	@ zero_extendqisi2
 1649 00ba 012B     		cmp	r3, #1
 1650 00bc 01D1     		bne	.L112
 1651              		.loc 1 779 0 is_stmt 0 discriminator 1
 1652 00be 0722     		movs	r2, #7
 1653 00c0 00E0     		b	.L113
 1654              	.L112:
 1655              		.loc 1 779 0 discriminator 2
 1656 00c2 0D22     		movs	r2, #13
 1657              	.L113:
 1658              		.loc 1 779 0 discriminator 1
 1659 00c4 6348     		ldr	r0, .L118+16
 1660 00c6 0B46     		mov	r3, r1
 1661 00c8 5B00     		lsls	r3, r3, #1
 1662 00ca 0B44     		add	r3, r3, r1
 1663 00cc 9B00     		lsls	r3, r3, #2
 1664 00ce 0344     		add	r3, r3, r0
 1665 00d0 5A71     		strb	r2, [r3, #5]
 1666 00d2 16E0     		b	.L114
 1667              	.L111:
 780:.\Generated_Source\PSoC5/USBFS_1_std.c ****                                                 USBFS_1_MODE_ISO_IN : USBFS_1_MODE_ACK_IN;
 781:.\Generated_Source\PSoC5/USBFS_1_std.c ****                 }
 782:.\Generated_Source\PSoC5/USBFS_1_std.c ****                 else
 783:.\Generated_Source\PSoC5/USBFS_1_std.c ****                 {
 784:.\Generated_Source\PSoC5/USBFS_1_std.c ****                     /* OUT Endpoint */
 785:.\Generated_Source\PSoC5/USBFS_1_std.c ****                     USBFS_1_EP[cur_ep].apiEpState = USBFS_1_NO_EVENT_PENDING;
 1668              		.loc 1 785 0 is_stmt 1
 1669 00d4 BA78     		ldrb	r2, [r7, #2]	@ zero_extendqisi2
 1670 00d6 5F49     		ldr	r1, .L118+16
 1671 00d8 1346     		mov	r3, r2
 1672 00da 5B00     		lsls	r3, r3, #1
 1673 00dc 1344     		add	r3, r3, r2
 1674 00de 9B00     		lsls	r3, r3, #2
 1675 00e0 0B44     		add	r3, r3, r1
 1676 00e2 0022     		movs	r2, #0
 1677 00e4 5A70     		strb	r2, [r3, #1]
 786:.\Generated_Source\PSoC5/USBFS_1_std.c ****                     USBFS_1_EP[cur_ep].epMode = (epType == USBFS_1_EP_TYPE_ISOC) ?
 1678              		.loc 1 786 0
 1679 00e6 B978     		ldrb	r1, [r7, #2]	@ zero_extendqisi2
 1680 00e8 3B78     		ldrb	r3, [r7]	@ zero_extendqisi2
 1681 00ea 012B     		cmp	r3, #1
 1682 00ec 01D1     		bne	.L115
 1683              		.loc 1 786 0 is_stmt 0 discriminator 1
 1684 00ee 0522     		movs	r2, #5
 1685 00f0 00E0     		b	.L116
 1686              	.L115:
 1687              		.loc 1 786 0 discriminator 2
 1688 00f2 0922     		movs	r2, #9
 1689              	.L116:
 1690              		.loc 1 786 0 discriminator 3
 1691 00f4 5748     		ldr	r0, .L118+16
 1692 00f6 0B46     		mov	r3, r1
 1693 00f8 5B00     		lsls	r3, r3, #1
 1694 00fa 0B44     		add	r3, r3, r1
 1695 00fc 9B00     		lsls	r3, r3, #2
 1696 00fe 0344     		add	r3, r3, r0
ARM GAS  C:\Users\JohnP\AppData\Local\Temp\ccNdEQvR.s 			page 46


 1697 0100 5A71     		strb	r2, [r3, #5]
 1698              	.L114:
 787:.\Generated_Source\PSoC5/USBFS_1_std.c ****                                                 USBFS_1_MODE_ISO_OUT : USBFS_1_MODE_ACK_OUT;
 788:.\Generated_Source\PSoC5/USBFS_1_std.c ****                 }
 789:.\Generated_Source\PSoC5/USBFS_1_std.c ****                  /* Change the SIE mode for the selected EP to NAK ALL */
 790:.\Generated_Source\PSoC5/USBFS_1_std.c ****                  CY_SET_REG8((reg8 *)(USBFS_1_SIE_EP1_CR0_IND + ri), USBFS_1_MODE_NAK_IN_OUT);
 1699              		.loc 1 790 0 is_stmt 1
 1700 0102 7A78     		ldrb	r2, [r7, #1]	@ zero_extendqisi2
 1701 0104 544B     		ldr	r3, .L118+20
 1702 0106 1344     		add	r3, r3, r2
 1703 0108 0122     		movs	r2, #1
 1704 010a 1A70     		strb	r2, [r3]
 791:.\Generated_Source\PSoC5/USBFS_1_std.c ****                 USBFS_1_EP[cur_ep].bufferSize = pEP->bufferSize;
 1705              		.loc 1 791 0
 1706 010c BA78     		ldrb	r2, [r7, #2]	@ zero_extendqisi2
 1707 010e BB68     		ldr	r3, [r7, #8]
 1708 0110 9988     		ldrh	r1, [r3, #4]
 1709 0112 5048     		ldr	r0, .L118+16
 1710 0114 1346     		mov	r3, r2
 1711 0116 5B00     		lsls	r3, r3, #1
 1712 0118 1344     		add	r3, r3, r2
 1713 011a 9B00     		lsls	r3, r3, #2
 1714 011c 0344     		add	r3, r3, r0
 1715 011e 0833     		adds	r3, r3, #8
 1716 0120 0A46     		mov	r2, r1	@ movhi
 1717 0122 1A80     		strh	r2, [r3]	@ movhi
 792:.\Generated_Source\PSoC5/USBFS_1_std.c ****                 USBFS_1_EP[cur_ep].addr = pEP->addr;
 1718              		.loc 1 792 0
 1719 0124 BA78     		ldrb	r2, [r7, #2]	@ zero_extendqisi2
 1720 0126 BB68     		ldr	r3, [r7, #8]
 1721 0128 9978     		ldrb	r1, [r3, #2]	@ zero_extendqisi2
 1722 012a 4A48     		ldr	r0, .L118+16
 1723 012c 1346     		mov	r3, r2
 1724 012e 5B00     		lsls	r3, r3, #1
 1725 0130 1344     		add	r3, r3, r2
 1726 0132 9B00     		lsls	r3, r3, #2
 1727 0134 0344     		add	r3, r3, r0
 1728 0136 0A46     		mov	r2, r1
 1729 0138 1A71     		strb	r2, [r3, #4]
 793:.\Generated_Source\PSoC5/USBFS_1_std.c ****                 USBFS_1_EP[cur_ep].attrib = pEP->attributes;
 1730              		.loc 1 793 0
 1731 013a BA78     		ldrb	r2, [r7, #2]	@ zero_extendqisi2
 1732 013c BB68     		ldr	r3, [r7, #8]
 1733 013e D978     		ldrb	r1, [r3, #3]	@ zero_extendqisi2
 1734 0140 4448     		ldr	r0, .L118+16
 1735 0142 1346     		mov	r3, r2
 1736 0144 5B00     		lsls	r3, r3, #1
 1737 0146 1344     		add	r3, r3, r2
 1738 0148 9B00     		lsls	r3, r3, #2
 1739 014a 0344     		add	r3, r3, r0
 1740 014c 0A46     		mov	r2, r1
 1741 014e 1A70     		strb	r2, [r3]
 794:.\Generated_Source\PSoC5/USBFS_1_std.c **** 
 795:.\Generated_Source\PSoC5/USBFS_1_std.c ****                 /* Clear the data toggle */
 796:.\Generated_Source\PSoC5/USBFS_1_std.c ****                 USBFS_1_EP[cur_ep].epToggle = 0u;
 1742              		.loc 1 796 0
 1743 0150 BA78     		ldrb	r2, [r7, #2]	@ zero_extendqisi2
ARM GAS  C:\Users\JohnP\AppData\Local\Temp\ccNdEQvR.s 			page 47


 1744 0152 4049     		ldr	r1, .L118+16
 1745 0154 1346     		mov	r3, r2
 1746 0156 5B00     		lsls	r3, r3, #1
 1747 0158 1344     		add	r3, r3, r2
 1748 015a 9B00     		lsls	r3, r3, #2
 1749 015c 0B44     		add	r3, r3, r1
 1750 015e 0022     		movs	r2, #0
 1751 0160 DA70     		strb	r2, [r3, #3]
 797:.\Generated_Source\PSoC5/USBFS_1_std.c **** 
 798:.\Generated_Source\PSoC5/USBFS_1_std.c ****                 /* Dynamic reconfiguration for mode 3 transfer */
 799:.\Generated_Source\PSoC5/USBFS_1_std.c ****             #if(USBFS_1_EP_MM == USBFS_1__EP_DMAAUTO)
 800:.\Generated_Source\PSoC5/USBFS_1_std.c ****                 /* In_data_rdy for selected EP should be set to 0 */
 801:.\Generated_Source\PSoC5/USBFS_1_std.c ****                 * (reg8 *)(USBFS_1_ARB_EP1_CFG_IND + ri) &= (uint8)~USBFS_1_ARB_EPX_CFG_IN_DATA_RDY
 802:.\Generated_Source\PSoC5/USBFS_1_std.c **** 
 803:.\Generated_Source\PSoC5/USBFS_1_std.c ****                 /* write the EP number for which reconfiguration is required */
 804:.\Generated_Source\PSoC5/USBFS_1_std.c ****                 USBFS_1_DYN_RECONFIG_REG = (cur_ep - USBFS_1_EP1) <<
 805:.\Generated_Source\PSoC5/USBFS_1_std.c ****                                                     USBFS_1_DYN_RECONFIG_EP_SHIFT;
 806:.\Generated_Source\PSoC5/USBFS_1_std.c ****                 /* Set the dyn_config_en bit in dynamic reconfiguration register */
 807:.\Generated_Source\PSoC5/USBFS_1_std.c ****                 USBFS_1_DYN_RECONFIG_REG |= USBFS_1_DYN_RECONFIG_ENABLE;
 808:.\Generated_Source\PSoC5/USBFS_1_std.c ****                 /* wait for the dyn_config_rdy bit to set by the block,
 809:.\Generated_Source\PSoC5/USBFS_1_std.c ****                 *  this bit will be set to 1 when block is ready for reconfiguration.
 810:.\Generated_Source\PSoC5/USBFS_1_std.c ****                 */
 811:.\Generated_Source\PSoC5/USBFS_1_std.c ****                 while((USBFS_1_DYN_RECONFIG_REG & USBFS_1_DYN_RECONFIG_RDY_STS) == 0u)
 812:.\Generated_Source\PSoC5/USBFS_1_std.c ****                 {
 813:.\Generated_Source\PSoC5/USBFS_1_std.c ****                     ;
 814:.\Generated_Source\PSoC5/USBFS_1_std.c ****                 }
 815:.\Generated_Source\PSoC5/USBFS_1_std.c ****                 /* Once dyn_config_rdy bit is set, FW can change the EP configuration. */
 816:.\Generated_Source\PSoC5/USBFS_1_std.c ****                 /* Change EP Type with new direction */
 817:.\Generated_Source\PSoC5/USBFS_1_std.c ****                 if((pEP->addr & USBFS_1_DIR_IN) == 0u)
 818:.\Generated_Source\PSoC5/USBFS_1_std.c ****                 {
 819:.\Generated_Source\PSoC5/USBFS_1_std.c ****                     USBFS_1_EP_TYPE_REG |= (uint8)(0x01u << (cur_ep - USBFS_1_EP1));
 820:.\Generated_Source\PSoC5/USBFS_1_std.c ****                 }
 821:.\Generated_Source\PSoC5/USBFS_1_std.c ****                 else
 822:.\Generated_Source\PSoC5/USBFS_1_std.c ****                 {
 823:.\Generated_Source\PSoC5/USBFS_1_std.c ****                     USBFS_1_EP_TYPE_REG &= (uint8)~(uint8)(0x01u << (cur_ep - USBFS_1_EP1));
 824:.\Generated_Source\PSoC5/USBFS_1_std.c ****                 }
 825:.\Generated_Source\PSoC5/USBFS_1_std.c ****                 /* dynamic reconfiguration enable bit cleared, pointers and control/status
 826:.\Generated_Source\PSoC5/USBFS_1_std.c ****                 *  signals for the selected EP is cleared/re-initialized on negative edge
 827:.\Generated_Source\PSoC5/USBFS_1_std.c ****                 *  of dynamic reconfiguration enable bit).
 828:.\Generated_Source\PSoC5/USBFS_1_std.c ****                 */
 829:.\Generated_Source\PSoC5/USBFS_1_std.c ****                 USBFS_1_DYN_RECONFIG_REG &= (uint8)~USBFS_1_DYN_RECONFIG_ENABLE;
 830:.\Generated_Source\PSoC5/USBFS_1_std.c ****                 /* The main loop has to re-enable DMA and OUT endpoint*/
 831:.\Generated_Source\PSoC5/USBFS_1_std.c ****             #else
 832:.\Generated_Source\PSoC5/USBFS_1_std.c ****                 CY_SET_REG8((reg8 *)(USBFS_1_SIE_EP1_CNT0_IND + ri),
 1752              		.loc 1 832 0
 1753 0162 7A78     		ldrb	r2, [r7, #1]	@ zero_extendqisi2
 1754 0164 3D4B     		ldr	r3, .L118+24
 1755 0166 1344     		add	r3, r3, r2
 1756 0168 1946     		mov	r1, r3
 1757 016a BA78     		ldrb	r2, [r7, #2]	@ zero_extendqisi2
 1758 016c 3948     		ldr	r0, .L118+16
 1759 016e 1346     		mov	r3, r2
 1760 0170 5B00     		lsls	r3, r3, #1
 1761 0172 1344     		add	r3, r3, r2
 1762 0174 9B00     		lsls	r3, r3, #2
 1763 0176 0344     		add	r3, r3, r0
 1764 0178 0833     		adds	r3, r3, #8
ARM GAS  C:\Users\JohnP\AppData\Local\Temp\ccNdEQvR.s 			page 48


 1765 017a 1B88     		ldrh	r3, [r3]	@ movhi
 1766 017c 9BB2     		uxth	r3, r3
 1767 017e 1B0A     		lsrs	r3, r3, #8
 1768 0180 9BB2     		uxth	r3, r3
 1769 0182 DBB2     		uxtb	r3, r3
 1770 0184 0B70     		strb	r3, [r1]
 833:.\Generated_Source\PSoC5/USBFS_1_std.c ****                                                                 USBFS_1_EP[cur_ep].bufferSize >> 8u
 834:.\Generated_Source\PSoC5/USBFS_1_std.c ****                 CY_SET_REG8((reg8 *)(USBFS_1_SIE_EP1_CNT1_IND + ri),
 1771              		.loc 1 834 0
 1772 0186 7A78     		ldrb	r2, [r7, #1]	@ zero_extendqisi2
 1773 0188 354B     		ldr	r3, .L118+28
 1774 018a 1344     		add	r3, r3, r2
 1775 018c 1946     		mov	r1, r3
 1776 018e BA78     		ldrb	r2, [r7, #2]	@ zero_extendqisi2
 1777 0190 3048     		ldr	r0, .L118+16
 1778 0192 1346     		mov	r3, r2
 1779 0194 5B00     		lsls	r3, r3, #1
 1780 0196 1344     		add	r3, r3, r2
 1781 0198 9B00     		lsls	r3, r3, #2
 1782 019a 0344     		add	r3, r3, r0
 1783 019c 0833     		adds	r3, r3, #8
 1784 019e 1B88     		ldrh	r3, [r3]	@ movhi
 1785 01a0 9BB2     		uxth	r3, r3
 1786 01a2 DBB2     		uxtb	r3, r3
 1787 01a4 0B70     		strb	r3, [r1]
 835:.\Generated_Source\PSoC5/USBFS_1_std.c ****                                                                 USBFS_1_EP[cur_ep].bufferSize & 0xF
 836:.\Generated_Source\PSoC5/USBFS_1_std.c ****                 CY_SET_REG8((reg8 *)(USBFS_1_ARB_RW1_RA_IND + ri),
 1788              		.loc 1 836 0
 1789 01a6 7A78     		ldrb	r2, [r7, #1]	@ zero_extendqisi2
 1790 01a8 2E4B     		ldr	r3, .L118+32
 1791 01aa 1344     		add	r3, r3, r2
 1792 01ac 1946     		mov	r1, r3
 1793 01ae BA78     		ldrb	r2, [r7, #2]	@ zero_extendqisi2
 1794 01b0 2848     		ldr	r0, .L118+16
 1795 01b2 1346     		mov	r3, r2
 1796 01b4 5B00     		lsls	r3, r3, #1
 1797 01b6 1344     		add	r3, r3, r2
 1798 01b8 9B00     		lsls	r3, r3, #2
 1799 01ba 0344     		add	r3, r3, r0
 1800 01bc DB88     		ldrh	r3, [r3, #6]	@ movhi
 1801 01be 9BB2     		uxth	r3, r3
 1802 01c0 DBB2     		uxtb	r3, r3
 1803 01c2 0B70     		strb	r3, [r1]
 837:.\Generated_Source\PSoC5/USBFS_1_std.c ****                                                                 USBFS_1_EP[cur_ep].buffOffset & 0xF
 838:.\Generated_Source\PSoC5/USBFS_1_std.c ****                 CY_SET_REG8((reg8 *)(USBFS_1_ARB_RW1_RA_MSB_IND + ri),
 1804              		.loc 1 838 0
 1805 01c4 7A78     		ldrb	r2, [r7, #1]	@ zero_extendqisi2
 1806 01c6 284B     		ldr	r3, .L118+36
 1807 01c8 1344     		add	r3, r3, r2
 1808 01ca 1946     		mov	r1, r3
 1809 01cc BA78     		ldrb	r2, [r7, #2]	@ zero_extendqisi2
 1810 01ce 2148     		ldr	r0, .L118+16
 1811 01d0 1346     		mov	r3, r2
 1812 01d2 5B00     		lsls	r3, r3, #1
 1813 01d4 1344     		add	r3, r3, r2
 1814 01d6 9B00     		lsls	r3, r3, #2
 1815 01d8 0344     		add	r3, r3, r0
ARM GAS  C:\Users\JohnP\AppData\Local\Temp\ccNdEQvR.s 			page 49


 1816 01da DB88     		ldrh	r3, [r3, #6]	@ movhi
 1817 01dc 9BB2     		uxth	r3, r3
 1818 01de 1B0A     		lsrs	r3, r3, #8
 1819 01e0 9BB2     		uxth	r3, r3
 1820 01e2 DBB2     		uxtb	r3, r3
 1821 01e4 0B70     		strb	r3, [r1]
 839:.\Generated_Source\PSoC5/USBFS_1_std.c ****                                                                 USBFS_1_EP[cur_ep].buffOffset >> 8u
 840:.\Generated_Source\PSoC5/USBFS_1_std.c ****                 CY_SET_REG8((reg8 *)(USBFS_1_ARB_RW1_WA_IND + ri),
 1822              		.loc 1 840 0
 1823 01e6 7A78     		ldrb	r2, [r7, #1]	@ zero_extendqisi2
 1824 01e8 204B     		ldr	r3, .L118+40
 1825 01ea 1344     		add	r3, r3, r2
 1826 01ec 1946     		mov	r1, r3
 1827 01ee BA78     		ldrb	r2, [r7, #2]	@ zero_extendqisi2
 1828 01f0 1848     		ldr	r0, .L118+16
 1829 01f2 1346     		mov	r3, r2
 1830 01f4 5B00     		lsls	r3, r3, #1
 1831 01f6 1344     		add	r3, r3, r2
 1832 01f8 9B00     		lsls	r3, r3, #2
 1833 01fa 0344     		add	r3, r3, r0
 1834 01fc DB88     		ldrh	r3, [r3, #6]	@ movhi
 1835 01fe 9BB2     		uxth	r3, r3
 1836 0200 DBB2     		uxtb	r3, r3
 1837 0202 0B70     		strb	r3, [r1]
 841:.\Generated_Source\PSoC5/USBFS_1_std.c ****                                                                 USBFS_1_EP[cur_ep].buffOffset & 0xF
 842:.\Generated_Source\PSoC5/USBFS_1_std.c ****                 CY_SET_REG8((reg8 *)(USBFS_1_ARB_RW1_WA_MSB_IND + ri),
 1838              		.loc 1 842 0
 1839 0204 7A78     		ldrb	r2, [r7, #1]	@ zero_extendqisi2
 1840 0206 1A4B     		ldr	r3, .L118+44
 1841 0208 1344     		add	r3, r3, r2
 1842 020a 1946     		mov	r1, r3
 1843 020c BA78     		ldrb	r2, [r7, #2]	@ zero_extendqisi2
 1844 020e 1148     		ldr	r0, .L118+16
 1845 0210 1346     		mov	r3, r2
 1846 0212 5B00     		lsls	r3, r3, #1
 1847 0214 1344     		add	r3, r3, r2
 1848 0216 9B00     		lsls	r3, r3, #2
 1849 0218 0344     		add	r3, r3, r0
 1850 021a DB88     		ldrh	r3, [r3, #6]	@ movhi
 1851 021c 9BB2     		uxth	r3, r3
 1852 021e 1B0A     		lsrs	r3, r3, #8
 1853 0220 9BB2     		uxth	r3, r3
 1854 0222 DBB2     		uxtb	r3, r3
 1855 0224 0B70     		strb	r3, [r1]
 1856              	.L110:
 843:.\Generated_Source\PSoC5/USBFS_1_std.c ****                                                                 USBFS_1_EP[cur_ep].buffOffset >> 8u
 844:.\Generated_Source\PSoC5/USBFS_1_std.c ****             #endif /*  USBFS_1_EP_MM == USBFS_1__EP_DMAAUTO */
 845:.\Generated_Source\PSoC5/USBFS_1_std.c ****             }
 846:.\Generated_Source\PSoC5/USBFS_1_std.c ****             /* Get next EP element */
 847:.\Generated_Source\PSoC5/USBFS_1_std.c ****             pEP = &pEP[1u];
 1857              		.loc 1 847 0
 1858 0226 BB68     		ldr	r3, [r7, #8]
 1859 0228 0833     		adds	r3, r3, #8
 1860 022a BB60     		str	r3, [r7, #8]
 764:.\Generated_Source\PSoC5/USBFS_1_std.c ****         for (i = 0u; i < ep; i++)
 1861              		.loc 1 764 0
 1862 022c FB7B     		ldrb	r3, [r7, #15]	@ zero_extendqisi2
ARM GAS  C:\Users\JohnP\AppData\Local\Temp\ccNdEQvR.s 			page 50


 1863 022e 0133     		adds	r3, r3, #1
 1864 0230 FB73     		strb	r3, [r7, #15]
 1865              	.L109:
 764:.\Generated_Source\PSoC5/USBFS_1_std.c ****         for (i = 0u; i < ep; i++)
 1866              		.loc 1 764 0 is_stmt 0 discriminator 1
 1867 0232 FA7B     		ldrb	r2, [r7, #15]	@ zero_extendqisi2
 1868 0234 FB78     		ldrb	r3, [r7, #3]	@ zero_extendqisi2
 1869 0236 9A42     		cmp	r2, r3
 1870 0238 FFF400AF 		bcc	.L117
 1871              	.L107:
 848:.\Generated_Source\PSoC5/USBFS_1_std.c ****         }
 849:.\Generated_Source\PSoC5/USBFS_1_std.c ****     }   /* USBFS_1_configuration > 0 */
 850:.\Generated_Source\PSoC5/USBFS_1_std.c **** }
 1872              		.loc 1 850 0 is_stmt 1
 1873 023c 1037     		adds	r7, r7, #16
 1874 023e BD46     		mov	sp, r7
 1875              		@ sp needed
 1876 0240 80BD     		pop	{r7, pc}
 1877              	.L119:
 1878 0242 00BF     		.align	2
 1879              	.L118:
 1880 0244 00000000 		.word	USBFS_1_configuration
 1881 0248 00000000 		.word	USBFS_1_interfaceSetting
 1882 024c 00000000 		.word	USBFS_1_interfaceSetting_last
 1883 0250 04600040 		.word	1073766404
 1884 0254 00000000 		.word	USBFS_1_EP
 1885 0258 0E600040 		.word	1073766414
 1886 025c 0C600040 		.word	1073766412
 1887 0260 0D600040 		.word	1073766413
 1888 0264 86600040 		.word	1073766534
 1889 0268 87600040 		.word	1073766535
 1890 026c 84600040 		.word	1073766532
 1891 0270 85600040 		.word	1073766533
 1892              		.cfi_endproc
 1893              	.LFE4:
 1894              		.size	USBFS_1_ConfigAltChanged, .-USBFS_1_ConfigAltChanged
 1895              		.section	.text.USBFS_1_GetConfigTablePtr,"ax",%progbits
 1896              		.align	2
 1897              		.global	USBFS_1_GetConfigTablePtr
 1898              		.thumb
 1899              		.thumb_func
 1900              		.type	USBFS_1_GetConfigTablePtr, %function
 1901              	USBFS_1_GetConfigTablePtr:
 1902              	.LFB5:
 851:.\Generated_Source\PSoC5/USBFS_1_std.c **** 
 852:.\Generated_Source\PSoC5/USBFS_1_std.c **** 
 853:.\Generated_Source\PSoC5/USBFS_1_std.c **** /*******************************************************************************
 854:.\Generated_Source\PSoC5/USBFS_1_std.c **** * Function Name: USBFS_1_GetConfigTablePtr
 855:.\Generated_Source\PSoC5/USBFS_1_std.c **** ********************************************************************************
 856:.\Generated_Source\PSoC5/USBFS_1_std.c **** *
 857:.\Generated_Source\PSoC5/USBFS_1_std.c **** * Summary:
 858:.\Generated_Source\PSoC5/USBFS_1_std.c **** *  This routine returns a pointer a configuration table entry
 859:.\Generated_Source\PSoC5/USBFS_1_std.c **** *
 860:.\Generated_Source\PSoC5/USBFS_1_std.c **** * Parameters:
 861:.\Generated_Source\PSoC5/USBFS_1_std.c **** *  confIndex:  Configuration Index
 862:.\Generated_Source\PSoC5/USBFS_1_std.c **** *
 863:.\Generated_Source\PSoC5/USBFS_1_std.c **** * Return:
ARM GAS  C:\Users\JohnP\AppData\Local\Temp\ccNdEQvR.s 			page 51


 864:.\Generated_Source\PSoC5/USBFS_1_std.c **** *  Device Descriptor pointer or NULL when descriptor isn't exists.
 865:.\Generated_Source\PSoC5/USBFS_1_std.c **** *
 866:.\Generated_Source\PSoC5/USBFS_1_std.c **** *******************************************************************************/
 867:.\Generated_Source\PSoC5/USBFS_1_std.c **** const T_USBFS_1_LUT CYCODE *USBFS_1_GetConfigTablePtr(uint8 confIndex)
 868:.\Generated_Source\PSoC5/USBFS_1_std.c ****                                                         
 869:.\Generated_Source\PSoC5/USBFS_1_std.c **** {
 1903              		.loc 1 869 0
 1904              		.cfi_startproc
 1905              		@ args = 0, pretend = 0, frame = 16
 1906              		@ frame_needed = 1, uses_anonymous_args = 0
 1907              		@ link register save eliminated.
 1908 0000 80B4     		push	{r7}
 1909              		.cfi_def_cfa_offset 4
 1910              		.cfi_offset 7, -4
 1911 0002 85B0     		sub	sp, sp, #20
 1912              		.cfi_def_cfa_offset 24
 1913 0004 00AF     		add	r7, sp, #0
 1914              		.cfi_def_cfa_register 7
 1915 0006 0346     		mov	r3, r0
 1916 0008 FB71     		strb	r3, [r7, #7]
 870:.\Generated_Source\PSoC5/USBFS_1_std.c ****     /* Device Table */
 871:.\Generated_Source\PSoC5/USBFS_1_std.c ****     const T_USBFS_1_LUT CYCODE *pTmp;
 872:.\Generated_Source\PSoC5/USBFS_1_std.c **** 
 873:.\Generated_Source\PSoC5/USBFS_1_std.c ****     pTmp = (const T_USBFS_1_LUT CYCODE *) USBFS_1_TABLE[USBFS_1_device].p_list;
 1917              		.loc 1 873 0
 1918 000a 104B     		ldr	r3, .L124
 1919 000c 1B78     		ldrb	r3, [r3]
 1920 000e DBB2     		uxtb	r3, r3
 1921 0010 0F4A     		ldr	r2, .L124+4
 1922 0012 DB00     		lsls	r3, r3, #3
 1923 0014 1344     		add	r3, r3, r2
 1924 0016 5B68     		ldr	r3, [r3, #4]
 1925 0018 FB60     		str	r3, [r7, #12]
 874:.\Generated_Source\PSoC5/USBFS_1_std.c **** 
 875:.\Generated_Source\PSoC5/USBFS_1_std.c ****     /* The first entry points to the Device Descriptor,
 876:.\Generated_Source\PSoC5/USBFS_1_std.c ****     *  the rest configuration entries.
 877:.\Generated_Source\PSoC5/USBFS_1_std.c ****     *  Set pointer to the first Configuration Descriptor
 878:.\Generated_Source\PSoC5/USBFS_1_std.c ****     */
 879:.\Generated_Source\PSoC5/USBFS_1_std.c ****     pTmp = &pTmp[1u];
 1926              		.loc 1 879 0
 1927 001a FB68     		ldr	r3, [r7, #12]
 1928 001c 0833     		adds	r3, r3, #8
 1929 001e FB60     		str	r3, [r7, #12]
 880:.\Generated_Source\PSoC5/USBFS_1_std.c ****     /* For this table, c is the number of configuration descriptors  */
 881:.\Generated_Source\PSoC5/USBFS_1_std.c ****     if(confIndex >= pTmp->c)   /* Verify that required configuration descriptor exists */
 1930              		.loc 1 881 0
 1931 0020 FB68     		ldr	r3, [r7, #12]
 1932 0022 1B78     		ldrb	r3, [r3]	@ zero_extendqisi2
 1933 0024 FA79     		ldrb	r2, [r7, #7]	@ zero_extendqisi2
 1934 0026 9A42     		cmp	r2, r3
 1935 0028 02D3     		bcc	.L121
 882:.\Generated_Source\PSoC5/USBFS_1_std.c ****     {
 883:.\Generated_Source\PSoC5/USBFS_1_std.c ****         pTmp = (const T_USBFS_1_LUT CYCODE *) NULL;
 1936              		.loc 1 883 0
 1937 002a 0023     		movs	r3, #0
 1938 002c FB60     		str	r3, [r7, #12]
 1939 002e 05E0     		b	.L122
ARM GAS  C:\Users\JohnP\AppData\Local\Temp\ccNdEQvR.s 			page 52


 1940              	.L121:
 884:.\Generated_Source\PSoC5/USBFS_1_std.c ****     }
 885:.\Generated_Source\PSoC5/USBFS_1_std.c ****     else
 886:.\Generated_Source\PSoC5/USBFS_1_std.c ****     {
 887:.\Generated_Source\PSoC5/USBFS_1_std.c ****         pTmp = (const T_USBFS_1_LUT CYCODE *) pTmp[confIndex].p_list;
 1941              		.loc 1 887 0
 1942 0030 FB79     		ldrb	r3, [r7, #7]	@ zero_extendqisi2
 1943 0032 DB00     		lsls	r3, r3, #3
 1944 0034 FA68     		ldr	r2, [r7, #12]
 1945 0036 1344     		add	r3, r3, r2
 1946 0038 5B68     		ldr	r3, [r3, #4]
 1947 003a FB60     		str	r3, [r7, #12]
 1948              	.L122:
 888:.\Generated_Source\PSoC5/USBFS_1_std.c ****     }
 889:.\Generated_Source\PSoC5/USBFS_1_std.c **** 
 890:.\Generated_Source\PSoC5/USBFS_1_std.c ****     return( pTmp );
 1949              		.loc 1 890 0
 1950 003c FB68     		ldr	r3, [r7, #12]
 891:.\Generated_Source\PSoC5/USBFS_1_std.c **** }
 1951              		.loc 1 891 0
 1952 003e 1846     		mov	r0, r3
 1953 0040 1437     		adds	r7, r7, #20
 1954 0042 BD46     		mov	sp, r7
 1955              		@ sp needed
 1956 0044 5DF8047B 		ldr	r7, [sp], #4
 1957 0048 7047     		bx	lr
 1958              	.L125:
 1959 004a 00BF     		.align	2
 1960              	.L124:
 1961 004c 00000000 		.word	USBFS_1_device
 1962 0050 00000000 		.word	USBFS_1_TABLE
 1963              		.cfi_endproc
 1964              	.LFE5:
 1965              		.size	USBFS_1_GetConfigTablePtr, .-USBFS_1_GetConfigTablePtr
 1966              		.section	.text.USBFS_1_GetDeviceTablePtr,"ax",%progbits
 1967              		.align	2
 1968              		.global	USBFS_1_GetDeviceTablePtr
 1969              		.thumb
 1970              		.thumb_func
 1971              		.type	USBFS_1_GetDeviceTablePtr, %function
 1972              	USBFS_1_GetDeviceTablePtr:
 1973              	.LFB6:
 892:.\Generated_Source\PSoC5/USBFS_1_std.c **** 
 893:.\Generated_Source\PSoC5/USBFS_1_std.c **** 
 894:.\Generated_Source\PSoC5/USBFS_1_std.c **** /*******************************************************************************
 895:.\Generated_Source\PSoC5/USBFS_1_std.c **** * Function Name: USBFS_1_GetDeviceTablePtr
 896:.\Generated_Source\PSoC5/USBFS_1_std.c **** ********************************************************************************
 897:.\Generated_Source\PSoC5/USBFS_1_std.c **** *
 898:.\Generated_Source\PSoC5/USBFS_1_std.c **** * Summary:
 899:.\Generated_Source\PSoC5/USBFS_1_std.c **** *  This routine returns a pointer to the Device table
 900:.\Generated_Source\PSoC5/USBFS_1_std.c **** *
 901:.\Generated_Source\PSoC5/USBFS_1_std.c **** * Parameters:
 902:.\Generated_Source\PSoC5/USBFS_1_std.c **** *  None.
 903:.\Generated_Source\PSoC5/USBFS_1_std.c **** *
 904:.\Generated_Source\PSoC5/USBFS_1_std.c **** * Return:
 905:.\Generated_Source\PSoC5/USBFS_1_std.c **** *  Device Table pointer
 906:.\Generated_Source\PSoC5/USBFS_1_std.c **** *
ARM GAS  C:\Users\JohnP\AppData\Local\Temp\ccNdEQvR.s 			page 53


 907:.\Generated_Source\PSoC5/USBFS_1_std.c **** *******************************************************************************/
 908:.\Generated_Source\PSoC5/USBFS_1_std.c **** const T_USBFS_1_LUT CYCODE *USBFS_1_GetDeviceTablePtr(void)
 909:.\Generated_Source\PSoC5/USBFS_1_std.c ****                                                             
 910:.\Generated_Source\PSoC5/USBFS_1_std.c **** {
 1974              		.loc 1 910 0
 1975              		.cfi_startproc
 1976              		@ args = 0, pretend = 0, frame = 0
 1977              		@ frame_needed = 1, uses_anonymous_args = 0
 1978              		@ link register save eliminated.
 1979 0000 80B4     		push	{r7}
 1980              		.cfi_def_cfa_offset 4
 1981              		.cfi_offset 7, -4
 1982 0002 00AF     		add	r7, sp, #0
 1983              		.cfi_def_cfa_register 7
 911:.\Generated_Source\PSoC5/USBFS_1_std.c ****     /* Device Table */
 912:.\Generated_Source\PSoC5/USBFS_1_std.c ****     return( (const T_USBFS_1_LUT CYCODE *) USBFS_1_TABLE[USBFS_1_device].p_list );
 1984              		.loc 1 912 0
 1985 0004 054B     		ldr	r3, .L128
 1986 0006 1B78     		ldrb	r3, [r3]
 1987 0008 DBB2     		uxtb	r3, r3
 1988 000a 054A     		ldr	r2, .L128+4
 1989 000c DB00     		lsls	r3, r3, #3
 1990 000e 1344     		add	r3, r3, r2
 1991 0010 5B68     		ldr	r3, [r3, #4]
 913:.\Generated_Source\PSoC5/USBFS_1_std.c **** }
 1992              		.loc 1 913 0
 1993 0012 1846     		mov	r0, r3
 1994 0014 BD46     		mov	sp, r7
 1995              		@ sp needed
 1996 0016 5DF8047B 		ldr	r7, [sp], #4
 1997 001a 7047     		bx	lr
 1998              	.L129:
 1999              		.align	2
 2000              	.L128:
 2001 001c 00000000 		.word	USBFS_1_device
 2002 0020 00000000 		.word	USBFS_1_TABLE
 2003              		.cfi_endproc
 2004              	.LFE6:
 2005              		.size	USBFS_1_GetDeviceTablePtr, .-USBFS_1_GetDeviceTablePtr
 2006              		.section	.text.USBFS_1_GetInterfaceClassTablePtr,"ax",%progbits
 2007              		.align	2
 2008              		.global	USBFS_1_GetInterfaceClassTablePtr
 2009              		.thumb
 2010              		.thumb_func
 2011              		.type	USBFS_1_GetInterfaceClassTablePtr, %function
 2012              	USBFS_1_GetInterfaceClassTablePtr:
 2013              	.LFB7:
 914:.\Generated_Source\PSoC5/USBFS_1_std.c **** 
 915:.\Generated_Source\PSoC5/USBFS_1_std.c **** 
 916:.\Generated_Source\PSoC5/USBFS_1_std.c **** /*******************************************************************************
 917:.\Generated_Source\PSoC5/USBFS_1_std.c **** * Function Name: USB_GetInterfaceClassTablePtr
 918:.\Generated_Source\PSoC5/USBFS_1_std.c **** ********************************************************************************
 919:.\Generated_Source\PSoC5/USBFS_1_std.c **** *
 920:.\Generated_Source\PSoC5/USBFS_1_std.c **** * Summary:
 921:.\Generated_Source\PSoC5/USBFS_1_std.c **** *  This routine returns Interface Class table pointer, which contains
 922:.\Generated_Source\PSoC5/USBFS_1_std.c **** *  the relation between interface number and interface class.
 923:.\Generated_Source\PSoC5/USBFS_1_std.c **** *
ARM GAS  C:\Users\JohnP\AppData\Local\Temp\ccNdEQvR.s 			page 54


 924:.\Generated_Source\PSoC5/USBFS_1_std.c **** * Parameters:
 925:.\Generated_Source\PSoC5/USBFS_1_std.c **** *  None.
 926:.\Generated_Source\PSoC5/USBFS_1_std.c **** *
 927:.\Generated_Source\PSoC5/USBFS_1_std.c **** * Return:
 928:.\Generated_Source\PSoC5/USBFS_1_std.c **** *  Interface Class table pointer.
 929:.\Generated_Source\PSoC5/USBFS_1_std.c **** *
 930:.\Generated_Source\PSoC5/USBFS_1_std.c **** *******************************************************************************/
 931:.\Generated_Source\PSoC5/USBFS_1_std.c **** const uint8 CYCODE *USBFS_1_GetInterfaceClassTablePtr(void)
 932:.\Generated_Source\PSoC5/USBFS_1_std.c ****                                                         
 933:.\Generated_Source\PSoC5/USBFS_1_std.c **** {
 2014              		.loc 1 933 0
 2015              		.cfi_startproc
 2016              		@ args = 0, pretend = 0, frame = 16
 2017              		@ frame_needed = 1, uses_anonymous_args = 0
 2018 0000 80B5     		push	{r7, lr}
 2019              		.cfi_def_cfa_offset 8
 2020              		.cfi_offset 7, -8
 2021              		.cfi_offset 14, -4
 2022 0002 84B0     		sub	sp, sp, #16
 2023              		.cfi_def_cfa_offset 24
 2024 0004 00AF     		add	r7, sp, #0
 2025              		.cfi_def_cfa_register 7
 934:.\Generated_Source\PSoC5/USBFS_1_std.c ****     const T_USBFS_1_LUT CYCODE *pTmp;
 935:.\Generated_Source\PSoC5/USBFS_1_std.c ****     const uint8 CYCODE *pInterfaceClass;
 936:.\Generated_Source\PSoC5/USBFS_1_std.c ****     uint8 currentInterfacesNum;
 937:.\Generated_Source\PSoC5/USBFS_1_std.c **** 
 938:.\Generated_Source\PSoC5/USBFS_1_std.c ****     pTmp = USBFS_1_GetConfigTablePtr(USBFS_1_configuration - 1u);
 2026              		.loc 1 938 0
 2027 0006 104B     		ldr	r3, .L134
 2028 0008 1B78     		ldrb	r3, [r3]
 2029 000a DBB2     		uxtb	r3, r3
 2030 000c 013B     		subs	r3, r3, #1
 2031 000e DBB2     		uxtb	r3, r3
 2032 0010 1846     		mov	r0, r3
 2033 0012 FFF7FEFF 		bl	USBFS_1_GetConfigTablePtr
 2034 0016 B860     		str	r0, [r7, #8]
 939:.\Generated_Source\PSoC5/USBFS_1_std.c ****     if( pTmp != NULL )
 2035              		.loc 1 939 0
 2036 0018 BB68     		ldr	r3, [r7, #8]
 2037 001a 002B     		cmp	r3, #0
 2038 001c 0DD0     		beq	.L131
 940:.\Generated_Source\PSoC5/USBFS_1_std.c ****     {
 941:.\Generated_Source\PSoC5/USBFS_1_std.c ****         currentInterfacesNum  = ((const uint8 *) pTmp->p_list)[USBFS_1_CONFIG_DESCR_NUM_INTERFACES]
 2039              		.loc 1 941 0
 2040 001e BB68     		ldr	r3, [r7, #8]
 2041 0020 5B68     		ldr	r3, [r3, #4]
 2042 0022 1B79     		ldrb	r3, [r3, #4]
 2043 0024 FB71     		strb	r3, [r7, #7]
 942:.\Generated_Source\PSoC5/USBFS_1_std.c ****         /* Third entry in the LUT starts the Interface Table pointers */
 943:.\Generated_Source\PSoC5/USBFS_1_std.c ****         /* The INTERFACE_CLASS table is located after all interfaces */
 944:.\Generated_Source\PSoC5/USBFS_1_std.c ****         pTmp = &pTmp[currentInterfacesNum + 2u];
 2044              		.loc 1 944 0
 2045 0026 FB79     		ldrb	r3, [r7, #7]	@ zero_extendqisi2
 2046 0028 0233     		adds	r3, r3, #2
 2047 002a DB00     		lsls	r3, r3, #3
 2048 002c BA68     		ldr	r2, [r7, #8]
 2049 002e 1344     		add	r3, r3, r2
ARM GAS  C:\Users\JohnP\AppData\Local\Temp\ccNdEQvR.s 			page 55


 2050 0030 BB60     		str	r3, [r7, #8]
 945:.\Generated_Source\PSoC5/USBFS_1_std.c ****         pInterfaceClass = (const uint8 CYCODE *) pTmp->p_list;
 2051              		.loc 1 945 0
 2052 0032 BB68     		ldr	r3, [r7, #8]
 2053 0034 5B68     		ldr	r3, [r3, #4]
 2054 0036 FB60     		str	r3, [r7, #12]
 2055 0038 01E0     		b	.L132
 2056              	.L131:
 946:.\Generated_Source\PSoC5/USBFS_1_std.c ****     }
 947:.\Generated_Source\PSoC5/USBFS_1_std.c ****     else
 948:.\Generated_Source\PSoC5/USBFS_1_std.c ****     {
 949:.\Generated_Source\PSoC5/USBFS_1_std.c ****         pInterfaceClass = (const uint8 CYCODE *) NULL;
 2057              		.loc 1 949 0
 2058 003a 0023     		movs	r3, #0
 2059 003c FB60     		str	r3, [r7, #12]
 2060              	.L132:
 950:.\Generated_Source\PSoC5/USBFS_1_std.c ****     }
 951:.\Generated_Source\PSoC5/USBFS_1_std.c **** 
 952:.\Generated_Source\PSoC5/USBFS_1_std.c ****     return( pInterfaceClass );
 2061              		.loc 1 952 0
 2062 003e FB68     		ldr	r3, [r7, #12]
 953:.\Generated_Source\PSoC5/USBFS_1_std.c **** }
 2063              		.loc 1 953 0
 2064 0040 1846     		mov	r0, r3
 2065 0042 1037     		adds	r7, r7, #16
 2066 0044 BD46     		mov	sp, r7
 2067              		@ sp needed
 2068 0046 80BD     		pop	{r7, pc}
 2069              	.L135:
 2070              		.align	2
 2071              	.L134:
 2072 0048 00000000 		.word	USBFS_1_configuration
 2073              		.cfi_endproc
 2074              	.LFE7:
 2075              		.size	USBFS_1_GetInterfaceClassTablePtr, .-USBFS_1_GetInterfaceClassTablePtr
 2076              		.section	.text.USBFS_1_TerminateEP,"ax",%progbits
 2077              		.align	2
 2078              		.global	USBFS_1_TerminateEP
 2079              		.thumb
 2080              		.thumb_func
 2081              		.type	USBFS_1_TerminateEP, %function
 2082              	USBFS_1_TerminateEP:
 2083              	.LFB8:
 954:.\Generated_Source\PSoC5/USBFS_1_std.c **** 
 955:.\Generated_Source\PSoC5/USBFS_1_std.c **** 
 956:.\Generated_Source\PSoC5/USBFS_1_std.c **** /*******************************************************************************
 957:.\Generated_Source\PSoC5/USBFS_1_std.c **** * Function Name: USBFS_1_TerminateEP
 958:.\Generated_Source\PSoC5/USBFS_1_std.c **** ********************************************************************************
 959:.\Generated_Source\PSoC5/USBFS_1_std.c **** *
 960:.\Generated_Source\PSoC5/USBFS_1_std.c **** * Summary:
 961:.\Generated_Source\PSoC5/USBFS_1_std.c **** *  This function terminates the specified USBFS endpoint.
 962:.\Generated_Source\PSoC5/USBFS_1_std.c **** *  This function should be used before endpoint reconfiguration.
 963:.\Generated_Source\PSoC5/USBFS_1_std.c **** *
 964:.\Generated_Source\PSoC5/USBFS_1_std.c **** * Parameters:
 965:.\Generated_Source\PSoC5/USBFS_1_std.c **** *  Endpoint number.
 966:.\Generated_Source\PSoC5/USBFS_1_std.c **** *
 967:.\Generated_Source\PSoC5/USBFS_1_std.c **** * Return:
ARM GAS  C:\Users\JohnP\AppData\Local\Temp\ccNdEQvR.s 			page 56


 968:.\Generated_Source\PSoC5/USBFS_1_std.c **** *  None.
 969:.\Generated_Source\PSoC5/USBFS_1_std.c **** *
 970:.\Generated_Source\PSoC5/USBFS_1_std.c **** * Reentrant:
 971:.\Generated_Source\PSoC5/USBFS_1_std.c **** *  No.
 972:.\Generated_Source\PSoC5/USBFS_1_std.c **** *
 973:.\Generated_Source\PSoC5/USBFS_1_std.c **** *******************************************************************************/
 974:.\Generated_Source\PSoC5/USBFS_1_std.c **** void USBFS_1_TerminateEP(uint8 ep) 
 975:.\Generated_Source\PSoC5/USBFS_1_std.c **** {
 2084              		.loc 1 975 0
 2085              		.cfi_startproc
 2086              		@ args = 0, pretend = 0, frame = 16
 2087              		@ frame_needed = 1, uses_anonymous_args = 0
 2088              		@ link register save eliminated.
 2089 0000 80B4     		push	{r7}
 2090              		.cfi_def_cfa_offset 4
 2091              		.cfi_offset 7, -4
 2092 0002 85B0     		sub	sp, sp, #20
 2093              		.cfi_def_cfa_offset 24
 2094 0004 00AF     		add	r7, sp, #0
 2095              		.cfi_def_cfa_register 7
 2096 0006 0346     		mov	r3, r0
 2097 0008 FB71     		strb	r3, [r7, #7]
 976:.\Generated_Source\PSoC5/USBFS_1_std.c ****     uint8 ri;
 977:.\Generated_Source\PSoC5/USBFS_1_std.c **** 
 978:.\Generated_Source\PSoC5/USBFS_1_std.c ****     ep &= USBFS_1_DIR_UNUSED;
 2098              		.loc 1 978 0
 2099 000a FB79     		ldrb	r3, [r7, #7]
 2100 000c 03F07F03 		and	r3, r3, #127
 2101 0010 FB71     		strb	r3, [r7, #7]
 979:.\Generated_Source\PSoC5/USBFS_1_std.c ****     ri = ((ep - USBFS_1_EP1) << USBFS_1_EPX_CNTX_ADDR_SHIFT);
 2102              		.loc 1 979 0
 2103 0012 FB79     		ldrb	r3, [r7, #7]
 2104 0014 013B     		subs	r3, r3, #1
 2105 0016 DBB2     		uxtb	r3, r3
 2106 0018 1B01     		lsls	r3, r3, #4
 2107 001a FB73     		strb	r3, [r7, #15]
 980:.\Generated_Source\PSoC5/USBFS_1_std.c **** 
 981:.\Generated_Source\PSoC5/USBFS_1_std.c ****     if ((ep > USBFS_1_EP0) && (ep < USBFS_1_MAX_EP))
 2108              		.loc 1 981 0
 2109 001c FB79     		ldrb	r3, [r7, #7]	@ zero_extendqisi2
 2110 001e 002B     		cmp	r3, #0
 2111 0020 41D0     		beq	.L136
 2112              		.loc 1 981 0 is_stmt 0 discriminator 1
 2113 0022 FB79     		ldrb	r3, [r7, #7]	@ zero_extendqisi2
 2114 0024 082B     		cmp	r3, #8
 2115 0026 3ED8     		bhi	.L136
 982:.\Generated_Source\PSoC5/USBFS_1_std.c ****     {
 983:.\Generated_Source\PSoC5/USBFS_1_std.c ****         /* Set the endpoint Halt */
 984:.\Generated_Source\PSoC5/USBFS_1_std.c ****         USBFS_1_EP[ep].hwEpState |= (USBFS_1_ENDPOINT_STATUS_HALT);
 2116              		.loc 1 984 0 is_stmt 1
 2117 0028 FA79     		ldrb	r2, [r7, #7]	@ zero_extendqisi2
 2118 002a F979     		ldrb	r1, [r7, #7]	@ zero_extendqisi2
 2119 002c 2048     		ldr	r0, .L139
 2120 002e 0B46     		mov	r3, r1
 2121 0030 5B00     		lsls	r3, r3, #1
 2122 0032 0B44     		add	r3, r3, r1
 2123 0034 9B00     		lsls	r3, r3, #2
ARM GAS  C:\Users\JohnP\AppData\Local\Temp\ccNdEQvR.s 			page 57


 2124 0036 0344     		add	r3, r3, r0
 2125 0038 9B78     		ldrb	r3, [r3, #2]
 2126 003a DBB2     		uxtb	r3, r3
 2127 003c 43F00103 		orr	r3, r3, #1
 2128 0040 D9B2     		uxtb	r1, r3
 2129 0042 1B48     		ldr	r0, .L139
 2130 0044 1346     		mov	r3, r2
 2131 0046 5B00     		lsls	r3, r3, #1
 2132 0048 1344     		add	r3, r3, r2
 2133 004a 9B00     		lsls	r3, r3, #2
 2134 004c 0344     		add	r3, r3, r0
 2135 004e 0A46     		mov	r2, r1
 2136 0050 9A70     		strb	r2, [r3, #2]
 985:.\Generated_Source\PSoC5/USBFS_1_std.c **** 
 986:.\Generated_Source\PSoC5/USBFS_1_std.c ****         /* Clear the data toggle */
 987:.\Generated_Source\PSoC5/USBFS_1_std.c ****         USBFS_1_EP[ep].epToggle = 0u;
 2137              		.loc 1 987 0
 2138 0052 FA79     		ldrb	r2, [r7, #7]	@ zero_extendqisi2
 2139 0054 1649     		ldr	r1, .L139
 2140 0056 1346     		mov	r3, r2
 2141 0058 5B00     		lsls	r3, r3, #1
 2142 005a 1344     		add	r3, r3, r2
 2143 005c 9B00     		lsls	r3, r3, #2
 2144 005e 0B44     		add	r3, r3, r1
 2145 0060 0022     		movs	r2, #0
 2146 0062 DA70     		strb	r2, [r3, #3]
 988:.\Generated_Source\PSoC5/USBFS_1_std.c ****         USBFS_1_EP[ep].apiEpState = USBFS_1_NO_EVENT_ALLOWED;
 2147              		.loc 1 988 0
 2148 0064 FA79     		ldrb	r2, [r7, #7]	@ zero_extendqisi2
 2149 0066 1249     		ldr	r1, .L139
 2150 0068 1346     		mov	r3, r2
 2151 006a 5B00     		lsls	r3, r3, #1
 2152 006c 1344     		add	r3, r3, r2
 2153 006e 9B00     		lsls	r3, r3, #2
 2154 0070 0B44     		add	r3, r3, r1
 2155 0072 0222     		movs	r2, #2
 2156 0074 5A70     		strb	r2, [r3, #1]
 989:.\Generated_Source\PSoC5/USBFS_1_std.c **** 
 990:.\Generated_Source\PSoC5/USBFS_1_std.c ****         if ((USBFS_1_EP[ep].addr & USBFS_1_DIR_IN) != 0u)
 2157              		.loc 1 990 0
 2158 0076 FA79     		ldrb	r2, [r7, #7]	@ zero_extendqisi2
 2159 0078 0D49     		ldr	r1, .L139
 2160 007a 1346     		mov	r3, r2
 2161 007c 5B00     		lsls	r3, r3, #1
 2162 007e 1344     		add	r3, r3, r2
 2163 0080 9B00     		lsls	r3, r3, #2
 2164 0082 0B44     		add	r3, r3, r1
 2165 0084 1B79     		ldrb	r3, [r3, #4]
 2166 0086 DBB2     		uxtb	r3, r3
 2167 0088 DBB2     		uxtb	r3, r3
 2168 008a 5BB2     		sxtb	r3, r3
 2169 008c 002B     		cmp	r3, #0
 2170 008e 05DA     		bge	.L138
 991:.\Generated_Source\PSoC5/USBFS_1_std.c ****         {
 992:.\Generated_Source\PSoC5/USBFS_1_std.c ****             /* IN Endpoint */
 993:.\Generated_Source\PSoC5/USBFS_1_std.c ****             CY_SET_REG8((reg8 *)(USBFS_1_SIE_EP1_CR0_IND + ri), USBFS_1_MODE_NAK_IN);
 2171              		.loc 1 993 0
ARM GAS  C:\Users\JohnP\AppData\Local\Temp\ccNdEQvR.s 			page 58


 2172 0090 FA7B     		ldrb	r2, [r7, #15]	@ zero_extendqisi2
 2173 0092 084B     		ldr	r3, .L139+4
 2174 0094 1344     		add	r3, r3, r2
 2175 0096 0C22     		movs	r2, #12
 2176 0098 1A70     		strb	r2, [r3]
 2177 009a 04E0     		b	.L136
 2178              	.L138:
 994:.\Generated_Source\PSoC5/USBFS_1_std.c ****         }
 995:.\Generated_Source\PSoC5/USBFS_1_std.c ****         else
 996:.\Generated_Source\PSoC5/USBFS_1_std.c ****         {
 997:.\Generated_Source\PSoC5/USBFS_1_std.c ****             /* OUT Endpoint */
 998:.\Generated_Source\PSoC5/USBFS_1_std.c ****             CY_SET_REG8((reg8 *)(USBFS_1_SIE_EP1_CR0_IND + ri), USBFS_1_MODE_NAK_OUT);
 2179              		.loc 1 998 0
 2180 009c FA7B     		ldrb	r2, [r7, #15]	@ zero_extendqisi2
 2181 009e 054B     		ldr	r3, .L139+4
 2182 00a0 1344     		add	r3, r3, r2
 2183 00a2 0822     		movs	r2, #8
 2184 00a4 1A70     		strb	r2, [r3]
 2185              	.L136:
 999:.\Generated_Source\PSoC5/USBFS_1_std.c ****         }
1000:.\Generated_Source\PSoC5/USBFS_1_std.c ****     }
1001:.\Generated_Source\PSoC5/USBFS_1_std.c **** }
 2186              		.loc 1 1001 0
 2187 00a6 1437     		adds	r7, r7, #20
 2188 00a8 BD46     		mov	sp, r7
 2189              		@ sp needed
 2190 00aa 5DF8047B 		ldr	r7, [sp], #4
 2191 00ae 7047     		bx	lr
 2192              	.L140:
 2193              		.align	2
 2194              	.L139:
 2195 00b0 00000000 		.word	USBFS_1_EP
 2196 00b4 0E600040 		.word	1073766414
 2197              		.cfi_endproc
 2198              	.LFE8:
 2199              		.size	USBFS_1_TerminateEP, .-USBFS_1_TerminateEP
 2200              		.section	.text.USBFS_1_SetEndpointHalt,"ax",%progbits
 2201              		.align	2
 2202              		.global	USBFS_1_SetEndpointHalt
 2203              		.thumb
 2204              		.thumb_func
 2205              		.type	USBFS_1_SetEndpointHalt, %function
 2206              	USBFS_1_SetEndpointHalt:
 2207              	.LFB9:
1002:.\Generated_Source\PSoC5/USBFS_1_std.c **** 
1003:.\Generated_Source\PSoC5/USBFS_1_std.c **** 
1004:.\Generated_Source\PSoC5/USBFS_1_std.c **** /*******************************************************************************
1005:.\Generated_Source\PSoC5/USBFS_1_std.c **** * Function Name: USBFS_1_SetEndpointHalt
1006:.\Generated_Source\PSoC5/USBFS_1_std.c **** ********************************************************************************
1007:.\Generated_Source\PSoC5/USBFS_1_std.c **** *
1008:.\Generated_Source\PSoC5/USBFS_1_std.c **** * Summary:
1009:.\Generated_Source\PSoC5/USBFS_1_std.c **** *  This routine handles set endpoint halt.
1010:.\Generated_Source\PSoC5/USBFS_1_std.c **** *
1011:.\Generated_Source\PSoC5/USBFS_1_std.c **** * Parameters:
1012:.\Generated_Source\PSoC5/USBFS_1_std.c **** *  None.
1013:.\Generated_Source\PSoC5/USBFS_1_std.c **** *
1014:.\Generated_Source\PSoC5/USBFS_1_std.c **** * Return:
ARM GAS  C:\Users\JohnP\AppData\Local\Temp\ccNdEQvR.s 			page 59


1015:.\Generated_Source\PSoC5/USBFS_1_std.c **** *  requestHandled.
1016:.\Generated_Source\PSoC5/USBFS_1_std.c **** *
1017:.\Generated_Source\PSoC5/USBFS_1_std.c **** * Reentrant:
1018:.\Generated_Source\PSoC5/USBFS_1_std.c **** *  No.
1019:.\Generated_Source\PSoC5/USBFS_1_std.c **** *
1020:.\Generated_Source\PSoC5/USBFS_1_std.c **** *******************************************************************************/
1021:.\Generated_Source\PSoC5/USBFS_1_std.c **** uint8 USBFS_1_SetEndpointHalt(void) 
1022:.\Generated_Source\PSoC5/USBFS_1_std.c **** {
 2208              		.loc 1 1022 0
 2209              		.cfi_startproc
 2210              		@ args = 0, pretend = 0, frame = 8
 2211              		@ frame_needed = 1, uses_anonymous_args = 0
 2212 0000 80B5     		push	{r7, lr}
 2213              		.cfi_def_cfa_offset 8
 2214              		.cfi_offset 7, -8
 2215              		.cfi_offset 14, -4
 2216 0002 82B0     		sub	sp, sp, #8
 2217              		.cfi_def_cfa_offset 16
 2218 0004 00AF     		add	r7, sp, #0
 2219              		.cfi_def_cfa_register 7
1023:.\Generated_Source\PSoC5/USBFS_1_std.c ****     uint8 ep;
1024:.\Generated_Source\PSoC5/USBFS_1_std.c ****     uint8 ri;
1025:.\Generated_Source\PSoC5/USBFS_1_std.c ****     uint8 requestHandled = USBFS_1_FALSE;
 2220              		.loc 1 1025 0
 2221 0006 0023     		movs	r3, #0
 2222 0008 FB71     		strb	r3, [r7, #7]
1026:.\Generated_Source\PSoC5/USBFS_1_std.c **** 
1027:.\Generated_Source\PSoC5/USBFS_1_std.c ****     /* Set endpoint halt */
1028:.\Generated_Source\PSoC5/USBFS_1_std.c ****     ep = CY_GET_REG8(USBFS_1_wIndexLo) & USBFS_1_DIR_UNUSED;
 2223              		.loc 1 1028 0
 2224 000a 324B     		ldr	r3, .L146
 2225 000c 1B78     		ldrb	r3, [r3]
 2226 000e DBB2     		uxtb	r3, r3
 2227 0010 03F07F03 		and	r3, r3, #127
 2228 0014 BB71     		strb	r3, [r7, #6]
1029:.\Generated_Source\PSoC5/USBFS_1_std.c ****     ri = ((ep - USBFS_1_EP1) << USBFS_1_EPX_CNTX_ADDR_SHIFT);
 2229              		.loc 1 1029 0
 2230 0016 BB79     		ldrb	r3, [r7, #6]
 2231 0018 013B     		subs	r3, r3, #1
 2232 001a DBB2     		uxtb	r3, r3
 2233 001c 1B01     		lsls	r3, r3, #4
 2234 001e 7B71     		strb	r3, [r7, #5]
1030:.\Generated_Source\PSoC5/USBFS_1_std.c **** 
1031:.\Generated_Source\PSoC5/USBFS_1_std.c ****     if ((ep > USBFS_1_EP0) && (ep < USBFS_1_MAX_EP))
 2235              		.loc 1 1031 0
 2236 0020 BB79     		ldrb	r3, [r7, #6]	@ zero_extendqisi2
 2237 0022 002B     		cmp	r3, #0
 2238 0024 51D0     		beq	.L142
 2239              		.loc 1 1031 0 is_stmt 0 discriminator 1
 2240 0026 BB79     		ldrb	r3, [r7, #6]	@ zero_extendqisi2
 2241 0028 082B     		cmp	r3, #8
 2242 002a 4ED8     		bhi	.L142
1032:.\Generated_Source\PSoC5/USBFS_1_std.c ****     {
1033:.\Generated_Source\PSoC5/USBFS_1_std.c ****         /* Set the endpoint Halt */
1034:.\Generated_Source\PSoC5/USBFS_1_std.c ****         USBFS_1_EP[ep].hwEpState |= (USBFS_1_ENDPOINT_STATUS_HALT);
 2243              		.loc 1 1034 0 is_stmt 1
 2244 002c BA79     		ldrb	r2, [r7, #6]	@ zero_extendqisi2
ARM GAS  C:\Users\JohnP\AppData\Local\Temp\ccNdEQvR.s 			page 60


 2245 002e B979     		ldrb	r1, [r7, #6]	@ zero_extendqisi2
 2246 0030 2948     		ldr	r0, .L146+4
 2247 0032 0B46     		mov	r3, r1
 2248 0034 5B00     		lsls	r3, r3, #1
 2249 0036 0B44     		add	r3, r3, r1
 2250 0038 9B00     		lsls	r3, r3, #2
 2251 003a 0344     		add	r3, r3, r0
 2252 003c 9B78     		ldrb	r3, [r3, #2]
 2253 003e DBB2     		uxtb	r3, r3
 2254 0040 43F00103 		orr	r3, r3, #1
 2255 0044 D9B2     		uxtb	r1, r3
 2256 0046 2448     		ldr	r0, .L146+4
 2257 0048 1346     		mov	r3, r2
 2258 004a 5B00     		lsls	r3, r3, #1
 2259 004c 1344     		add	r3, r3, r2
 2260 004e 9B00     		lsls	r3, r3, #2
 2261 0050 0344     		add	r3, r3, r0
 2262 0052 0A46     		mov	r2, r1
 2263 0054 9A70     		strb	r2, [r3, #2]
1035:.\Generated_Source\PSoC5/USBFS_1_std.c **** 
1036:.\Generated_Source\PSoC5/USBFS_1_std.c ****         /* Clear the data toggle */
1037:.\Generated_Source\PSoC5/USBFS_1_std.c ****         USBFS_1_EP[ep].epToggle = 0u;
 2264              		.loc 1 1037 0
 2265 0056 BA79     		ldrb	r2, [r7, #6]	@ zero_extendqisi2
 2266 0058 1F49     		ldr	r1, .L146+4
 2267 005a 1346     		mov	r3, r2
 2268 005c 5B00     		lsls	r3, r3, #1
 2269 005e 1344     		add	r3, r3, r2
 2270 0060 9B00     		lsls	r3, r3, #2
 2271 0062 0B44     		add	r3, r3, r1
 2272 0064 0022     		movs	r2, #0
 2273 0066 DA70     		strb	r2, [r3, #3]
1038:.\Generated_Source\PSoC5/USBFS_1_std.c ****         USBFS_1_EP[ep].apiEpState |= USBFS_1_NO_EVENT_ALLOWED;
 2274              		.loc 1 1038 0
 2275 0068 BA79     		ldrb	r2, [r7, #6]	@ zero_extendqisi2
 2276 006a B979     		ldrb	r1, [r7, #6]	@ zero_extendqisi2
 2277 006c 1A48     		ldr	r0, .L146+4
 2278 006e 0B46     		mov	r3, r1
 2279 0070 5B00     		lsls	r3, r3, #1
 2280 0072 0B44     		add	r3, r3, r1
 2281 0074 9B00     		lsls	r3, r3, #2
 2282 0076 0344     		add	r3, r3, r0
 2283 0078 5B78     		ldrb	r3, [r3, #1]
 2284 007a DBB2     		uxtb	r3, r3
 2285 007c 43F00203 		orr	r3, r3, #2
 2286 0080 D9B2     		uxtb	r1, r3
 2287 0082 1548     		ldr	r0, .L146+4
 2288 0084 1346     		mov	r3, r2
 2289 0086 5B00     		lsls	r3, r3, #1
 2290 0088 1344     		add	r3, r3, r2
 2291 008a 9B00     		lsls	r3, r3, #2
 2292 008c 0344     		add	r3, r3, r0
 2293 008e 0A46     		mov	r2, r1
 2294 0090 5A70     		strb	r2, [r3, #1]
1039:.\Generated_Source\PSoC5/USBFS_1_std.c **** 
1040:.\Generated_Source\PSoC5/USBFS_1_std.c ****         if ((USBFS_1_EP[ep].addr & USBFS_1_DIR_IN) != 0u)
 2295              		.loc 1 1040 0
ARM GAS  C:\Users\JohnP\AppData\Local\Temp\ccNdEQvR.s 			page 61


 2296 0092 BA79     		ldrb	r2, [r7, #6]	@ zero_extendqisi2
 2297 0094 1049     		ldr	r1, .L146+4
 2298 0096 1346     		mov	r3, r2
 2299 0098 5B00     		lsls	r3, r3, #1
 2300 009a 1344     		add	r3, r3, r2
 2301 009c 9B00     		lsls	r3, r3, #2
 2302 009e 0B44     		add	r3, r3, r1
 2303 00a0 1B79     		ldrb	r3, [r3, #4]
 2304 00a2 DBB2     		uxtb	r3, r3
 2305 00a4 DBB2     		uxtb	r3, r3
 2306 00a6 5BB2     		sxtb	r3, r3
 2307 00a8 002B     		cmp	r3, #0
 2308 00aa 05DA     		bge	.L143
1041:.\Generated_Source\PSoC5/USBFS_1_std.c ****         {
1042:.\Generated_Source\PSoC5/USBFS_1_std.c ****             /* IN Endpoint */
1043:.\Generated_Source\PSoC5/USBFS_1_std.c ****             CY_SET_REG8((reg8 *)(USBFS_1_SIE_EP1_CR0_IND + ri), USBFS_1_MODE_STALL_DATA_EP |
 2309              		.loc 1 1043 0
 2310 00ac 7A79     		ldrb	r2, [r7, #5]	@ zero_extendqisi2
 2311 00ae 0B4B     		ldr	r3, .L146+8
 2312 00b0 1344     		add	r3, r3, r2
 2313 00b2 8D22     		movs	r2, #141
 2314 00b4 1A70     		strb	r2, [r3]
 2315 00b6 04E0     		b	.L144
 2316              	.L143:
1044:.\Generated_Source\PSoC5/USBFS_1_std.c ****                                                                USBFS_1_MODE_ACK_IN);
1045:.\Generated_Source\PSoC5/USBFS_1_std.c ****         }
1046:.\Generated_Source\PSoC5/USBFS_1_std.c ****         else
1047:.\Generated_Source\PSoC5/USBFS_1_std.c ****         {
1048:.\Generated_Source\PSoC5/USBFS_1_std.c ****             /* OUT Endpoint */
1049:.\Generated_Source\PSoC5/USBFS_1_std.c ****             CY_SET_REG8((reg8 *)(USBFS_1_SIE_EP1_CR0_IND + ri), USBFS_1_MODE_STALL_DATA_EP |
 2317              		.loc 1 1049 0
 2318 00b8 7A79     		ldrb	r2, [r7, #5]	@ zero_extendqisi2
 2319 00ba 084B     		ldr	r3, .L146+8
 2320 00bc 1344     		add	r3, r3, r2
 2321 00be 8922     		movs	r2, #137
 2322 00c0 1A70     		strb	r2, [r3]
 2323              	.L144:
1050:.\Generated_Source\PSoC5/USBFS_1_std.c ****                                                                USBFS_1_MODE_ACK_OUT);
1051:.\Generated_Source\PSoC5/USBFS_1_std.c ****         }
1052:.\Generated_Source\PSoC5/USBFS_1_std.c ****         requestHandled = USBFS_1_InitNoDataControlTransfer();
 2324              		.loc 1 1052 0
 2325 00c2 FFF7FEFF 		bl	USBFS_1_InitNoDataControlTransfer
 2326 00c6 0346     		mov	r3, r0
 2327 00c8 FB71     		strb	r3, [r7, #7]
 2328              	.L142:
1053:.\Generated_Source\PSoC5/USBFS_1_std.c ****     }
1054:.\Generated_Source\PSoC5/USBFS_1_std.c **** 
1055:.\Generated_Source\PSoC5/USBFS_1_std.c ****     return(requestHandled);
 2329              		.loc 1 1055 0
 2330 00ca FB79     		ldrb	r3, [r7, #7]	@ zero_extendqisi2
1056:.\Generated_Source\PSoC5/USBFS_1_std.c **** }
 2331              		.loc 1 1056 0
 2332 00cc 1846     		mov	r0, r3
 2333 00ce 0837     		adds	r7, r7, #8
 2334 00d0 BD46     		mov	sp, r7
 2335              		@ sp needed
 2336 00d2 80BD     		pop	{r7, pc}
ARM GAS  C:\Users\JohnP\AppData\Local\Temp\ccNdEQvR.s 			page 62


 2337              	.L147:
 2338              		.align	2
 2339              	.L146:
 2340 00d4 04600040 		.word	1073766404
 2341 00d8 00000000 		.word	USBFS_1_EP
 2342 00dc 0E600040 		.word	1073766414
 2343              		.cfi_endproc
 2344              	.LFE9:
 2345              		.size	USBFS_1_SetEndpointHalt, .-USBFS_1_SetEndpointHalt
 2346              		.section	.text.USBFS_1_ClearEndpointHalt,"ax",%progbits
 2347              		.align	2
 2348              		.global	USBFS_1_ClearEndpointHalt
 2349              		.thumb
 2350              		.thumb_func
 2351              		.type	USBFS_1_ClearEndpointHalt, %function
 2352              	USBFS_1_ClearEndpointHalt:
 2353              	.LFB10:
1057:.\Generated_Source\PSoC5/USBFS_1_std.c **** 
1058:.\Generated_Source\PSoC5/USBFS_1_std.c **** 
1059:.\Generated_Source\PSoC5/USBFS_1_std.c **** /*******************************************************************************
1060:.\Generated_Source\PSoC5/USBFS_1_std.c **** * Function Name: USBFS_1_ClearEndpointHalt
1061:.\Generated_Source\PSoC5/USBFS_1_std.c **** ********************************************************************************
1062:.\Generated_Source\PSoC5/USBFS_1_std.c **** *
1063:.\Generated_Source\PSoC5/USBFS_1_std.c **** * Summary:
1064:.\Generated_Source\PSoC5/USBFS_1_std.c **** *  This routine handles clear endpoint halt.
1065:.\Generated_Source\PSoC5/USBFS_1_std.c **** *
1066:.\Generated_Source\PSoC5/USBFS_1_std.c **** * Parameters:
1067:.\Generated_Source\PSoC5/USBFS_1_std.c **** *  None.
1068:.\Generated_Source\PSoC5/USBFS_1_std.c **** *
1069:.\Generated_Source\PSoC5/USBFS_1_std.c **** * Return:
1070:.\Generated_Source\PSoC5/USBFS_1_std.c **** *  requestHandled.
1071:.\Generated_Source\PSoC5/USBFS_1_std.c **** *
1072:.\Generated_Source\PSoC5/USBFS_1_std.c **** * Reentrant:
1073:.\Generated_Source\PSoC5/USBFS_1_std.c **** *  No.
1074:.\Generated_Source\PSoC5/USBFS_1_std.c **** *
1075:.\Generated_Source\PSoC5/USBFS_1_std.c **** *******************************************************************************/
1076:.\Generated_Source\PSoC5/USBFS_1_std.c **** uint8 USBFS_1_ClearEndpointHalt(void) 
1077:.\Generated_Source\PSoC5/USBFS_1_std.c **** {
 2354              		.loc 1 1077 0
 2355              		.cfi_startproc
 2356              		@ args = 0, pretend = 0, frame = 8
 2357              		@ frame_needed = 1, uses_anonymous_args = 0
 2358 0000 80B5     		push	{r7, lr}
 2359              		.cfi_def_cfa_offset 8
 2360              		.cfi_offset 7, -8
 2361              		.cfi_offset 14, -4
 2362 0002 82B0     		sub	sp, sp, #8
 2363              		.cfi_def_cfa_offset 16
 2364 0004 00AF     		add	r7, sp, #0
 2365              		.cfi_def_cfa_register 7
1078:.\Generated_Source\PSoC5/USBFS_1_std.c ****     uint8 ep;
1079:.\Generated_Source\PSoC5/USBFS_1_std.c ****     uint8 ri;
1080:.\Generated_Source\PSoC5/USBFS_1_std.c ****     uint8 requestHandled = USBFS_1_FALSE;
 2366              		.loc 1 1080 0
 2367 0006 0023     		movs	r3, #0
 2368 0008 FB71     		strb	r3, [r7, #7]
1081:.\Generated_Source\PSoC5/USBFS_1_std.c **** 
ARM GAS  C:\Users\JohnP\AppData\Local\Temp\ccNdEQvR.s 			page 63


1082:.\Generated_Source\PSoC5/USBFS_1_std.c ****     /* Clear endpoint halt */
1083:.\Generated_Source\PSoC5/USBFS_1_std.c ****     ep = CY_GET_REG8(USBFS_1_wIndexLo) & USBFS_1_DIR_UNUSED;
 2369              		.loc 1 1083 0
 2370 000a 4A4B     		ldr	r3, .L156
 2371 000c 1B78     		ldrb	r3, [r3]
 2372 000e DBB2     		uxtb	r3, r3
 2373 0010 03F07F03 		and	r3, r3, #127
 2374 0014 BB71     		strb	r3, [r7, #6]
1084:.\Generated_Source\PSoC5/USBFS_1_std.c ****     ri = ((ep - USBFS_1_EP1) << USBFS_1_EPX_CNTX_ADDR_SHIFT);
 2375              		.loc 1 1084 0
 2376 0016 BB79     		ldrb	r3, [r7, #6]
 2377 0018 013B     		subs	r3, r3, #1
 2378 001a DBB2     		uxtb	r3, r3
 2379 001c 1B01     		lsls	r3, r3, #4
 2380 001e 7B71     		strb	r3, [r7, #5]
1085:.\Generated_Source\PSoC5/USBFS_1_std.c **** 
1086:.\Generated_Source\PSoC5/USBFS_1_std.c ****     if ((ep > USBFS_1_EP0) && (ep < USBFS_1_MAX_EP))
 2381              		.loc 1 1086 0
 2382 0020 BB79     		ldrb	r3, [r7, #6]	@ zero_extendqisi2
 2383 0022 002B     		cmp	r3, #0
 2384 0024 00F08180 		beq	.L149
 2385              		.loc 1 1086 0 is_stmt 0 discriminator 1
 2386 0028 BB79     		ldrb	r3, [r7, #6]	@ zero_extendqisi2
 2387 002a 082B     		cmp	r3, #8
 2388 002c 7DD8     		bhi	.L149
1087:.\Generated_Source\PSoC5/USBFS_1_std.c ****     {
1088:.\Generated_Source\PSoC5/USBFS_1_std.c ****         /* Clear the endpoint Halt */
1089:.\Generated_Source\PSoC5/USBFS_1_std.c ****         USBFS_1_EP[ep].hwEpState &= (uint8)~(USBFS_1_ENDPOINT_STATUS_HALT);
 2389              		.loc 1 1089 0 is_stmt 1
 2390 002e BA79     		ldrb	r2, [r7, #6]	@ zero_extendqisi2
 2391 0030 B979     		ldrb	r1, [r7, #6]	@ zero_extendqisi2
 2392 0032 4148     		ldr	r0, .L156+4
 2393 0034 0B46     		mov	r3, r1
 2394 0036 5B00     		lsls	r3, r3, #1
 2395 0038 0B44     		add	r3, r3, r1
 2396 003a 9B00     		lsls	r3, r3, #2
 2397 003c 0344     		add	r3, r3, r0
 2398 003e 9B78     		ldrb	r3, [r3, #2]
 2399 0040 DBB2     		uxtb	r3, r3
 2400 0042 23F00103 		bic	r3, r3, #1
 2401 0046 D9B2     		uxtb	r1, r3
 2402 0048 3B48     		ldr	r0, .L156+4
 2403 004a 1346     		mov	r3, r2
 2404 004c 5B00     		lsls	r3, r3, #1
 2405 004e 1344     		add	r3, r3, r2
 2406 0050 9B00     		lsls	r3, r3, #2
 2407 0052 0344     		add	r3, r3, r0
 2408 0054 0A46     		mov	r2, r1
 2409 0056 9A70     		strb	r2, [r3, #2]
1090:.\Generated_Source\PSoC5/USBFS_1_std.c **** 
1091:.\Generated_Source\PSoC5/USBFS_1_std.c ****         /* Clear the data toggle */
1092:.\Generated_Source\PSoC5/USBFS_1_std.c ****         USBFS_1_EP[ep].epToggle = 0u;
 2410              		.loc 1 1092 0
 2411 0058 BA79     		ldrb	r2, [r7, #6]	@ zero_extendqisi2
 2412 005a 3749     		ldr	r1, .L156+4
 2413 005c 1346     		mov	r3, r2
 2414 005e 5B00     		lsls	r3, r3, #1
ARM GAS  C:\Users\JohnP\AppData\Local\Temp\ccNdEQvR.s 			page 64


 2415 0060 1344     		add	r3, r3, r2
 2416 0062 9B00     		lsls	r3, r3, #2
 2417 0064 0B44     		add	r3, r3, r1
 2418 0066 0022     		movs	r2, #0
 2419 0068 DA70     		strb	r2, [r3, #3]
1093:.\Generated_Source\PSoC5/USBFS_1_std.c ****         /* Clear toggle bit for already armed packet */
1094:.\Generated_Source\PSoC5/USBFS_1_std.c ****         CY_SET_REG8((reg8 *)(USBFS_1_SIE_EP1_CNT0_IND + ri), CY_GET_REG8(
 2420              		.loc 1 1094 0
 2421 006a 7A79     		ldrb	r2, [r7, #5]	@ zero_extendqisi2
 2422 006c 334B     		ldr	r3, .L156+8
 2423 006e 1344     		add	r3, r3, r2
 2424 0070 1A46     		mov	r2, r3
 2425 0072 7979     		ldrb	r1, [r7, #5]	@ zero_extendqisi2
 2426 0074 314B     		ldr	r3, .L156+8
 2427 0076 0B44     		add	r3, r3, r1
 2428 0078 1B78     		ldrb	r3, [r3]
 2429 007a DBB2     		uxtb	r3, r3
 2430 007c 03F07F03 		and	r3, r3, #127
 2431 0080 DBB2     		uxtb	r3, r3
 2432 0082 1370     		strb	r3, [r2]
1095:.\Generated_Source\PSoC5/USBFS_1_std.c ****                     (reg8 *)(USBFS_1_SIE_EP1_CNT0_IND + ri)) & (uint8)~USBFS_1_EPX_CNT_DATA_TOGGLE)
1096:.\Generated_Source\PSoC5/USBFS_1_std.c ****         /* Return API State as it was defined before */
1097:.\Generated_Source\PSoC5/USBFS_1_std.c ****         USBFS_1_EP[ep].apiEpState &= (uint8)~USBFS_1_NO_EVENT_ALLOWED;
 2433              		.loc 1 1097 0
 2434 0084 BA79     		ldrb	r2, [r7, #6]	@ zero_extendqisi2
 2435 0086 B979     		ldrb	r1, [r7, #6]	@ zero_extendqisi2
 2436 0088 2B48     		ldr	r0, .L156+4
 2437 008a 0B46     		mov	r3, r1
 2438 008c 5B00     		lsls	r3, r3, #1
 2439 008e 0B44     		add	r3, r3, r1
 2440 0090 9B00     		lsls	r3, r3, #2
 2441 0092 0344     		add	r3, r3, r0
 2442 0094 5B78     		ldrb	r3, [r3, #1]
 2443 0096 DBB2     		uxtb	r3, r3
 2444 0098 23F00203 		bic	r3, r3, #2
 2445 009c D9B2     		uxtb	r1, r3
 2446 009e 2648     		ldr	r0, .L156+4
 2447 00a0 1346     		mov	r3, r2
 2448 00a2 5B00     		lsls	r3, r3, #1
 2449 00a4 1344     		add	r3, r3, r2
 2450 00a6 9B00     		lsls	r3, r3, #2
 2451 00a8 0344     		add	r3, r3, r0
 2452 00aa 0A46     		mov	r2, r1
 2453 00ac 5A70     		strb	r2, [r3, #1]
1098:.\Generated_Source\PSoC5/USBFS_1_std.c **** 
1099:.\Generated_Source\PSoC5/USBFS_1_std.c ****         if ((USBFS_1_EP[ep].addr & USBFS_1_DIR_IN) != 0u)
 2454              		.loc 1 1099 0
 2455 00ae BA79     		ldrb	r2, [r7, #6]	@ zero_extendqisi2
 2456 00b0 2149     		ldr	r1, .L156+4
 2457 00b2 1346     		mov	r3, r2
 2458 00b4 5B00     		lsls	r3, r3, #1
 2459 00b6 1344     		add	r3, r3, r2
 2460 00b8 9B00     		lsls	r3, r3, #2
 2461 00ba 0B44     		add	r3, r3, r1
 2462 00bc 1B79     		ldrb	r3, [r3, #4]
 2463 00be DBB2     		uxtb	r3, r3
 2464 00c0 DBB2     		uxtb	r3, r3
ARM GAS  C:\Users\JohnP\AppData\Local\Temp\ccNdEQvR.s 			page 65


 2465 00c2 5BB2     		sxtb	r3, r3
 2466 00c4 002B     		cmp	r3, #0
 2467 00c6 16DA     		bge	.L150
1100:.\Generated_Source\PSoC5/USBFS_1_std.c ****         {
1101:.\Generated_Source\PSoC5/USBFS_1_std.c ****             /* IN Endpoint */
1102:.\Generated_Source\PSoC5/USBFS_1_std.c ****             if(USBFS_1_EP[ep].apiEpState == USBFS_1_IN_BUFFER_EMPTY)
 2468              		.loc 1 1102 0
 2469 00c8 BA79     		ldrb	r2, [r7, #6]	@ zero_extendqisi2
 2470 00ca 1B49     		ldr	r1, .L156+4
 2471 00cc 1346     		mov	r3, r2
 2472 00ce 5B00     		lsls	r3, r3, #1
 2473 00d0 1344     		add	r3, r3, r2
 2474 00d2 9B00     		lsls	r3, r3, #2
 2475 00d4 0B44     		add	r3, r3, r1
 2476 00d6 5B78     		ldrb	r3, [r3, #1]
 2477 00d8 DBB2     		uxtb	r3, r3
 2478 00da 012B     		cmp	r3, #1
 2479 00dc 05D1     		bne	.L151
1103:.\Generated_Source\PSoC5/USBFS_1_std.c ****             {       /* Wait for next packet from application */
1104:.\Generated_Source\PSoC5/USBFS_1_std.c ****                 CY_SET_REG8((reg8 *)(USBFS_1_SIE_EP1_CR0_IND + ri), USBFS_1_MODE_NAK_IN);
 2480              		.loc 1 1104 0
 2481 00de 7A79     		ldrb	r2, [r7, #5]	@ zero_extendqisi2
 2482 00e0 174B     		ldr	r3, .L156+12
 2483 00e2 1344     		add	r3, r3, r2
 2484 00e4 0C22     		movs	r2, #12
 2485 00e6 1A70     		strb	r2, [r3]
 2486 00e8 1BE0     		b	.L153
 2487              	.L151:
1105:.\Generated_Source\PSoC5/USBFS_1_std.c ****             }
1106:.\Generated_Source\PSoC5/USBFS_1_std.c ****             else    /* Continue armed transfer */
1107:.\Generated_Source\PSoC5/USBFS_1_std.c ****             {
1108:.\Generated_Source\PSoC5/USBFS_1_std.c ****                 CY_SET_REG8((reg8 *)(USBFS_1_SIE_EP1_CR0_IND + ri), USBFS_1_MODE_ACK_IN);
 2488              		.loc 1 1108 0
 2489 00ea 7A79     		ldrb	r2, [r7, #5]	@ zero_extendqisi2
 2490 00ec 144B     		ldr	r3, .L156+12
 2491 00ee 1344     		add	r3, r3, r2
 2492 00f0 0D22     		movs	r2, #13
 2493 00f2 1A70     		strb	r2, [r3]
 2494 00f4 15E0     		b	.L153
 2495              	.L150:
1109:.\Generated_Source\PSoC5/USBFS_1_std.c ****             }
1110:.\Generated_Source\PSoC5/USBFS_1_std.c ****         }
1111:.\Generated_Source\PSoC5/USBFS_1_std.c ****         else
1112:.\Generated_Source\PSoC5/USBFS_1_std.c ****         {
1113:.\Generated_Source\PSoC5/USBFS_1_std.c ****             /* OUT Endpoint */
1114:.\Generated_Source\PSoC5/USBFS_1_std.c ****             if(USBFS_1_EP[ep].apiEpState == USBFS_1_OUT_BUFFER_FULL)
 2496              		.loc 1 1114 0
 2497 00f6 BA79     		ldrb	r2, [r7, #6]	@ zero_extendqisi2
 2498 00f8 0F49     		ldr	r1, .L156+4
 2499 00fa 1346     		mov	r3, r2
 2500 00fc 5B00     		lsls	r3, r3, #1
 2501 00fe 1344     		add	r3, r3, r2
 2502 0100 9B00     		lsls	r3, r3, #2
 2503 0102 0B44     		add	r3, r3, r1
 2504 0104 5B78     		ldrb	r3, [r3, #1]
 2505 0106 DBB2     		uxtb	r3, r3
 2506 0108 012B     		cmp	r3, #1
ARM GAS  C:\Users\JohnP\AppData\Local\Temp\ccNdEQvR.s 			page 66


 2507 010a 05D1     		bne	.L154
1115:.\Generated_Source\PSoC5/USBFS_1_std.c ****             {       /* Allow application to read full buffer */
1116:.\Generated_Source\PSoC5/USBFS_1_std.c ****                 CY_SET_REG8((reg8 *)(USBFS_1_SIE_EP1_CR0_IND + ri), USBFS_1_MODE_NAK_OUT);
 2508              		.loc 1 1116 0
 2509 010c 7A79     		ldrb	r2, [r7, #5]	@ zero_extendqisi2
 2510 010e 0C4B     		ldr	r3, .L156+12
 2511 0110 1344     		add	r3, r3, r2
 2512 0112 0822     		movs	r2, #8
 2513 0114 1A70     		strb	r2, [r3]
 2514 0116 04E0     		b	.L153
 2515              	.L154:
1117:.\Generated_Source\PSoC5/USBFS_1_std.c ****             }
1118:.\Generated_Source\PSoC5/USBFS_1_std.c ****             else    /* Mark endpoint as empty, so it will be reloaded */
1119:.\Generated_Source\PSoC5/USBFS_1_std.c ****             {
1120:.\Generated_Source\PSoC5/USBFS_1_std.c ****                 CY_SET_REG8((reg8 *)(USBFS_1_SIE_EP1_CR0_IND + ri), USBFS_1_MODE_ACK_OUT);
 2516              		.loc 1 1120 0
 2517 0118 7A79     		ldrb	r2, [r7, #5]	@ zero_extendqisi2
 2518 011a 094B     		ldr	r3, .L156+12
 2519 011c 1344     		add	r3, r3, r2
 2520 011e 0922     		movs	r2, #9
 2521 0120 1A70     		strb	r2, [r3]
 2522              	.L153:
1121:.\Generated_Source\PSoC5/USBFS_1_std.c ****             }
1122:.\Generated_Source\PSoC5/USBFS_1_std.c ****         }
1123:.\Generated_Source\PSoC5/USBFS_1_std.c ****         requestHandled = USBFS_1_InitNoDataControlTransfer();
 2523              		.loc 1 1123 0
 2524 0122 FFF7FEFF 		bl	USBFS_1_InitNoDataControlTransfer
 2525 0126 0346     		mov	r3, r0
 2526 0128 FB71     		strb	r3, [r7, #7]
 2527              	.L149:
1124:.\Generated_Source\PSoC5/USBFS_1_std.c ****     }
1125:.\Generated_Source\PSoC5/USBFS_1_std.c **** 
1126:.\Generated_Source\PSoC5/USBFS_1_std.c ****     return(requestHandled);
 2528              		.loc 1 1126 0
 2529 012a FB79     		ldrb	r3, [r7, #7]	@ zero_extendqisi2
1127:.\Generated_Source\PSoC5/USBFS_1_std.c **** }
 2530              		.loc 1 1127 0
 2531 012c 1846     		mov	r0, r3
 2532 012e 0837     		adds	r7, r7, #8
 2533 0130 BD46     		mov	sp, r7
 2534              		@ sp needed
 2535 0132 80BD     		pop	{r7, pc}
 2536              	.L157:
 2537              		.align	2
 2538              	.L156:
 2539 0134 04600040 		.word	1073766404
 2540 0138 00000000 		.word	USBFS_1_EP
 2541 013c 0C600040 		.word	1073766412
 2542 0140 0E600040 		.word	1073766414
 2543              		.cfi_endproc
 2544              	.LFE10:
 2545              		.size	USBFS_1_ClearEndpointHalt, .-USBFS_1_ClearEndpointHalt
 2546              		.section	.text.USBFS_1_ValidateAlternateSetting,"ax",%progbits
 2547              		.align	2
 2548              		.global	USBFS_1_ValidateAlternateSetting
 2549              		.thumb
 2550              		.thumb_func
ARM GAS  C:\Users\JohnP\AppData\Local\Temp\ccNdEQvR.s 			page 67


 2551              		.type	USBFS_1_ValidateAlternateSetting, %function
 2552              	USBFS_1_ValidateAlternateSetting:
 2553              	.LFB11:
1128:.\Generated_Source\PSoC5/USBFS_1_std.c **** 
1129:.\Generated_Source\PSoC5/USBFS_1_std.c **** 
1130:.\Generated_Source\PSoC5/USBFS_1_std.c **** /*******************************************************************************
1131:.\Generated_Source\PSoC5/USBFS_1_std.c **** * Function Name: USBFS_1_ValidateAlternateSetting
1132:.\Generated_Source\PSoC5/USBFS_1_std.c **** ********************************************************************************
1133:.\Generated_Source\PSoC5/USBFS_1_std.c **** *
1134:.\Generated_Source\PSoC5/USBFS_1_std.c **** * Summary:
1135:.\Generated_Source\PSoC5/USBFS_1_std.c **** *  Validates (and records) a SET INTERFACE request.
1136:.\Generated_Source\PSoC5/USBFS_1_std.c **** *
1137:.\Generated_Source\PSoC5/USBFS_1_std.c **** * Parameters:
1138:.\Generated_Source\PSoC5/USBFS_1_std.c **** *  None.
1139:.\Generated_Source\PSoC5/USBFS_1_std.c **** *
1140:.\Generated_Source\PSoC5/USBFS_1_std.c **** * Return:
1141:.\Generated_Source\PSoC5/USBFS_1_std.c **** *  requestHandled.
1142:.\Generated_Source\PSoC5/USBFS_1_std.c **** *
1143:.\Generated_Source\PSoC5/USBFS_1_std.c **** * Reentrant:
1144:.\Generated_Source\PSoC5/USBFS_1_std.c **** *  No.
1145:.\Generated_Source\PSoC5/USBFS_1_std.c **** *
1146:.\Generated_Source\PSoC5/USBFS_1_std.c **** *******************************************************************************/
1147:.\Generated_Source\PSoC5/USBFS_1_std.c **** uint8 USBFS_1_ValidateAlternateSetting(void) 
1148:.\Generated_Source\PSoC5/USBFS_1_std.c **** {
 2554              		.loc 1 1148 0
 2555              		.cfi_startproc
 2556              		@ args = 0, pretend = 0, frame = 16
 2557              		@ frame_needed = 1, uses_anonymous_args = 0
 2558 0000 80B5     		push	{r7, lr}
 2559              		.cfi_def_cfa_offset 8
 2560              		.cfi_offset 7, -8
 2561              		.cfi_offset 14, -4
 2562 0002 84B0     		sub	sp, sp, #16
 2563              		.cfi_def_cfa_offset 24
 2564 0004 00AF     		add	r7, sp, #0
 2565              		.cfi_def_cfa_register 7
1149:.\Generated_Source\PSoC5/USBFS_1_std.c ****     uint8 requestHandled = USBFS_1_TRUE;
 2566              		.loc 1 1149 0
 2567 0006 0123     		movs	r3, #1
 2568 0008 FB73     		strb	r3, [r7, #15]
1150:.\Generated_Source\PSoC5/USBFS_1_std.c ****     uint8 interfaceNum;
1151:.\Generated_Source\PSoC5/USBFS_1_std.c ****     const T_USBFS_1_LUT CYCODE *pTmp;
1152:.\Generated_Source\PSoC5/USBFS_1_std.c ****     uint8 currentInterfacesNum;
1153:.\Generated_Source\PSoC5/USBFS_1_std.c **** 
1154:.\Generated_Source\PSoC5/USBFS_1_std.c ****     interfaceNum = CY_GET_REG8(USBFS_1_wIndexLo);
 2569              		.loc 1 1154 0
 2570 000a 164B     		ldr	r3, .L163
 2571 000c 1B78     		ldrb	r3, [r3]
 2572 000e BB73     		strb	r3, [r7, #14]
1155:.\Generated_Source\PSoC5/USBFS_1_std.c ****     /* Validate interface setting, stall if invalid. */
1156:.\Generated_Source\PSoC5/USBFS_1_std.c ****     pTmp = USBFS_1_GetConfigTablePtr(USBFS_1_configuration - 1u);
 2573              		.loc 1 1156 0
 2574 0010 154B     		ldr	r3, .L163+4
 2575 0012 1B78     		ldrb	r3, [r3]
 2576 0014 DBB2     		uxtb	r3, r3
 2577 0016 013B     		subs	r3, r3, #1
 2578 0018 DBB2     		uxtb	r3, r3
ARM GAS  C:\Users\JohnP\AppData\Local\Temp\ccNdEQvR.s 			page 68


 2579 001a 1846     		mov	r0, r3
 2580 001c FFF7FEFF 		bl	USBFS_1_GetConfigTablePtr
 2581 0020 B860     		str	r0, [r7, #8]
1157:.\Generated_Source\PSoC5/USBFS_1_std.c ****     currentInterfacesNum  = ((const uint8 *) pTmp->p_list)[USBFS_1_CONFIG_DESCR_NUM_INTERFACES];
 2582              		.loc 1 1157 0
 2583 0022 BB68     		ldr	r3, [r7, #8]
 2584 0024 5B68     		ldr	r3, [r3, #4]
 2585 0026 1B79     		ldrb	r3, [r3, #4]
 2586 0028 FB71     		strb	r3, [r7, #7]
1158:.\Generated_Source\PSoC5/USBFS_1_std.c **** 
1159:.\Generated_Source\PSoC5/USBFS_1_std.c ****     if((interfaceNum >= currentInterfacesNum) || (interfaceNum >= USBFS_1_MAX_INTERFACES_NUMBER))
 2587              		.loc 1 1159 0
 2588 002a BA7B     		ldrb	r2, [r7, #14]	@ zero_extendqisi2
 2589 002c FB79     		ldrb	r3, [r7, #7]	@ zero_extendqisi2
 2590 002e 9A42     		cmp	r2, r3
 2591 0030 02D2     		bcs	.L159
 2592              		.loc 1 1159 0 is_stmt 0 discriminator 1
 2593 0032 BB7B     		ldrb	r3, [r7, #14]	@ zero_extendqisi2
 2594 0034 002B     		cmp	r3, #0
 2595 0036 02D0     		beq	.L160
 2596              	.L159:
1160:.\Generated_Source\PSoC5/USBFS_1_std.c ****     {   /* Wrong interface number */
1161:.\Generated_Source\PSoC5/USBFS_1_std.c ****         requestHandled = USBFS_1_FALSE;
 2597              		.loc 1 1161 0 is_stmt 1
 2598 0038 0023     		movs	r3, #0
 2599 003a FB73     		strb	r3, [r7, #15]
 2600 003c 0CE0     		b	.L161
 2601              	.L160:
1162:.\Generated_Source\PSoC5/USBFS_1_std.c ****     }
1163:.\Generated_Source\PSoC5/USBFS_1_std.c ****     else
1164:.\Generated_Source\PSoC5/USBFS_1_std.c ****     {
1165:.\Generated_Source\PSoC5/USBFS_1_std.c ****         /* Save current Alt setting to find out the difference in Config() function */
1166:.\Generated_Source\PSoC5/USBFS_1_std.c ****         USBFS_1_interfaceSetting_last[interfaceNum] = USBFS_1_interfaceSetting[interfaceNum];
 2602              		.loc 1 1166 0
 2603 003e BB7B     		ldrb	r3, [r7, #14]	@ zero_extendqisi2
 2604 0040 BA7B     		ldrb	r2, [r7, #14]	@ zero_extendqisi2
 2605 0042 0A49     		ldr	r1, .L163+8
 2606 0044 8A5C     		ldrb	r2, [r1, r2]
 2607 0046 D1B2     		uxtb	r1, r2
 2608 0048 094A     		ldr	r2, .L163+12
 2609 004a D154     		strb	r1, [r2, r3]
1167:.\Generated_Source\PSoC5/USBFS_1_std.c ****         USBFS_1_interfaceSetting[interfaceNum] = CY_GET_REG8(USBFS_1_wValueLo);
 2610              		.loc 1 1167 0
 2611 004c BB7B     		ldrb	r3, [r7, #14]	@ zero_extendqisi2
 2612 004e 094A     		ldr	r2, .L163+16
 2613 0050 1278     		ldrb	r2, [r2]
 2614 0052 D1B2     		uxtb	r1, r2
 2615 0054 054A     		ldr	r2, .L163+8
 2616 0056 D154     		strb	r1, [r2, r3]
 2617              	.L161:
1168:.\Generated_Source\PSoC5/USBFS_1_std.c ****     }
1169:.\Generated_Source\PSoC5/USBFS_1_std.c **** 
1170:.\Generated_Source\PSoC5/USBFS_1_std.c ****     return (requestHandled);
 2618              		.loc 1 1170 0
 2619 0058 FB7B     		ldrb	r3, [r7, #15]	@ zero_extendqisi2
1171:.\Generated_Source\PSoC5/USBFS_1_std.c **** }
 2620              		.loc 1 1171 0
ARM GAS  C:\Users\JohnP\AppData\Local\Temp\ccNdEQvR.s 			page 69


 2621 005a 1846     		mov	r0, r3
 2622 005c 1037     		adds	r7, r7, #16
 2623 005e BD46     		mov	sp, r7
 2624              		@ sp needed
 2625 0060 80BD     		pop	{r7, pc}
 2626              	.L164:
 2627 0062 00BF     		.align	2
 2628              	.L163:
 2629 0064 04600040 		.word	1073766404
 2630 0068 00000000 		.word	USBFS_1_configuration
 2631 006c 00000000 		.word	USBFS_1_interfaceSetting
 2632 0070 00000000 		.word	USBFS_1_interfaceSetting_last
 2633 0074 02600040 		.word	1073766402
 2634              		.cfi_endproc
 2635              	.LFE11:
 2636              		.size	USBFS_1_ValidateAlternateSetting, .-USBFS_1_ValidateAlternateSetting
 2637              		.bss
 2638 0005 000000   		.align	2
 2639              	USBFS_1_tBuffer.5067:
 2640 0008 0000     		.space	2
 2641 000a 0000     		.text
 2642              	.Letext0:
 2643              		.file 2 ".\\Generated_Source\\PSoC5\\cytypes.h"
 2644              		.file 3 ".\\Generated_Source\\PSoC5\\USBFS_1.h"
 2645              		.file 4 ".\\Generated_Source\\PSoC5\\USBFS_1_pvt.h"
 2646              		.section	.debug_info,"",%progbits
 2647              	.Ldebug_info0:
 2648 0000 6E070000 		.4byte	0x76e
 2649 0004 0400     		.2byte	0x4
 2650 0006 00000000 		.4byte	.Ldebug_abbrev0
 2651 000a 04       		.byte	0x4
 2652 000b 01       		.uleb128 0x1
 2653 000c 59030000 		.4byte	.LASF87
 2654 0010 01       		.byte	0x1
 2655 0011 1B020000 		.4byte	.LASF88
 2656 0015 73040000 		.4byte	.LASF89
 2657 0019 00000000 		.4byte	.Ldebug_ranges0+0
 2658 001d 00000000 		.4byte	0
 2659 0021 00000000 		.4byte	.Ldebug_line0
 2660 0025 02       		.uleb128 0x2
 2661 0026 01       		.byte	0x1
 2662 0027 06       		.byte	0x6
 2663 0028 09010000 		.4byte	.LASF0
 2664 002c 02       		.uleb128 0x2
 2665 002d 01       		.byte	0x1
 2666 002e 08       		.byte	0x8
 2667 002f FA040000 		.4byte	.LASF1
 2668 0033 02       		.uleb128 0x2
 2669 0034 02       		.byte	0x2
 2670 0035 05       		.byte	0x5
 2671 0036 08050000 		.4byte	.LASF2
 2672 003a 02       		.uleb128 0x2
 2673 003b 02       		.byte	0x2
 2674 003c 07       		.byte	0x7
 2675 003d A3020000 		.4byte	.LASF3
 2676 0041 02       		.uleb128 0x2
 2677 0042 04       		.byte	0x4
ARM GAS  C:\Users\JohnP\AppData\Local\Temp\ccNdEQvR.s 			page 70


 2678 0043 05       		.byte	0x5
 2679 0044 4E010000 		.4byte	.LASF4
 2680 0048 02       		.uleb128 0x2
 2681 0049 04       		.byte	0x4
 2682 004a 07       		.byte	0x7
 2683 004b 42020000 		.4byte	.LASF5
 2684 004f 02       		.uleb128 0x2
 2685 0050 08       		.byte	0x8
 2686 0051 05       		.byte	0x5
 2687 0052 FB000000 		.4byte	.LASF6
 2688 0056 02       		.uleb128 0x2
 2689 0057 08       		.byte	0x8
 2690 0058 07       		.byte	0x7
 2691 0059 B6000000 		.4byte	.LASF7
 2692 005d 03       		.uleb128 0x3
 2693 005e 04       		.byte	0x4
 2694 005f 05       		.byte	0x5
 2695 0060 696E7400 		.ascii	"int\000"
 2696 0064 02       		.uleb128 0x2
 2697 0065 04       		.byte	0x4
 2698 0066 07       		.byte	0x7
 2699 0067 F8010000 		.4byte	.LASF8
 2700 006b 04       		.uleb128 0x4
 2701 006c 57010000 		.4byte	.LASF9
 2702 0070 02       		.byte	0x2
 2703 0071 B4       		.byte	0xb4
 2704 0072 2C000000 		.4byte	0x2c
 2705 0076 04       		.uleb128 0x4
 2706 0077 13000000 		.4byte	.LASF10
 2707 007b 02       		.byte	0x2
 2708 007c B5       		.byte	0xb5
 2709 007d 3A000000 		.4byte	0x3a
 2710 0081 02       		.uleb128 0x2
 2711 0082 04       		.byte	0x4
 2712 0083 04       		.byte	0x4
 2713 0084 20040000 		.4byte	.LASF11
 2714 0088 02       		.uleb128 0x2
 2715 0089 08       		.byte	0x8
 2716 008a 04       		.byte	0x4
 2717 008b 7D010000 		.4byte	.LASF12
 2718 008f 02       		.uleb128 0x2
 2719 0090 01       		.byte	0x1
 2720 0091 08       		.byte	0x8
 2721 0092 DB050000 		.4byte	.LASF13
 2722 0096 05       		.uleb128 0x5
 2723 0097 F5040000 		.4byte	.LASF14
 2724 009b 02       		.byte	0x2
 2725 009c 5E01     		.2byte	0x15e
 2726 009e A2000000 		.4byte	0xa2
 2727 00a2 06       		.uleb128 0x6
 2728 00a3 6B000000 		.4byte	0x6b
 2729 00a7 02       		.uleb128 0x2
 2730 00a8 04       		.byte	0x4
 2731 00a9 07       		.byte	0x7
 2732 00aa 33030000 		.4byte	.LASF15
 2733 00ae 07       		.uleb128 0x7
 2734 00af 0C       		.byte	0xc
ARM GAS  C:\Users\JohnP\AppData\Local\Temp\ccNdEQvR.s 			page 71


 2735 00b0 03       		.byte	0x3
 2736 00b1 81       		.byte	0x81
 2737 00b2 23010000 		.4byte	0x123
 2738 00b6 08       		.uleb128 0x8
 2739 00b7 52030000 		.4byte	.LASF16
 2740 00bb 03       		.byte	0x3
 2741 00bc 83       		.byte	0x83
 2742 00bd 6B000000 		.4byte	0x6b
 2743 00c1 00       		.byte	0
 2744 00c2 08       		.uleb128 0x8
 2745 00c3 26040000 		.4byte	.LASF17
 2746 00c7 03       		.byte	0x3
 2747 00c8 84       		.byte	0x84
 2748 00c9 6B000000 		.4byte	0x6b
 2749 00cd 01       		.byte	0x1
 2750 00ce 08       		.uleb128 0x8
 2751 00cf 1D030000 		.4byte	.LASF18
 2752 00d3 03       		.byte	0x3
 2753 00d4 85       		.byte	0x85
 2754 00d5 6B000000 		.4byte	0x6b
 2755 00d9 02       		.byte	0x2
 2756 00da 08       		.uleb128 0x8
 2757 00db 5D010000 		.4byte	.LASF19
 2758 00df 03       		.byte	0x3
 2759 00e0 86       		.byte	0x86
 2760 00e1 6B000000 		.4byte	0x6b
 2761 00e5 03       		.byte	0x3
 2762 00e6 08       		.uleb128 0x8
 2763 00e7 CD000000 		.4byte	.LASF20
 2764 00eb 03       		.byte	0x3
 2765 00ec 87       		.byte	0x87
 2766 00ed 6B000000 		.4byte	0x6b
 2767 00f1 04       		.byte	0x4
 2768 00f2 08       		.uleb128 0x8
 2769 00f3 D2010000 		.4byte	.LASF21
 2770 00f7 03       		.byte	0x3
 2771 00f8 88       		.byte	0x88
 2772 00f9 6B000000 		.4byte	0x6b
 2773 00fd 05       		.byte	0x5
 2774 00fe 08       		.uleb128 0x8
 2775 00ff 2F060000 		.4byte	.LASF22
 2776 0103 03       		.byte	0x3
 2777 0104 89       		.byte	0x89
 2778 0105 76000000 		.4byte	0x76
 2779 0109 06       		.byte	0x6
 2780 010a 08       		.uleb128 0x8
 2781 010b EE050000 		.4byte	.LASF23
 2782 010f 03       		.byte	0x3
 2783 0110 8A       		.byte	0x8a
 2784 0111 76000000 		.4byte	0x76
 2785 0115 08       		.byte	0x8
 2786 0116 08       		.uleb128 0x8
 2787 0117 13030000 		.4byte	.LASF24
 2788 011b 03       		.byte	0x3
 2789 011c 8B       		.byte	0x8b
 2790 011d 6B000000 		.4byte	0x6b
 2791 0121 0A       		.byte	0xa
ARM GAS  C:\Users\JohnP\AppData\Local\Temp\ccNdEQvR.s 			page 72


 2792 0122 00       		.byte	0
 2793 0123 04       		.uleb128 0x4
 2794 0124 BD020000 		.4byte	.LASF25
 2795 0128 03       		.byte	0x3
 2796 0129 8C       		.byte	0x8c
 2797 012a AE000000 		.4byte	0xae
 2798 012e 07       		.uleb128 0x7
 2799 012f 08       		.byte	0x8
 2800 0130 03       		.byte	0x3
 2801 0131 8E       		.byte	0x8e
 2802 0132 7F010000 		.4byte	0x17f
 2803 0136 08       		.uleb128 0x8
 2804 0137 13030000 		.4byte	.LASF24
 2805 013b 03       		.byte	0x3
 2806 013c 90       		.byte	0x90
 2807 013d 6B000000 		.4byte	0x6b
 2808 0141 00       		.byte	0
 2809 0142 08       		.uleb128 0x8
 2810 0143 D0050000 		.4byte	.LASF26
 2811 0147 03       		.byte	0x3
 2812 0148 91       		.byte	0x91
 2813 0149 6B000000 		.4byte	0x6b
 2814 014d 01       		.byte	0x1
 2815 014e 08       		.uleb128 0x8
 2816 014f CD000000 		.4byte	.LASF20
 2817 0153 03       		.byte	0x3
 2818 0154 92       		.byte	0x92
 2819 0155 6B000000 		.4byte	0x6b
 2820 0159 02       		.byte	0x2
 2821 015a 08       		.uleb128 0x8
 2822 015b 87050000 		.4byte	.LASF27
 2823 015f 03       		.byte	0x3
 2824 0160 93       		.byte	0x93
 2825 0161 6B000000 		.4byte	0x6b
 2826 0165 03       		.byte	0x3
 2827 0166 08       		.uleb128 0x8
 2828 0167 EE050000 		.4byte	.LASF23
 2829 016b 03       		.byte	0x3
 2830 016c 94       		.byte	0x94
 2831 016d 76000000 		.4byte	0x76
 2832 0171 04       		.byte	0x4
 2833 0172 08       		.uleb128 0x8
 2834 0173 6A060000 		.4byte	.LASF28
 2835 0177 03       		.byte	0x3
 2836 0178 95       		.byte	0x95
 2837 0179 6B000000 		.4byte	0x6b
 2838 017d 06       		.byte	0x6
 2839 017e 00       		.byte	0
 2840 017f 04       		.uleb128 0x4
 2841 0180 1A000000 		.4byte	.LASF29
 2842 0184 03       		.byte	0x3
 2843 0185 96       		.byte	0x96
 2844 0186 2E010000 		.4byte	0x12e
 2845 018a 07       		.uleb128 0x7
 2846 018b 04       		.byte	0x4
 2847 018c 03       		.byte	0x3
 2848 018d 98       		.byte	0x98
ARM GAS  C:\Users\JohnP\AppData\Local\Temp\ccNdEQvR.s 			page 73


 2849 018e AB010000 		.4byte	0x1ab
 2850 0192 08       		.uleb128 0x8
 2851 0193 63060000 		.4byte	.LASF30
 2852 0197 03       		.byte	0x3
 2853 0198 9A       		.byte	0x9a
 2854 0199 6B000000 		.4byte	0x6b
 2855 019d 00       		.byte	0
 2856 019e 08       		.uleb128 0x8
 2857 019f 50060000 		.4byte	.LASF31
 2858 01a3 03       		.byte	0x3
 2859 01a4 9B       		.byte	0x9b
 2860 01a5 76000000 		.4byte	0x76
 2861 01a9 02       		.byte	0x2
 2862 01aa 00       		.byte	0
 2863 01ab 04       		.uleb128 0x4
 2864 01ac 54020000 		.4byte	.LASF32
 2865 01b0 03       		.byte	0x3
 2866 01b1 9C       		.byte	0x9c
 2867 01b2 8A010000 		.4byte	0x18a
 2868 01b6 07       		.uleb128 0x7
 2869 01b7 0C       		.byte	0xc
 2870 01b8 03       		.byte	0x3
 2871 01b9 9E       		.byte	0x9e
 2872 01ba E3010000 		.4byte	0x1e3
 2873 01be 08       		.uleb128 0x8
 2874 01bf 0D000000 		.4byte	.LASF33
 2875 01c3 03       		.byte	0x3
 2876 01c4 A0       		.byte	0xa0
 2877 01c5 76000000 		.4byte	0x76
 2878 01c9 00       		.byte	0
 2879 01ca 08       		.uleb128 0x8
 2880 01cb CC010000 		.4byte	.LASF34
 2881 01cf 03       		.byte	0x3
 2882 01d0 A1       		.byte	0xa1
 2883 01d1 E3010000 		.4byte	0x1e3
 2884 01d5 04       		.byte	0x4
 2885 01d6 08       		.uleb128 0x8
 2886 01d7 00000000 		.4byte	.LASF35
 2887 01db 03       		.byte	0x3
 2888 01dc A2       		.byte	0xa2
 2889 01dd E9010000 		.4byte	0x1e9
 2890 01e1 08       		.byte	0x8
 2891 01e2 00       		.byte	0
 2892 01e3 09       		.uleb128 0x9
 2893 01e4 04       		.byte	0x4
 2894 01e5 A2000000 		.4byte	0xa2
 2895 01e9 09       		.uleb128 0x9
 2896 01ea 04       		.byte	0x4
 2897 01eb AB010000 		.4byte	0x1ab
 2898 01ef 04       		.uleb128 0x4
 2899 01f0 D4020000 		.4byte	.LASF36
 2900 01f4 03       		.byte	0x3
 2901 01f5 A3       		.byte	0xa3
 2902 01f6 B6010000 		.4byte	0x1b6
 2903 01fa 07       		.uleb128 0x7
 2904 01fb 08       		.byte	0x8
 2905 01fc 03       		.byte	0x3
ARM GAS  C:\Users\JohnP\AppData\Local\Temp\ccNdEQvR.s 			page 74


 2906 01fd A6       		.byte	0xa6
 2907 01fe 19020000 		.4byte	0x219
 2908 0202 0A       		.uleb128 0xa
 2909 0203 6300     		.ascii	"c\000"
 2910 0205 03       		.byte	0x3
 2911 0206 A8       		.byte	0xa8
 2912 0207 6B000000 		.4byte	0x6b
 2913 020b 00       		.byte	0
 2914 020c 08       		.uleb128 0x8
 2915 020d 41030000 		.4byte	.LASF37
 2916 0211 03       		.byte	0x3
 2917 0212 A9       		.byte	0xa9
 2918 0213 19020000 		.4byte	0x219
 2919 0217 04       		.byte	0x4
 2920 0218 00       		.byte	0
 2921 0219 09       		.uleb128 0x9
 2922 021a 04       		.byte	0x4
 2923 021b 1F020000 		.4byte	0x21f
 2924 021f 0B       		.uleb128 0xb
 2925 0220 04       		.uleb128 0x4
 2926 0221 E0050000 		.4byte	.LASF38
 2927 0225 03       		.byte	0x3
 2928 0226 AA       		.byte	0xaa
 2929 0227 FA010000 		.4byte	0x1fa
 2930 022b 0C       		.uleb128 0xc
 2931 022c 99010000 		.4byte	.LASF47
 2932 0230 01       		.byte	0x1
 2933 0231 36       		.byte	0x36
 2934 0232 00000000 		.4byte	.LFB0
 2935 0236 44000000 		.4byte	.LFE0-.LFB0
 2936 023a 01       		.uleb128 0x1
 2937 023b 9C       		.byte	0x9c
 2938 023c 4F020000 		.4byte	0x24f
 2939 0240 0D       		.uleb128 0xd
 2940 0241 7F060000 		.4byte	.LASF50
 2941 0245 01       		.byte	0x1
 2942 0246 36       		.byte	0x36
 2943 0247 4F020000 		.4byte	0x24f
 2944 024b 02       		.uleb128 0x2
 2945 024c 91       		.byte	0x91
 2946 024d 74       		.sleb128 -12
 2947 024e 00       		.byte	0
 2948 024f 09       		.uleb128 0x9
 2949 0250 04       		.byte	0x4
 2950 0251 6B000000 		.4byte	0x6b
 2951 0255 0E       		.uleb128 0xe
 2952 0256 B1010000 		.4byte	.LASF57
 2953 025a 01       		.byte	0x1
 2954 025b 58       		.byte	0x58
 2955 025c 6B000000 		.4byte	0x6b
 2956 0260 00000000 		.4byte	.LFB1
 2957 0264 B4040000 		.4byte	.LFE1-.LFB1
 2958 0268 01       		.uleb128 0x1
 2959 0269 9C       		.byte	0x9c
 2960 026a E2020000 		.4byte	0x2e2
 2961 026e 0F       		.uleb128 0xf
 2962 026f F9050000 		.4byte	.LASF39
ARM GAS  C:\Users\JohnP\AppData\Local\Temp\ccNdEQvR.s 			page 75


 2963 0273 01       		.byte	0x1
 2964 0274 5A       		.byte	0x5a
 2965 0275 6B000000 		.4byte	0x6b
 2966 0279 02       		.uleb128 0x2
 2967 027a 91       		.byte	0x91
 2968 027b 77       		.sleb128 -9
 2969 027c 0F       		.uleb128 0xf
 2970 027d D2000000 		.4byte	.LASF40
 2971 0281 01       		.byte	0x1
 2972 0282 5B       		.byte	0x5b
 2973 0283 6B000000 		.4byte	0x6b
 2974 0287 02       		.uleb128 0x2
 2975 0288 91       		.byte	0x91
 2976 0289 65       		.sleb128 -27
 2977 028a 0F       		.uleb128 0xf
 2978 028b 4B040000 		.4byte	.LASF41
 2979 028f 01       		.byte	0x1
 2980 0290 5C       		.byte	0x5c
 2981 0291 6B000000 		.4byte	0x6b
 2982 0295 02       		.uleb128 0x2
 2983 0296 91       		.byte	0x91
 2984 0297 66       		.sleb128 -26
 2985 0298 0F       		.uleb128 0xf
 2986 0299 F0040000 		.4byte	.LASF42
 2987 029d 01       		.byte	0x1
 2988 029e 5E       		.byte	0x5e
 2989 029f E3010000 		.4byte	0x1e3
 2990 02a3 02       		.uleb128 0x2
 2991 02a4 91       		.byte	0x91
 2992 02a5 70       		.sleb128 -16
 2993 02a6 0F       		.uleb128 0xf
 2994 02a7 57060000 		.4byte	.LASF43
 2995 02ab 01       		.byte	0x1
 2996 02ac 60       		.byte	0x60
 2997 02ad 6B000000 		.4byte	0x6b
 2998 02b1 02       		.uleb128 0x2
 2999 02b2 91       		.byte	0x91
 3000 02b3 6F       		.sleb128 -17
 3001 02b4 0F       		.uleb128 0xf
 3002 02b5 27030000 		.4byte	.LASF44
 3003 02b9 01       		.byte	0x1
 3004 02ba 61       		.byte	0x61
 3005 02bb 6B000000 		.4byte	0x6b
 3006 02bf 02       		.uleb128 0x2
 3007 02c0 91       		.byte	0x91
 3008 02c1 67       		.sleb128 -25
 3009 02c2 0F       		.uleb128 0xf
 3010 02c3 25010000 		.4byte	.LASF45
 3011 02c7 01       		.byte	0x1
 3012 02c8 64       		.byte	0x64
 3013 02c9 F2020000 		.4byte	0x2f2
 3014 02cd 05       		.uleb128 0x5
 3015 02ce 03       		.byte	0x3
 3016 02cf 08000000 		.4byte	USBFS_1_tBuffer.5067
 3017 02d3 0F       		.uleb128 0xf
 3018 02d4 3C030000 		.4byte	.LASF46
 3019 02d8 01       		.byte	0x1
ARM GAS  C:\Users\JohnP\AppData\Local\Temp\ccNdEQvR.s 			page 76


 3020 02d9 65       		.byte	0x65
 3021 02da F7020000 		.4byte	0x2f7
 3022 02de 02       		.uleb128 0x2
 3023 02df 91       		.byte	0x91
 3024 02e0 68       		.sleb128 -24
 3025 02e1 00       		.byte	0
 3026 02e2 10       		.uleb128 0x10
 3027 02e3 6B000000 		.4byte	0x6b
 3028 02e7 F2020000 		.4byte	0x2f2
 3029 02eb 11       		.uleb128 0x11
 3030 02ec A7000000 		.4byte	0xa7
 3031 02f0 01       		.byte	0x1
 3032 02f1 00       		.byte	0
 3033 02f2 06       		.uleb128 0x6
 3034 02f3 E2020000 		.4byte	0x2e2
 3035 02f7 09       		.uleb128 0x9
 3036 02f8 04       		.byte	0x4
 3037 02f9 FD020000 		.4byte	0x2fd
 3038 02fd 12       		.uleb128 0x12
 3039 02fe 20020000 		.4byte	0x220
 3040 0302 13       		.uleb128 0x13
 3041 0303 9A000000 		.4byte	.LASF48
 3042 0307 01       		.byte	0x1
 3043 0308 9201     		.2byte	0x192
 3044 030a 00000000 		.4byte	.LFB2
 3045 030e 80010000 		.4byte	.LFE2-.LFB2
 3046 0312 01       		.uleb128 0x1
 3047 0313 9C       		.byte	0x9c
 3048 0314 34030000 		.4byte	0x334
 3049 0318 14       		.uleb128 0x14
 3050 0319 657000   		.ascii	"ep\000"
 3051 031c 01       		.byte	0x1
 3052 031d 9401     		.2byte	0x194
 3053 031f 6B000000 		.4byte	0x6b
 3054 0323 02       		.uleb128 0x2
 3055 0324 91       		.byte	0x91
 3056 0325 77       		.sleb128 -9
 3057 0326 14       		.uleb128 0x14
 3058 0327 6900     		.ascii	"i\000"
 3059 0329 01       		.byte	0x1
 3060 032a 9501     		.2byte	0x195
 3061 032c 6B000000 		.4byte	0x6b
 3062 0330 02       		.uleb128 0x2
 3063 0331 91       		.byte	0x91
 3064 0332 76       		.sleb128 -10
 3065 0333 00       		.byte	0
 3066 0334 15       		.uleb128 0x15
 3067 0335 70060000 		.4byte	.LASF49
 3068 0339 01       		.byte	0x1
 3069 033a ED01     		.2byte	0x1ed
 3070 033c 00000000 		.4byte	.LFB3
 3071 0340 04030000 		.4byte	.LFE3-.LFB3
 3072 0344 01       		.uleb128 0x1
 3073 0345 9C       		.byte	0x9c
 3074 0346 CF030000 		.4byte	0x3cf
 3075 034a 16       		.uleb128 0x16
 3076 034b 15010000 		.4byte	.LASF51
ARM GAS  C:\Users\JohnP\AppData\Local\Temp\ccNdEQvR.s 			page 77


 3077 034f 01       		.byte	0x1
 3078 0350 ED01     		.2byte	0x1ed
 3079 0352 6B000000 		.4byte	0x6b
 3080 0356 02       		.uleb128 0x2
 3081 0357 91       		.byte	0x91
 3082 0358 5F       		.sleb128 -33
 3083 0359 14       		.uleb128 0x14
 3084 035a 657000   		.ascii	"ep\000"
 3085 035d 01       		.byte	0x1
 3086 035e EF01     		.2byte	0x1ef
 3087 0360 6B000000 		.4byte	0x6b
 3088 0364 02       		.uleb128 0x2
 3089 0365 91       		.byte	0x91
 3090 0366 77       		.sleb128 -9
 3091 0367 17       		.uleb128 0x17
 3092 0368 5C060000 		.4byte	.LASF52
 3093 036c 01       		.byte	0x1
 3094 036d F001     		.2byte	0x1f0
 3095 036f 6B000000 		.4byte	0x6b
 3096 0373 02       		.uleb128 0x2
 3097 0374 91       		.byte	0x91
 3098 0375 76       		.sleb128 -10
 3099 0376 14       		.uleb128 0x14
 3100 0377 6900     		.ascii	"i\000"
 3101 0379 01       		.byte	0x1
 3102 037a F101     		.2byte	0x1f1
 3103 037c 6B000000 		.4byte	0x6b
 3104 0380 02       		.uleb128 0x2
 3105 0381 91       		.byte	0x91
 3106 0382 75       		.sleb128 -11
 3107 0383 17       		.uleb128 0x17
 3108 0384 D9010000 		.4byte	.LASF53
 3109 0388 01       		.byte	0x1
 3110 0389 F201     		.2byte	0x1f2
 3111 038b 6B000000 		.4byte	0x6b
 3112 038f 02       		.uleb128 0x2
 3113 0390 91       		.byte	0x91
 3114 0391 63       		.sleb128 -29
 3115 0392 17       		.uleb128 0x17
 3116 0393 B6020000 		.4byte	.LASF54
 3117 0397 01       		.byte	0x1
 3118 0398 F301     		.2byte	0x1f3
 3119 039a CF030000 		.4byte	0x3cf
 3120 039e 02       		.uleb128 0x2
 3121 039f 91       		.byte	0x91
 3122 03a0 64       		.sleb128 -28
 3123 03a1 17       		.uleb128 0x17
 3124 03a2 48030000 		.4byte	.LASF55
 3125 03a6 01       		.byte	0x1
 3126 03a7 F501     		.2byte	0x1f5
 3127 03a9 76000000 		.4byte	0x76
 3128 03ad 02       		.uleb128 0x2
 3129 03ae 91       		.byte	0x91
 3130 03af 72       		.sleb128 -14
 3131 03b0 17       		.uleb128 0x17
 3132 03b1 3C030000 		.4byte	.LASF46
 3133 03b5 01       		.byte	0x1
ARM GAS  C:\Users\JohnP\AppData\Local\Temp\ccNdEQvR.s 			page 78


 3134 03b6 F801     		.2byte	0x1f8
 3135 03b8 F7020000 		.4byte	0x2f7
 3136 03bc 02       		.uleb128 0x2
 3137 03bd 91       		.byte	0x91
 3138 03be 68       		.sleb128 -24
 3139 03bf 14       		.uleb128 0x14
 3140 03c0 70455000 		.ascii	"pEP\000"
 3141 03c4 01       		.byte	0x1
 3142 03c5 F901     		.2byte	0x1f9
 3143 03c7 DA030000 		.4byte	0x3da
 3144 03cb 02       		.uleb128 0x2
 3145 03cc 91       		.byte	0x91
 3146 03cd 6C       		.sleb128 -20
 3147 03ce 00       		.byte	0
 3148 03cf 09       		.uleb128 0x9
 3149 03d0 04       		.byte	0x4
 3150 03d1 D5030000 		.4byte	0x3d5
 3151 03d5 12       		.uleb128 0x12
 3152 03d6 6B000000 		.4byte	0x6b
 3153 03da 09       		.uleb128 0x9
 3154 03db 04       		.byte	0x4
 3155 03dc E0030000 		.4byte	0x3e0
 3156 03e0 12       		.uleb128 0x12
 3157 03e1 7F010000 		.4byte	0x17f
 3158 03e5 15       		.uleb128 0x15
 3159 03e6 35010000 		.4byte	.LASF56
 3160 03ea 01       		.byte	0x1
 3161 03eb E502     		.2byte	0x2e5
 3162 03ed 00000000 		.4byte	.LFB4
 3163 03f1 74020000 		.4byte	.LFE4-.LFB4
 3164 03f5 01       		.uleb128 0x1
 3165 03f6 9C       		.byte	0x9c
 3166 03f7 61040000 		.4byte	0x461
 3167 03fb 14       		.uleb128 0x14
 3168 03fc 657000   		.ascii	"ep\000"
 3169 03ff 01       		.byte	0x1
 3170 0400 E702     		.2byte	0x2e7
 3171 0402 6B000000 		.4byte	0x6b
 3172 0406 02       		.uleb128 0x2
 3173 0407 91       		.byte	0x91
 3174 0408 6B       		.sleb128 -21
 3175 0409 17       		.uleb128 0x17
 3176 040a 5C060000 		.4byte	.LASF52
 3177 040e 01       		.byte	0x1
 3178 040f E802     		.2byte	0x2e8
 3179 0411 6B000000 		.4byte	0x6b
 3180 0415 02       		.uleb128 0x2
 3181 0416 91       		.byte	0x91
 3182 0417 6A       		.sleb128 -22
 3183 0418 14       		.uleb128 0x14
 3184 0419 6900     		.ascii	"i\000"
 3185 041b 01       		.byte	0x1
 3186 041c E902     		.2byte	0x2e9
 3187 041e 6B000000 		.4byte	0x6b
 3188 0422 02       		.uleb128 0x2
 3189 0423 91       		.byte	0x91
 3190 0424 77       		.sleb128 -9
ARM GAS  C:\Users\JohnP\AppData\Local\Temp\ccNdEQvR.s 			page 79


 3191 0425 17       		.uleb128 0x17
 3192 0426 D9010000 		.4byte	.LASF53
 3193 042a 01       		.byte	0x1
 3194 042b EA02     		.2byte	0x2ea
 3195 042d 6B000000 		.4byte	0x6b
 3196 0431 02       		.uleb128 0x2
 3197 0432 91       		.byte	0x91
 3198 0433 68       		.sleb128 -24
 3199 0434 14       		.uleb128 0x14
 3200 0435 726900   		.ascii	"ri\000"
 3201 0438 01       		.byte	0x1
 3202 0439 EB02     		.2byte	0x2eb
 3203 043b 6B000000 		.4byte	0x6b
 3204 043f 02       		.uleb128 0x2
 3205 0440 91       		.byte	0x91
 3206 0441 69       		.sleb128 -23
 3207 0442 17       		.uleb128 0x17
 3208 0443 3C030000 		.4byte	.LASF46
 3209 0447 01       		.byte	0x1
 3210 0448 ED02     		.2byte	0x2ed
 3211 044a F7020000 		.4byte	0x2f7
 3212 044e 02       		.uleb128 0x2
 3213 044f 91       		.byte	0x91
 3214 0450 6C       		.sleb128 -20
 3215 0451 14       		.uleb128 0x14
 3216 0452 70455000 		.ascii	"pEP\000"
 3217 0456 01       		.byte	0x1
 3218 0457 EE02     		.2byte	0x2ee
 3219 0459 DA030000 		.4byte	0x3da
 3220 045d 02       		.uleb128 0x2
 3221 045e 91       		.byte	0x91
 3222 045f 70       		.sleb128 -16
 3223 0460 00       		.byte	0
 3224 0461 18       		.uleb128 0x18
 3225 0462 D5030000 		.4byte	.LASF58
 3226 0466 01       		.byte	0x1
 3227 0467 6303     		.2byte	0x363
 3228 0469 F7020000 		.4byte	0x2f7
 3229 046d 00000000 		.4byte	.LFB5
 3230 0471 54000000 		.4byte	.LFE5-.LFB5
 3231 0475 01       		.uleb128 0x1
 3232 0476 9C       		.byte	0x9c
 3233 0477 9A040000 		.4byte	0x49a
 3234 047b 16       		.uleb128 0x16
 3235 047c AC000000 		.4byte	.LASF59
 3236 0480 01       		.byte	0x1
 3237 0481 6303     		.2byte	0x363
 3238 0483 6B000000 		.4byte	0x6b
 3239 0487 02       		.uleb128 0x2
 3240 0488 91       		.byte	0x91
 3241 0489 6F       		.sleb128 -17
 3242 048a 17       		.uleb128 0x17
 3243 048b 3C030000 		.4byte	.LASF46
 3244 048f 01       		.byte	0x1
 3245 0490 6703     		.2byte	0x367
 3246 0492 F7020000 		.4byte	0x2f7
 3247 0496 02       		.uleb128 0x2
ARM GAS  C:\Users\JohnP\AppData\Local\Temp\ccNdEQvR.s 			page 80


 3248 0497 91       		.byte	0x91
 3249 0498 74       		.sleb128 -12
 3250 0499 00       		.byte	0
 3251 049a 19       		.uleb128 0x19
 3252 049b 31040000 		.4byte	.LASF90
 3253 049f 01       		.byte	0x1
 3254 04a0 8C03     		.2byte	0x38c
 3255 04a2 F7020000 		.4byte	0x2f7
 3256 04a6 00000000 		.4byte	.LFB6
 3257 04aa 24000000 		.4byte	.LFE6-.LFB6
 3258 04ae 01       		.uleb128 0x1
 3259 04af 9C       		.byte	0x9c
 3260 04b0 1A       		.uleb128 0x1a
 3261 04b1 F1020000 		.4byte	.LASF60
 3262 04b5 01       		.byte	0x1
 3263 04b6 A303     		.2byte	0x3a3
 3264 04b8 CF030000 		.4byte	0x3cf
 3265 04bc 00000000 		.4byte	.LFB7
 3266 04c0 4C000000 		.4byte	.LFE7-.LFB7
 3267 04c4 01       		.uleb128 0x1
 3268 04c5 9C       		.byte	0x9c
 3269 04c6 F8040000 		.4byte	0x4f8
 3270 04ca 17       		.uleb128 0x17
 3271 04cb 3C030000 		.4byte	.LASF46
 3272 04cf 01       		.byte	0x1
 3273 04d0 A603     		.2byte	0x3a6
 3274 04d2 F7020000 		.4byte	0x2f7
 3275 04d6 02       		.uleb128 0x2
 3276 04d7 91       		.byte	0x91
 3277 04d8 70       		.sleb128 -16
 3278 04d9 17       		.uleb128 0x17
 3279 04da E1020000 		.4byte	.LASF61
 3280 04de 01       		.byte	0x1
 3281 04df A703     		.2byte	0x3a7
 3282 04e1 CF030000 		.4byte	0x3cf
 3283 04e5 02       		.uleb128 0x2
 3284 04e6 91       		.byte	0x91
 3285 04e7 74       		.sleb128 -12
 3286 04e8 17       		.uleb128 0x17
 3287 04e9 EF030000 		.4byte	.LASF62
 3288 04ed 01       		.byte	0x1
 3289 04ee A803     		.2byte	0x3a8
 3290 04f0 6B000000 		.4byte	0x6b
 3291 04f4 02       		.uleb128 0x2
 3292 04f5 91       		.byte	0x91
 3293 04f6 6F       		.sleb128 -17
 3294 04f7 00       		.byte	0
 3295 04f8 13       		.uleb128 0x13
 3296 04f9 73050000 		.4byte	.LASF63
 3297 04fd 01       		.byte	0x1
 3298 04fe CE03     		.2byte	0x3ce
 3299 0500 00000000 		.4byte	.LFB8
 3300 0504 B8000000 		.4byte	.LFE8-.LFB8
 3301 0508 01       		.uleb128 0x1
 3302 0509 9C       		.byte	0x9c
 3303 050a 2B050000 		.4byte	0x52b
 3304 050e 1B       		.uleb128 0x1b
ARM GAS  C:\Users\JohnP\AppData\Local\Temp\ccNdEQvR.s 			page 81


 3305 050f 657000   		.ascii	"ep\000"
 3306 0512 01       		.byte	0x1
 3307 0513 CE03     		.2byte	0x3ce
 3308 0515 6B000000 		.4byte	0x6b
 3309 0519 02       		.uleb128 0x2
 3310 051a 91       		.byte	0x91
 3311 051b 6F       		.sleb128 -17
 3312 051c 14       		.uleb128 0x14
 3313 051d 726900   		.ascii	"ri\000"
 3314 0520 01       		.byte	0x1
 3315 0521 D003     		.2byte	0x3d0
 3316 0523 6B000000 		.4byte	0x6b
 3317 0527 02       		.uleb128 0x2
 3318 0528 91       		.byte	0x91
 3319 0529 77       		.sleb128 -9
 3320 052a 00       		.byte	0
 3321 052b 1A       		.uleb128 0x1a
 3322 052c 8B020000 		.4byte	.LASF64
 3323 0530 01       		.byte	0x1
 3324 0531 FD03     		.2byte	0x3fd
 3325 0533 6B000000 		.4byte	0x6b
 3326 0537 00000000 		.4byte	.LFB9
 3327 053b E0000000 		.4byte	.LFE9-.LFB9
 3328 053f 01       		.uleb128 0x1
 3329 0540 9C       		.byte	0x9c
 3330 0541 71050000 		.4byte	0x571
 3331 0545 14       		.uleb128 0x14
 3332 0546 657000   		.ascii	"ep\000"
 3333 0549 01       		.byte	0x1
 3334 054a FF03     		.2byte	0x3ff
 3335 054c 6B000000 		.4byte	0x6b
 3336 0550 02       		.uleb128 0x2
 3337 0551 91       		.byte	0x91
 3338 0552 76       		.sleb128 -10
 3339 0553 14       		.uleb128 0x14
 3340 0554 726900   		.ascii	"ri\000"
 3341 0557 01       		.byte	0x1
 3342 0558 0004     		.2byte	0x400
 3343 055a 6B000000 		.4byte	0x6b
 3344 055e 02       		.uleb128 0x2
 3345 055f 91       		.byte	0x91
 3346 0560 75       		.sleb128 -11
 3347 0561 17       		.uleb128 0x17
 3348 0562 F9050000 		.4byte	.LASF39
 3349 0566 01       		.byte	0x1
 3350 0567 0104     		.2byte	0x401
 3351 0569 6B000000 		.4byte	0x6b
 3352 056d 02       		.uleb128 0x2
 3353 056e 91       		.byte	0x91
 3354 056f 77       		.sleb128 -9
 3355 0570 00       		.byte	0
 3356 0571 1A       		.uleb128 0x1a
 3357 0572 12050000 		.4byte	.LASF65
 3358 0576 01       		.byte	0x1
 3359 0577 3404     		.2byte	0x434
 3360 0579 6B000000 		.4byte	0x6b
 3361 057d 00000000 		.4byte	.LFB10
ARM GAS  C:\Users\JohnP\AppData\Local\Temp\ccNdEQvR.s 			page 82


 3362 0581 44010000 		.4byte	.LFE10-.LFB10
 3363 0585 01       		.uleb128 0x1
 3364 0586 9C       		.byte	0x9c
 3365 0587 B7050000 		.4byte	0x5b7
 3366 058b 14       		.uleb128 0x14
 3367 058c 657000   		.ascii	"ep\000"
 3368 058f 01       		.byte	0x1
 3369 0590 3604     		.2byte	0x436
 3370 0592 6B000000 		.4byte	0x6b
 3371 0596 02       		.uleb128 0x2
 3372 0597 91       		.byte	0x91
 3373 0598 76       		.sleb128 -10
 3374 0599 14       		.uleb128 0x14
 3375 059a 726900   		.ascii	"ri\000"
 3376 059d 01       		.byte	0x1
 3377 059e 3704     		.2byte	0x437
 3378 05a0 6B000000 		.4byte	0x6b
 3379 05a4 02       		.uleb128 0x2
 3380 05a5 91       		.byte	0x91
 3381 05a6 75       		.sleb128 -11
 3382 05a7 17       		.uleb128 0x17
 3383 05a8 F9050000 		.4byte	.LASF39
 3384 05ac 01       		.byte	0x1
 3385 05ad 3804     		.2byte	0x438
 3386 05af 6B000000 		.4byte	0x6b
 3387 05b3 02       		.uleb128 0x2
 3388 05b4 91       		.byte	0x91
 3389 05b5 77       		.sleb128 -9
 3390 05b6 00       		.byte	0
 3391 05b7 1A       		.uleb128 0x1a
 3392 05b8 92050000 		.4byte	.LASF66
 3393 05bc 01       		.byte	0x1
 3394 05bd 7B04     		.2byte	0x47b
 3395 05bf 6B000000 		.4byte	0x6b
 3396 05c3 00000000 		.4byte	.LFB11
 3397 05c7 78000000 		.4byte	.LFE11-.LFB11
 3398 05cb 01       		.uleb128 0x1
 3399 05cc 9C       		.byte	0x9c
 3400 05cd 0E060000 		.4byte	0x60e
 3401 05d1 17       		.uleb128 0x17
 3402 05d2 F9050000 		.4byte	.LASF39
 3403 05d6 01       		.byte	0x1
 3404 05d7 7D04     		.2byte	0x47d
 3405 05d9 6B000000 		.4byte	0x6b
 3406 05dd 02       		.uleb128 0x2
 3407 05de 91       		.byte	0x91
 3408 05df 77       		.sleb128 -9
 3409 05e0 17       		.uleb128 0x17
 3410 05e1 13040000 		.4byte	.LASF67
 3411 05e5 01       		.byte	0x1
 3412 05e6 7E04     		.2byte	0x47e
 3413 05e8 6B000000 		.4byte	0x6b
 3414 05ec 02       		.uleb128 0x2
 3415 05ed 91       		.byte	0x91
 3416 05ee 76       		.sleb128 -10
 3417 05ef 17       		.uleb128 0x17
 3418 05f0 3C030000 		.4byte	.LASF46
ARM GAS  C:\Users\JohnP\AppData\Local\Temp\ccNdEQvR.s 			page 83


 3419 05f4 01       		.byte	0x1
 3420 05f5 7F04     		.2byte	0x47f
 3421 05f7 F7020000 		.4byte	0x2f7
 3422 05fb 02       		.uleb128 0x2
 3423 05fc 91       		.byte	0x91
 3424 05fd 70       		.sleb128 -16
 3425 05fe 17       		.uleb128 0x17
 3426 05ff EF030000 		.4byte	.LASF62
 3427 0603 01       		.byte	0x1
 3428 0604 8004     		.2byte	0x480
 3429 0606 6B000000 		.4byte	0x6b
 3430 060a 02       		.uleb128 0x2
 3431 060b 91       		.byte	0x91
 3432 060c 6F       		.sleb128 -17
 3433 060d 00       		.byte	0
 3434 060e 0F       		.uleb128 0xf
 3435 060f 08060000 		.4byte	.LASF68
 3436 0613 01       		.byte	0x1
 3437 0614 1E       		.byte	0x1e
 3438 0615 E3010000 		.4byte	0x1e3
 3439 0619 05       		.uleb128 0x5
 3440 061a 03       		.byte	0x3
 3441 061b 00000000 		.4byte	USBFS_1_fwSerialNumberStringDescriptor
 3442 061f 0F       		.uleb128 0xf
 3443 0620 36000000 		.4byte	.LASF69
 3444 0624 01       		.byte	0x1
 3445 0625 1F       		.byte	0x1f
 3446 0626 A2000000 		.4byte	0xa2
 3447 062a 05       		.uleb128 0x5
 3448 062b 03       		.byte	0x3
 3449 062c 04000000 		.4byte	USBFS_1_snStringConfirm
 3450 0630 1C       		.uleb128 0x1c
 3451 0631 04040000 		.4byte	.LASF70
 3452 0635 03       		.byte	0x3
 3453 0636 5302     		.2byte	0x253
 3454 0638 A2000000 		.4byte	0xa2
 3455 063c 1C       		.uleb128 0x1c
 3456 063d 05020000 		.4byte	.LASF71
 3457 0641 03       		.byte	0x3
 3458 0642 5502     		.2byte	0x255
 3459 0644 A2000000 		.4byte	0xa2
 3460 0648 1C       		.uleb128 0x1c
 3461 0649 B3050000 		.4byte	.LASF72
 3462 064d 03       		.byte	0x3
 3463 064e 5602     		.2byte	0x256
 3464 0650 A2000000 		.4byte	0xa2
 3465 0654 1C       		.uleb128 0x1c
 3466 0655 84010000 		.4byte	.LASF73
 3467 0659 03       		.byte	0x3
 3468 065a 5702     		.2byte	0x257
 3469 065c A2000000 		.4byte	0xa2
 3470 0660 10       		.uleb128 0x10
 3471 0661 6B000000 		.4byte	0x6b
 3472 0665 70060000 		.4byte	0x670
 3473 0669 11       		.uleb128 0x11
 3474 066a A7000000 		.4byte	0xa7
 3475 066e 11       		.byte	0x11
ARM GAS  C:\Users\JohnP\AppData\Local\Temp\ccNdEQvR.s 			page 84


 3476 066f 00       		.byte	0
 3477 0670 1D       		.uleb128 0x1d
 3478 0671 84000000 		.4byte	.LASF74
 3479 0675 04       		.byte	0x4
 3480 0676 1C       		.byte	0x1c
 3481 0677 7B060000 		.4byte	0x67b
 3482 067b 12       		.uleb128 0x12
 3483 067c 60060000 		.4byte	0x660
 3484 0680 10       		.uleb128 0x10
 3485 0681 20020000 		.4byte	0x220
 3486 0685 90060000 		.4byte	0x690
 3487 0689 11       		.uleb128 0x11
 3488 068a A7000000 		.4byte	0xa7
 3489 068e 00       		.byte	0
 3490 068f 00       		.byte	0
 3491 0690 1D       		.uleb128 0x1d
 3492 0691 ED000000 		.4byte	.LASF75
 3493 0695 04       		.byte	0x4
 3494 0696 23       		.byte	0x23
 3495 0697 9B060000 		.4byte	0x69b
 3496 069b 12       		.uleb128 0x12
 3497 069c 80060000 		.4byte	0x680
 3498 06a0 1D       		.uleb128 0x1d
 3499 06a1 56050000 		.4byte	.LASF76
 3500 06a5 04       		.byte	0x4
 3501 06a6 24       		.byte	0x24
 3502 06a7 AB060000 		.4byte	0x6ab
 3503 06ab 12       		.uleb128 0x12
 3504 06ac E2020000 		.4byte	0x2e2
 3505 06b0 10       		.uleb128 0x10
 3506 06b1 6B000000 		.4byte	0x6b
 3507 06b5 C0060000 		.4byte	0x6c0
 3508 06b9 11       		.uleb128 0x11
 3509 06ba A7000000 		.4byte	0xa7
 3510 06be 3C       		.byte	0x3c
 3511 06bf 00       		.byte	0
 3512 06c0 1D       		.uleb128 0x1d
 3513 06c1 70020000 		.4byte	.LASF77
 3514 06c5 04       		.byte	0x4
 3515 06c6 25       		.byte	0x25
 3516 06c7 CB060000 		.4byte	0x6cb
 3517 06cb 12       		.uleb128 0x12
 3518 06cc B0060000 		.4byte	0x6b0
 3519 06d0 1D       		.uleb128 0x1d
 3520 06d1 3E050000 		.4byte	.LASF78
 3521 06d5 04       		.byte	0x4
 3522 06d6 2F       		.byte	0x2f
 3523 06d7 DB060000 		.4byte	0x6db
 3524 06db 12       		.uleb128 0x12
 3525 06dc 60060000 		.4byte	0x660
 3526 06e0 1D       		.uleb128 0x1d
 3527 06e1 E0010000 		.4byte	.LASF79
 3528 06e5 04       		.byte	0x4
 3529 06e6 35       		.byte	0x35
 3530 06e7 A2000000 		.4byte	0xa2
 3531 06eb 10       		.uleb128 0x10
 3532 06ec 6B000000 		.4byte	0x6b
ARM GAS  C:\Users\JohnP\AppData\Local\Temp\ccNdEQvR.s 			page 85


 3533 06f0 FB060000 		.4byte	0x6fb
 3534 06f4 11       		.uleb128 0x11
 3535 06f5 A7000000 		.4byte	0xa7
 3536 06f9 00       		.byte	0
 3537 06fa 00       		.byte	0
 3538 06fb 1D       		.uleb128 0x1d
 3539 06fc 5A040000 		.4byte	.LASF80
 3540 0700 04       		.byte	0x4
 3541 0701 36       		.byte	0x36
 3542 0702 06070000 		.4byte	0x706
 3543 0706 06       		.uleb128 0x6
 3544 0707 EB060000 		.4byte	0x6eb
 3545 070b 1D       		.uleb128 0x1d
 3546 070c 4E000000 		.4byte	.LASF81
 3547 0710 04       		.byte	0x4
 3548 0711 37       		.byte	0x37
 3549 0712 16070000 		.4byte	0x716
 3550 0716 06       		.uleb128 0x6
 3551 0717 EB060000 		.4byte	0x6eb
 3552 071b 1D       		.uleb128 0x1d
 3553 071c 3A060000 		.4byte	.LASF82
 3554 0720 04       		.byte	0x4
 3555 0721 38       		.byte	0x38
 3556 0722 A2000000 		.4byte	0xa2
 3557 0726 1D       		.uleb128 0x1d
 3558 0727 6C000000 		.4byte	.LASF83
 3559 072b 04       		.byte	0x4
 3560 072c 39       		.byte	0x39
 3561 072d 31070000 		.4byte	0x731
 3562 0731 06       		.uleb128 0x6
 3563 0732 EB060000 		.4byte	0x6eb
 3564 0736 1D       		.uleb128 0x1d
 3565 0737 66010000 		.4byte	.LASF84
 3566 073b 04       		.byte	0x4
 3567 073c 3A       		.byte	0x3a
 3568 073d CF030000 		.4byte	0x3cf
 3569 0741 10       		.uleb128 0x10
 3570 0742 23010000 		.4byte	0x123
 3571 0746 51070000 		.4byte	0x751
 3572 074a 11       		.uleb128 0x11
 3573 074b A7000000 		.4byte	0xa7
 3574 074f 08       		.byte	0x8
 3575 0750 00       		.byte	0
 3576 0751 1D       		.uleb128 0x1d
 3577 0752 E2000000 		.4byte	.LASF85
 3578 0756 04       		.byte	0x4
 3579 0757 3C       		.byte	0x3c
 3580 0758 5C070000 		.4byte	0x75c
 3581 075c 06       		.uleb128 0x6
 3582 075d 41070000 		.4byte	0x741
 3583 0761 1D       		.uleb128 0x1d
 3584 0762 2C050000 		.4byte	.LASF86
 3585 0766 04       		.byte	0x4
 3586 0767 3D       		.byte	0x3d
 3587 0768 6C070000 		.4byte	0x76c
 3588 076c 06       		.uleb128 0x6
 3589 076d EF010000 		.4byte	0x1ef
ARM GAS  C:\Users\JohnP\AppData\Local\Temp\ccNdEQvR.s 			page 86


 3590 0771 00       		.byte	0
 3591              		.section	.debug_abbrev,"",%progbits
 3592              	.Ldebug_abbrev0:
 3593 0000 01       		.uleb128 0x1
 3594 0001 11       		.uleb128 0x11
 3595 0002 01       		.byte	0x1
 3596 0003 25       		.uleb128 0x25
 3597 0004 0E       		.uleb128 0xe
 3598 0005 13       		.uleb128 0x13
 3599 0006 0B       		.uleb128 0xb
 3600 0007 03       		.uleb128 0x3
 3601 0008 0E       		.uleb128 0xe
 3602 0009 1B       		.uleb128 0x1b
 3603 000a 0E       		.uleb128 0xe
 3604 000b 55       		.uleb128 0x55
 3605 000c 17       		.uleb128 0x17
 3606 000d 11       		.uleb128 0x11
 3607 000e 01       		.uleb128 0x1
 3608 000f 10       		.uleb128 0x10
 3609 0010 17       		.uleb128 0x17
 3610 0011 00       		.byte	0
 3611 0012 00       		.byte	0
 3612 0013 02       		.uleb128 0x2
 3613 0014 24       		.uleb128 0x24
 3614 0015 00       		.byte	0
 3615 0016 0B       		.uleb128 0xb
 3616 0017 0B       		.uleb128 0xb
 3617 0018 3E       		.uleb128 0x3e
 3618 0019 0B       		.uleb128 0xb
 3619 001a 03       		.uleb128 0x3
 3620 001b 0E       		.uleb128 0xe
 3621 001c 00       		.byte	0
 3622 001d 00       		.byte	0
 3623 001e 03       		.uleb128 0x3
 3624 001f 24       		.uleb128 0x24
 3625 0020 00       		.byte	0
 3626 0021 0B       		.uleb128 0xb
 3627 0022 0B       		.uleb128 0xb
 3628 0023 3E       		.uleb128 0x3e
 3629 0024 0B       		.uleb128 0xb
 3630 0025 03       		.uleb128 0x3
 3631 0026 08       		.uleb128 0x8
 3632 0027 00       		.byte	0
 3633 0028 00       		.byte	0
 3634 0029 04       		.uleb128 0x4
 3635 002a 16       		.uleb128 0x16
 3636 002b 00       		.byte	0
 3637 002c 03       		.uleb128 0x3
 3638 002d 0E       		.uleb128 0xe
 3639 002e 3A       		.uleb128 0x3a
 3640 002f 0B       		.uleb128 0xb
 3641 0030 3B       		.uleb128 0x3b
 3642 0031 0B       		.uleb128 0xb
 3643 0032 49       		.uleb128 0x49
 3644 0033 13       		.uleb128 0x13
 3645 0034 00       		.byte	0
 3646 0035 00       		.byte	0
ARM GAS  C:\Users\JohnP\AppData\Local\Temp\ccNdEQvR.s 			page 87


 3647 0036 05       		.uleb128 0x5
 3648 0037 16       		.uleb128 0x16
 3649 0038 00       		.byte	0
 3650 0039 03       		.uleb128 0x3
 3651 003a 0E       		.uleb128 0xe
 3652 003b 3A       		.uleb128 0x3a
 3653 003c 0B       		.uleb128 0xb
 3654 003d 3B       		.uleb128 0x3b
 3655 003e 05       		.uleb128 0x5
 3656 003f 49       		.uleb128 0x49
 3657 0040 13       		.uleb128 0x13
 3658 0041 00       		.byte	0
 3659 0042 00       		.byte	0
 3660 0043 06       		.uleb128 0x6
 3661 0044 35       		.uleb128 0x35
 3662 0045 00       		.byte	0
 3663 0046 49       		.uleb128 0x49
 3664 0047 13       		.uleb128 0x13
 3665 0048 00       		.byte	0
 3666 0049 00       		.byte	0
 3667 004a 07       		.uleb128 0x7
 3668 004b 13       		.uleb128 0x13
 3669 004c 01       		.byte	0x1
 3670 004d 0B       		.uleb128 0xb
 3671 004e 0B       		.uleb128 0xb
 3672 004f 3A       		.uleb128 0x3a
 3673 0050 0B       		.uleb128 0xb
 3674 0051 3B       		.uleb128 0x3b
 3675 0052 0B       		.uleb128 0xb
 3676 0053 01       		.uleb128 0x1
 3677 0054 13       		.uleb128 0x13
 3678 0055 00       		.byte	0
 3679 0056 00       		.byte	0
 3680 0057 08       		.uleb128 0x8
 3681 0058 0D       		.uleb128 0xd
 3682 0059 00       		.byte	0
 3683 005a 03       		.uleb128 0x3
 3684 005b 0E       		.uleb128 0xe
 3685 005c 3A       		.uleb128 0x3a
 3686 005d 0B       		.uleb128 0xb
 3687 005e 3B       		.uleb128 0x3b
 3688 005f 0B       		.uleb128 0xb
 3689 0060 49       		.uleb128 0x49
 3690 0061 13       		.uleb128 0x13
 3691 0062 38       		.uleb128 0x38
 3692 0063 0B       		.uleb128 0xb
 3693 0064 00       		.byte	0
 3694 0065 00       		.byte	0
 3695 0066 09       		.uleb128 0x9
 3696 0067 0F       		.uleb128 0xf
 3697 0068 00       		.byte	0
 3698 0069 0B       		.uleb128 0xb
 3699 006a 0B       		.uleb128 0xb
 3700 006b 49       		.uleb128 0x49
 3701 006c 13       		.uleb128 0x13
 3702 006d 00       		.byte	0
 3703 006e 00       		.byte	0
ARM GAS  C:\Users\JohnP\AppData\Local\Temp\ccNdEQvR.s 			page 88


 3704 006f 0A       		.uleb128 0xa
 3705 0070 0D       		.uleb128 0xd
 3706 0071 00       		.byte	0
 3707 0072 03       		.uleb128 0x3
 3708 0073 08       		.uleb128 0x8
 3709 0074 3A       		.uleb128 0x3a
 3710 0075 0B       		.uleb128 0xb
 3711 0076 3B       		.uleb128 0x3b
 3712 0077 0B       		.uleb128 0xb
 3713 0078 49       		.uleb128 0x49
 3714 0079 13       		.uleb128 0x13
 3715 007a 38       		.uleb128 0x38
 3716 007b 0B       		.uleb128 0xb
 3717 007c 00       		.byte	0
 3718 007d 00       		.byte	0
 3719 007e 0B       		.uleb128 0xb
 3720 007f 26       		.uleb128 0x26
 3721 0080 00       		.byte	0
 3722 0081 00       		.byte	0
 3723 0082 00       		.byte	0
 3724 0083 0C       		.uleb128 0xc
 3725 0084 2E       		.uleb128 0x2e
 3726 0085 01       		.byte	0x1
 3727 0086 3F       		.uleb128 0x3f
 3728 0087 19       		.uleb128 0x19
 3729 0088 03       		.uleb128 0x3
 3730 0089 0E       		.uleb128 0xe
 3731 008a 3A       		.uleb128 0x3a
 3732 008b 0B       		.uleb128 0xb
 3733 008c 3B       		.uleb128 0x3b
 3734 008d 0B       		.uleb128 0xb
 3735 008e 27       		.uleb128 0x27
 3736 008f 19       		.uleb128 0x19
 3737 0090 11       		.uleb128 0x11
 3738 0091 01       		.uleb128 0x1
 3739 0092 12       		.uleb128 0x12
 3740 0093 06       		.uleb128 0x6
 3741 0094 40       		.uleb128 0x40
 3742 0095 18       		.uleb128 0x18
 3743 0096 9742     		.uleb128 0x2117
 3744 0098 19       		.uleb128 0x19
 3745 0099 01       		.uleb128 0x1
 3746 009a 13       		.uleb128 0x13
 3747 009b 00       		.byte	0
 3748 009c 00       		.byte	0
 3749 009d 0D       		.uleb128 0xd
 3750 009e 05       		.uleb128 0x5
 3751 009f 00       		.byte	0
 3752 00a0 03       		.uleb128 0x3
 3753 00a1 0E       		.uleb128 0xe
 3754 00a2 3A       		.uleb128 0x3a
 3755 00a3 0B       		.uleb128 0xb
 3756 00a4 3B       		.uleb128 0x3b
 3757 00a5 0B       		.uleb128 0xb
 3758 00a6 49       		.uleb128 0x49
 3759 00a7 13       		.uleb128 0x13
 3760 00a8 02       		.uleb128 0x2
ARM GAS  C:\Users\JohnP\AppData\Local\Temp\ccNdEQvR.s 			page 89


 3761 00a9 18       		.uleb128 0x18
 3762 00aa 00       		.byte	0
 3763 00ab 00       		.byte	0
 3764 00ac 0E       		.uleb128 0xe
 3765 00ad 2E       		.uleb128 0x2e
 3766 00ae 01       		.byte	0x1
 3767 00af 3F       		.uleb128 0x3f
 3768 00b0 19       		.uleb128 0x19
 3769 00b1 03       		.uleb128 0x3
 3770 00b2 0E       		.uleb128 0xe
 3771 00b3 3A       		.uleb128 0x3a
 3772 00b4 0B       		.uleb128 0xb
 3773 00b5 3B       		.uleb128 0x3b
 3774 00b6 0B       		.uleb128 0xb
 3775 00b7 27       		.uleb128 0x27
 3776 00b8 19       		.uleb128 0x19
 3777 00b9 49       		.uleb128 0x49
 3778 00ba 13       		.uleb128 0x13
 3779 00bb 11       		.uleb128 0x11
 3780 00bc 01       		.uleb128 0x1
 3781 00bd 12       		.uleb128 0x12
 3782 00be 06       		.uleb128 0x6
 3783 00bf 40       		.uleb128 0x40
 3784 00c0 18       		.uleb128 0x18
 3785 00c1 9642     		.uleb128 0x2116
 3786 00c3 19       		.uleb128 0x19
 3787 00c4 01       		.uleb128 0x1
 3788 00c5 13       		.uleb128 0x13
 3789 00c6 00       		.byte	0
 3790 00c7 00       		.byte	0
 3791 00c8 0F       		.uleb128 0xf
 3792 00c9 34       		.uleb128 0x34
 3793 00ca 00       		.byte	0
 3794 00cb 03       		.uleb128 0x3
 3795 00cc 0E       		.uleb128 0xe
 3796 00cd 3A       		.uleb128 0x3a
 3797 00ce 0B       		.uleb128 0xb
 3798 00cf 3B       		.uleb128 0x3b
 3799 00d0 0B       		.uleb128 0xb
 3800 00d1 49       		.uleb128 0x49
 3801 00d2 13       		.uleb128 0x13
 3802 00d3 02       		.uleb128 0x2
 3803 00d4 18       		.uleb128 0x18
 3804 00d5 00       		.byte	0
 3805 00d6 00       		.byte	0
 3806 00d7 10       		.uleb128 0x10
 3807 00d8 01       		.uleb128 0x1
 3808 00d9 01       		.byte	0x1
 3809 00da 49       		.uleb128 0x49
 3810 00db 13       		.uleb128 0x13
 3811 00dc 01       		.uleb128 0x1
 3812 00dd 13       		.uleb128 0x13
 3813 00de 00       		.byte	0
 3814 00df 00       		.byte	0
 3815 00e0 11       		.uleb128 0x11
 3816 00e1 21       		.uleb128 0x21
 3817 00e2 00       		.byte	0
ARM GAS  C:\Users\JohnP\AppData\Local\Temp\ccNdEQvR.s 			page 90


 3818 00e3 49       		.uleb128 0x49
 3819 00e4 13       		.uleb128 0x13
 3820 00e5 2F       		.uleb128 0x2f
 3821 00e6 0B       		.uleb128 0xb
 3822 00e7 00       		.byte	0
 3823 00e8 00       		.byte	0
 3824 00e9 12       		.uleb128 0x12
 3825 00ea 26       		.uleb128 0x26
 3826 00eb 00       		.byte	0
 3827 00ec 49       		.uleb128 0x49
 3828 00ed 13       		.uleb128 0x13
 3829 00ee 00       		.byte	0
 3830 00ef 00       		.byte	0
 3831 00f0 13       		.uleb128 0x13
 3832 00f1 2E       		.uleb128 0x2e
 3833 00f2 01       		.byte	0x1
 3834 00f3 3F       		.uleb128 0x3f
 3835 00f4 19       		.uleb128 0x19
 3836 00f5 03       		.uleb128 0x3
 3837 00f6 0E       		.uleb128 0xe
 3838 00f7 3A       		.uleb128 0x3a
 3839 00f8 0B       		.uleb128 0xb
 3840 00f9 3B       		.uleb128 0x3b
 3841 00fa 05       		.uleb128 0x5
 3842 00fb 27       		.uleb128 0x27
 3843 00fc 19       		.uleb128 0x19
 3844 00fd 11       		.uleb128 0x11
 3845 00fe 01       		.uleb128 0x1
 3846 00ff 12       		.uleb128 0x12
 3847 0100 06       		.uleb128 0x6
 3848 0101 40       		.uleb128 0x40
 3849 0102 18       		.uleb128 0x18
 3850 0103 9742     		.uleb128 0x2117
 3851 0105 19       		.uleb128 0x19
 3852 0106 01       		.uleb128 0x1
 3853 0107 13       		.uleb128 0x13
 3854 0108 00       		.byte	0
 3855 0109 00       		.byte	0
 3856 010a 14       		.uleb128 0x14
 3857 010b 34       		.uleb128 0x34
 3858 010c 00       		.byte	0
 3859 010d 03       		.uleb128 0x3
 3860 010e 08       		.uleb128 0x8
 3861 010f 3A       		.uleb128 0x3a
 3862 0110 0B       		.uleb128 0xb
 3863 0111 3B       		.uleb128 0x3b
 3864 0112 05       		.uleb128 0x5
 3865 0113 49       		.uleb128 0x49
 3866 0114 13       		.uleb128 0x13
 3867 0115 02       		.uleb128 0x2
 3868 0116 18       		.uleb128 0x18
 3869 0117 00       		.byte	0
 3870 0118 00       		.byte	0
 3871 0119 15       		.uleb128 0x15
 3872 011a 2E       		.uleb128 0x2e
 3873 011b 01       		.byte	0x1
 3874 011c 3F       		.uleb128 0x3f
ARM GAS  C:\Users\JohnP\AppData\Local\Temp\ccNdEQvR.s 			page 91


 3875 011d 19       		.uleb128 0x19
 3876 011e 03       		.uleb128 0x3
 3877 011f 0E       		.uleb128 0xe
 3878 0120 3A       		.uleb128 0x3a
 3879 0121 0B       		.uleb128 0xb
 3880 0122 3B       		.uleb128 0x3b
 3881 0123 05       		.uleb128 0x5
 3882 0124 27       		.uleb128 0x27
 3883 0125 19       		.uleb128 0x19
 3884 0126 11       		.uleb128 0x11
 3885 0127 01       		.uleb128 0x1
 3886 0128 12       		.uleb128 0x12
 3887 0129 06       		.uleb128 0x6
 3888 012a 40       		.uleb128 0x40
 3889 012b 18       		.uleb128 0x18
 3890 012c 9642     		.uleb128 0x2116
 3891 012e 19       		.uleb128 0x19
 3892 012f 01       		.uleb128 0x1
 3893 0130 13       		.uleb128 0x13
 3894 0131 00       		.byte	0
 3895 0132 00       		.byte	0
 3896 0133 16       		.uleb128 0x16
 3897 0134 05       		.uleb128 0x5
 3898 0135 00       		.byte	0
 3899 0136 03       		.uleb128 0x3
 3900 0137 0E       		.uleb128 0xe
 3901 0138 3A       		.uleb128 0x3a
 3902 0139 0B       		.uleb128 0xb
 3903 013a 3B       		.uleb128 0x3b
 3904 013b 05       		.uleb128 0x5
 3905 013c 49       		.uleb128 0x49
 3906 013d 13       		.uleb128 0x13
 3907 013e 02       		.uleb128 0x2
 3908 013f 18       		.uleb128 0x18
 3909 0140 00       		.byte	0
 3910 0141 00       		.byte	0
 3911 0142 17       		.uleb128 0x17
 3912 0143 34       		.uleb128 0x34
 3913 0144 00       		.byte	0
 3914 0145 03       		.uleb128 0x3
 3915 0146 0E       		.uleb128 0xe
 3916 0147 3A       		.uleb128 0x3a
 3917 0148 0B       		.uleb128 0xb
 3918 0149 3B       		.uleb128 0x3b
 3919 014a 05       		.uleb128 0x5
 3920 014b 49       		.uleb128 0x49
 3921 014c 13       		.uleb128 0x13
 3922 014d 02       		.uleb128 0x2
 3923 014e 18       		.uleb128 0x18
 3924 014f 00       		.byte	0
 3925 0150 00       		.byte	0
 3926 0151 18       		.uleb128 0x18
 3927 0152 2E       		.uleb128 0x2e
 3928 0153 01       		.byte	0x1
 3929 0154 3F       		.uleb128 0x3f
 3930 0155 19       		.uleb128 0x19
 3931 0156 03       		.uleb128 0x3
ARM GAS  C:\Users\JohnP\AppData\Local\Temp\ccNdEQvR.s 			page 92


 3932 0157 0E       		.uleb128 0xe
 3933 0158 3A       		.uleb128 0x3a
 3934 0159 0B       		.uleb128 0xb
 3935 015a 3B       		.uleb128 0x3b
 3936 015b 05       		.uleb128 0x5
 3937 015c 27       		.uleb128 0x27
 3938 015d 19       		.uleb128 0x19
 3939 015e 49       		.uleb128 0x49
 3940 015f 13       		.uleb128 0x13
 3941 0160 11       		.uleb128 0x11
 3942 0161 01       		.uleb128 0x1
 3943 0162 12       		.uleb128 0x12
 3944 0163 06       		.uleb128 0x6
 3945 0164 40       		.uleb128 0x40
 3946 0165 18       		.uleb128 0x18
 3947 0166 9742     		.uleb128 0x2117
 3948 0168 19       		.uleb128 0x19
 3949 0169 01       		.uleb128 0x1
 3950 016a 13       		.uleb128 0x13
 3951 016b 00       		.byte	0
 3952 016c 00       		.byte	0
 3953 016d 19       		.uleb128 0x19
 3954 016e 2E       		.uleb128 0x2e
 3955 016f 00       		.byte	0
 3956 0170 3F       		.uleb128 0x3f
 3957 0171 19       		.uleb128 0x19
 3958 0172 03       		.uleb128 0x3
 3959 0173 0E       		.uleb128 0xe
 3960 0174 3A       		.uleb128 0x3a
 3961 0175 0B       		.uleb128 0xb
 3962 0176 3B       		.uleb128 0x3b
 3963 0177 05       		.uleb128 0x5
 3964 0178 27       		.uleb128 0x27
 3965 0179 19       		.uleb128 0x19
 3966 017a 49       		.uleb128 0x49
 3967 017b 13       		.uleb128 0x13
 3968 017c 11       		.uleb128 0x11
 3969 017d 01       		.uleb128 0x1
 3970 017e 12       		.uleb128 0x12
 3971 017f 06       		.uleb128 0x6
 3972 0180 40       		.uleb128 0x40
 3973 0181 18       		.uleb128 0x18
 3974 0182 9742     		.uleb128 0x2117
 3975 0184 19       		.uleb128 0x19
 3976 0185 00       		.byte	0
 3977 0186 00       		.byte	0
 3978 0187 1A       		.uleb128 0x1a
 3979 0188 2E       		.uleb128 0x2e
 3980 0189 01       		.byte	0x1
 3981 018a 3F       		.uleb128 0x3f
 3982 018b 19       		.uleb128 0x19
 3983 018c 03       		.uleb128 0x3
 3984 018d 0E       		.uleb128 0xe
 3985 018e 3A       		.uleb128 0x3a
 3986 018f 0B       		.uleb128 0xb
 3987 0190 3B       		.uleb128 0x3b
 3988 0191 05       		.uleb128 0x5
ARM GAS  C:\Users\JohnP\AppData\Local\Temp\ccNdEQvR.s 			page 93


 3989 0192 27       		.uleb128 0x27
 3990 0193 19       		.uleb128 0x19
 3991 0194 49       		.uleb128 0x49
 3992 0195 13       		.uleb128 0x13
 3993 0196 11       		.uleb128 0x11
 3994 0197 01       		.uleb128 0x1
 3995 0198 12       		.uleb128 0x12
 3996 0199 06       		.uleb128 0x6
 3997 019a 40       		.uleb128 0x40
 3998 019b 18       		.uleb128 0x18
 3999 019c 9642     		.uleb128 0x2116
 4000 019e 19       		.uleb128 0x19
 4001 019f 01       		.uleb128 0x1
 4002 01a0 13       		.uleb128 0x13
 4003 01a1 00       		.byte	0
 4004 01a2 00       		.byte	0
 4005 01a3 1B       		.uleb128 0x1b
 4006 01a4 05       		.uleb128 0x5
 4007 01a5 00       		.byte	0
 4008 01a6 03       		.uleb128 0x3
 4009 01a7 08       		.uleb128 0x8
 4010 01a8 3A       		.uleb128 0x3a
 4011 01a9 0B       		.uleb128 0xb
 4012 01aa 3B       		.uleb128 0x3b
 4013 01ab 05       		.uleb128 0x5
 4014 01ac 49       		.uleb128 0x49
 4015 01ad 13       		.uleb128 0x13
 4016 01ae 02       		.uleb128 0x2
 4017 01af 18       		.uleb128 0x18
 4018 01b0 00       		.byte	0
 4019 01b1 00       		.byte	0
 4020 01b2 1C       		.uleb128 0x1c
 4021 01b3 34       		.uleb128 0x34
 4022 01b4 00       		.byte	0
 4023 01b5 03       		.uleb128 0x3
 4024 01b6 0E       		.uleb128 0xe
 4025 01b7 3A       		.uleb128 0x3a
 4026 01b8 0B       		.uleb128 0xb
 4027 01b9 3B       		.uleb128 0x3b
 4028 01ba 05       		.uleb128 0x5
 4029 01bb 49       		.uleb128 0x49
 4030 01bc 13       		.uleb128 0x13
 4031 01bd 3F       		.uleb128 0x3f
 4032 01be 19       		.uleb128 0x19
 4033 01bf 3C       		.uleb128 0x3c
 4034 01c0 19       		.uleb128 0x19
 4035 01c1 00       		.byte	0
 4036 01c2 00       		.byte	0
 4037 01c3 1D       		.uleb128 0x1d
 4038 01c4 34       		.uleb128 0x34
 4039 01c5 00       		.byte	0
 4040 01c6 03       		.uleb128 0x3
 4041 01c7 0E       		.uleb128 0xe
 4042 01c8 3A       		.uleb128 0x3a
 4043 01c9 0B       		.uleb128 0xb
 4044 01ca 3B       		.uleb128 0x3b
 4045 01cb 0B       		.uleb128 0xb
ARM GAS  C:\Users\JohnP\AppData\Local\Temp\ccNdEQvR.s 			page 94


 4046 01cc 49       		.uleb128 0x49
 4047 01cd 13       		.uleb128 0x13
 4048 01ce 3F       		.uleb128 0x3f
 4049 01cf 19       		.uleb128 0x19
 4050 01d0 3C       		.uleb128 0x3c
 4051 01d1 19       		.uleb128 0x19
 4052 01d2 00       		.byte	0
 4053 01d3 00       		.byte	0
 4054 01d4 00       		.byte	0
 4055              		.section	.debug_aranges,"",%progbits
 4056 0000 74000000 		.4byte	0x74
 4057 0004 0200     		.2byte	0x2
 4058 0006 00000000 		.4byte	.Ldebug_info0
 4059 000a 04       		.byte	0x4
 4060 000b 00       		.byte	0
 4061 000c 0000     		.2byte	0
 4062 000e 0000     		.2byte	0
 4063 0010 00000000 		.4byte	.LFB0
 4064 0014 44000000 		.4byte	.LFE0-.LFB0
 4065 0018 00000000 		.4byte	.LFB1
 4066 001c B4040000 		.4byte	.LFE1-.LFB1
 4067 0020 00000000 		.4byte	.LFB2
 4068 0024 80010000 		.4byte	.LFE2-.LFB2
 4069 0028 00000000 		.4byte	.LFB3
 4070 002c 04030000 		.4byte	.LFE3-.LFB3
 4071 0030 00000000 		.4byte	.LFB4
 4072 0034 74020000 		.4byte	.LFE4-.LFB4
 4073 0038 00000000 		.4byte	.LFB5
 4074 003c 54000000 		.4byte	.LFE5-.LFB5
 4075 0040 00000000 		.4byte	.LFB6
 4076 0044 24000000 		.4byte	.LFE6-.LFB6
 4077 0048 00000000 		.4byte	.LFB7
 4078 004c 4C000000 		.4byte	.LFE7-.LFB7
 4079 0050 00000000 		.4byte	.LFB8
 4080 0054 B8000000 		.4byte	.LFE8-.LFB8
 4081 0058 00000000 		.4byte	.LFB9
 4082 005c E0000000 		.4byte	.LFE9-.LFB9
 4083 0060 00000000 		.4byte	.LFB10
 4084 0064 44010000 		.4byte	.LFE10-.LFB10
 4085 0068 00000000 		.4byte	.LFB11
 4086 006c 78000000 		.4byte	.LFE11-.LFB11
 4087 0070 00000000 		.4byte	0
 4088 0074 00000000 		.4byte	0
 4089              		.section	.debug_ranges,"",%progbits
 4090              	.Ldebug_ranges0:
 4091 0000 00000000 		.4byte	.LFB0
 4092 0004 44000000 		.4byte	.LFE0
 4093 0008 00000000 		.4byte	.LFB1
 4094 000c B4040000 		.4byte	.LFE1
 4095 0010 00000000 		.4byte	.LFB2
 4096 0014 80010000 		.4byte	.LFE2
 4097 0018 00000000 		.4byte	.LFB3
 4098 001c 04030000 		.4byte	.LFE3
 4099 0020 00000000 		.4byte	.LFB4
 4100 0024 74020000 		.4byte	.LFE4
 4101 0028 00000000 		.4byte	.LFB5
 4102 002c 54000000 		.4byte	.LFE5
ARM GAS  C:\Users\JohnP\AppData\Local\Temp\ccNdEQvR.s 			page 95


 4103 0030 00000000 		.4byte	.LFB6
 4104 0034 24000000 		.4byte	.LFE6
 4105 0038 00000000 		.4byte	.LFB7
 4106 003c 4C000000 		.4byte	.LFE7
 4107 0040 00000000 		.4byte	.LFB8
 4108 0044 B8000000 		.4byte	.LFE8
 4109 0048 00000000 		.4byte	.LFB9
 4110 004c E0000000 		.4byte	.LFE9
 4111 0050 00000000 		.4byte	.LFB10
 4112 0054 44010000 		.4byte	.LFE10
 4113 0058 00000000 		.4byte	.LFB11
 4114 005c 78000000 		.4byte	.LFE11
 4115 0060 00000000 		.4byte	0
 4116 0064 00000000 		.4byte	0
 4117              		.section	.debug_line,"",%progbits
 4118              	.Ldebug_line0:
 4119 0000 B1030000 		.section	.debug_str,"MS",%progbits,1
 4119      02006800 
 4119      00000201 
 4119      FB0E0D00 
 4119      01010101 
 4120              	.LASF35:
 4121 0000 70537461 		.ascii	"pStatusBlock\000"
 4121      74757342 
 4121      6C6F636B 
 4121      00
 4122              	.LASF33:
 4123 000d 636F756E 		.ascii	"count\000"
 4123      7400
 4124              	.LASF10:
 4125 0013 75696E74 		.ascii	"uint16\000"
 4125      313600
 4126              	.LASF29:
 4127 001a 545F5553 		.ascii	"T_USBFS_1_EP_SETTINGS_BLOCK\000"
 4127      4246535F 
 4127      315F4550 
 4127      5F534554 
 4127      54494E47 
 4128              	.LASF69:
 4129 0036 55534246 		.ascii	"USBFS_1_snStringConfirm\000"
 4129      535F315F 
 4129      736E5374 
 4129      72696E67 
 4129      436F6E66 
 4130              	.LASF81:
 4131 004e 55534246 		.ascii	"USBFS_1_interfaceSetting_last\000"
 4131      535F315F 
 4131      696E7465 
 4131      72666163 
 4131      65536574 
 4132              	.LASF83:
 4133 006c 55534246 		.ascii	"USBFS_1_interfaceStatus\000"
 4133      535F315F 
 4133      696E7465 
 4133      72666163 
 4133      65537461 
 4134              	.LASF74:
ARM GAS  C:\Users\JohnP\AppData\Local\Temp\ccNdEQvR.s 			page 96


 4135 0084 55534246 		.ascii	"USBFS_1_DEVICE0_DESCR\000"
 4135      535F315F 
 4135      44455649 
 4135      4345305F 
 4135      44455343 
 4136              	.LASF48:
 4137 009a 55534246 		.ascii	"USBFS_1_ConfigReg\000"
 4137      535F315F 
 4137      436F6E66 
 4137      69675265 
 4137      6700
 4138              	.LASF59:
 4139 00ac 636F6E66 		.ascii	"confIndex\000"
 4139      496E6465 
 4139      7800
 4140              	.LASF7:
 4141 00b6 6C6F6E67 		.ascii	"long long unsigned int\000"
 4141      206C6F6E 
 4141      6720756E 
 4141      7369676E 
 4141      65642069 
 4142              	.LASF20:
 4143 00cd 61646472 		.ascii	"addr\000"
 4143      00
 4144              	.LASF40:
 4145 00d2 696E7465 		.ascii	"interfaceNumber\000"
 4145      72666163 
 4145      654E756D 
 4145      62657200 
 4146              	.LASF85:
 4147 00e2 55534246 		.ascii	"USBFS_1_EP\000"
 4147      535F315F 
 4147      455000
 4148              	.LASF75:
 4149 00ed 55534246 		.ascii	"USBFS_1_TABLE\000"
 4149      535F315F 
 4149      5441424C 
 4149      4500
 4150              	.LASF6:
 4151 00fb 6C6F6E67 		.ascii	"long long int\000"
 4151      206C6F6E 
 4151      6720696E 
 4151      7400
 4152              	.LASF0:
 4153 0109 7369676E 		.ascii	"signed char\000"
 4153      65642063 
 4153      68617200 
 4154              	.LASF51:
 4155 0115 636C6561 		.ascii	"clearAltSetting\000"
 4155      72416C74 
 4155      53657474 
 4155      696E6700 
 4156              	.LASF45:
 4157 0125 55534246 		.ascii	"USBFS_1_tBuffer\000"
 4157      535F315F 
 4157      74427566 
 4157      66657200 
ARM GAS  C:\Users\JohnP\AppData\Local\Temp\ccNdEQvR.s 			page 97


 4158              	.LASF56:
 4159 0135 55534246 		.ascii	"USBFS_1_ConfigAltChanged\000"
 4159      535F315F 
 4159      436F6E66 
 4159      6967416C 
 4159      74436861 
 4160              	.LASF4:
 4161 014e 6C6F6E67 		.ascii	"long int\000"
 4161      20696E74 
 4161      00
 4162              	.LASF9:
 4163 0157 75696E74 		.ascii	"uint8\000"
 4163      3800
 4164              	.LASF19:
 4165 015d 6570546F 		.ascii	"epToggle\000"
 4165      67676C65 
 4165      00
 4166              	.LASF84:
 4167 0166 55534246 		.ascii	"USBFS_1_interfaceClass\000"
 4167      535F315F 
 4167      696E7465 
 4167      72666163 
 4167      65436C61 
 4168              	.LASF12:
 4169 017d 646F7562 		.ascii	"double\000"
 4169      6C6500
 4170              	.LASF73:
 4171 0184 55534246 		.ascii	"USBFS_1_deviceStatus\000"
 4171      535F315F 
 4171      64657669 
 4171      63655374 
 4171      61747573 
 4172              	.LASF47:
 4173 0199 55534246 		.ascii	"USBFS_1_SerialNumString\000"
 4173      535F315F 
 4173      53657269 
 4173      616C4E75 
 4173      6D537472 
 4174              	.LASF57:
 4175 01b1 55534246 		.ascii	"USBFS_1_HandleStandardRqst\000"
 4175      535F315F 
 4175      48616E64 
 4175      6C655374 
 4175      616E6461 
 4176              	.LASF34:
 4177 01cc 70446174 		.ascii	"pData\000"
 4177      6100
 4178              	.LASF21:
 4179 01d2 65704D6F 		.ascii	"epMode\000"
 4179      646500
 4180              	.LASF53:
 4181 01d9 65705479 		.ascii	"epType\000"
 4181      706500
 4182              	.LASF79:
 4183 01e0 55534246 		.ascii	"USBFS_1_interfaceNumber\000"
 4183      535F315F 
 4183      696E7465 
ARM GAS  C:\Users\JohnP\AppData\Local\Temp\ccNdEQvR.s 			page 98


 4183      72666163 
 4183      654E756D 
 4184              	.LASF8:
 4185 01f8 756E7369 		.ascii	"unsigned int\000"
 4185      676E6564 
 4185      20696E74 
 4185      00
 4186              	.LASF71:
 4187 0205 55534246 		.ascii	"USBFS_1_configuration\000"
 4187      535F315F 
 4187      636F6E66 
 4187      69677572 
 4187      6174696F 
 4188              	.LASF88:
 4189 021b 2E5C4765 		.ascii	".\\Generated_Source\\PSoC5\\USBFS_1_std.c\000"
 4189      6E657261 
 4189      7465645F 
 4189      536F7572 
 4189      63655C50 
 4190              	.LASF5:
 4191 0242 6C6F6E67 		.ascii	"long unsigned int\000"
 4191      20756E73 
 4191      69676E65 
 4191      6420696E 
 4191      7400
 4192              	.LASF32:
 4193 0254 545F5553 		.ascii	"T_USBFS_1_XFER_STATUS_BLOCK\000"
 4193      4246535F 
 4193      315F5846 
 4193      45525F53 
 4193      54415455 
 4194              	.LASF77:
 4195 0270 55534246 		.ascii	"USBFS_1_STRING_DESCRIPTORS\000"
 4195      535F315F 
 4195      53545249 
 4195      4E475F44 
 4195      45534352 
 4196              	.LASF64:
 4197 028b 55534246 		.ascii	"USBFS_1_SetEndpointHalt\000"
 4197      535F315F 
 4197      53657445 
 4197      6E64706F 
 4197      696E7448 
 4198              	.LASF3:
 4199 02a3 73686F72 		.ascii	"short unsigned int\000"
 4199      7420756E 
 4199      7369676E 
 4199      65642069 
 4199      6E7400
 4200              	.LASF54:
 4201 02b6 70446573 		.ascii	"pDescr\000"
 4201      637200
 4202              	.LASF25:
 4203 02bd 545F5553 		.ascii	"T_USBFS_1_EP_CTL_BLOCK\000"
 4203      4246535F 
 4203      315F4550 
 4203      5F43544C 
ARM GAS  C:\Users\JohnP\AppData\Local\Temp\ccNdEQvR.s 			page 99


 4203      5F424C4F 
 4204              	.LASF36:
 4205 02d4 545F5553 		.ascii	"T_USBFS_1_TD\000"
 4205      4246535F 
 4205      315F5444 
 4205      00
 4206              	.LASF61:
 4207 02e1 70496E74 		.ascii	"pInterfaceClass\000"
 4207      65726661 
 4207      6365436C 
 4207      61737300 
 4208              	.LASF60:
 4209 02f1 55534246 		.ascii	"USBFS_1_GetInterfaceClassTablePtr\000"
 4209      535F315F 
 4209      47657449 
 4209      6E746572 
 4209      66616365 
 4210              	.LASF24:
 4211 0313 696E7465 		.ascii	"interface\000"
 4211      72666163 
 4211      6500
 4212              	.LASF18:
 4213 031d 68774570 		.ascii	"hwEpState\000"
 4213      53746174 
 4213      6500
 4214              	.LASF44:
 4215 0327 64657363 		.ascii	"descrLength\000"
 4215      724C656E 
 4215      67746800 
 4216              	.LASF15:
 4217 0333 73697A65 		.ascii	"sizetype\000"
 4217      74797065 
 4217      00
 4218              	.LASF46:
 4219 033c 70546D70 		.ascii	"pTmp\000"
 4219      00
 4220              	.LASF37:
 4221 0341 705F6C69 		.ascii	"p_list\000"
 4221      737400
 4222              	.LASF55:
 4223 0348 62756666 		.ascii	"buffCount\000"
 4223      436F756E 
 4223      7400
 4224              	.LASF16:
 4225 0352 61747472 		.ascii	"attrib\000"
 4225      696200
 4226              	.LASF87:
 4227 0359 474E5520 		.ascii	"GNU C 4.8.4 20140526 (release) [ARM/embedded-4_8-br"
 4227      4320342E 
 4227      382E3420 
 4227      32303134 
 4227      30353236 
 4228 038c 616E6368 		.ascii	"anch revision 211358] -mcpu=cortex-m3 -mthumb -g -O"
 4228      20726576 
 4228      6973696F 
 4228      6E203231 
 4228      31333538 
ARM GAS  C:\Users\JohnP\AppData\Local\Temp\ccNdEQvR.s 			page 100


 4229 03bf 30202D66 		.ascii	"0 -ffunction-sections\000"
 4229      66756E63 
 4229      74696F6E 
 4229      2D736563 
 4229      74696F6E 
 4230              	.LASF58:
 4231 03d5 55534246 		.ascii	"USBFS_1_GetConfigTablePtr\000"
 4231      535F315F 
 4231      47657443 
 4231      6F6E6669 
 4231      67546162 
 4232              	.LASF62:
 4233 03ef 63757272 		.ascii	"currentInterfacesNum\000"
 4233      656E7449 
 4233      6E746572 
 4233      66616365 
 4233      734E756D 
 4234              	.LASF70:
 4235 0404 55534246 		.ascii	"USBFS_1_device\000"
 4235      535F315F 
 4235      64657669 
 4235      636500
 4236              	.LASF67:
 4237 0413 696E7465 		.ascii	"interfaceNum\000"
 4237      72666163 
 4237      654E756D 
 4237      00
 4238              	.LASF11:
 4239 0420 666C6F61 		.ascii	"float\000"
 4239      7400
 4240              	.LASF17:
 4241 0426 61706945 		.ascii	"apiEpState\000"
 4241      70537461 
 4241      746500
 4242              	.LASF90:
 4243 0431 55534246 		.ascii	"USBFS_1_GetDeviceTablePtr\000"
 4243      535F315F 
 4243      47657444 
 4243      65766963 
 4243      65546162 
 4244              	.LASF41:
 4245 044b 636F6E66 		.ascii	"configurationN\000"
 4245      69677572 
 4245      6174696F 
 4245      6E4E00
 4246              	.LASF80:
 4247 045a 55534246 		.ascii	"USBFS_1_interfaceSetting\000"
 4247      535F315F 
 4247      696E7465 
 4247      72666163 
 4247      65536574 
 4248              	.LASF89:
 4249 0473 433A5C55 		.ascii	"C:\\Users\\JohnP\\OneDrive\\College\\2015-2016 Seni"
 4249      73657273 
 4249      5C4A6F68 
 4249      6E505C4F 
 4249      6E654472 
ARM GAS  C:\Users\JohnP\AppData\Local\Temp\ccNdEQvR.s 			page 101


 4250 04a1 6F722059 		.ascii	"or Year\\0 Fall Quarter\\CE4920 011\\Lab\\project\\"
 4250      6561725C 
 4250      30204661 
 4250      6C6C2051 
 4250      75617274 
 4251 04cf 43453439 		.ascii	"CE4920Project1\\USBFS_HID01.cydsn\000"
 4251      32305072 
 4251      6F6A6563 
 4251      74315C55 
 4251      53424653 
 4252              	.LASF42:
 4253 04f0 70537472 		.ascii	"pStr\000"
 4253      00
 4254              	.LASF14:
 4255 04f5 72656738 		.ascii	"reg8\000"
 4255      00
 4256              	.LASF1:
 4257 04fa 756E7369 		.ascii	"unsigned char\000"
 4257      676E6564 
 4257      20636861 
 4257      7200
 4258              	.LASF2:
 4259 0508 73686F72 		.ascii	"short int\000"
 4259      7420696E 
 4259      7400
 4260              	.LASF65:
 4261 0512 55534246 		.ascii	"USBFS_1_ClearEndpointHalt\000"
 4261      535F315F 
 4261      436C6561 
 4261      72456E64 
 4261      706F696E 
 4262              	.LASF86:
 4263 052c 55534246 		.ascii	"USBFS_1_currentTD\000"
 4263      535F315F 
 4263      63757272 
 4263      656E7454 
 4263      4400
 4264              	.LASF78:
 4265 053e 55534246 		.ascii	"USBFS_1_MSOS_DESCRIPTOR\000"
 4265      535F315F 
 4265      4D534F53 
 4265      5F444553 
 4265      43524950 
 4266              	.LASF76:
 4267 0556 55534246 		.ascii	"USBFS_1_SN_STRING_DESCRIPTOR\000"
 4267      535F315F 
 4267      534E5F53 
 4267      5452494E 
 4267      475F4445 
 4268              	.LASF63:
 4269 0573 55534246 		.ascii	"USBFS_1_TerminateEP\000"
 4269      535F315F 
 4269      5465726D 
 4269      696E6174 
 4269      65455000 
 4270              	.LASF27:
 4271 0587 61747472 		.ascii	"attributes\000"
ARM GAS  C:\Users\JohnP\AppData\Local\Temp\ccNdEQvR.s 			page 102


 4271      69627574 
 4271      657300
 4272              	.LASF66:
 4273 0592 55534246 		.ascii	"USBFS_1_ValidateAlternateSetting\000"
 4273      535F315F 
 4273      56616C69 
 4273      64617465 
 4273      416C7465 
 4274              	.LASF72:
 4275 05b3 55534246 		.ascii	"USBFS_1_configurationChanged\000"
 4275      535F315F 
 4275      636F6E66 
 4275      69677572 
 4275      6174696F 
 4276              	.LASF26:
 4277 05d0 616C7453 		.ascii	"altSetting\000"
 4277      65747469 
 4277      6E6700
 4278              	.LASF13:
 4279 05db 63686172 		.ascii	"char\000"
 4279      00
 4280              	.LASF38:
 4281 05e0 545F5553 		.ascii	"T_USBFS_1_LUT\000"
 4281      4246535F 
 4281      315F4C55 
 4281      5400
 4282              	.LASF23:
 4283 05ee 62756666 		.ascii	"bufferSize\000"
 4283      65725369 
 4283      7A6500
 4284              	.LASF39:
 4285 05f9 72657175 		.ascii	"requestHandled\000"
 4285      65737448 
 4285      616E646C 
 4285      656400
 4286              	.LASF68:
 4287 0608 55534246 		.ascii	"USBFS_1_fwSerialNumberStringDescriptor\000"
 4287      535F315F 
 4287      66775365 
 4287      7269616C 
 4287      4E756D62 
 4288              	.LASF22:
 4289 062f 62756666 		.ascii	"buffOffset\000"
 4289      4F666673 
 4289      657400
 4290              	.LASF82:
 4291 063a 55534246 		.ascii	"USBFS_1_deviceAddress\000"
 4291      535F315F 
 4291      64657669 
 4291      63654164 
 4291      64726573 
 4292              	.LASF31:
 4293 0650 6C656E67 		.ascii	"length\000"
 4293      746800
 4294              	.LASF43:
 4295 0657 6E537472 		.ascii	"nStr\000"
 4295      00
ARM GAS  C:\Users\JohnP\AppData\Local\Temp\ccNdEQvR.s 			page 103


 4296              	.LASF52:
 4297 065c 6375725F 		.ascii	"cur_ep\000"
 4297      657000
 4298              	.LASF30:
 4299 0663 73746174 		.ascii	"status\000"
 4299      757300
 4300              	.LASF28:
 4301 066a 624D6973 		.ascii	"bMisc\000"
 4301      6300
 4302              	.LASF49:
 4303 0670 55534246 		.ascii	"USBFS_1_Config\000"
 4303      535F315F 
 4303      436F6E66 
 4303      696700
 4304              	.LASF50:
 4305 067f 736E5374 		.ascii	"snString\000"
 4305      72696E67 
 4305      00
 4306              		.ident	"GCC: (GNU Tools for ARM Embedded Processors) 4.8.4 20140526 (release) [ARM/embedded-4_8-br
