ARM GAS  C:\Users\JohnP\AppData\Local\Temp\ccpbDBmo.s 			page 1


   1              		.syntax unified
   2              		.cpu cortex-m3
   3              		.fpu softvfp
   4              		.eabi_attribute 20, 1
   5              		.eabi_attribute 21, 1
   6              		.eabi_attribute 23, 3
   7              		.eabi_attribute 24, 1
   8              		.eabi_attribute 25, 1
   9              		.eabi_attribute 26, 1
  10              		.eabi_attribute 30, 6
  11              		.eabi_attribute 34, 1
  12              		.eabi_attribute 18, 4
  13              		.thumb
  14              		.file	"USBFS_1_episr.c"
  15              		.text
  16              	.Ltext0:
  17              		.cfi_sections	.debug_frame
  18              		.section	.text.USBFS_1_EP_1_ISR,"ax",%progbits
  19              		.align	2
  20              		.global	USBFS_1_EP_1_ISR
  21              		.thumb
  22              		.thumb_func
  23              		.type	USBFS_1_EP_1_ISR, %function
  24              	USBFS_1_EP_1_ISR:
  25              	.LFB0:
  26              		.file 1 ".\\Generated_Source\\PSoC5\\USBFS_1_episr.c"
   1:.\Generated_Source\PSoC5/USBFS_1_episr.c **** /*******************************************************************************
   2:.\Generated_Source\PSoC5/USBFS_1_episr.c **** * File Name: USBFS_1_episr.c
   3:.\Generated_Source\PSoC5/USBFS_1_episr.c **** * Version 2.80
   4:.\Generated_Source\PSoC5/USBFS_1_episr.c **** *
   5:.\Generated_Source\PSoC5/USBFS_1_episr.c **** * Description:
   6:.\Generated_Source\PSoC5/USBFS_1_episr.c **** *  Data endpoint Interrupt Service Routines
   7:.\Generated_Source\PSoC5/USBFS_1_episr.c **** *
   8:.\Generated_Source\PSoC5/USBFS_1_episr.c **** * Note:
   9:.\Generated_Source\PSoC5/USBFS_1_episr.c **** *
  10:.\Generated_Source\PSoC5/USBFS_1_episr.c **** ********************************************************************************
  11:.\Generated_Source\PSoC5/USBFS_1_episr.c **** * Copyright 2008-2014, Cypress Semiconductor Corporation.  All rights reserved.
  12:.\Generated_Source\PSoC5/USBFS_1_episr.c **** * You may use this file only in accordance with the license, terms, conditions,
  13:.\Generated_Source\PSoC5/USBFS_1_episr.c **** * disclaimers, and limitations in the end user license agreement accompanying
  14:.\Generated_Source\PSoC5/USBFS_1_episr.c **** * the software package with which this file was provided.
  15:.\Generated_Source\PSoC5/USBFS_1_episr.c **** *******************************************************************************/
  16:.\Generated_Source\PSoC5/USBFS_1_episr.c **** 
  17:.\Generated_Source\PSoC5/USBFS_1_episr.c **** #include "USBFS_1.h"
  18:.\Generated_Source\PSoC5/USBFS_1_episr.c **** #include "USBFS_1_pvt.h"
  19:.\Generated_Source\PSoC5/USBFS_1_episr.c **** #if (defined(USBFS_1_ENABLE_MIDI_STREAMING) && (USBFS_1_ENABLE_MIDI_API != 0u))
  20:.\Generated_Source\PSoC5/USBFS_1_episr.c ****     #include "USBFS_1_midi.h"
  21:.\Generated_Source\PSoC5/USBFS_1_episr.c **** #endif /* (defined(USBFS_1_ENABLE_MIDI_STREAMING) && (USBFS_1_ENABLE_MIDI_API != 0u)) */
  22:.\Generated_Source\PSoC5/USBFS_1_episr.c **** #if ((USBFS_1_EP_MM == USBFS_1__EP_DMAAUTO) && (USBFS_1_EP_DMA_AUTO_OPT == 0u))
  23:.\Generated_Source\PSoC5/USBFS_1_episr.c ****     #include "USBFS_1_EP8_DMA_Done_SR.h"
  24:.\Generated_Source\PSoC5/USBFS_1_episr.c ****     #include "USBFS_1_EP17_DMA_Done_SR.h"
  25:.\Generated_Source\PSoC5/USBFS_1_episr.c **** #endif /* (USBFS_1_EP_MM == USBFS_1__EP_DMAAUTO) && (USBFS_1_EP_DMA_AUTO_OPT == 0u) */
  26:.\Generated_Source\PSoC5/USBFS_1_episr.c **** 
  27:.\Generated_Source\PSoC5/USBFS_1_episr.c **** 
  28:.\Generated_Source\PSoC5/USBFS_1_episr.c **** /***************************************
  29:.\Generated_Source\PSoC5/USBFS_1_episr.c **** * Custom Declarations
  30:.\Generated_Source\PSoC5/USBFS_1_episr.c **** ***************************************/
  31:.\Generated_Source\PSoC5/USBFS_1_episr.c **** /* `#START CUSTOM_DECLARATIONS` Place your declaration here */
ARM GAS  C:\Users\JohnP\AppData\Local\Temp\ccpbDBmo.s 			page 2


  32:.\Generated_Source\PSoC5/USBFS_1_episr.c **** 
  33:.\Generated_Source\PSoC5/USBFS_1_episr.c **** /* `#END` */
  34:.\Generated_Source\PSoC5/USBFS_1_episr.c **** 
  35:.\Generated_Source\PSoC5/USBFS_1_episr.c **** 
  36:.\Generated_Source\PSoC5/USBFS_1_episr.c **** #if(USBFS_1_EP1_ISR_REMOVE == 0u)
  37:.\Generated_Source\PSoC5/USBFS_1_episr.c **** 
  38:.\Generated_Source\PSoC5/USBFS_1_episr.c **** 
  39:.\Generated_Source\PSoC5/USBFS_1_episr.c ****     /******************************************************************************
  40:.\Generated_Source\PSoC5/USBFS_1_episr.c ****     * Function Name: USBFS_1_EP_1_ISR
  41:.\Generated_Source\PSoC5/USBFS_1_episr.c ****     *******************************************************************************
  42:.\Generated_Source\PSoC5/USBFS_1_episr.c ****     *
  43:.\Generated_Source\PSoC5/USBFS_1_episr.c ****     * Summary:
  44:.\Generated_Source\PSoC5/USBFS_1_episr.c ****     *  Endpoint 1 Interrupt Service Routine
  45:.\Generated_Source\PSoC5/USBFS_1_episr.c ****     *
  46:.\Generated_Source\PSoC5/USBFS_1_episr.c ****     * Parameters:
  47:.\Generated_Source\PSoC5/USBFS_1_episr.c ****     *  None.
  48:.\Generated_Source\PSoC5/USBFS_1_episr.c ****     *
  49:.\Generated_Source\PSoC5/USBFS_1_episr.c ****     * Return:
  50:.\Generated_Source\PSoC5/USBFS_1_episr.c ****     *  None.
  51:.\Generated_Source\PSoC5/USBFS_1_episr.c ****     *
  52:.\Generated_Source\PSoC5/USBFS_1_episr.c ****     ******************************************************************************/
  53:.\Generated_Source\PSoC5/USBFS_1_episr.c ****     CY_ISR(USBFS_1_EP_1_ISR)
  54:.\Generated_Source\PSoC5/USBFS_1_episr.c ****     {
  27              		.loc 1 54 0
  28              		.cfi_startproc
  29              		@ args = 0, pretend = 0, frame = 0
  30              		@ frame_needed = 1, uses_anonymous_args = 0
  31              		@ link register save eliminated.
  32 0000 80B4     		push	{r7}
  33              		.cfi_def_cfa_offset 4
  34              		.cfi_offset 7, -4
  35 0002 00AF     		add	r7, sp, #0
  36              		.cfi_def_cfa_register 7
  55:.\Generated_Source\PSoC5/USBFS_1_episr.c ****         #if (defined(USBFS_1_ENABLE_MIDI_STREAMING) && !defined(USBFS_1_MAIN_SERVICE_MIDI_OUT)  && 
  56:.\Generated_Source\PSoC5/USBFS_1_episr.c ****                      USBFS_1_ISR_SERVICE_MIDI_OUT && CY_PSOC3)
  57:.\Generated_Source\PSoC5/USBFS_1_episr.c ****             uint8 int_en;
  58:.\Generated_Source\PSoC5/USBFS_1_episr.c ****         #endif /* USBFS_1_ISR_SERVICE_MIDI_OUT && CY_PSOC3 */
  59:.\Generated_Source\PSoC5/USBFS_1_episr.c **** 
  60:.\Generated_Source\PSoC5/USBFS_1_episr.c ****         /* `#START EP1_USER_CODE` Place your code here */
  61:.\Generated_Source\PSoC5/USBFS_1_episr.c **** 
  62:.\Generated_Source\PSoC5/USBFS_1_episr.c ****         /* `#END` */
  63:.\Generated_Source\PSoC5/USBFS_1_episr.c **** 
  64:.\Generated_Source\PSoC5/USBFS_1_episr.c ****         #if (defined(USBFS_1_ENABLE_MIDI_STREAMING) && !defined(USBFS_1_MAIN_SERVICE_MIDI_OUT) && \
  65:.\Generated_Source\PSoC5/USBFS_1_episr.c ****                      USBFS_1_ISR_SERVICE_MIDI_OUT && CY_PSOC3)
  66:.\Generated_Source\PSoC5/USBFS_1_episr.c ****             int_en = EA;
  67:.\Generated_Source\PSoC5/USBFS_1_episr.c ****             CyGlobalIntEnable;  /* Make sure nested interrupt is enabled */
  68:.\Generated_Source\PSoC5/USBFS_1_episr.c ****         #endif /* USBFS_1_ISR_SERVICE_MIDI_OUT && CY_PSOC3 */
  69:.\Generated_Source\PSoC5/USBFS_1_episr.c **** 
  70:.\Generated_Source\PSoC5/USBFS_1_episr.c ****         CY_GET_REG8(USBFS_1_SIE_EP1_CR0_PTR); /* Must read the mode reg */
  37              		.loc 1 70 0
  38 0004 104B     		ldr	r3, .L3
  39 0006 1B78     		ldrb	r3, [r3]
  71:.\Generated_Source\PSoC5/USBFS_1_episr.c ****         /* Do not toggle ISOC endpoint */
  72:.\Generated_Source\PSoC5/USBFS_1_episr.c ****         if((USBFS_1_EP[USBFS_1_EP1].attrib & USBFS_1_EP_TYPE_MASK) !=
  40              		.loc 1 72 0
  41 0008 104B     		ldr	r3, .L3+4
  42 000a 1B7B     		ldrb	r3, [r3, #12]
ARM GAS  C:\Users\JohnP\AppData\Local\Temp\ccpbDBmo.s 			page 3


  43 000c DBB2     		uxtb	r3, r3
  44 000e 03F00303 		and	r3, r3, #3
  45 0012 012B     		cmp	r3, #1
  46 0014 08D0     		beq	.L2
  73:.\Generated_Source\PSoC5/USBFS_1_episr.c ****                                                                                     USBFS_1_EP_TYPE
  74:.\Generated_Source\PSoC5/USBFS_1_episr.c ****         {
  75:.\Generated_Source\PSoC5/USBFS_1_episr.c ****             USBFS_1_EP[USBFS_1_EP1].epToggle ^= USBFS_1_EPX_CNT_DATA_TOGGLE;
  47              		.loc 1 75 0
  48 0016 0D4B     		ldr	r3, .L3+4
  49 0018 DB7B     		ldrb	r3, [r3, #15]
  50 001a DBB2     		uxtb	r3, r3
  51 001c 83F07F03 		eor	r3, r3, #127
  52 0020 DB43     		mvns	r3, r3
  53 0022 DAB2     		uxtb	r2, r3
  54 0024 094B     		ldr	r3, .L3+4
  55 0026 DA73     		strb	r2, [r3, #15]
  56              	.L2:
  76:.\Generated_Source\PSoC5/USBFS_1_episr.c ****         }
  77:.\Generated_Source\PSoC5/USBFS_1_episr.c ****         USBFS_1_EP[USBFS_1_EP1].apiEpState = USBFS_1_EVENT_PENDING;
  57              		.loc 1 77 0
  58 0028 084B     		ldr	r3, .L3+4
  59 002a 0122     		movs	r2, #1
  60 002c 5A73     		strb	r2, [r3, #13]
  78:.\Generated_Source\PSoC5/USBFS_1_episr.c ****         CY_SET_REG8(USBFS_1_SIE_EP_INT_SR_PTR, CY_GET_REG8(USBFS_1_SIE_EP_INT_SR_PTR) &
  61              		.loc 1 78 0
  62 002e 084B     		ldr	r3, .L3+8
  63 0030 074A     		ldr	r2, .L3+8
  64 0032 1278     		ldrb	r2, [r2]
  65 0034 D2B2     		uxtb	r2, r2
  66 0036 22F00102 		bic	r2, r2, #1
  67 003a D2B2     		uxtb	r2, r2
  68 003c 1A70     		strb	r2, [r3]
  79:.\Generated_Source\PSoC5/USBFS_1_episr.c ****                                                                     (uint8)~USBFS_1_SIE_EP_INT_EP1_
  80:.\Generated_Source\PSoC5/USBFS_1_episr.c **** 
  81:.\Generated_Source\PSoC5/USBFS_1_episr.c ****         #if (defined(USBFS_1_ENABLE_MIDI_STREAMING) && !defined(USBFS_1_MAIN_SERVICE_MIDI_OUT) && \
  82:.\Generated_Source\PSoC5/USBFS_1_episr.c ****                      USBFS_1_ISR_SERVICE_MIDI_OUT)
  83:.\Generated_Source\PSoC5/USBFS_1_episr.c ****             if(USBFS_1_midi_out_ep == USBFS_1_EP1)
  84:.\Generated_Source\PSoC5/USBFS_1_episr.c ****             {
  85:.\Generated_Source\PSoC5/USBFS_1_episr.c ****                 USBFS_1_MIDI_OUT_EP_Service();
  86:.\Generated_Source\PSoC5/USBFS_1_episr.c ****             }
  87:.\Generated_Source\PSoC5/USBFS_1_episr.c ****         #endif /*  USBFS_1_ISR_SERVICE_MIDI_OUT */
  88:.\Generated_Source\PSoC5/USBFS_1_episr.c **** 
  89:.\Generated_Source\PSoC5/USBFS_1_episr.c ****         /* `#START EP1_END_USER_CODE` Place your code here */
  90:.\Generated_Source\PSoC5/USBFS_1_episr.c **** 
  91:.\Generated_Source\PSoC5/USBFS_1_episr.c ****         /* `#END` */
  92:.\Generated_Source\PSoC5/USBFS_1_episr.c **** 
  93:.\Generated_Source\PSoC5/USBFS_1_episr.c ****         #if (defined(USBFS_1_ENABLE_MIDI_STREAMING) && !defined(USBFS_1_MAIN_SERVICE_MIDI_OUT) && \
  94:.\Generated_Source\PSoC5/USBFS_1_episr.c ****                      USBFS_1_ISR_SERVICE_MIDI_OUT && CY_PSOC3)
  95:.\Generated_Source\PSoC5/USBFS_1_episr.c ****             EA = int_en;
  96:.\Generated_Source\PSoC5/USBFS_1_episr.c ****         #endif /* USBFS_1_ISR_SERVICE_MIDI_OUT && CY_PSOC3 */
  97:.\Generated_Source\PSoC5/USBFS_1_episr.c ****     }
  69              		.loc 1 97 0
  70 003e BD46     		mov	sp, r7
  71              		@ sp needed
  72 0040 5DF8047B 		ldr	r7, [sp], #4
  73 0044 7047     		bx	lr
  74              	.L4:
ARM GAS  C:\Users\JohnP\AppData\Local\Temp\ccpbDBmo.s 			page 4


  75 0046 00BF     		.align	2
  76              	.L3:
  77 0048 0E600040 		.word	1073766414
  78 004c 00000000 		.word	USBFS_1_EP
  79 0050 0B600040 		.word	1073766411
  80              		.cfi_endproc
  81              	.LFE0:
  82              		.size	USBFS_1_EP_1_ISR, .-USBFS_1_EP_1_ISR
  83              		.section	.text.USBFS_1_SOF_ISR,"ax",%progbits
  84              		.align	2
  85              		.global	USBFS_1_SOF_ISR
  86              		.thumb
  87              		.thumb_func
  88              		.type	USBFS_1_SOF_ISR, %function
  89              	USBFS_1_SOF_ISR:
  90              	.LFB1:
  98:.\Generated_Source\PSoC5/USBFS_1_episr.c **** 
  99:.\Generated_Source\PSoC5/USBFS_1_episr.c **** #endif   /*  USBFS_1_EP1_ISR_REMOVE */
 100:.\Generated_Source\PSoC5/USBFS_1_episr.c **** 
 101:.\Generated_Source\PSoC5/USBFS_1_episr.c **** 
 102:.\Generated_Source\PSoC5/USBFS_1_episr.c **** #if(USBFS_1_EP2_ISR_REMOVE == 0u)
 103:.\Generated_Source\PSoC5/USBFS_1_episr.c **** 
 104:.\Generated_Source\PSoC5/USBFS_1_episr.c ****     /*******************************************************************************
 105:.\Generated_Source\PSoC5/USBFS_1_episr.c ****     * Function Name: USBFS_1_EP_2_ISR
 106:.\Generated_Source\PSoC5/USBFS_1_episr.c ****     ********************************************************************************
 107:.\Generated_Source\PSoC5/USBFS_1_episr.c ****     *
 108:.\Generated_Source\PSoC5/USBFS_1_episr.c ****     * Summary:
 109:.\Generated_Source\PSoC5/USBFS_1_episr.c ****     *  Endpoint 2 Interrupt Service Routine
 110:.\Generated_Source\PSoC5/USBFS_1_episr.c ****     *
 111:.\Generated_Source\PSoC5/USBFS_1_episr.c ****     * Parameters:
 112:.\Generated_Source\PSoC5/USBFS_1_episr.c ****     *  None.
 113:.\Generated_Source\PSoC5/USBFS_1_episr.c ****     *
 114:.\Generated_Source\PSoC5/USBFS_1_episr.c ****     * Return:
 115:.\Generated_Source\PSoC5/USBFS_1_episr.c ****     *  None.
 116:.\Generated_Source\PSoC5/USBFS_1_episr.c ****     *
 117:.\Generated_Source\PSoC5/USBFS_1_episr.c ****     *******************************************************************************/
 118:.\Generated_Source\PSoC5/USBFS_1_episr.c ****     CY_ISR(USBFS_1_EP_2_ISR)
 119:.\Generated_Source\PSoC5/USBFS_1_episr.c ****     {
 120:.\Generated_Source\PSoC5/USBFS_1_episr.c ****         #if (defined(USBFS_1_ENABLE_MIDI_STREAMING) && !defined(USBFS_1_MAIN_SERVICE_MIDI_OUT) && \
 121:.\Generated_Source\PSoC5/USBFS_1_episr.c ****                      USBFS_1_ISR_SERVICE_MIDI_OUT && CY_PSOC3)
 122:.\Generated_Source\PSoC5/USBFS_1_episr.c ****             uint8 int_en;
 123:.\Generated_Source\PSoC5/USBFS_1_episr.c ****         #endif /* USBFS_1_ISR_SERVICE_MIDI_OUT && CY_PSOC3 */
 124:.\Generated_Source\PSoC5/USBFS_1_episr.c **** 
 125:.\Generated_Source\PSoC5/USBFS_1_episr.c ****         /* `#START EP2_USER_CODE` Place your code here */
 126:.\Generated_Source\PSoC5/USBFS_1_episr.c **** 
 127:.\Generated_Source\PSoC5/USBFS_1_episr.c ****         /* `#END` */
 128:.\Generated_Source\PSoC5/USBFS_1_episr.c **** 
 129:.\Generated_Source\PSoC5/USBFS_1_episr.c ****         #if (defined(USBFS_1_ENABLE_MIDI_STREAMING) && !defined(USBFS_1_MAIN_SERVICE_MIDI_OUT) && \
 130:.\Generated_Source\PSoC5/USBFS_1_episr.c ****                      USBFS_1_ISR_SERVICE_MIDI_OUT && CY_PSOC3)
 131:.\Generated_Source\PSoC5/USBFS_1_episr.c ****             int_en = EA;
 132:.\Generated_Source\PSoC5/USBFS_1_episr.c ****             CyGlobalIntEnable;  /* Make sure nested interrupt is enabled */
 133:.\Generated_Source\PSoC5/USBFS_1_episr.c ****         #endif /* USBFS_1_ISR_SERVICE_MIDI_OUT && CY_PSOC3 */
 134:.\Generated_Source\PSoC5/USBFS_1_episr.c **** 
 135:.\Generated_Source\PSoC5/USBFS_1_episr.c ****         CY_GET_REG8(USBFS_1_SIE_EP2_CR0_PTR); /* Must read the mode reg */
 136:.\Generated_Source\PSoC5/USBFS_1_episr.c ****         /* Do not toggle ISOC endpoint */
 137:.\Generated_Source\PSoC5/USBFS_1_episr.c ****         if((USBFS_1_EP[USBFS_1_EP2].attrib & USBFS_1_EP_TYPE_MASK) !=
 138:.\Generated_Source\PSoC5/USBFS_1_episr.c ****                                                                                     USBFS_1_EP_TYPE
ARM GAS  C:\Users\JohnP\AppData\Local\Temp\ccpbDBmo.s 			page 5


 139:.\Generated_Source\PSoC5/USBFS_1_episr.c ****         {
 140:.\Generated_Source\PSoC5/USBFS_1_episr.c ****             USBFS_1_EP[USBFS_1_EP2].epToggle ^= USBFS_1_EPX_CNT_DATA_TOGGLE;
 141:.\Generated_Source\PSoC5/USBFS_1_episr.c ****         }
 142:.\Generated_Source\PSoC5/USBFS_1_episr.c ****         USBFS_1_EP[USBFS_1_EP2].apiEpState = USBFS_1_EVENT_PENDING;
 143:.\Generated_Source\PSoC5/USBFS_1_episr.c ****         CY_SET_REG8(USBFS_1_SIE_EP_INT_SR_PTR, CY_GET_REG8(USBFS_1_SIE_EP_INT_SR_PTR)
 144:.\Generated_Source\PSoC5/USBFS_1_episr.c ****                                                                         & (uint8)~USBFS_1_SIE_EP_IN
 145:.\Generated_Source\PSoC5/USBFS_1_episr.c **** 
 146:.\Generated_Source\PSoC5/USBFS_1_episr.c ****         #if (defined(USBFS_1_ENABLE_MIDI_STREAMING) && !defined(USBFS_1_MAIN_SERVICE_MIDI_OUT) && \
 147:.\Generated_Source\PSoC5/USBFS_1_episr.c ****                      USBFS_1_ISR_SERVICE_MIDI_OUT)
 148:.\Generated_Source\PSoC5/USBFS_1_episr.c ****             if(USBFS_1_midi_out_ep == USBFS_1_EP2)
 149:.\Generated_Source\PSoC5/USBFS_1_episr.c ****             {
 150:.\Generated_Source\PSoC5/USBFS_1_episr.c ****                 USBFS_1_MIDI_OUT_EP_Service();
 151:.\Generated_Source\PSoC5/USBFS_1_episr.c ****             }
 152:.\Generated_Source\PSoC5/USBFS_1_episr.c ****         #endif /*  USBFS_1_ISR_SERVICE_MIDI_OUT */
 153:.\Generated_Source\PSoC5/USBFS_1_episr.c **** 
 154:.\Generated_Source\PSoC5/USBFS_1_episr.c ****         /* `#START EP2_END_USER_CODE` Place your code here */
 155:.\Generated_Source\PSoC5/USBFS_1_episr.c **** 
 156:.\Generated_Source\PSoC5/USBFS_1_episr.c ****         /* `#END` */
 157:.\Generated_Source\PSoC5/USBFS_1_episr.c **** 
 158:.\Generated_Source\PSoC5/USBFS_1_episr.c ****         #if (defined(USBFS_1_ENABLE_MIDI_STREAMING) && !defined(USBFS_1_MAIN_SERVICE_MIDI_OUT) && \
 159:.\Generated_Source\PSoC5/USBFS_1_episr.c ****                      USBFS_1_ISR_SERVICE_MIDI_OUT && CY_PSOC3)
 160:.\Generated_Source\PSoC5/USBFS_1_episr.c ****             EA = int_en;
 161:.\Generated_Source\PSoC5/USBFS_1_episr.c ****         #endif /* USBFS_1_ISR_SERVICE_MIDI_OUT && CY_PSOC3 */
 162:.\Generated_Source\PSoC5/USBFS_1_episr.c ****     }
 163:.\Generated_Source\PSoC5/USBFS_1_episr.c **** 
 164:.\Generated_Source\PSoC5/USBFS_1_episr.c **** #endif   /*  USBFS_1_EP2_ISR_REMOVE */
 165:.\Generated_Source\PSoC5/USBFS_1_episr.c **** 
 166:.\Generated_Source\PSoC5/USBFS_1_episr.c **** 
 167:.\Generated_Source\PSoC5/USBFS_1_episr.c **** #if(USBFS_1_EP3_ISR_REMOVE == 0u)
 168:.\Generated_Source\PSoC5/USBFS_1_episr.c **** 
 169:.\Generated_Source\PSoC5/USBFS_1_episr.c ****     /*******************************************************************************
 170:.\Generated_Source\PSoC5/USBFS_1_episr.c ****     * Function Name: USBFS_1_EP_3_ISR
 171:.\Generated_Source\PSoC5/USBFS_1_episr.c ****     ********************************************************************************
 172:.\Generated_Source\PSoC5/USBFS_1_episr.c ****     *
 173:.\Generated_Source\PSoC5/USBFS_1_episr.c ****     * Summary:
 174:.\Generated_Source\PSoC5/USBFS_1_episr.c ****     *  Endpoint 3 Interrupt Service Routine
 175:.\Generated_Source\PSoC5/USBFS_1_episr.c ****     *
 176:.\Generated_Source\PSoC5/USBFS_1_episr.c ****     * Parameters:
 177:.\Generated_Source\PSoC5/USBFS_1_episr.c ****     *  None.
 178:.\Generated_Source\PSoC5/USBFS_1_episr.c ****     *
 179:.\Generated_Source\PSoC5/USBFS_1_episr.c ****     * Return:
 180:.\Generated_Source\PSoC5/USBFS_1_episr.c ****     *  None.
 181:.\Generated_Source\PSoC5/USBFS_1_episr.c ****     *
 182:.\Generated_Source\PSoC5/USBFS_1_episr.c ****     *******************************************************************************/
 183:.\Generated_Source\PSoC5/USBFS_1_episr.c ****     CY_ISR(USBFS_1_EP_3_ISR)
 184:.\Generated_Source\PSoC5/USBFS_1_episr.c ****     {
 185:.\Generated_Source\PSoC5/USBFS_1_episr.c ****         #if (defined(USBFS_1_ENABLE_MIDI_STREAMING) && !defined(USBFS_1_MAIN_SERVICE_MIDI_OUT) && \
 186:.\Generated_Source\PSoC5/USBFS_1_episr.c ****                      USBFS_1_ISR_SERVICE_MIDI_OUT && CY_PSOC3)
 187:.\Generated_Source\PSoC5/USBFS_1_episr.c ****             uint8 int_en;
 188:.\Generated_Source\PSoC5/USBFS_1_episr.c ****         #endif /* USBFS_1_ISR_SERVICE_MIDI_OUT && CY_PSOC3 */
 189:.\Generated_Source\PSoC5/USBFS_1_episr.c **** 
 190:.\Generated_Source\PSoC5/USBFS_1_episr.c ****         /* `#START EP3_USER_CODE` Place your code here */
 191:.\Generated_Source\PSoC5/USBFS_1_episr.c **** 
 192:.\Generated_Source\PSoC5/USBFS_1_episr.c ****         /* `#END` */
 193:.\Generated_Source\PSoC5/USBFS_1_episr.c **** 
 194:.\Generated_Source\PSoC5/USBFS_1_episr.c ****         #if (defined(USBFS_1_ENABLE_MIDI_STREAMING) && !defined(USBFS_1_MAIN_SERVICE_MIDI_OUT) && \
 195:.\Generated_Source\PSoC5/USBFS_1_episr.c ****                      USBFS_1_ISR_SERVICE_MIDI_OUT && CY_PSOC3)
ARM GAS  C:\Users\JohnP\AppData\Local\Temp\ccpbDBmo.s 			page 6


 196:.\Generated_Source\PSoC5/USBFS_1_episr.c ****             int_en = EA;
 197:.\Generated_Source\PSoC5/USBFS_1_episr.c ****             CyGlobalIntEnable;  /* Make sure nested interrupt is enabled */
 198:.\Generated_Source\PSoC5/USBFS_1_episr.c ****         #endif /* CY_PSOC3 & USBFS_1_ISR_SERVICE_MIDI_OUT  */
 199:.\Generated_Source\PSoC5/USBFS_1_episr.c **** 
 200:.\Generated_Source\PSoC5/USBFS_1_episr.c ****         CY_GET_REG8(USBFS_1_SIE_EP3_CR0_PTR); /* Must read the mode reg */
 201:.\Generated_Source\PSoC5/USBFS_1_episr.c ****         /* Do not toggle ISOC endpoint */
 202:.\Generated_Source\PSoC5/USBFS_1_episr.c ****         if((USBFS_1_EP[USBFS_1_EP3].attrib & USBFS_1_EP_TYPE_MASK) !=
 203:.\Generated_Source\PSoC5/USBFS_1_episr.c ****                                                                                     USBFS_1_EP_TYPE
 204:.\Generated_Source\PSoC5/USBFS_1_episr.c ****         {
 205:.\Generated_Source\PSoC5/USBFS_1_episr.c ****             USBFS_1_EP[USBFS_1_EP3].epToggle ^= USBFS_1_EPX_CNT_DATA_TOGGLE;
 206:.\Generated_Source\PSoC5/USBFS_1_episr.c ****         }
 207:.\Generated_Source\PSoC5/USBFS_1_episr.c ****         USBFS_1_EP[USBFS_1_EP3].apiEpState = USBFS_1_EVENT_PENDING;
 208:.\Generated_Source\PSoC5/USBFS_1_episr.c ****         CY_SET_REG8(USBFS_1_SIE_EP_INT_SR_PTR, CY_GET_REG8(USBFS_1_SIE_EP_INT_SR_PTR)
 209:.\Generated_Source\PSoC5/USBFS_1_episr.c ****                                                                         & (uint8)~USBFS_1_SIE_EP_IN
 210:.\Generated_Source\PSoC5/USBFS_1_episr.c **** 
 211:.\Generated_Source\PSoC5/USBFS_1_episr.c ****         #if (defined(USBFS_1_ENABLE_MIDI_STREAMING) && !defined(USBFS_1_MAIN_SERVICE_MIDI_OUT) && \
 212:.\Generated_Source\PSoC5/USBFS_1_episr.c ****                      USBFS_1_ISR_SERVICE_MIDI_OUT)
 213:.\Generated_Source\PSoC5/USBFS_1_episr.c ****             if(USBFS_1_midi_out_ep == USBFS_1_EP3)
 214:.\Generated_Source\PSoC5/USBFS_1_episr.c ****             {
 215:.\Generated_Source\PSoC5/USBFS_1_episr.c ****                 USBFS_1_MIDI_OUT_EP_Service();
 216:.\Generated_Source\PSoC5/USBFS_1_episr.c ****             }
 217:.\Generated_Source\PSoC5/USBFS_1_episr.c ****         #endif /*  USBFS_1_ISR_SERVICE_MIDI_OUT */
 218:.\Generated_Source\PSoC5/USBFS_1_episr.c **** 
 219:.\Generated_Source\PSoC5/USBFS_1_episr.c ****         /* `#START EP3_END_USER_CODE` Place your code here */
 220:.\Generated_Source\PSoC5/USBFS_1_episr.c **** 
 221:.\Generated_Source\PSoC5/USBFS_1_episr.c ****         /* `#END` */
 222:.\Generated_Source\PSoC5/USBFS_1_episr.c **** 
 223:.\Generated_Source\PSoC5/USBFS_1_episr.c ****         #if (defined(USBFS_1_ENABLE_MIDI_STREAMING) && !defined(USBFS_1_MAIN_SERVICE_MIDI_OUT) && \
 224:.\Generated_Source\PSoC5/USBFS_1_episr.c ****                      USBFS_1_ISR_SERVICE_MIDI_OUT && CY_PSOC3)
 225:.\Generated_Source\PSoC5/USBFS_1_episr.c ****             EA = int_en;
 226:.\Generated_Source\PSoC5/USBFS_1_episr.c ****         #endif /* CY_PSOC3 & USBFS_1_ISR_SERVICE_MIDI_OUT  */
 227:.\Generated_Source\PSoC5/USBFS_1_episr.c ****     }
 228:.\Generated_Source\PSoC5/USBFS_1_episr.c **** 
 229:.\Generated_Source\PSoC5/USBFS_1_episr.c **** #endif   /*  USBFS_1_EP3_ISR_REMOVE */
 230:.\Generated_Source\PSoC5/USBFS_1_episr.c **** 
 231:.\Generated_Source\PSoC5/USBFS_1_episr.c **** 
 232:.\Generated_Source\PSoC5/USBFS_1_episr.c **** #if(USBFS_1_EP4_ISR_REMOVE == 0u)
 233:.\Generated_Source\PSoC5/USBFS_1_episr.c **** 
 234:.\Generated_Source\PSoC5/USBFS_1_episr.c ****     /*******************************************************************************
 235:.\Generated_Source\PSoC5/USBFS_1_episr.c ****     * Function Name: USBFS_1_EP_4_ISR
 236:.\Generated_Source\PSoC5/USBFS_1_episr.c ****     ********************************************************************************
 237:.\Generated_Source\PSoC5/USBFS_1_episr.c ****     *
 238:.\Generated_Source\PSoC5/USBFS_1_episr.c ****     * Summary:
 239:.\Generated_Source\PSoC5/USBFS_1_episr.c ****     *  Endpoint 4 Interrupt Service Routine
 240:.\Generated_Source\PSoC5/USBFS_1_episr.c ****     *
 241:.\Generated_Source\PSoC5/USBFS_1_episr.c ****     * Parameters:
 242:.\Generated_Source\PSoC5/USBFS_1_episr.c ****     *  None.
 243:.\Generated_Source\PSoC5/USBFS_1_episr.c ****     *
 244:.\Generated_Source\PSoC5/USBFS_1_episr.c ****     * Return:
 245:.\Generated_Source\PSoC5/USBFS_1_episr.c ****     *  None.
 246:.\Generated_Source\PSoC5/USBFS_1_episr.c ****     *
 247:.\Generated_Source\PSoC5/USBFS_1_episr.c ****     *******************************************************************************/
 248:.\Generated_Source\PSoC5/USBFS_1_episr.c ****     CY_ISR(USBFS_1_EP_4_ISR)
 249:.\Generated_Source\PSoC5/USBFS_1_episr.c ****     {
 250:.\Generated_Source\PSoC5/USBFS_1_episr.c ****         #if (defined(USBFS_1_ENABLE_MIDI_STREAMING) && !defined(USBFS_1_MAIN_SERVICE_MIDI_OUT) && \
 251:.\Generated_Source\PSoC5/USBFS_1_episr.c ****                      USBFS_1_ISR_SERVICE_MIDI_OUT && CY_PSOC3)
 252:.\Generated_Source\PSoC5/USBFS_1_episr.c ****             uint8 int_en;
ARM GAS  C:\Users\JohnP\AppData\Local\Temp\ccpbDBmo.s 			page 7


 253:.\Generated_Source\PSoC5/USBFS_1_episr.c ****         #endif /* CY_PSOC3 & USBFS_1_ISR_SERVICE_MIDI_OUT  */
 254:.\Generated_Source\PSoC5/USBFS_1_episr.c **** 
 255:.\Generated_Source\PSoC5/USBFS_1_episr.c ****         /* `#START EP4_USER_CODE` Place your code here */
 256:.\Generated_Source\PSoC5/USBFS_1_episr.c **** 
 257:.\Generated_Source\PSoC5/USBFS_1_episr.c ****         /* `#END` */
 258:.\Generated_Source\PSoC5/USBFS_1_episr.c **** 
 259:.\Generated_Source\PSoC5/USBFS_1_episr.c ****         #if (defined(USBFS_1_ENABLE_MIDI_STREAMING) && !defined(USBFS_1_MAIN_SERVICE_MIDI_OUT) && \
 260:.\Generated_Source\PSoC5/USBFS_1_episr.c ****                      USBFS_1_ISR_SERVICE_MIDI_OUT && CY_PSOC3)
 261:.\Generated_Source\PSoC5/USBFS_1_episr.c ****             int_en = EA;
 262:.\Generated_Source\PSoC5/USBFS_1_episr.c ****             CyGlobalIntEnable;  /* Make sure nested interrupt is enabled */
 263:.\Generated_Source\PSoC5/USBFS_1_episr.c ****         #endif /* CY_PSOC3 & USBFS_1_ISR_SERVICE_MIDI_OUT  */
 264:.\Generated_Source\PSoC5/USBFS_1_episr.c **** 
 265:.\Generated_Source\PSoC5/USBFS_1_episr.c ****         CY_GET_REG8(USBFS_1_SIE_EP4_CR0_PTR); /* Must read the mode reg */
 266:.\Generated_Source\PSoC5/USBFS_1_episr.c ****         /* Do not toggle ISOC endpoint */
 267:.\Generated_Source\PSoC5/USBFS_1_episr.c ****         if((USBFS_1_EP[USBFS_1_EP4].attrib & USBFS_1_EP_TYPE_MASK) !=
 268:.\Generated_Source\PSoC5/USBFS_1_episr.c ****                                                                                     USBFS_1_EP_TYPE
 269:.\Generated_Source\PSoC5/USBFS_1_episr.c ****         {
 270:.\Generated_Source\PSoC5/USBFS_1_episr.c ****             USBFS_1_EP[USBFS_1_EP4].epToggle ^= USBFS_1_EPX_CNT_DATA_TOGGLE;
 271:.\Generated_Source\PSoC5/USBFS_1_episr.c ****         }
 272:.\Generated_Source\PSoC5/USBFS_1_episr.c ****         USBFS_1_EP[USBFS_1_EP4].apiEpState = USBFS_1_EVENT_PENDING;
 273:.\Generated_Source\PSoC5/USBFS_1_episr.c ****         CY_SET_REG8(USBFS_1_SIE_EP_INT_SR_PTR, CY_GET_REG8(USBFS_1_SIE_EP_INT_SR_PTR)
 274:.\Generated_Source\PSoC5/USBFS_1_episr.c ****                                                                         & (uint8)~USBFS_1_SIE_EP_IN
 275:.\Generated_Source\PSoC5/USBFS_1_episr.c **** 
 276:.\Generated_Source\PSoC5/USBFS_1_episr.c ****         #if (defined(USBFS_1_ENABLE_MIDI_STREAMING) && !defined(USBFS_1_MAIN_SERVICE_MIDI_OUT) && \
 277:.\Generated_Source\PSoC5/USBFS_1_episr.c ****                      USBFS_1_ISR_SERVICE_MIDI_OUT)
 278:.\Generated_Source\PSoC5/USBFS_1_episr.c ****             if(USBFS_1_midi_out_ep == USBFS_1_EP4)
 279:.\Generated_Source\PSoC5/USBFS_1_episr.c ****             {
 280:.\Generated_Source\PSoC5/USBFS_1_episr.c ****                 USBFS_1_MIDI_OUT_EP_Service();
 281:.\Generated_Source\PSoC5/USBFS_1_episr.c ****             }
 282:.\Generated_Source\PSoC5/USBFS_1_episr.c ****         #endif /*  USBFS_1_ISR_SERVICE_MIDI_OUT */
 283:.\Generated_Source\PSoC5/USBFS_1_episr.c **** 
 284:.\Generated_Source\PSoC5/USBFS_1_episr.c ****         /* `#START EP4_END_USER_CODE` Place your code here */
 285:.\Generated_Source\PSoC5/USBFS_1_episr.c **** 
 286:.\Generated_Source\PSoC5/USBFS_1_episr.c ****         /* `#END` */
 287:.\Generated_Source\PSoC5/USBFS_1_episr.c **** 
 288:.\Generated_Source\PSoC5/USBFS_1_episr.c ****         #if (defined(USBFS_1_ENABLE_MIDI_STREAMING) && !defined(USBFS_1_MAIN_SERVICE_MIDI_OUT) && \
 289:.\Generated_Source\PSoC5/USBFS_1_episr.c ****                      USBFS_1_ISR_SERVICE_MIDI_OUT && CY_PSOC3)
 290:.\Generated_Source\PSoC5/USBFS_1_episr.c ****             EA = int_en;
 291:.\Generated_Source\PSoC5/USBFS_1_episr.c ****         #endif /* CY_PSOC3 & USBFS_1_ISR_SERVICE_MIDI_OUT  */
 292:.\Generated_Source\PSoC5/USBFS_1_episr.c ****     }
 293:.\Generated_Source\PSoC5/USBFS_1_episr.c **** 
 294:.\Generated_Source\PSoC5/USBFS_1_episr.c **** #endif   /*  USBFS_1_EP4_ISR_REMOVE */
 295:.\Generated_Source\PSoC5/USBFS_1_episr.c **** 
 296:.\Generated_Source\PSoC5/USBFS_1_episr.c **** 
 297:.\Generated_Source\PSoC5/USBFS_1_episr.c **** #if(USBFS_1_EP5_ISR_REMOVE == 0u)
 298:.\Generated_Source\PSoC5/USBFS_1_episr.c **** 
 299:.\Generated_Source\PSoC5/USBFS_1_episr.c ****     /*******************************************************************************
 300:.\Generated_Source\PSoC5/USBFS_1_episr.c ****     * Function Name: USBFS_1_EP_5_ISR
 301:.\Generated_Source\PSoC5/USBFS_1_episr.c ****     ********************************************************************************
 302:.\Generated_Source\PSoC5/USBFS_1_episr.c ****     *
 303:.\Generated_Source\PSoC5/USBFS_1_episr.c ****     * Summary:
 304:.\Generated_Source\PSoC5/USBFS_1_episr.c ****     *  Endpoint 5 Interrupt Service Routine
 305:.\Generated_Source\PSoC5/USBFS_1_episr.c ****     *
 306:.\Generated_Source\PSoC5/USBFS_1_episr.c ****     * Parameters:
 307:.\Generated_Source\PSoC5/USBFS_1_episr.c ****     *  None.
 308:.\Generated_Source\PSoC5/USBFS_1_episr.c ****     *
 309:.\Generated_Source\PSoC5/USBFS_1_episr.c ****     * Return:
ARM GAS  C:\Users\JohnP\AppData\Local\Temp\ccpbDBmo.s 			page 8


 310:.\Generated_Source\PSoC5/USBFS_1_episr.c ****     *  None.
 311:.\Generated_Source\PSoC5/USBFS_1_episr.c ****     *
 312:.\Generated_Source\PSoC5/USBFS_1_episr.c ****     *******************************************************************************/
 313:.\Generated_Source\PSoC5/USBFS_1_episr.c ****     CY_ISR(USBFS_1_EP_5_ISR)
 314:.\Generated_Source\PSoC5/USBFS_1_episr.c ****     {
 315:.\Generated_Source\PSoC5/USBFS_1_episr.c ****         #if (defined(USBFS_1_ENABLE_MIDI_STREAMING) && !defined(USBFS_1_MAIN_SERVICE_MIDI_OUT) && \
 316:.\Generated_Source\PSoC5/USBFS_1_episr.c ****                      USBFS_1_ISR_SERVICE_MIDI_OUT && CY_PSOC3)
 317:.\Generated_Source\PSoC5/USBFS_1_episr.c ****             uint8 int_en;
 318:.\Generated_Source\PSoC5/USBFS_1_episr.c ****         #endif /* CY_PSOC3 & USBFS_1_ISR_SERVICE_MIDI_OUT  */
 319:.\Generated_Source\PSoC5/USBFS_1_episr.c **** 
 320:.\Generated_Source\PSoC5/USBFS_1_episr.c ****         /* `#START EP5_USER_CODE` Place your code here */
 321:.\Generated_Source\PSoC5/USBFS_1_episr.c **** 
 322:.\Generated_Source\PSoC5/USBFS_1_episr.c ****         /* `#END` */
 323:.\Generated_Source\PSoC5/USBFS_1_episr.c **** 
 324:.\Generated_Source\PSoC5/USBFS_1_episr.c ****         #if (defined(USBFS_1_ENABLE_MIDI_STREAMING) && !defined(USBFS_1_MAIN_SERVICE_MIDI_OUT) && \
 325:.\Generated_Source\PSoC5/USBFS_1_episr.c ****                      USBFS_1_ISR_SERVICE_MIDI_OUT && CY_PSOC3)
 326:.\Generated_Source\PSoC5/USBFS_1_episr.c ****             int_en = EA;
 327:.\Generated_Source\PSoC5/USBFS_1_episr.c ****             CyGlobalIntEnable;  /* Make sure nested interrupt is enabled */
 328:.\Generated_Source\PSoC5/USBFS_1_episr.c ****         #endif /* CY_PSOC3 & USBFS_1_ISR_SERVICE_MIDI_OUT  */
 329:.\Generated_Source\PSoC5/USBFS_1_episr.c **** 
 330:.\Generated_Source\PSoC5/USBFS_1_episr.c ****         CY_GET_REG8(USBFS_1_SIE_EP5_CR0_PTR); /* Must read the mode reg */
 331:.\Generated_Source\PSoC5/USBFS_1_episr.c ****         /* Do not toggle ISOC endpoint */
 332:.\Generated_Source\PSoC5/USBFS_1_episr.c ****         if((USBFS_1_EP[USBFS_1_EP5].attrib & USBFS_1_EP_TYPE_MASK) !=
 333:.\Generated_Source\PSoC5/USBFS_1_episr.c ****                                                                                     USBFS_1_EP_TYPE
 334:.\Generated_Source\PSoC5/USBFS_1_episr.c ****         {
 335:.\Generated_Source\PSoC5/USBFS_1_episr.c ****             USBFS_1_EP[USBFS_1_EP5].epToggle ^= USBFS_1_EPX_CNT_DATA_TOGGLE;
 336:.\Generated_Source\PSoC5/USBFS_1_episr.c ****         }
 337:.\Generated_Source\PSoC5/USBFS_1_episr.c ****         USBFS_1_EP[USBFS_1_EP5].apiEpState = USBFS_1_EVENT_PENDING;
 338:.\Generated_Source\PSoC5/USBFS_1_episr.c ****         CY_SET_REG8(USBFS_1_SIE_EP_INT_SR_PTR, CY_GET_REG8(USBFS_1_SIE_EP_INT_SR_PTR)
 339:.\Generated_Source\PSoC5/USBFS_1_episr.c ****                                                                         & (uint8)~USBFS_1_SIE_EP_IN
 340:.\Generated_Source\PSoC5/USBFS_1_episr.c **** 
 341:.\Generated_Source\PSoC5/USBFS_1_episr.c ****         #if (defined(USBFS_1_ENABLE_MIDI_STREAMING) && !defined(USBFS_1_MAIN_SERVICE_MIDI_OUT) && \
 342:.\Generated_Source\PSoC5/USBFS_1_episr.c ****                      USBFS_1_ISR_SERVICE_MIDI_OUT)
 343:.\Generated_Source\PSoC5/USBFS_1_episr.c ****             if(USBFS_1_midi_out_ep == USBFS_1_EP5)
 344:.\Generated_Source\PSoC5/USBFS_1_episr.c ****             {
 345:.\Generated_Source\PSoC5/USBFS_1_episr.c ****                 USBFS_1_MIDI_OUT_EP_Service();
 346:.\Generated_Source\PSoC5/USBFS_1_episr.c ****             }
 347:.\Generated_Source\PSoC5/USBFS_1_episr.c ****         #endif /*  USBFS_1_ISR_SERVICE_MIDI_OUT */
 348:.\Generated_Source\PSoC5/USBFS_1_episr.c **** 
 349:.\Generated_Source\PSoC5/USBFS_1_episr.c ****         /* `#START EP5_END_USER_CODE` Place your code here */
 350:.\Generated_Source\PSoC5/USBFS_1_episr.c **** 
 351:.\Generated_Source\PSoC5/USBFS_1_episr.c ****         /* `#END` */
 352:.\Generated_Source\PSoC5/USBFS_1_episr.c **** 
 353:.\Generated_Source\PSoC5/USBFS_1_episr.c ****         #if (defined(USBFS_1_ENABLE_MIDI_STREAMING) && !defined(USBFS_1_MAIN_SERVICE_MIDI_OUT) && \
 354:.\Generated_Source\PSoC5/USBFS_1_episr.c ****                      USBFS_1_ISR_SERVICE_MIDI_OUT && CY_PSOC3)
 355:.\Generated_Source\PSoC5/USBFS_1_episr.c ****             EA = int_en;
 356:.\Generated_Source\PSoC5/USBFS_1_episr.c ****         #endif /* CY_PSOC3 & USBFS_1_ISR_SERVICE_MIDI_OUT  */
 357:.\Generated_Source\PSoC5/USBFS_1_episr.c ****     }
 358:.\Generated_Source\PSoC5/USBFS_1_episr.c **** #endif   /*  USBFS_1_EP5_ISR_REMOVE */
 359:.\Generated_Source\PSoC5/USBFS_1_episr.c **** 
 360:.\Generated_Source\PSoC5/USBFS_1_episr.c **** 
 361:.\Generated_Source\PSoC5/USBFS_1_episr.c **** #if(USBFS_1_EP6_ISR_REMOVE == 0u)
 362:.\Generated_Source\PSoC5/USBFS_1_episr.c **** 
 363:.\Generated_Source\PSoC5/USBFS_1_episr.c ****     /*******************************************************************************
 364:.\Generated_Source\PSoC5/USBFS_1_episr.c ****     * Function Name: USBFS_1_EP_6_ISR
 365:.\Generated_Source\PSoC5/USBFS_1_episr.c ****     ********************************************************************************
 366:.\Generated_Source\PSoC5/USBFS_1_episr.c ****     *
ARM GAS  C:\Users\JohnP\AppData\Local\Temp\ccpbDBmo.s 			page 9


 367:.\Generated_Source\PSoC5/USBFS_1_episr.c ****     * Summary:
 368:.\Generated_Source\PSoC5/USBFS_1_episr.c ****     *  Endpoint 6 Interrupt Service Routine
 369:.\Generated_Source\PSoC5/USBFS_1_episr.c ****     *
 370:.\Generated_Source\PSoC5/USBFS_1_episr.c ****     * Parameters:
 371:.\Generated_Source\PSoC5/USBFS_1_episr.c ****     *  None.
 372:.\Generated_Source\PSoC5/USBFS_1_episr.c ****     *
 373:.\Generated_Source\PSoC5/USBFS_1_episr.c ****     * Return:
 374:.\Generated_Source\PSoC5/USBFS_1_episr.c ****     *  None.
 375:.\Generated_Source\PSoC5/USBFS_1_episr.c ****     *
 376:.\Generated_Source\PSoC5/USBFS_1_episr.c ****     *******************************************************************************/
 377:.\Generated_Source\PSoC5/USBFS_1_episr.c ****     CY_ISR(USBFS_1_EP_6_ISR)
 378:.\Generated_Source\PSoC5/USBFS_1_episr.c ****     {
 379:.\Generated_Source\PSoC5/USBFS_1_episr.c ****         #if (defined(USBFS_1_ENABLE_MIDI_STREAMING) && !defined(USBFS_1_MAIN_SERVICE_MIDI_OUT) && \
 380:.\Generated_Source\PSoC5/USBFS_1_episr.c ****                      USBFS_1_ISR_SERVICE_MIDI_OUT && CY_PSOC3)
 381:.\Generated_Source\PSoC5/USBFS_1_episr.c ****             uint8 int_en;
 382:.\Generated_Source\PSoC5/USBFS_1_episr.c ****         #endif /* CY_PSOC3 & USBFS_1_ISR_SERVICE_MIDI_OUT  */
 383:.\Generated_Source\PSoC5/USBFS_1_episr.c **** 
 384:.\Generated_Source\PSoC5/USBFS_1_episr.c ****         /* `#START EP6_USER_CODE` Place your code here */
 385:.\Generated_Source\PSoC5/USBFS_1_episr.c **** 
 386:.\Generated_Source\PSoC5/USBFS_1_episr.c ****         /* `#END` */
 387:.\Generated_Source\PSoC5/USBFS_1_episr.c **** 
 388:.\Generated_Source\PSoC5/USBFS_1_episr.c ****         #if (defined(USBFS_1_ENABLE_MIDI_STREAMING) && !defined(USBFS_1_MAIN_SERVICE_MIDI_OUT) && \
 389:.\Generated_Source\PSoC5/USBFS_1_episr.c ****                      USBFS_1_ISR_SERVICE_MIDI_OUT && CY_PSOC3)
 390:.\Generated_Source\PSoC5/USBFS_1_episr.c ****             int_en = EA;
 391:.\Generated_Source\PSoC5/USBFS_1_episr.c ****             CyGlobalIntEnable;  /* Make sure nested interrupt is enabled */
 392:.\Generated_Source\PSoC5/USBFS_1_episr.c ****         #endif /* CY_PSOC3 & USBFS_1_ISR_SERVICE_MIDI_OUT  */
 393:.\Generated_Source\PSoC5/USBFS_1_episr.c **** 
 394:.\Generated_Source\PSoC5/USBFS_1_episr.c ****         CY_GET_REG8(USBFS_1_SIE_EP6_CR0_PTR); /* Must read the mode reg */
 395:.\Generated_Source\PSoC5/USBFS_1_episr.c ****         /* Do not toggle ISOC endpoint */
 396:.\Generated_Source\PSoC5/USBFS_1_episr.c ****         if((USBFS_1_EP[USBFS_1_EP6].attrib & USBFS_1_EP_TYPE_MASK) !=
 397:.\Generated_Source\PSoC5/USBFS_1_episr.c ****                                                                                     USBFS_1_EP_TYPE
 398:.\Generated_Source\PSoC5/USBFS_1_episr.c ****         {
 399:.\Generated_Source\PSoC5/USBFS_1_episr.c ****             USBFS_1_EP[USBFS_1_EP6].epToggle ^= USBFS_1_EPX_CNT_DATA_TOGGLE;
 400:.\Generated_Source\PSoC5/USBFS_1_episr.c ****         }
 401:.\Generated_Source\PSoC5/USBFS_1_episr.c ****         USBFS_1_EP[USBFS_1_EP6].apiEpState = USBFS_1_EVENT_PENDING;
 402:.\Generated_Source\PSoC5/USBFS_1_episr.c ****         CY_SET_REG8(USBFS_1_SIE_EP_INT_SR_PTR, CY_GET_REG8(USBFS_1_SIE_EP_INT_SR_PTR)
 403:.\Generated_Source\PSoC5/USBFS_1_episr.c ****                                                                         & (uint8)~USBFS_1_SIE_EP_IN
 404:.\Generated_Source\PSoC5/USBFS_1_episr.c **** 
 405:.\Generated_Source\PSoC5/USBFS_1_episr.c ****         #if (defined(USBFS_1_ENABLE_MIDI_STREAMING) && !defined(USBFS_1_MAIN_SERVICE_MIDI_OUT) && \
 406:.\Generated_Source\PSoC5/USBFS_1_episr.c ****                      USBFS_1_ISR_SERVICE_MIDI_OUT)
 407:.\Generated_Source\PSoC5/USBFS_1_episr.c ****             if(USBFS_1_midi_out_ep == USBFS_1_EP6)
 408:.\Generated_Source\PSoC5/USBFS_1_episr.c ****             {
 409:.\Generated_Source\PSoC5/USBFS_1_episr.c ****                 USBFS_1_MIDI_OUT_EP_Service();
 410:.\Generated_Source\PSoC5/USBFS_1_episr.c ****             }
 411:.\Generated_Source\PSoC5/USBFS_1_episr.c ****         #endif /*  USBFS_1_ISR_SERVICE_MIDI_OUT  */
 412:.\Generated_Source\PSoC5/USBFS_1_episr.c **** 
 413:.\Generated_Source\PSoC5/USBFS_1_episr.c ****         /* `#START EP6_END_USER_CODE` Place your code here */
 414:.\Generated_Source\PSoC5/USBFS_1_episr.c **** 
 415:.\Generated_Source\PSoC5/USBFS_1_episr.c ****         /* `#END` */
 416:.\Generated_Source\PSoC5/USBFS_1_episr.c **** 
 417:.\Generated_Source\PSoC5/USBFS_1_episr.c ****         #if (defined(USBFS_1_ENABLE_MIDI_STREAMING) && !defined(USBFS_1_MAIN_SERVICE_MIDI_OUT) && \
 418:.\Generated_Source\PSoC5/USBFS_1_episr.c ****                      USBFS_1_ISR_SERVICE_MIDI_OUT && CY_PSOC3)
 419:.\Generated_Source\PSoC5/USBFS_1_episr.c ****             EA = int_en;
 420:.\Generated_Source\PSoC5/USBFS_1_episr.c ****         #endif /* CY_PSOC3 & USBFS_1_ISR_SERVICE_MIDI_OUT  */
 421:.\Generated_Source\PSoC5/USBFS_1_episr.c ****     }
 422:.\Generated_Source\PSoC5/USBFS_1_episr.c **** 
 423:.\Generated_Source\PSoC5/USBFS_1_episr.c **** #endif   /*  USBFS_1_EP6_ISR_REMOVE */
ARM GAS  C:\Users\JohnP\AppData\Local\Temp\ccpbDBmo.s 			page 10


 424:.\Generated_Source\PSoC5/USBFS_1_episr.c **** 
 425:.\Generated_Source\PSoC5/USBFS_1_episr.c **** 
 426:.\Generated_Source\PSoC5/USBFS_1_episr.c **** #if(USBFS_1_EP7_ISR_REMOVE == 0u)
 427:.\Generated_Source\PSoC5/USBFS_1_episr.c **** 
 428:.\Generated_Source\PSoC5/USBFS_1_episr.c ****     /*******************************************************************************
 429:.\Generated_Source\PSoC5/USBFS_1_episr.c ****     * Function Name: USBFS_1_EP_7_ISR
 430:.\Generated_Source\PSoC5/USBFS_1_episr.c ****     ********************************************************************************
 431:.\Generated_Source\PSoC5/USBFS_1_episr.c ****     *
 432:.\Generated_Source\PSoC5/USBFS_1_episr.c ****     * Summary:
 433:.\Generated_Source\PSoC5/USBFS_1_episr.c ****     *  Endpoint 7 Interrupt Service Routine
 434:.\Generated_Source\PSoC5/USBFS_1_episr.c ****     *
 435:.\Generated_Source\PSoC5/USBFS_1_episr.c ****     * Parameters:
 436:.\Generated_Source\PSoC5/USBFS_1_episr.c ****     *  None.
 437:.\Generated_Source\PSoC5/USBFS_1_episr.c ****     *
 438:.\Generated_Source\PSoC5/USBFS_1_episr.c ****     * Return:
 439:.\Generated_Source\PSoC5/USBFS_1_episr.c ****     *  None.
 440:.\Generated_Source\PSoC5/USBFS_1_episr.c ****     *
 441:.\Generated_Source\PSoC5/USBFS_1_episr.c ****     *******************************************************************************/
 442:.\Generated_Source\PSoC5/USBFS_1_episr.c ****     CY_ISR(USBFS_1_EP_7_ISR)
 443:.\Generated_Source\PSoC5/USBFS_1_episr.c ****     {
 444:.\Generated_Source\PSoC5/USBFS_1_episr.c ****         #if (defined(USBFS_1_ENABLE_MIDI_STREAMING) && !defined(USBFS_1_MAIN_SERVICE_MIDI_OUT) && \
 445:.\Generated_Source\PSoC5/USBFS_1_episr.c ****                      USBFS_1_ISR_SERVICE_MIDI_OUT && CY_PSOC3)
 446:.\Generated_Source\PSoC5/USBFS_1_episr.c ****             uint8 int_en;
 447:.\Generated_Source\PSoC5/USBFS_1_episr.c ****         #endif /* CY_PSOC3 & USBFS_1_ISR_SERVICE_MIDI_OUT  */
 448:.\Generated_Source\PSoC5/USBFS_1_episr.c **** 
 449:.\Generated_Source\PSoC5/USBFS_1_episr.c ****         /* `#START EP7_USER_CODE` Place your code here */
 450:.\Generated_Source\PSoC5/USBFS_1_episr.c **** 
 451:.\Generated_Source\PSoC5/USBFS_1_episr.c ****         /* `#END` */
 452:.\Generated_Source\PSoC5/USBFS_1_episr.c **** 
 453:.\Generated_Source\PSoC5/USBFS_1_episr.c ****         #if (defined(USBFS_1_ENABLE_MIDI_STREAMING) && !defined(USBFS_1_MAIN_SERVICE_MIDI_OUT) && \
 454:.\Generated_Source\PSoC5/USBFS_1_episr.c ****                      USBFS_1_ISR_SERVICE_MIDI_OUT && CY_PSOC3)
 455:.\Generated_Source\PSoC5/USBFS_1_episr.c ****             int_en = EA;
 456:.\Generated_Source\PSoC5/USBFS_1_episr.c ****             CyGlobalIntEnable;  /* Make sure nested interrupt is enabled */
 457:.\Generated_Source\PSoC5/USBFS_1_episr.c ****         #endif /* CY_PSOC3 & USBFS_1_ISR_SERVICE_MIDI_OUT  */
 458:.\Generated_Source\PSoC5/USBFS_1_episr.c **** 
 459:.\Generated_Source\PSoC5/USBFS_1_episr.c ****         CY_GET_REG8(USBFS_1_SIE_EP7_CR0_PTR); /* Must read the mode reg */
 460:.\Generated_Source\PSoC5/USBFS_1_episr.c ****         /* Do not toggle ISOC endpoint */
 461:.\Generated_Source\PSoC5/USBFS_1_episr.c ****         if((USBFS_1_EP[USBFS_1_EP7].attrib & USBFS_1_EP_TYPE_MASK) !=
 462:.\Generated_Source\PSoC5/USBFS_1_episr.c ****                                                                                     USBFS_1_EP_TYPE
 463:.\Generated_Source\PSoC5/USBFS_1_episr.c ****         {
 464:.\Generated_Source\PSoC5/USBFS_1_episr.c ****             USBFS_1_EP[USBFS_1_EP7].epToggle ^= USBFS_1_EPX_CNT_DATA_TOGGLE;
 465:.\Generated_Source\PSoC5/USBFS_1_episr.c ****         }
 466:.\Generated_Source\PSoC5/USBFS_1_episr.c ****         USBFS_1_EP[USBFS_1_EP7].apiEpState = USBFS_1_EVENT_PENDING;
 467:.\Generated_Source\PSoC5/USBFS_1_episr.c ****         CY_SET_REG8(USBFS_1_SIE_EP_INT_SR_PTR, CY_GET_REG8(USBFS_1_SIE_EP_INT_SR_PTR)
 468:.\Generated_Source\PSoC5/USBFS_1_episr.c ****                                                                         & (uint8)~USBFS_1_SIE_EP_IN
 469:.\Generated_Source\PSoC5/USBFS_1_episr.c **** 
 470:.\Generated_Source\PSoC5/USBFS_1_episr.c ****         #if (defined(USBFS_1_ENABLE_MIDI_STREAMING) && !defined(USBFS_1_MAIN_SERVICE_MIDI_OUT) && \
 471:.\Generated_Source\PSoC5/USBFS_1_episr.c ****                      USBFS_1_ISR_SERVICE_MIDI_OUT)
 472:.\Generated_Source\PSoC5/USBFS_1_episr.c ****             if(USBFS_1_midi_out_ep == USBFS_1_EP7)
 473:.\Generated_Source\PSoC5/USBFS_1_episr.c ****             {
 474:.\Generated_Source\PSoC5/USBFS_1_episr.c ****                 USBFS_1_MIDI_OUT_EP_Service();
 475:.\Generated_Source\PSoC5/USBFS_1_episr.c ****             }
 476:.\Generated_Source\PSoC5/USBFS_1_episr.c ****         #endif /*  USBFS_1_ISR_SERVICE_MIDI_OUT  */
 477:.\Generated_Source\PSoC5/USBFS_1_episr.c **** 
 478:.\Generated_Source\PSoC5/USBFS_1_episr.c ****         /* `#START EP7_END_USER_CODE` Place your code here */
 479:.\Generated_Source\PSoC5/USBFS_1_episr.c **** 
 480:.\Generated_Source\PSoC5/USBFS_1_episr.c ****         /* `#END` */
ARM GAS  C:\Users\JohnP\AppData\Local\Temp\ccpbDBmo.s 			page 11


 481:.\Generated_Source\PSoC5/USBFS_1_episr.c **** 
 482:.\Generated_Source\PSoC5/USBFS_1_episr.c ****         #if (defined(USBFS_1_ENABLE_MIDI_STREAMING) && !defined(USBFS_1_MAIN_SERVICE_MIDI_OUT) && \
 483:.\Generated_Source\PSoC5/USBFS_1_episr.c ****                      USBFS_1_ISR_SERVICE_MIDI_OUT && CY_PSOC3)
 484:.\Generated_Source\PSoC5/USBFS_1_episr.c ****             EA = int_en;
 485:.\Generated_Source\PSoC5/USBFS_1_episr.c ****         #endif /* CY_PSOC3 & USBFS_1_ISR_SERVICE_MIDI_OUT  */
 486:.\Generated_Source\PSoC5/USBFS_1_episr.c ****     }
 487:.\Generated_Source\PSoC5/USBFS_1_episr.c **** 
 488:.\Generated_Source\PSoC5/USBFS_1_episr.c **** #endif   /*  USBFS_1_EP7_ISR_REMOVE */
 489:.\Generated_Source\PSoC5/USBFS_1_episr.c **** 
 490:.\Generated_Source\PSoC5/USBFS_1_episr.c **** 
 491:.\Generated_Source\PSoC5/USBFS_1_episr.c **** #if(USBFS_1_EP8_ISR_REMOVE == 0u)
 492:.\Generated_Source\PSoC5/USBFS_1_episr.c **** 
 493:.\Generated_Source\PSoC5/USBFS_1_episr.c ****     /*******************************************************************************
 494:.\Generated_Source\PSoC5/USBFS_1_episr.c ****     * Function Name: USBFS_1_EP_8_ISR
 495:.\Generated_Source\PSoC5/USBFS_1_episr.c ****     ********************************************************************************
 496:.\Generated_Source\PSoC5/USBFS_1_episr.c ****     *
 497:.\Generated_Source\PSoC5/USBFS_1_episr.c ****     * Summary:
 498:.\Generated_Source\PSoC5/USBFS_1_episr.c ****     *  Endpoint 8 Interrupt Service Routine
 499:.\Generated_Source\PSoC5/USBFS_1_episr.c ****     *
 500:.\Generated_Source\PSoC5/USBFS_1_episr.c ****     * Parameters:
 501:.\Generated_Source\PSoC5/USBFS_1_episr.c ****     *  None.
 502:.\Generated_Source\PSoC5/USBFS_1_episr.c ****     *
 503:.\Generated_Source\PSoC5/USBFS_1_episr.c ****     * Return:
 504:.\Generated_Source\PSoC5/USBFS_1_episr.c ****     *  None.
 505:.\Generated_Source\PSoC5/USBFS_1_episr.c ****     *
 506:.\Generated_Source\PSoC5/USBFS_1_episr.c ****     *******************************************************************************/
 507:.\Generated_Source\PSoC5/USBFS_1_episr.c ****     CY_ISR(USBFS_1_EP_8_ISR)
 508:.\Generated_Source\PSoC5/USBFS_1_episr.c ****     {
 509:.\Generated_Source\PSoC5/USBFS_1_episr.c ****         #if (defined(USBFS_1_ENABLE_MIDI_STREAMING) && !defined(USBFS_1_MAIN_SERVICE_MIDI_OUT) && \
 510:.\Generated_Source\PSoC5/USBFS_1_episr.c ****                      USBFS_1_ISR_SERVICE_MIDI_OUT && CY_PSOC3)
 511:.\Generated_Source\PSoC5/USBFS_1_episr.c ****             uint8 int_en;
 512:.\Generated_Source\PSoC5/USBFS_1_episr.c ****         #endif /* CY_PSOC3 & USBFS_1_ISR_SERVICE_MIDI_OUT  */
 513:.\Generated_Source\PSoC5/USBFS_1_episr.c **** 
 514:.\Generated_Source\PSoC5/USBFS_1_episr.c ****         /* `#START EP8_USER_CODE` Place your code here */
 515:.\Generated_Source\PSoC5/USBFS_1_episr.c **** 
 516:.\Generated_Source\PSoC5/USBFS_1_episr.c ****         /* `#END` */
 517:.\Generated_Source\PSoC5/USBFS_1_episr.c **** 
 518:.\Generated_Source\PSoC5/USBFS_1_episr.c ****         #if (defined(USBFS_1_ENABLE_MIDI_STREAMING) && !defined(USBFS_1_MAIN_SERVICE_MIDI_OUT) && \
 519:.\Generated_Source\PSoC5/USBFS_1_episr.c ****                      USBFS_1_ISR_SERVICE_MIDI_OUT && CY_PSOC3)
 520:.\Generated_Source\PSoC5/USBFS_1_episr.c ****             int_en = EA;
 521:.\Generated_Source\PSoC5/USBFS_1_episr.c ****             CyGlobalIntEnable;  /* Make sure nested interrupt is enabled */
 522:.\Generated_Source\PSoC5/USBFS_1_episr.c ****         #endif /* CY_PSOC3 & USBFS_1_ISR_SERVICE_MIDI_OUT  */
 523:.\Generated_Source\PSoC5/USBFS_1_episr.c **** 
 524:.\Generated_Source\PSoC5/USBFS_1_episr.c ****         CY_GET_REG8(USBFS_1_SIE_EP8_CR0_PTR); /* Must read the mode reg */
 525:.\Generated_Source\PSoC5/USBFS_1_episr.c ****         /* Do not toggle ISOC endpoint */
 526:.\Generated_Source\PSoC5/USBFS_1_episr.c ****         if((USBFS_1_EP[USBFS_1_EP8].attrib & USBFS_1_EP_TYPE_MASK) !=
 527:.\Generated_Source\PSoC5/USBFS_1_episr.c ****                                                                                     USBFS_1_EP_TYPE
 528:.\Generated_Source\PSoC5/USBFS_1_episr.c ****         {
 529:.\Generated_Source\PSoC5/USBFS_1_episr.c ****             USBFS_1_EP[USBFS_1_EP8].epToggle ^= USBFS_1_EPX_CNT_DATA_TOGGLE;
 530:.\Generated_Source\PSoC5/USBFS_1_episr.c ****         }
 531:.\Generated_Source\PSoC5/USBFS_1_episr.c ****         USBFS_1_EP[USBFS_1_EP8].apiEpState = USBFS_1_EVENT_PENDING;
 532:.\Generated_Source\PSoC5/USBFS_1_episr.c ****         CY_SET_REG8(USBFS_1_SIE_EP_INT_SR_PTR, CY_GET_REG8(USBFS_1_SIE_EP_INT_SR_PTR)
 533:.\Generated_Source\PSoC5/USBFS_1_episr.c ****                                                                         & (uint8)~USBFS_1_SIE_EP_IN
 534:.\Generated_Source\PSoC5/USBFS_1_episr.c **** 
 535:.\Generated_Source\PSoC5/USBFS_1_episr.c ****         #if (defined(USBFS_1_ENABLE_MIDI_STREAMING) && !defined(USBFS_1_MAIN_SERVICE_MIDI_OUT) && \
 536:.\Generated_Source\PSoC5/USBFS_1_episr.c ****                      USBFS_1_ISR_SERVICE_MIDI_OUT)
 537:.\Generated_Source\PSoC5/USBFS_1_episr.c ****             if(USBFS_1_midi_out_ep == USBFS_1_EP8)
ARM GAS  C:\Users\JohnP\AppData\Local\Temp\ccpbDBmo.s 			page 12


 538:.\Generated_Source\PSoC5/USBFS_1_episr.c ****             {
 539:.\Generated_Source\PSoC5/USBFS_1_episr.c ****                 USBFS_1_MIDI_OUT_EP_Service();
 540:.\Generated_Source\PSoC5/USBFS_1_episr.c ****             }
 541:.\Generated_Source\PSoC5/USBFS_1_episr.c ****         #endif /*  USBFS_1_ISR_SERVICE_MIDI_OUT */
 542:.\Generated_Source\PSoC5/USBFS_1_episr.c **** 
 543:.\Generated_Source\PSoC5/USBFS_1_episr.c ****         /* `#START EP8_END_USER_CODE` Place your code here */
 544:.\Generated_Source\PSoC5/USBFS_1_episr.c **** 
 545:.\Generated_Source\PSoC5/USBFS_1_episr.c ****         /* `#END` */
 546:.\Generated_Source\PSoC5/USBFS_1_episr.c **** 
 547:.\Generated_Source\PSoC5/USBFS_1_episr.c ****         #if (defined(USBFS_1_ENABLE_MIDI_STREAMING) && !defined(USBFS_1_MAIN_SERVICE_MIDI_OUT) && \
 548:.\Generated_Source\PSoC5/USBFS_1_episr.c ****                      USBFS_1_ISR_SERVICE_MIDI_OUT && CY_PSOC3)
 549:.\Generated_Source\PSoC5/USBFS_1_episr.c ****             EA = int_en;
 550:.\Generated_Source\PSoC5/USBFS_1_episr.c ****         #endif /* CY_PSOC3 & USBFS_1_ISR_SERVICE_MIDI_OUT  */
 551:.\Generated_Source\PSoC5/USBFS_1_episr.c ****     }
 552:.\Generated_Source\PSoC5/USBFS_1_episr.c **** 
 553:.\Generated_Source\PSoC5/USBFS_1_episr.c **** #endif   /*  USBFS_1_EP8_ISR_REMOVE */
 554:.\Generated_Source\PSoC5/USBFS_1_episr.c **** 
 555:.\Generated_Source\PSoC5/USBFS_1_episr.c **** 
 556:.\Generated_Source\PSoC5/USBFS_1_episr.c **** /*******************************************************************************
 557:.\Generated_Source\PSoC5/USBFS_1_episr.c **** * Function Name: USBFS_1_SOF_ISR
 558:.\Generated_Source\PSoC5/USBFS_1_episr.c **** ********************************************************************************
 559:.\Generated_Source\PSoC5/USBFS_1_episr.c **** *
 560:.\Generated_Source\PSoC5/USBFS_1_episr.c **** * Summary:
 561:.\Generated_Source\PSoC5/USBFS_1_episr.c **** *  Start of Frame Interrupt Service Routine
 562:.\Generated_Source\PSoC5/USBFS_1_episr.c **** *
 563:.\Generated_Source\PSoC5/USBFS_1_episr.c **** * Parameters:
 564:.\Generated_Source\PSoC5/USBFS_1_episr.c **** *  None.
 565:.\Generated_Source\PSoC5/USBFS_1_episr.c **** *
 566:.\Generated_Source\PSoC5/USBFS_1_episr.c **** * Return:
 567:.\Generated_Source\PSoC5/USBFS_1_episr.c **** *  None.
 568:.\Generated_Source\PSoC5/USBFS_1_episr.c **** *
 569:.\Generated_Source\PSoC5/USBFS_1_episr.c **** *******************************************************************************/
 570:.\Generated_Source\PSoC5/USBFS_1_episr.c **** CY_ISR(USBFS_1_SOF_ISR)
 571:.\Generated_Source\PSoC5/USBFS_1_episr.c **** {
  91              		.loc 1 571 0
  92              		.cfi_startproc
  93              		@ args = 0, pretend = 0, frame = 0
  94              		@ frame_needed = 1, uses_anonymous_args = 0
  95              		@ link register save eliminated.
  96 0000 80B4     		push	{r7}
  97              		.cfi_def_cfa_offset 4
  98              		.cfi_offset 7, -4
  99 0002 00AF     		add	r7, sp, #0
 100              		.cfi_def_cfa_register 7
 572:.\Generated_Source\PSoC5/USBFS_1_episr.c ****     /* `#START SOF_USER_CODE` Place your code here */
 573:.\Generated_Source\PSoC5/USBFS_1_episr.c **** 
 574:.\Generated_Source\PSoC5/USBFS_1_episr.c ****     /* `#END` */
 575:.\Generated_Source\PSoC5/USBFS_1_episr.c **** }
 101              		.loc 1 575 0
 102 0004 BD46     		mov	sp, r7
 103              		@ sp needed
 104 0006 5DF8047B 		ldr	r7, [sp], #4
 105 000a 7047     		bx	lr
 106              		.cfi_endproc
 107              	.LFE1:
 108              		.size	USBFS_1_SOF_ISR, .-USBFS_1_SOF_ISR
 109              		.section	.text.USBFS_1_BUS_RESET_ISR,"ax",%progbits
ARM GAS  C:\Users\JohnP\AppData\Local\Temp\ccpbDBmo.s 			page 13


 110              		.align	2
 111              		.global	USBFS_1_BUS_RESET_ISR
 112              		.thumb
 113              		.thumb_func
 114              		.type	USBFS_1_BUS_RESET_ISR, %function
 115              	USBFS_1_BUS_RESET_ISR:
 116              	.LFB2:
 576:.\Generated_Source\PSoC5/USBFS_1_episr.c **** 
 577:.\Generated_Source\PSoC5/USBFS_1_episr.c **** 
 578:.\Generated_Source\PSoC5/USBFS_1_episr.c **** /*******************************************************************************
 579:.\Generated_Source\PSoC5/USBFS_1_episr.c **** * Function Name: USBFS_1_BUS_RESET_ISR
 580:.\Generated_Source\PSoC5/USBFS_1_episr.c **** ********************************************************************************
 581:.\Generated_Source\PSoC5/USBFS_1_episr.c **** *
 582:.\Generated_Source\PSoC5/USBFS_1_episr.c **** * Summary:
 583:.\Generated_Source\PSoC5/USBFS_1_episr.c **** *  USB Bus Reset Interrupt Service Routine.  Calls _Start with the same
 584:.\Generated_Source\PSoC5/USBFS_1_episr.c **** *  parameters as the last USER call to _Start
 585:.\Generated_Source\PSoC5/USBFS_1_episr.c **** *
 586:.\Generated_Source\PSoC5/USBFS_1_episr.c **** * Parameters:
 587:.\Generated_Source\PSoC5/USBFS_1_episr.c **** *  None.
 588:.\Generated_Source\PSoC5/USBFS_1_episr.c **** *
 589:.\Generated_Source\PSoC5/USBFS_1_episr.c **** * Return:
 590:.\Generated_Source\PSoC5/USBFS_1_episr.c **** *  None.
 591:.\Generated_Source\PSoC5/USBFS_1_episr.c **** *
 592:.\Generated_Source\PSoC5/USBFS_1_episr.c **** *******************************************************************************/
 593:.\Generated_Source\PSoC5/USBFS_1_episr.c **** CY_ISR(USBFS_1_BUS_RESET_ISR)
 594:.\Generated_Source\PSoC5/USBFS_1_episr.c **** {
 117              		.loc 1 594 0
 118              		.cfi_startproc
 119              		@ args = 0, pretend = 0, frame = 0
 120              		@ frame_needed = 1, uses_anonymous_args = 0
 121 0000 80B5     		push	{r7, lr}
 122              		.cfi_def_cfa_offset 8
 123              		.cfi_offset 7, -8
 124              		.cfi_offset 14, -4
 125 0002 00AF     		add	r7, sp, #0
 126              		.cfi_def_cfa_register 7
 595:.\Generated_Source\PSoC5/USBFS_1_episr.c ****     /* `#START BUS_RESET_USER_CODE` Place your code here */
 596:.\Generated_Source\PSoC5/USBFS_1_episr.c **** 
 597:.\Generated_Source\PSoC5/USBFS_1_episr.c ****     /* `#END` */
 598:.\Generated_Source\PSoC5/USBFS_1_episr.c **** 
 599:.\Generated_Source\PSoC5/USBFS_1_episr.c ****     USBFS_1_ReInitComponent();
 127              		.loc 1 599 0
 128 0004 FFF7FEFF 		bl	USBFS_1_ReInitComponent
 600:.\Generated_Source\PSoC5/USBFS_1_episr.c **** }
 129              		.loc 1 600 0
 130 0008 80BD     		pop	{r7, pc}
 131              		.cfi_endproc
 132              	.LFE2:
 133              		.size	USBFS_1_BUS_RESET_ISR, .-USBFS_1_BUS_RESET_ISR
 134 000a 00BF     		.text
 135              	.Letext0:
 136              		.file 2 ".\\Generated_Source\\PSoC5\\cytypes.h"
 137              		.file 3 ".\\Generated_Source\\PSoC5\\USBFS_1.h"
 138              		.file 4 ".\\Generated_Source\\PSoC5\\USBFS_1_pvt.h"